

Microchip Technology PIC LITE Macro Assembler V1.33 build 59893 
                                                                                               Tue Nov 30 21:48:50 2021

Microchip Technology Omniscient Code Generator (Lite mode) build 59893
     1                           	processor	16F877A
     2                           	opt	pw 120
     3                           	opt	lm
     4                           	psect	idataBANK1,global,class=CODE,delta=2
     5                           	psect	strings,global,class=STRING,delta=2
     6                           	psect	cinit,global,class=CODE,merge=1,delta=2
     7                           	psect	bssBANK0,global,class=BANK0,space=1,delta=1
     8                           	psect	bssBANK1,global,class=BANK1,space=1,delta=1
     9                           	psect	dataBANK1,global,class=BANK1,space=1,delta=1
    10                           	psect	clrtext,global,class=CODE,delta=2
    11                           	psect	cstackBANK3,global,class=BANK3,space=1,delta=1
    12                           	psect	cstackBANK1,global,class=BANK1,space=1,delta=1
    13                           	psect	cstackCOMMON,global,class=COMMON,space=1,delta=1
    14                           	psect	cstackBANK0,global,class=BANK0,space=1,delta=1
    15                           	psect	maintext,global,class=CODE,split=1,delta=2
    16                           	psect	text1,local,class=CODE,merge=1,delta=2
    17                           	psect	text2,local,class=CODE,merge=1,delta=2
    18                           	psect	text3,local,class=CODE,merge=1,delta=2
    19                           	psect	text4,local,class=CODE,merge=1,delta=2
    20                           	psect	text5,local,class=CODE,merge=1,delta=2
    21                           	psect	text6,local,class=CODE,merge=1,delta=2
    22                           	psect	text7,local,class=CODE,merge=1,delta=2
    23                           	psect	text8,local,class=CODE,merge=1,delta=2
    24                           	psect	text9,local,class=CODE,merge=1,delta=2
    25                           	psect	text10,local,class=CODE,merge=1,delta=2
    26                           	psect	text11,local,class=CODE,merge=1,delta=2
    27                           	psect	text12,local,class=CODE,merge=1,delta=2
    28                           	psect	text13,local,class=CODE,merge=1,delta=2
    29                           	psect	text14,local,class=CODE,merge=1,delta=2
    30                           	psect	text15,local,class=CODE,merge=1,delta=2
    31                           	psect	text16,local,class=CODE,merge=1,delta=2
    32                           	psect	text17,local,class=CODE,merge=1,delta=2
    33                           	psect	text18,local,class=CODE,merge=1,delta=2
    34                           	psect	text19,local,class=CODE,merge=1,delta=2
    35                           	psect	text20,local,class=CODE,merge=1,delta=2
    36                           	psect	text21,local,class=CODE,merge=1,delta=2
    37                           	psect	text22,local,class=CODE,merge=1,delta=2
    38                           	psect	text23,local,class=CODE,merge=1,delta=2
    39                           	psect	intentry,global,class=CODE,delta=2
    40                           	psect	text24,local,class=CODE,merge=1,delta=2
    41                           	psect	text25,local,class=CODE,merge=1,delta=2
    42                           	psect	text26,local,class=CODE,merge=1,delta=2
    43                           	psect	text27,local,class=CODE,merge=1,delta=2
    44                           	psect	text28,local,class=CODE,merge=1,delta=2
    45                           	psect	text29,local,class=CODE,merge=1,delta=2
    46                           	psect	text30,local,class=CODE,merge=1,delta=2
    47                           	psect	text31,local,class=CODE,merge=1,delta=2
    48                           	psect	text32,local,class=CODE,merge=1,delta=2
    49                           	psect	text33,local,class=CODE,merge=1,delta=2
    50                           	psect	text34,local,class=CODE,merge=1,delta=2
    51                           	psect	text35,local,class=CODE,merge=1,delta=2
    52                           	psect	text36,local,class=CODE,merge=1,delta=2
    53                           	psect	text37,local,class=CODE,merge=1,delta=2
    54                           	psect	text38,local,class=CODE,merge=1,delta=2
    55                           	psect	text39,local,class=CODE,merge=1,delta=2
    56                           	psect	text40,local,class=CODE,merge=1,delta=2
    57                           	psect	text41,local,class=CODE,merge=1,delta=2
    58                           	psect	functab,global,reloc=256,class=CODE,delta=2
    59                           	dabs	1,0x7E,2
    60  0000                     	;# 
    61  0001                     	;# 
    62  0002                     	;# 
    63  0003                     	;# 
    64  0004                     	;# 
    65  0005                     	;# 
    66  0006                     	;# 
    67  0007                     	;# 
    68  0008                     	;# 
    69  0009                     	;# 
    70  000A                     	;# 
    71  000B                     	;# 
    72  000C                     	;# 
    73  000D                     	;# 
    74  000E                     	;# 
    75  000E                     	;# 
    76  000F                     	;# 
    77  0010                     	;# 
    78  0011                     	;# 
    79  0012                     	;# 
    80  0013                     	;# 
    81  0014                     	;# 
    82  0015                     	;# 
    83  0015                     	;# 
    84  0016                     	;# 
    85  0017                     	;# 
    86  0018                     	;# 
    87  0019                     	;# 
    88  001A                     	;# 
    89  001B                     	;# 
    90  001B                     	;# 
    91  001C                     	;# 
    92  001D                     	;# 
    93  001E                     	;# 
    94  001F                     	;# 
    95  0081                     	;# 
    96  0085                     	;# 
    97  0086                     	;# 
    98  0087                     	;# 
    99  0088                     	;# 
   100  0089                     	;# 
   101  008C                     	;# 
   102  008D                     	;# 
   103  008E                     	;# 
   104  0091                     	;# 
   105  0092                     	;# 
   106  0093                     	;# 
   107  0094                     	;# 
   108  0098                     	;# 
   109  0099                     	;# 
   110  009C                     	;# 
   111  009D                     	;# 
   112  009E                     	;# 
   113  009F                     	;# 
   114  010C                     	;# 
   115  010D                     	;# 
   116  010E                     	;# 
   117  010F                     	;# 
   118  018C                     	;# 
   119  018D                     	;# 
   120  0000                     	;# 
   121  0001                     	;# 
   122  0002                     	;# 
   123  0003                     	;# 
   124  0004                     	;# 
   125  0005                     	;# 
   126  0006                     	;# 
   127  0007                     	;# 
   128  0008                     	;# 
   129  0009                     	;# 
   130  000A                     	;# 
   131  000B                     	;# 
   132  000C                     	;# 
   133  000D                     	;# 
   134  000E                     	;# 
   135  000E                     	;# 
   136  000F                     	;# 
   137  0010                     	;# 
   138  0011                     	;# 
   139  0012                     	;# 
   140  0013                     	;# 
   141  0014                     	;# 
   142  0015                     	;# 
   143  0015                     	;# 
   144  0016                     	;# 
   145  0017                     	;# 
   146  0018                     	;# 
   147  0019                     	;# 
   148  001A                     	;# 
   149  001B                     	;# 
   150  001B                     	;# 
   151  001C                     	;# 
   152  001D                     	;# 
   153  001E                     	;# 
   154  001F                     	;# 
   155  0081                     	;# 
   156  0085                     	;# 
   157  0086                     	;# 
   158  0087                     	;# 
   159  0088                     	;# 
   160  0089                     	;# 
   161  008C                     	;# 
   162  008D                     	;# 
   163  008E                     	;# 
   164  0091                     	;# 
   165  0092                     	;# 
   166  0093                     	;# 
   167  0094                     	;# 
   168  0098                     	;# 
   169  0099                     	;# 
   170  009C                     	;# 
   171  009D                     	;# 
   172  009E                     	;# 
   173  009F                     	;# 
   174  010C                     	;# 
   175  010D                     	;# 
   176  010E                     	;# 
   177  010F                     	;# 
   178  018C                     	;# 
   179  018D                     	;# 
   180  0000                     	;# 
   181  0001                     	;# 
   182  0002                     	;# 
   183  0003                     	;# 
   184  0004                     	;# 
   185  0005                     	;# 
   186  0006                     	;# 
   187  0007                     	;# 
   188  0008                     	;# 
   189  0009                     	;# 
   190  000A                     	;# 
   191  000B                     	;# 
   192  000C                     	;# 
   193  000D                     	;# 
   194  000E                     	;# 
   195  000E                     	;# 
   196  000F                     	;# 
   197  0010                     	;# 
   198  0011                     	;# 
   199  0012                     	;# 
   200  0013                     	;# 
   201  0014                     	;# 
   202  0015                     	;# 
   203  0015                     	;# 
   204  0016                     	;# 
   205  0017                     	;# 
   206  0018                     	;# 
   207  0019                     	;# 
   208  001A                     	;# 
   209  001B                     	;# 
   210  001B                     	;# 
   211  001C                     	;# 
   212  001D                     	;# 
   213  001E                     	;# 
   214  001F                     	;# 
   215  0081                     	;# 
   216  0085                     	;# 
   217  0086                     	;# 
   218  0087                     	;# 
   219  0088                     	;# 
   220  0089                     	;# 
   221  008C                     	;# 
   222  008D                     	;# 
   223  008E                     	;# 
   224  0091                     	;# 
   225  0092                     	;# 
   226  0093                     	;# 
   227  0094                     	;# 
   228  0098                     	;# 
   229  0099                     	;# 
   230  009C                     	;# 
   231  009D                     	;# 
   232  009E                     	;# 
   233  009F                     	;# 
   234  010C                     	;# 
   235  010D                     	;# 
   236  010E                     	;# 
   237  010F                     	;# 
   238  018C                     	;# 
   239  018D                     	;# 
   240  0000                     	;# 
   241  0001                     	;# 
   242  0002                     	;# 
   243  0003                     	;# 
   244  0004                     	;# 
   245  0005                     	;# 
   246  0006                     	;# 
   247  0007                     	;# 
   248  0008                     	;# 
   249  0009                     	;# 
   250  000A                     	;# 
   251  000B                     	;# 
   252  000C                     	;# 
   253  000D                     	;# 
   254  000E                     	;# 
   255  000E                     	;# 
   256  000F                     	;# 
   257  0010                     	;# 
   258  0011                     	;# 
   259  0012                     	;# 
   260  0013                     	;# 
   261  0014                     	;# 
   262  0015                     	;# 
   263  0015                     	;# 
   264  0016                     	;# 
   265  0017                     	;# 
   266  0018                     	;# 
   267  0019                     	;# 
   268  001A                     	;# 
   269  001B                     	;# 
   270  001B                     	;# 
   271  001C                     	;# 
   272  001D                     	;# 
   273  001E                     	;# 
   274  001F                     	;# 
   275  0081                     	;# 
   276  0085                     	;# 
   277  0086                     	;# 
   278  0087                     	;# 
   279  0088                     	;# 
   280  0089                     	;# 
   281  008C                     	;# 
   282  008D                     	;# 
   283  008E                     	;# 
   284  0091                     	;# 
   285  0092                     	;# 
   286  0093                     	;# 
   287  0094                     	;# 
   288  0098                     	;# 
   289  0099                     	;# 
   290  009C                     	;# 
   291  009D                     	;# 
   292  009E                     	;# 
   293  009F                     	;# 
   294  010C                     	;# 
   295  010D                     	;# 
   296  010E                     	;# 
   297  010F                     	;# 
   298  018C                     	;# 
   299  018D                     	;# 
   300  0000                     	;# 
   301  0001                     	;# 
   302  0002                     	;# 
   303  0003                     	;# 
   304  0004                     	;# 
   305  0005                     	;# 
   306  0006                     	;# 
   307  0007                     	;# 
   308  0008                     	;# 
   309  0009                     	;# 
   310  000A                     	;# 
   311  000B                     	;# 
   312  000C                     	;# 
   313  000D                     	;# 
   314  000E                     	;# 
   315  000E                     	;# 
   316  000F                     	;# 
   317  0010                     	;# 
   318  0011                     	;# 
   319  0012                     	;# 
   320  0013                     	;# 
   321  0014                     	;# 
   322  0015                     	;# 
   323  0015                     	;# 
   324  0016                     	;# 
   325  0017                     	;# 
   326  0018                     	;# 
   327  0019                     	;# 
   328  001A                     	;# 
   329  001B                     	;# 
   330  001B                     	;# 
   331  001C                     	;# 
   332  001D                     	;# 
   333  001E                     	;# 
   334  001F                     	;# 
   335  0081                     	;# 
   336  0085                     	;# 
   337  0086                     	;# 
   338  0087                     	;# 
   339  0088                     	;# 
   340  0089                     	;# 
   341  008C                     	;# 
   342  008D                     	;# 
   343  008E                     	;# 
   344  0091                     	;# 
   345  0092                     	;# 
   346  0093                     	;# 
   347  0094                     	;# 
   348  0098                     	;# 
   349  0099                     	;# 
   350  009C                     	;# 
   351  009D                     	;# 
   352  009E                     	;# 
   353  009F                     	;# 
   354  010C                     	;# 
   355  010D                     	;# 
   356  010E                     	;# 
   357  010F                     	;# 
   358  018C                     	;# 
   359  018D                     	;# 
   360  0000                     	;# 
   361  0001                     	;# 
   362  0002                     	;# 
   363  0003                     	;# 
   364  0004                     	;# 
   365  0005                     	;# 
   366  0006                     	;# 
   367  0007                     	;# 
   368  0008                     	;# 
   369  0009                     	;# 
   370  000A                     	;# 
   371  000B                     	;# 
   372  000C                     	;# 
   373  000D                     	;# 
   374  000E                     	;# 
   375  000E                     	;# 
   376  000F                     	;# 
   377  0010                     	;# 
   378  0011                     	;# 
   379  0012                     	;# 
   380  0013                     	;# 
   381  0014                     	;# 
   382  0015                     	;# 
   383  0015                     	;# 
   384  0016                     	;# 
   385  0017                     	;# 
   386  0018                     	;# 
   387  0019                     	;# 
   388  001A                     	;# 
   389  001B                     	;# 
   390  001B                     	;# 
   391  001C                     	;# 
   392  001D                     	;# 
   393  001E                     	;# 
   394  001F                     	;# 
   395  0081                     	;# 
   396  0085                     	;# 
   397  0086                     	;# 
   398  0087                     	;# 
   399  0088                     	;# 
   400  0089                     	;# 
   401  008C                     	;# 
   402  008D                     	;# 
   403  008E                     	;# 
   404  0091                     	;# 
   405  0092                     	;# 
   406  0093                     	;# 
   407  0094                     	;# 
   408  0098                     	;# 
   409  0099                     	;# 
   410  009C                     	;# 
   411  009D                     	;# 
   412  009E                     	;# 
   413  009F                     	;# 
   414  010C                     	;# 
   415  010D                     	;# 
   416  010E                     	;# 
   417  010F                     	;# 
   418  018C                     	;# 
   419  018D                     	;# 
   420  0000                     	;# 
   421  0001                     	;# 
   422  0002                     	;# 
   423  0003                     	;# 
   424  0004                     	;# 
   425  0005                     	;# 
   426  0006                     	;# 
   427  0007                     	;# 
   428  0008                     	;# 
   429  0009                     	;# 
   430  000A                     	;# 
   431  000B                     	;# 
   432  000C                     	;# 
   433  000D                     	;# 
   434  000E                     	;# 
   435  000E                     	;# 
   436  000F                     	;# 
   437  0010                     	;# 
   438  0011                     	;# 
   439  0012                     	;# 
   440  0013                     	;# 
   441  0014                     	;# 
   442  0015                     	;# 
   443  0015                     	;# 
   444  0016                     	;# 
   445  0017                     	;# 
   446  0018                     	;# 
   447  0019                     	;# 
   448  001A                     	;# 
   449  001B                     	;# 
   450  001B                     	;# 
   451  001C                     	;# 
   452  001D                     	;# 
   453  001E                     	;# 
   454  001F                     	;# 
   455  0081                     	;# 
   456  0085                     	;# 
   457  0086                     	;# 
   458  0087                     	;# 
   459  0088                     	;# 
   460  0089                     	;# 
   461  008C                     	;# 
   462  008D                     	;# 
   463  008E                     	;# 
   464  0091                     	;# 
   465  0092                     	;# 
   466  0093                     	;# 
   467  0094                     	;# 
   468  0098                     	;# 
   469  0099                     	;# 
   470  009C                     	;# 
   471  009D                     	;# 
   472  009E                     	;# 
   473  009F                     	;# 
   474  010C                     	;# 
   475  010D                     	;# 
   476  010E                     	;# 
   477  010F                     	;# 
   478  018C                     	;# 
   479  018D                     	;# 
   480  0000                     	;# 
   481  0001                     	;# 
   482  0002                     	;# 
   483  0003                     	;# 
   484  0004                     	;# 
   485  0005                     	;# 
   486  0006                     	;# 
   487  0007                     	;# 
   488  0008                     	;# 
   489  0009                     	;# 
   490  000A                     	;# 
   491  000B                     	;# 
   492  000C                     	;# 
   493  000D                     	;# 
   494  000E                     	;# 
   495  000E                     	;# 
   496  000F                     	;# 
   497  0010                     	;# 
   498  0011                     	;# 
   499  0012                     	;# 
   500  0013                     	;# 
   501  0014                     	;# 
   502  0015                     	;# 
   503  0015                     	;# 
   504  0016                     	;# 
   505  0017                     	;# 
   506  0018                     	;# 
   507  0019                     	;# 
   508  001A                     	;# 
   509  001B                     	;# 
   510  001B                     	;# 
   511  001C                     	;# 
   512  001D                     	;# 
   513  001E                     	;# 
   514  001F                     	;# 
   515  0081                     	;# 
   516  0085                     	;# 
   517  0086                     	;# 
   518  0087                     	;# 
   519  0088                     	;# 
   520  0089                     	;# 
   521  008C                     	;# 
   522  008D                     	;# 
   523  008E                     	;# 
   524  0091                     	;# 
   525  0092                     	;# 
   526  0093                     	;# 
   527  0094                     	;# 
   528  0098                     	;# 
   529  0099                     	;# 
   530  009C                     	;# 
   531  009D                     	;# 
   532  009E                     	;# 
   533  009F                     	;# 
   534  010C                     	;# 
   535  010D                     	;# 
   536  010E                     	;# 
   537  010F                     	;# 
   538  018C                     	;# 
   539  018D                     	;# 
   540  0000                     	;# 
   541  0001                     	;# 
   542  0002                     	;# 
   543  0003                     	;# 
   544  0004                     	;# 
   545  0005                     	;# 
   546  0006                     	;# 
   547  0007                     	;# 
   548  0008                     	;# 
   549  0009                     	;# 
   550  000A                     	;# 
   551  000B                     	;# 
   552  000C                     	;# 
   553  000D                     	;# 
   554  000E                     	;# 
   555  000E                     	;# 
   556  000F                     	;# 
   557  0010                     	;# 
   558  0011                     	;# 
   559  0012                     	;# 
   560  0013                     	;# 
   561  0014                     	;# 
   562  0015                     	;# 
   563  0015                     	;# 
   564  0016                     	;# 
   565  0017                     	;# 
   566  0018                     	;# 
   567  0019                     	;# 
   568  001A                     	;# 
   569  001B                     	;# 
   570  001B                     	;# 
   571  001C                     	;# 
   572  001D                     	;# 
   573  001E                     	;# 
   574  001F                     	;# 
   575  0081                     	;# 
   576  0085                     	;# 
   577  0086                     	;# 
   578  0087                     	;# 
   579  0088                     	;# 
   580  0089                     	;# 
   581  008C                     	;# 
   582  008D                     	;# 
   583  008E                     	;# 
   584  0091                     	;# 
   585  0092                     	;# 
   586  0093                     	;# 
   587  0094                     	;# 
   588  0098                     	;# 
   589  0099                     	;# 
   590  009C                     	;# 
   591  009D                     	;# 
   592  009E                     	;# 
   593  009F                     	;# 
   594  010C                     	;# 
   595  010D                     	;# 
   596  010E                     	;# 
   597  010F                     	;# 
   598  018C                     	;# 
   599  018D                     	;# 
   600                           
   601                           	psect	idataBANK1
   602  1FFD                     __pidataBANK1:	
   603                           
   604                           ;initializer for _requiredRpm
   605  1FFD  3440               	retlw	64
   606  1FFE  349C               	retlw	156
   607  1FFF  3445               	retlw	69
   608                           
   609                           	psect	strings
   610  0800                     __pstrings:	
   611  0800                     stringtab:	
   612  0800                     __stringtab:	
   613                           
   614                           ;	String table - string pointers are 1 byte each
   615  0800  1BFF               	btfsc	btemp+1,7
   616  0801  280A               	ljmp	stringcode
   617  0802  1383               	bcf	3,7
   618  0803  187F               	btfsc	btemp+1,0
   619  0804  1783               	bsf	3,7
   620  0805  0800               	movf	0,w
   621  0806  0A84               	incf	4,f
   622  0807  1903               	skipnz
   623  0808  0AFF               	incf	btemp+1,f
   624  0809  0008               	return
   625  080A                     stringcode:	
   626  080A                     stringdir:	
   627  080A  3008               	movlw	high stringdir
   628  080B  008A               	movwf	10
   629  080C  0804               	movf	4,w
   630  080D  0A84               	incf	4,f
   631  080E  0782               	addwf	2,f
   632  080F                     __stringbase:	
   633  080F  3400               	retlw	0
   634  0810                     __end_of__stringtab:	
   635  0810                     _dpowers:	
   636  0810  3401               	retlw	1
   637  0811  3400               	retlw	0
   638  0812  340A               	retlw	10
   639  0813  3400               	retlw	0
   640  0814  3464               	retlw	100
   641  0815  3400               	retlw	0
   642  0816  34E8               	retlw	232
   643  0817  3403               	retlw	3
   644  0818  3410               	retlw	16
   645  0819  3427               	retlw	39
   646  081A                     __end_of_dpowers:	
   647  000E                     _TMR1	set	14
   648  001F                     _ADCON0bits	set	31
   649  001E                     _ADRESH	set	30
   650  0017                     _CCP1CON	set	23
   651  0017                     _CCP1CONbits	set	23
   652  001D                     _CCP2CON	set	29
   653  001D                     _CCP2CONbits	set	29
   654  0015                     _CCPR1L	set	21
   655  001B                     _CCPR2L	set	27
   656  000B                     _INTCONbits	set	11
   657  000C                     _PIR1bits	set	12
   658  000D                     _PIR2bits	set	13
   659  0005                     _PORTA	set	5
   660  0006                     _PORTB	set	6
   661  0006                     _PORTBbits	set	6
   662  0007                     _PORTC	set	7
   663  0008                     _PORTD	set	8
   664  0009                     _PORTE	set	9
   665  0009                     _PORTEbits	set	9
   666  001A                     _RCREG	set	26
   667  0018                     _RCSTAbits	set	24
   668  0013                     _SSPBUF	set	19
   669  0014                     _SSPCONbits	set	20
   670  0010                     _T1CON	set	16
   671  0010                     _T1CONbits	set	16
   672  0012                     _T2CONbits	set	18
   673  0001                     _TMR0	set	1
   674  000F                     _TMR1H	set	15
   675  000E                     _TMR1L	set	14
   676  0019                     _TXREG	set	25
   677  00C1                     _OERR	set	193
   678  009F                     _ADCON1bits	set	159
   679  009E                     _ADRESL	set	158
   680  0081                     _OPTION_REGbits	set	129
   681  008C                     _PIE1bits	set	140
   682  008D                     _PIE2bits	set	141
   683  0092                     _PR2	set	146
   684  0099                     _SPBRG	set	153
   685  0093                     _SSPADD	set	147
   686  0091                     _SSPCON2	set	145
   687  0091                     _SSPCON2bits	set	145
   688  0094                     _SSPSTATbits	set	148
   689  0085                     _TRISA	set	133
   690  0086                     _TRISB	set	134
   691  0087                     _TRISC	set	135
   692  0088                     _TRISD	set	136
   693  0089                     _TRISE	set	137
   694  0098                     _TXSTAbits	set	152
   695  010D                     _EEADR	set	269
   696  010C                     _EEDATA	set	268
   697  018C                     _EECON1bits	set	396
   698  018D                     _EECON2	set	397
   699  081A                     __stringdata:	
   700  081A                     STR_11:	
   701  081A  340A               	retlw	10
   702  081B  340D               	retlw	13
   703  081C  3420               	retlw	32	;' '
   704  081D  342D               	retlw	45	;'-'
   705  081E  342D               	retlw	45	;'-'
   706  081F  342D               	retlw	45	;'-'
   707  0820  342D               	retlw	45	;'-'
   708  0821  342D               	retlw	45	;'-'
   709  0822  342D               	retlw	45	;'-'
   710  0823  342D               	retlw	45	;'-'
   711  0824  3420               	retlw	32	;' '
   712  0825  3445               	retlw	69	;'E'
   713  0826  3453               	retlw	83	;'S'
   714  0827  3454               	retlw	84	;'T'
   715  0828  344F               	retlw	79	;'O'
   716  0829  3455               	retlw	85	;'U'
   717  082A  3452               	retlw	82	;'R'
   718  082B  344F               	retlw	79	;'O'
   719  082C  3420               	retlw	32	;' '
   720  082D  3444               	retlw	68	;'D'
   721  082E  3445               	retlw	69	;'E'
   722  082F  3420               	retlw	32	;' '
   723  0830  3450               	retlw	80	;'P'
   724  0831  3449               	retlw	73	;'I'
   725  0832  344C               	retlw	76	;'L'
   726  0833  3448               	retlw	72	;'H'
   727  0834  3441               	retlw	65	;'A'
   728  0835  3420               	retlw	32	;' '
   729  0836  342D               	retlw	45	;'-'
   730  0837  342D               	retlw	45	;'-'
   731  0838  342D               	retlw	45	;'-'
   732  0839  342D               	retlw	45	;'-'
   733  083A  342D               	retlw	45	;'-'
   734  083B  342D               	retlw	45	;'-'
   735  083C  342D               	retlw	45	;'-'
   736  083D  3420               	retlw	32	;' '
   737  083E  340A               	retlw	10
   738  083F  340D               	retlw	13
   739  0840  3420               	retlw	32	;' '
   740  0841  3400               	retlw	0
   741  0842                     STR_6:	
   742  0842  3449               	retlw	73	;'I'
   743  0843  346E               	retlw	110	;'n'
   744  0844  3469               	retlw	105	;'i'
   745  0845  3463               	retlw	99	;'c'
   746  0846  3469               	retlw	105	;'i'
   747  0847  3461               	retlw	97	;'a'
   748  0848  346C               	retlw	108	;'l'
   749  0849  3469               	retlw	105	;'i'
   750  084A  347A               	retlw	122	;'z'
   751  084B  3461               	retlw	97	;'a'
   752  084C  346E               	retlw	110	;'n'
   753  084D  3464               	retlw	100	;'d'
   754  084E  346F               	retlw	111	;'o'
   755  084F  3420               	retlw	32	;' '
   756  0850  346F               	retlw	111	;'o'
   757  0851  3420               	retlw	32	;' '
   758  0852  3450               	retlw	80	;'P'
   759  0853  3449               	retlw	73	;'I'
   760  0854  3443               	retlw	67	;'C'
   761  0855  3431               	retlw	49	;'1'
   762  0856  3436               	retlw	54	;'6'
   763  0857  3446               	retlw	70	;'F'
   764  0858  3438               	retlw	56	;'8'
   765  0859  3437               	retlw	55	;'7'
   766  085A  3437               	retlw	55	;'7'
   767  085B  3441               	retlw	65	;'A'
   768  085C  340A               	retlw	10
   769  085D  340D               	retlw	13
   770  085E  3400               	retlw	0
   771  085F                     STR_7:	
   772  085F  3455               	retlw	85	;'U'
   773  0860  3453               	retlw	83	;'S'
   774  0861  3441               	retlw	65	;'A'
   775  0862  3452               	retlw	82	;'R'
   776  0863  3454               	retlw	84	;'T'
   777  0864  343A               	retlw	58	;':'
   778  0865  3420               	retlw	32	;' '
   779  0866  3431               	retlw	49	;'1'
   780  0867  3431               	retlw	49	;'1'
   781  0868  3435               	retlw	53	;'5'
   782  0869  342E               	retlw	46	;'.'
   783  086A  3432               	retlw	50	;'2'
   784  086B  3430               	retlw	48	;'0'
   785  086C  3430               	retlw	48	;'0'
   786  086D  3462               	retlw	98	;'b'
   787  086E  3470               	retlw	112	;'p'
   788  086F  3473               	retlw	115	;'s'
   789  0870  340A               	retlw	10
   790  0871  340D               	retlw	13
   791  0872  3400               	retlw	0
   792  0873                     STR_8:	
   793  0873  3449               	retlw	73	;'I'
   794  0874  346E               	retlw	110	;'n'
   795  0875  3469               	retlw	105	;'i'
   796  0876  3463               	retlw	99	;'c'
   797  0877  3469               	retlw	105	;'i'
   798  0878  3461               	retlw	97	;'a'
   799  0879  346C               	retlw	108	;'l'
   800  087A  3469               	retlw	105	;'i'
   801  087B  347A               	retlw	122	;'z'
   802  087C  3461               	retlw	97	;'a'
   803  087D  346E               	retlw	110	;'n'
   804  087E  3464               	retlw	100	;'d'
   805  087F  346F               	retlw	111	;'o'
   806  0880  342E               	retlw	46	;'.'
   807  0881  342E               	retlw	46	;'.'
   808  0882  342E               	retlw	46	;'.'
   809  0883  3400               	retlw	0
   810  0884                     STR_9:	
   811  0884  3425               	retlw	37	;'%'
   812  0885  3430               	retlw	48	;'0'
   813  0886  3434               	retlw	52	;'4'
   814  0887  3464               	retlw	100	;'d'
   815  0888  3400               	retlw	0
   816  0889                     STR_1:	
   817  0889  3431               	retlw	49	;'1'
   818  088A  3400               	retlw	0
   819  088B                     STR_2:	
   820  088B  3432               	retlw	50	;'2'
   821  088C  3400               	retlw	0
   822  088D                     STR_3:	
   823  088D  3433               	retlw	51	;'3'
   824  088E  3400               	retlw	0
   825  088F                     STR_4:	
   826  088F  3434               	retlw	52	;'4'
   827  0890  3400               	retlw	0
   828  0891                     STR_5:	
   829  0891  3435               	retlw	53	;'5'
   830  0892  3400               	retlw	0
   831  0893                     __end_of__stringdata:	
   832                           
   833                           ; #config settings
   834  0000                     
   835                           	psect	cinit
   836  0015                     start_initialization:	
   837  0015                     __initialization:	
   838                           
   839                           ; Clear objects allocated to BANK0
   840  0015  1383               	bcf	3,7	;select IRP bank0
   841  0016  3063               	movlw	low __pbssBANK0
   842  0017  0084               	movwf	4
   843  0018  306E               	movlw	low (__pbssBANK0+11)
   844  0019  160A  118A  200E  120A  118A  	fcall	clear_ram0
   845                           
   846                           ; Clear objects allocated to BANK1
   847  001E  30BB               	movlw	low __pbssBANK1
   848  001F  0084               	movwf	4
   849  0020  30D4               	movlw	low (__pbssBANK1+25)
   850  0021  160A  118A  200E  120A  118A  	fcall	clear_ram0
   851                           
   852                           ; Initialize objects allocated to BANK1
   853  0026  1683               	bsf	3,5	;RP0=1, select bank1
   854  0027  1303               	bcf	3,6	;RP1=0, select bank1
   855  0028  160A  158A  27FD  120A  118A  	fcall	__pidataBANK1	;fetch initializer
   856  002D  00D4               	movwf	__pdataBANK1& (0+127)
   857  002E  160A  158A  27FE  120A  118A  	fcall	__pidataBANK1+1	;fetch initializer
   858  0033  00D5               	movwf	(__pdataBANK1+1)& (0+127)
   859  0034  160A  158A  27FF   	fcall	__pidataBANK1+2	;fetch initializer
   860  0037  00D6               	movwf	(__pdataBANK1+2)& (0+127)
   861  0038                     end_of_initialization:	
   862                           ;End of C runtime variable initialization code
   863                           
   864  0038                     __end_of__initialization:	
   865  0038  0183               	clrf	3
   866  0039  160A  118A  2E18   	ljmp	_main	;jump to C main() function
   867                           
   868                           	psect	bssBANK0
   869  0063                     __pbssBANK0:	
   870  0063                     _temp_lida:	
   871  0063                     	ds	3
   872  0066                     _ADCResult:	
   873  0066                     	ds	2
   874  0068                     _contador_rb6:	
   875  0068                     	ds	2
   876  006A                     _status:	
   877  006A                     	ds	2
   878  006C                     _tempo_rb6:	
   879  006C                     	ds	2
   880                           
   881                           	psect	bssBANK1
   882  00BB                     __pbssBANK1:	
   883  00BB                     _p1:	
   884  00BB                     	ds	3
   885  00BE                     _p2:	
   886  00BE                     	ds	3
   887  00C1                     _p3:	
   888  00C1                     	ds	3
   889  00C4                     _contagens_tm0:	
   890  00C4                     	ds	2
   891  00C6                     _pulsos:	
   892  00C6                     	ds	2
   893  00C8                     _rpm:	
   894  00C8                     	ds	2
   895  00CA                     _display:	
   896  00CA                     	ds	10
   897                           
   898                           	psect	dataBANK1
   899  00D4                     __pdataBANK1:	
   900  00D4                     _requiredRpm:	
   901  00D4                     	ds	3
   902                           
   903                           	psect	clrtext
   904  100E                     clear_ram0:	
   905                           ;	Called with FSR containing the base address, and
   906                           ;	W with the last address+1
   907                           
   908  100E  0064               	clrwdt	;clear the watchdog before getting into this loop
   909  100F                     clrloop0:	
   910  100F  0180               	clrf	0	;clear RAM location pointed to by FSR
   911  1010  0A84               	incf	4,f	;increment pointer
   912  1011  0604               	xorwf	4,w	;XOR with final address
   913  1012  1903               	btfsc	3,2	;have we reached the end yet?
   914  1013  3400               	retlw	0	;all done for this memory range, return
   915  1014  0604               	xorwf	4,w	;XOR again to restore value
   916  1015  280F               	goto	clrloop0	;do the next byte
   917                           
   918                           	psect	cstackBANK3
   919  0190                     __pcstackBANK3:	
   920  0190                     	ds	1
   921  0191                     ??_TIMER0_Set:	
   922  0191                     ?_PWM_DutyCycle2:	
   923                           ; 0 bytes @ 0x1
   924                           
   925  0191                     ??_TIMER0_Init:	
   926                           ; 0 bytes @ 0x1
   927                           
   928  0191                     ??_ADC_Init:	
   929                           ; 0 bytes @ 0x1
   930                           
   931  0191                     ??_PWM_Init:	
   932                           ; 0 bytes @ 0x1
   933                           
   934  0191                     ?_LCD_Cursor:	
   935                           ; 0 bytes @ 0x1
   936                           
   937  0191                     ?_PWM_DutyCycle1:	
   938                           ; 0 bytes @ 0x1
   939                           
   940  0191                     ??_isdigit:	
   941                           ; 0 bytes @ 0x1
   942                           
   943  0191                     ?_putch:	
   944                           ; 0 bytes @ 0x1
   945                           
   946  0191                     ??_USART_WriteChar:	
   947                           ; 0 bytes @ 0x1
   948                           
   949  0191                     ??_LCD_WriteCmd:	
   950                           ; 0 bytes @ 0x1
   951                           
   952  0191                     ??_LCD_WriteData:	
   953                           ; 0 bytes @ 0x1
   954                           
   955  0191                     ?___wmul:	
   956                           ; 0 bytes @ 0x1
   957                           
   958  0191                     ?___lwdiv:	
   959                           ; 2 bytes @ 0x1
   960                           
   961  0191                     ?___aldiv:	
   962                           ; 2 bytes @ 0x1
   963                           
   964  0191                     USART_WriteChar@byte:	
   965                           ; 4 bytes @ 0x1
   966                           
   967  0191                     TIMER0_Set@contagens:	
   968                           ; 1 bytes @ 0x1
   969                           
   970  0191                     LCD_Cursor@Col:	
   971                           ; 1 bytes @ 0x1
   972                           
   973  0191                     _isdigit$1415:	
   974                           ; 1 bytes @ 0x1
   975                           
   976  0191                     putch@c:	
   977                           ; 1 bytes @ 0x1
   978                           
   979  0191                     PWM_DutyCycle1@valor:	
   980                           ; 1 bytes @ 0x1
   981                           
   982  0191                     PWM_DutyCycle2@valor:	
   983                           ; 2 bytes @ 0x1
   984                           
   985  0191                     ___wmul@multiplier:	
   986                           ; 2 bytes @ 0x1
   987                           
   988  0191                     ___lwdiv@divisor:	
   989                           ; 2 bytes @ 0x1
   990                           
   991  0191                     ___aldiv@divisor:	
   992                           ; 2 bytes @ 0x1
   993                           
   994                           
   995                           ; 4 bytes @ 0x1
   996  0191                     	ds	1
   997  0192                     ?_USART_WriteString:	
   998  0192                     ??_LCD_Cursor:	
   999                           ; 0 bytes @ 0x2
  1000                           
  1001  0192                     ??_putch:	
  1002                           ; 0 bytes @ 0x2
  1003                           
  1004  0192                     LCD_WriteCmd@Byte:	
  1005                           ; 0 bytes @ 0x2
  1006                           
  1007  0192                     LCD_WriteData@Byte:	
  1008                           ; 1 bytes @ 0x2
  1009                           
  1010  0192                     isdigit@c:	
  1011                           ; 1 bytes @ 0x2
  1012                           
  1013  0192                     USART_WriteString@str:	
  1014                           ; 1 bytes @ 0x2
  1015                           
  1016                           
  1017                           ; 2 bytes @ 0x2
  1018  0192                     	ds	1
  1019  0193                     ??_PWM_DutyCycle2:	
  1020  0193                     ??_LCD_Init:	
  1021                           ; 0 bytes @ 0x3
  1022                           
  1023  0193                     ??_LCD_WriteString:	
  1024                           ; 0 bytes @ 0x3
  1025                           
  1026  0193                     ??_PWM_DutyCycle1:	
  1027                           ; 0 bytes @ 0x3
  1028                           
  1029  0193                     LCD_Cursor@Row:	
  1030                           ; 0 bytes @ 0x3
  1031                           
  1032  0193                     ___wmul@multiplicand:	
  1033                           ; 1 bytes @ 0x3
  1034                           
  1035  0193                     ___lwdiv@dividend:	
  1036                           ; 2 bytes @ 0x3
  1037                           
  1038                           
  1039                           ; 2 bytes @ 0x3
  1040  0193                     	ds	1
  1041  0194                     ??_USART_WriteString:	
  1042  0194                     LCD_WriteString@Str:	
  1043                           ; 0 bytes @ 0x4
  1044                           
  1045                           
  1046                           ; 1 bytes @ 0x4
  1047  0194                     	ds	1
  1048  0195                     ??___wmul:	
  1049  0195                     ??___lwdiv:	
  1050                           ; 0 bytes @ 0x5
  1051                           
  1052  0195                     ___wmul@product:	
  1053                           ; 0 bytes @ 0x5
  1054                           
  1055  0195                     ___aldiv@dividend:	
  1056                           ; 2 bytes @ 0x5
  1057                           
  1058                           
  1059                           ; 4 bytes @ 0x5
  1060  0195                     	ds	1
  1061  0196                     ___lwdiv@counter:	
  1062                           
  1063                           ; 1 bytes @ 0x6
  1064  0196                     	ds	1
  1065  0197                     ___lwdiv@quotient:	
  1066                           
  1067                           ; 2 bytes @ 0x7
  1068  0197                     	ds	2
  1069  0199                     ??___aldiv:	
  1070  0199                     ?___lwmod:	
  1071                           ; 0 bytes @ 0x9
  1072                           
  1073  0199                     ___lwmod@divisor:	
  1074                           ; 2 bytes @ 0x9
  1075                           
  1076                           
  1077                           ; 2 bytes @ 0x9
  1078  0199                     	ds	1
  1079  019A                     ___aldiv@counter:	
  1080                           
  1081                           ; 1 bytes @ 0xA
  1082  019A                     	ds	1
  1083  019B                     ___aldiv@sign:	
  1084  019B                     ___lwmod@dividend:	
  1085                           ; 1 bytes @ 0xB
  1086                           
  1087                           
  1088                           ; 2 bytes @ 0xB
  1089  019B                     	ds	1
  1090  019C                     ___aldiv@quotient:	
  1091                           
  1092                           ; 4 bytes @ 0xC
  1093  019C                     	ds	1
  1094  019D                     ??___lwmod:	
  1095                           
  1096                           ; 0 bytes @ 0xD
  1097  019D                     	ds	1
  1098  019E                     ___lwmod@counter:	
  1099                           
  1100                           ; 1 bytes @ 0xE
  1101  019E                     	ds	1
  1102  019F                     ?__doprnt:	
  1103  019F                     __doprnt@pb:	
  1104                           ; 2 bytes @ 0xF
  1105                           
  1106                           
  1107                           ; 2 bytes @ 0xF
  1108  019F                     	ds	1
  1109  01A0                     ?_USART_Init:	
  1110  01A0                     USART_Init@BaudRate:	
  1111                           ; 0 bytes @ 0x10
  1112                           
  1113                           
  1114                           ; 4 bytes @ 0x10
  1115  01A0                     	ds	1
  1116  01A1                     __doprnt@f:	
  1117                           
  1118                           ; 1 bytes @ 0x11
  1119  01A1                     	ds	1
  1120  01A2                     __doprnt@ap:	
  1121                           
  1122                           ; 2 bytes @ 0x12
  1123  01A2                     	ds	2
  1124  01A4                     ??_USART_Init:	
  1125  01A4                     ??__doprnt:	
  1126                           ; 0 bytes @ 0x14
  1127                           
  1128                           
  1129                           ; 0 bytes @ 0x14
  1130  01A4                     	ds	3
  1131  01A7                     __doprnt@prec:	
  1132                           
  1133                           ; 1 bytes @ 0x17
  1134  01A7                     	ds	1
  1135  01A8                     __doprnt@_val:	
  1136                           
  1137                           ; 4 bytes @ 0x18
  1138  01A8                     	ds	4
  1139  01AC                     __doprnt@flag:	
  1140                           
  1141                           ; 1 bytes @ 0x1C
  1142  01AC                     	ds	1
  1143  01AD                     __doprnt@width:	
  1144                           
  1145                           ; 2 bytes @ 0x1D
  1146  01AD                     	ds	2
  1147  01AF                     __doprnt@c:	
  1148                           
  1149                           ; 1 bytes @ 0x1F
  1150  01AF                     	ds	1
  1151  01B0                     ?_sprintf:	
  1152  01B0                     sprintf@f:	
  1153                           ; 2 bytes @ 0x20
  1154                           
  1155                           
  1156                           ; 1 bytes @ 0x20
  1157  01B0                     	ds	3
  1158  01B3                     ??_sprintf:	
  1159                           
  1160                           ; 0 bytes @ 0x23
  1161  01B3                     	ds	1
  1162  01B4                     sprintf@wh:	
  1163                           
  1164                           ; 1 bytes @ 0x24
  1165  01B4                     	ds	1
  1166  01B5                     sprintf@ap:	
  1167                           
  1168                           ; 1 bytes @ 0x25
  1169  01B5                     	ds	1
  1170  01B6                     sprintf@pb:	
  1171                           
  1172                           ; 2 bytes @ 0x26
  1173  01B6                     	ds	2
  1174  01B8                     ??_main:	
  1175                           
  1176                           ; 0 bytes @ 0x28
  1177  01B8                     	ds	3
  1178                           
  1179                           	psect	cstackBANK1
  1180  00A0                     __pcstackBANK1:	
  1181  00A0                     _ISR$1737:	
  1182                           
  1183                           ; 3 bytes @ 0x0
  1184  00A0                     	ds	3
  1185  00A3                     _ISR$1739:	
  1186                           
  1187                           ; 3 bytes @ 0x3
  1188  00A3                     	ds	3
  1189  00A6                     _ISR$1740:	
  1190                           
  1191                           ; 3 bytes @ 0x6
  1192  00A6                     	ds	3
  1193  00A9                     _ISR$1741:	
  1194                           
  1195                           ; 3 bytes @ 0x9
  1196  00A9                     	ds	3
  1197  00AC                     _ISR$1734:	
  1198                           
  1199                           ; 3 bytes @ 0xC
  1200  00AC                     	ds	3
  1201  00AF                     _ISR$1735:	
  1202                           
  1203                           ; 3 bytes @ 0xF
  1204  00AF                     	ds	3
  1205  00B2                     _ISR$1738:	
  1206                           
  1207                           ; 3 bytes @ 0x12
  1208  00B2                     	ds	3
  1209  00B5                     _ISR$1733:	
  1210                           
  1211                           ; 3 bytes @ 0x15
  1212  00B5                     	ds	3
  1213  00B8                     _ISR$1736:	
  1214                           
  1215                           ; 3 bytes @ 0x18
  1216  00B8                     	ds	3
  1217                           
  1218                           	psect	cstackCOMMON
  1219  0070                     __pcstackCOMMON:	
  1220  0070                     ?_TIMER0_Set:	
  1221  0070                     ?_TIMER0_Init:	
  1222                           ; 0 bytes @ 0x0
  1223                           
  1224  0070                     ?_ADC_Init:	
  1225                           ; 0 bytes @ 0x0
  1226                           
  1227  0070                     ?_PWM_Init:	
  1228                           ; 0 bytes @ 0x0
  1229                           
  1230  0070                     ?_LCD_Init:	
  1231                           ; 0 bytes @ 0x0
  1232                           
  1233  0070                     ?_LCD_WriteString:	
  1234                           ; 0 bytes @ 0x0
  1235                           
  1236  0070                     ?_isdigit:	
  1237                           ; 0 bytes @ 0x0
  1238                           
  1239  0070                     ?_ISR:	
  1240                           ; 1 bit 
  1241                           
  1242  0070                     ?_main:	
  1243                           ; 0 bytes @ 0x0
  1244                           
  1245  0070                     ?_USART_WriteChar:	
  1246                           ; 0 bytes @ 0x0
  1247                           
  1248  0070                     ?_LCD_WriteCmd:	
  1249                           ; 0 bytes @ 0x0
  1250                           
  1251  0070                     ?_LCD_WriteData:	
  1252                           ; 0 bytes @ 0x0
  1253                           
  1254  0070                     ?___ftge:	
  1255                           ; 0 bytes @ 0x0
  1256                           
  1257  0070                     ?i1_TIMER0_Set:	
  1258                           ; 1 bit 
  1259                           
  1260  0070                     ??i1_TIMER0_Set:	
  1261                           ; 0 bytes @ 0x0
  1262                           
  1263  0070                     ?i1_isdigit:	
  1264                           ; 0 bytes @ 0x0
  1265                           
  1266  0070                     ??i1_isdigit:	
  1267                           ; 1 bit 
  1268                           
  1269  0070                     ?i1_putch:	
  1270                           ; 0 bytes @ 0x0
  1271                           
  1272  0070                     ?_printf:	
  1273                           ; 0 bytes @ 0x0
  1274                           
  1275  0070                     ?i1___wmul:	
  1276                           ; 2 bytes @ 0x0
  1277                           
  1278  0070                     ?i1___lwdiv:	
  1279                           ; 2 bytes @ 0x0
  1280                           
  1281  0070                     ?___ftpack:	
  1282                           ; 2 bytes @ 0x0
  1283                           
  1284  0070                     i1TIMER0_Set@contagens:	
  1285                           ; 3 bytes @ 0x0
  1286                           
  1287  0070                     i1_isdigit$1415:	
  1288                           ; 1 bytes @ 0x0
  1289                           
  1290  0070                     i1putch@c:	
  1291                           ; 1 bytes @ 0x0
  1292                           
  1293  0070                     i1___wmul@multiplier:	
  1294                           ; 1 bytes @ 0x0
  1295                           
  1296  0070                     i1___lwdiv@divisor:	
  1297                           ; 2 bytes @ 0x0
  1298                           
  1299  0070                     ___ftpack@arg:	
  1300                           ; 2 bytes @ 0x0
  1301                           
  1302  0070                     ___ftge@ff1:	
  1303                           ; 3 bytes @ 0x0
  1304                           
  1305                           
  1306                           ; 3 bytes @ 0x0
  1307  0070                     	ds	1
  1308  0071                     ??i1_putch:	
  1309  0071                     i1isdigit@c:	
  1310                           ; 0 bytes @ 0x1
  1311                           
  1312                           
  1313                           ; 1 bytes @ 0x1
  1314  0071                     	ds	1
  1315  0072                     i1___wmul@multiplicand:	
  1316  0072                     i1___lwdiv@dividend:	
  1317                           ; 2 bytes @ 0x2
  1318                           
  1319                           
  1320                           ; 2 bytes @ 0x2
  1321  0072                     	ds	1
  1322  0073                     ___ftpack@exp:	
  1323  0073                     ___ftge@ff2:	
  1324                           ; 1 bytes @ 0x3
  1325                           
  1326                           
  1327                           ; 3 bytes @ 0x3
  1328  0073                     	ds	1
  1329  0074                     ??i1___wmul:	
  1330  0074                     ??i1___lwdiv:	
  1331                           ; 0 bytes @ 0x4
  1332                           
  1333  0074                     ___ftpack@sign:	
  1334                           ; 0 bytes @ 0x4
  1335                           
  1336  0074                     i1___wmul@product:	
  1337                           ; 1 bytes @ 0x4
  1338                           
  1339                           
  1340                           ; 2 bytes @ 0x4
  1341  0074                     	ds	1
  1342  0075                     ??___ftpack:	
  1343  0075                     i1___lwdiv@quotient:	
  1344                           ; 0 bytes @ 0x5
  1345                           
  1346                           
  1347                           ; 2 bytes @ 0x5
  1348  0075                     	ds	1
  1349  0076                     ??___ftge:	
  1350                           
  1351                           ; 0 bytes @ 0x6
  1352  0076                     	ds	1
  1353  0077                     i1___lwdiv@counter:	
  1354                           
  1355                           ; 1 bytes @ 0x7
  1356  0077                     	ds	1
  1357  0078                     ?i1___lwmod:	
  1358  0078                     ?___lwtoft:	
  1359                           ; 2 bytes @ 0x8
  1360                           
  1361  0078                     ___lwtoft@c:	
  1362                           ; 3 bytes @ 0x8
  1363                           
  1364  0078                     i1___lwmod@divisor:	
  1365                           ; 2 bytes @ 0x8
  1366                           
  1367                           
  1368                           ; 2 bytes @ 0x8
  1369  0078                     	ds	2
  1370  007A                     i1___lwmod@dividend:	
  1371                           
  1372                           ; 2 bytes @ 0xA
  1373  007A                     	ds	1
  1374  007B                     ??___lwtoft:	
  1375                           
  1376                           ; 0 bytes @ 0xB
  1377  007B                     	ds	1
  1378  007C                     ??___ftneg:	
  1379  007C                     ??i1_PWM_DutyCycle2:	
  1380                           ; 0 bytes @ 0xC
  1381                           
  1382  007C                     ??i1___lwmod:	
  1383                           ; 0 bytes @ 0xC
  1384                           
  1385                           
  1386                           ; 0 bytes @ 0xC
  1387  007C                     	ds	1
  1388  007D                     i1___lwmod@counter:	
  1389                           
  1390                           ; 1 bytes @ 0xD
  1391  007D                     	ds	1
  1392  007E                     ??_trapezoidal:	
  1393                           
  1394                           	psect	cstackBANK0
  1395  0020                     __pcstackBANK0:	
  1396                           ; 0 bytes @ 0xE
  1397                           
  1398  0020                     ?i1__doprnt:	
  1399  0020                     ?___ftdiv:	
  1400                           ; 2 bytes @ 0x0
  1401                           
  1402  0020                     i1__doprnt@pb:	
  1403                           ; 3 bytes @ 0x0
  1404                           
  1405  0020                     ___ftdiv@f2:	
  1406                           ; 2 bytes @ 0x0
  1407                           
  1408                           
  1409                           ; 3 bytes @ 0x0
  1410  0020                     	ds	2
  1411  0022                     i1__doprnt@f:	
  1412                           
  1413                           ; 1 bytes @ 0x2
  1414  0022                     	ds	1
  1415  0023                     i1__doprnt@ap:	
  1416  0023                     ___ftdiv@f1:	
  1417                           ; 2 bytes @ 0x3
  1418                           
  1419                           
  1420                           ; 3 bytes @ 0x3
  1421  0023                     	ds	2
  1422  0025                     ??i1__doprnt:	
  1423                           
  1424                           ; 0 bytes @ 0x5
  1425  0025                     	ds	1
  1426  0026                     ??___ftdiv:	
  1427                           
  1428                           ; 0 bytes @ 0x6
  1429  0026                     	ds	2
  1430  0028                     i1__doprnt@prec:	
  1431                           
  1432                           ; 1 bytes @ 0x8
  1433  0028                     	ds	1
  1434  0029                     i1__doprnt@_val:	
  1435                           
  1436                           ; 4 bytes @ 0x9
  1437  0029                     	ds	1
  1438  002A                     ___ftdiv@cntr:	
  1439                           
  1440                           ; 1 bytes @ 0xA
  1441  002A                     	ds	1
  1442  002B                     ___ftdiv@f3:	
  1443                           
  1444                           ; 3 bytes @ 0xB
  1445  002B                     	ds	2
  1446  002D                     i1__doprnt@flag:	
  1447                           
  1448                           ; 1 bytes @ 0xD
  1449  002D                     	ds	1
  1450  002E                     ___ftdiv@exp:	
  1451  002E                     i1__doprnt@width:	
  1452                           ; 1 bytes @ 0xE
  1453                           
  1454                           
  1455                           ; 2 bytes @ 0xE
  1456  002E                     	ds	1
  1457  002F                     ___ftdiv@sign:	
  1458                           
  1459                           ; 1 bytes @ 0xF
  1460  002F                     	ds	1
  1461  0030                     ?___ftmul:	
  1462  0030                     i1__doprnt@c:	
  1463                           ; 3 bytes @ 0x10
  1464                           
  1465  0030                     ___ftmul@f1:	
  1466                           ; 1 bytes @ 0x10
  1467                           
  1468                           
  1469                           ; 3 bytes @ 0x10
  1470  0030                     	ds	1
  1471  0031                     ??_printf:	
  1472                           
  1473                           ; 0 bytes @ 0x11
  1474  0031                     	ds	1
  1475  0032                     printf@f:	
  1476                           
  1477                           ; 1 bytes @ 0x12
  1478  0032                     	ds	1
  1479  0033                     printf@ap:	
  1480  0033                     ___ftmul@f2:	
  1481                           ; 1 bytes @ 0x13
  1482                           
  1483                           
  1484                           ; 3 bytes @ 0x13
  1485  0033                     	ds	1
  1486  0034                     printf@pb:	
  1487                           
  1488                           ; 2 bytes @ 0x14
  1489  0034                     	ds	2
  1490  0036                     ??___ftmul:	
  1491                           
  1492                           ; 0 bytes @ 0x16
  1493  0036                     	ds	4
  1494  003A                     ___ftmul@exp:	
  1495                           
  1496                           ; 1 bytes @ 0x1A
  1497  003A                     	ds	1
  1498  003B                     ___ftmul@f3_as_product:	
  1499                           
  1500                           ; 3 bytes @ 0x1B
  1501  003B                     	ds	3
  1502  003E                     ___ftmul@cntr:	
  1503                           
  1504                           ; 1 bytes @ 0x1E
  1505  003E                     	ds	1
  1506  003F                     ___ftmul@sign:	
  1507                           
  1508                           ; 1 bytes @ 0x1F
  1509  003F                     	ds	1
  1510  0040                     ?___ftadd:	
  1511  0040                     ?___fttol:	
  1512                           ; 3 bytes @ 0x20
  1513                           
  1514  0040                     ___ftadd@f1:	
  1515                           ; 4 bytes @ 0x20
  1516                           
  1517  0040                     ___fttol@f1:	
  1518                           ; 3 bytes @ 0x20
  1519                           
  1520                           
  1521                           ; 3 bytes @ 0x20
  1522  0040                     	ds	3
  1523  0043                     ___ftadd@f2:	
  1524                           
  1525                           ; 3 bytes @ 0x23
  1526  0043                     	ds	1
  1527  0044                     ??___fttol:	
  1528                           
  1529                           ; 0 bytes @ 0x24
  1530  0044                     	ds	2
  1531  0046                     ??___ftadd:	
  1532                           
  1533                           ; 0 bytes @ 0x26
  1534  0046                     	ds	2
  1535  0048                     ___fttol@sign1:	
  1536                           
  1537                           ; 1 bytes @ 0x28
  1538  0048                     	ds	1
  1539  0049                     ___fttol@lval:	
  1540                           
  1541                           ; 4 bytes @ 0x29
  1542  0049                     	ds	1
  1543  004A                     ___ftadd@sign:	
  1544                           
  1545                           ; 1 bytes @ 0x2A
  1546  004A                     	ds	1
  1547  004B                     ___ftadd@exp2:	
  1548                           
  1549                           ; 1 bytes @ 0x2B
  1550  004B                     	ds	1
  1551  004C                     ___ftadd@exp1:	
  1552                           
  1553                           ; 1 bytes @ 0x2C
  1554  004C                     	ds	1
  1555  004D                     ?___ftneg:	
  1556  004D                     ___fttol@exp1:	
  1557                           ; 3 bytes @ 0x2D
  1558                           
  1559  004D                     ___ftneg@f1:	
  1560                           ; 1 bytes @ 0x2D
  1561                           
  1562                           
  1563                           ; 3 bytes @ 0x2D
  1564  004D                     	ds	1
  1565  004E                     ?i1_PWM_DutyCycle2:	
  1566  004E                     i1PWM_DutyCycle2@valor:	
  1567                           ; 0 bytes @ 0x2E
  1568                           
  1569                           
  1570                           ; 2 bytes @ 0x2E
  1571  004E                     	ds	2
  1572  0050                     ?_trapezoidal:	
  1573  0050                     trapezoidal@x:	
  1574                           ; 3 bytes @ 0x30
  1575                           
  1576                           
  1577                           ; 3 bytes @ 0x30
  1578  0050                     	ds	3
  1579  0053                     trapezoidal@a:	
  1580                           
  1581                           ; 3 bytes @ 0x33
  1582  0053                     	ds	3
  1583  0056                     trapezoidal@b:	
  1584                           
  1585                           ; 3 bytes @ 0x36
  1586  0056                     	ds	3
  1587  0059                     trapezoidal@c:	
  1588                           
  1589                           ; 3 bytes @ 0x39
  1590  0059                     	ds	3
  1591  005C                     trapezoidal@d:	
  1592                           
  1593                           ; 3 bytes @ 0x3C
  1594  005C                     	ds	3
  1595  005F                     ??_ISR:	
  1596                           
  1597                           ; 0 bytes @ 0x3F
  1598  005F                     	ds	4
  1599                           
  1600                           	psect	maintext
  1601  1618                     __pmaintext:	
  1602 ;;
  1603 ;;Main: autosize = 0, tempsize = 3, incstack = 0, save=0
  1604 ;;
  1605 ;; *************** function _main *****************
  1606 ;; Defined at:
  1607 ;;		line 178 in file "C:\Users\332414\Desktop\Fuzzy-IA2\Cdigo em C no MPLAB\main.c"
  1608 ;; Parameters:    Size  Location     Type
  1609 ;;		None
  1610 ;; Auto vars:     Size  Location     Type
  1611 ;;		None
  1612 ;; Return value:  Size  Location     Type
  1613 ;;		None               void
  1614 ;; Registers used:
  1615 ;;		wreg, fsr0l, fsr0h, status,2, status,0, btemp+1, pclath, cstack
  1616 ;; Tracked objects:
  1617 ;;		On entry : 17F/0
  1618 ;;		On exit  : 0/0
  1619 ;;		Unchanged: 0/0
  1620 ;; Data sizes:     COMMON   BANK0   BANK1   BANK3   BANK2
  1621 ;;      Params:         0       0       0       0       0
  1622 ;;      Locals:         0       0       0       0       0
  1623 ;;      Temps:          0       0       0       3       0
  1624 ;;      Totals:         0       0       0       3       0
  1625 ;;Total ram usage:        3 bytes
  1626 ;; Hardware stack levels required when called:    8
  1627 ;; This function calls:
  1628 ;;		_ADC_Init
  1629 ;;		_LCD_Cursor
  1630 ;;		_LCD_Init
  1631 ;;		_LCD_WriteString
  1632 ;;		_PWM_DutyCycle1
  1633 ;;		_PWM_DutyCycle2
  1634 ;;		_PWM_Init
  1635 ;;		_TIMER0_Init
  1636 ;;		_TIMER0_Set
  1637 ;;		_USART_Init
  1638 ;;		_USART_WriteString
  1639 ;;		_sprintf
  1640 ;; This function is called by:
  1641 ;;		Startup code after reset
  1642 ;; This function uses a non-reentrant model
  1643 ;;
  1644                           
  1645                           
  1646                           ;psect for function _main
  1647  1618                     _main:	
  1648                           
  1649                           ;main.c: 180: TRISA = 0b00000001;
  1650                           
  1651                           ;incstack = 0
  1652                           ; Regs used in _main: [wreg-fsr0h+status,2+status,0+btemp+1+pclath+cstack]
  1653  1618  3001               	movlw	1
  1654  1619  1683               	bsf	3,5	;RP0=1, select bank1
  1655  161A  1303               	bcf	3,6	;RP1=0, select bank1
  1656  161B  0085               	movwf	5	;volatile
  1657                           
  1658                           ;main.c: 181: PORTA = 0b00000001;
  1659  161C  3001               	movlw	1
  1660  161D  1283               	bcf	3,5	;RP0=0, select bank0
  1661  161E  1303               	bcf	3,6	;RP1=0, select bank0
  1662  161F  0085               	movwf	5	;volatile
  1663                           
  1664                           ;main.c: 182: TRISB = 0b00000000;
  1665  1620  1683               	bsf	3,5	;RP0=1, select bank1
  1666  1621  1303               	bcf	3,6	;RP1=0, select bank1
  1667  1622  0186               	clrf	6	;volatile
  1668                           
  1669                           ;main.c: 183: PORTB = 0b00000000;
  1670  1623  1283               	bcf	3,5	;RP0=0, select bank0
  1671  1624  1303               	bcf	3,6	;RP1=0, select bank0
  1672  1625  0186               	clrf	6	;volatile
  1673                           
  1674                           ;main.c: 184: TRISC = 0b10000001;
  1675  1626  3081               	movlw	129
  1676  1627  1683               	bsf	3,5	;RP0=1, select bank1
  1677  1628  1303               	bcf	3,6	;RP1=0, select bank1
  1678  1629  0087               	movwf	7	;volatile
  1679                           
  1680                           ;main.c: 185: PORTC = 0b11000000;
  1681  162A  30C0               	movlw	192
  1682  162B  1283               	bcf	3,5	;RP0=0, select bank0
  1683  162C  1303               	bcf	3,6	;RP1=0, select bank0
  1684  162D  0087               	movwf	7	;volatile
  1685                           
  1686                           ;main.c: 186: TRISD = 0b00000000;
  1687  162E  1683               	bsf	3,5	;RP0=1, select bank1
  1688  162F  1303               	bcf	3,6	;RP1=0, select bank1
  1689  1630  0188               	clrf	8	;volatile
  1690                           
  1691                           ;main.c: 187: PORTD = 0b00000000;
  1692  1631  1283               	bcf	3,5	;RP0=0, select bank0
  1693  1632  1303               	bcf	3,6	;RP1=0, select bank0
  1694  1633  0188               	clrf	8	;volatile
  1695                           
  1696                           ;main.c: 188: TRISE = 0b00000000;
  1697  1634  1683               	bsf	3,5	;RP0=1, select bank1
  1698  1635  1303               	bcf	3,6	;RP1=0, select bank1
  1699  1636  0189               	clrf	9	;volatile
  1700                           
  1701                           ;main.c: 189: PORTE = 0b00000000;
  1702  1637  1283               	bcf	3,5	;RP0=0, select bank0
  1703  1638  1303               	bcf	3,6	;RP1=0, select bank0
  1704  1639  0189               	clrf	9	;volatile
  1705                           
  1706                           ;main.c: 192: T1CON = 0x03;
  1707  163A  3003               	movlw	3
  1708  163B  0090               	movwf	16	;volatile
  1709                           
  1710                           ;main.c: 193: TMR1L = 0x00;
  1711  163C  018E               	clrf	14	;volatile
  1712                           
  1713                           ;main.c: 194: TMR1H = 0x00;
  1714  163D  018F               	clrf	15	;volatile
  1715                           
  1716                           ;main.c: 197: USART_Init(115200);
  1717  163E  3000               	movlw	0
  1718  163F  1683               	bsf	3,5	;RP0=1, select bank3
  1719  1640  1703               	bsf	3,6	;RP1=1, select bank3
  1720  1641  00A3               	movwf	(USART_Init@BaudRate+3)^(0+384)
  1721  1642  3001               	movlw	1
  1722  1643  00A2               	movwf	(USART_Init@BaudRate+2)^(0+384)
  1723  1644  30C2               	movlw	194
  1724  1645  00A1               	movwf	(USART_Init@BaudRate+1)^(0+384)
  1725  1646  3000               	movlw	0
  1726  1647  00A0               	movwf	USART_Init@BaudRate^(0+384)
  1727  1648  120A  118A  27B5  160A  118A  	fcall	_USART_Init
  1728                           
  1729                           ;main.c: 198: TIMER0_Init();
  1730  164D  120A  118A  20F4  160A  118A  	fcall	_TIMER0_Init
  1731                           
  1732                           ;main.c: 199: ADC_Init();
  1733  1652  160A  118A  2042  160A  118A  	fcall	_ADC_Init
  1734                           
  1735                           ;main.c: 200: PWM_Init();
  1736  1657  160A  118A  2194  160A  118A  	fcall	_PWM_Init
  1737                           
  1738                           ;main.c: 201: LCD_Init();
  1739  165C  160A  118A  23BB  160A  118A  	fcall	_LCD_Init
  1740                           
  1741                           ;main.c: 204: INTCONbits.PEIE = 1;
  1742  1661  170B               	bsf	11,6	;volatile
  1743                           
  1744                           ;main.c: 205: INTCONbits.GIE = 1;
  1745  1662  178B               	bsf	11,7	;volatile
  1746                           
  1747                           ;main.c: 208: USART_WriteString("Inicializando o PIC16F877A\n\r");
  1748  1663  3033               	movlw	low (STR_6-__stringbase)
  1749  1664  1683               	bsf	3,5	;RP0=1, select bank3
  1750  1665  1703               	bsf	3,6	;RP1=1, select bank3
  1751  1666  0092               	movwf	USART_WriteString@str^(0+384)
  1752  1667  3080               	movlw	128
  1753  1668  0093               	movwf	(USART_WriteString@str+1)^(0+384)
  1754  1669  160A  118A  21DD  160A  118A  	fcall	_USART_WriteString
  1755                           
  1756                           ;main.c: 209: USART_WriteString("USART: 115.200bps\n\r");
  1757  166E  3050               	movlw	low (STR_7-__stringbase)
  1758  166F  1683               	bsf	3,5	;RP0=1, select bank3
  1759  1670  1703               	bsf	3,6	;RP1=1, select bank3
  1760  1671  0092               	movwf	USART_WriteString@str^(0+384)
  1761  1672  3080               	movlw	128
  1762  1673  0093               	movwf	(USART_WriteString@str+1)^(0+384)
  1763  1674  160A  118A  21DD  160A  118A  	fcall	_USART_WriteString
  1764                           
  1765                           ;main.c: 212: LCD_Init();
  1766  1679  160A  118A  23BB  160A  118A  	fcall	_LCD_Init
  1767                           
  1768                           ;main.c: 213: LCD_Cursor(0,0);
  1769  167E  1683               	bsf	3,5	;RP0=1, select bank3
  1770  167F  1703               	bsf	3,6	;RP1=1, select bank3
  1771  1680  0191               	clrf	LCD_Cursor@Col^(0+384)
  1772  1681  3000               	movlw	0
  1773  1682  160A  118A  20CD  160A  118A  	fcall	_LCD_Cursor
  1774                           
  1775                           ;main.c: 214: LCD_WriteString("Inicializando...");
  1776  1687  3064               	movlw	(STR_8-__stringbase)& (0+255)
  1777  1688  160A  118A  20ED  160A  118A  	fcall	_LCD_WriteString
  1778                           
  1779                           ;main.c: 217: PWM_DutyCycle1(0);
  1780  168D  3000               	movlw	0
  1781  168E  1683               	bsf	3,5	;RP0=1, select bank3
  1782  168F  1703               	bsf	3,6	;RP1=1, select bank3
  1783  1690  0091               	movwf	PWM_DutyCycle1@valor^(0+384)
  1784  1691  3000               	movlw	0
  1785  1692  0092               	movwf	(PWM_DutyCycle1@valor^(0+384)+1)
  1786  1693  160A  118A  210D  160A  118A  	fcall	_PWM_DutyCycle1
  1787                           
  1788                           ;main.c: 218: PWM_DutyCycle2(1023);
  1789  1698  30FF               	movlw	255
  1790  1699  1683               	bsf	3,5	;RP0=1, select bank3
  1791  169A  1703               	bsf	3,6	;RP1=1, select bank3
  1792  169B  0091               	movwf	PWM_DutyCycle2@valor^(0+384)
  1793  169C  3003               	movlw	3
  1794  169D  0092               	movwf	(PWM_DutyCycle2@valor^(0+384)+1)
  1795  169E  160A  118A  212E  160A  118A  	fcall	_PWM_DutyCycle2
  1796                           
  1797                           ;main.c: 221: TIMER0_Set(238);
  1798  16A3  30EE               	movlw	238
  1799  16A4  160A  118A  2006  160A  118A  	fcall	_TIMER0_Set
  1800                           
  1801                           ;main.c: 224: _delay((unsigned long)((1000)*(18432000/4000.0)));
  1802  16A9  3018               	movlw	24
  1803  16AA  1683               	bsf	3,5	;RP0=1, select bank3
  1804  16AB  1703               	bsf	3,6	;RP1=1, select bank3
  1805  16AC  00BA               	movwf	(??_main^(0+384)+2)
  1806  16AD  3061               	movlw	97
  1807  16AE  00B9               	movwf	(??_main^(0+384)+1)
  1808  16AF  306E               	movlw	110
  1809  16B0  00B8               	movwf	??_main^(0+384)
  1810  16B1                     u7177:	
  1811  16B1  0BB8               	decfsz	??_main^(0+384),f
  1812  16B2  2EB1               	goto	u7177
  1813  16B3  0BB9               	decfsz	(??_main^(0+384)+1),f
  1814  16B4  2EB1               	goto	u7177
  1815  16B5  0BBA               	decfsz	(??_main^(0+384)+2),f
  1816  16B6  2EB1               	goto	u7177
  1817  16B7  0000               	nop
  1818  16B8                     l5519:	
  1819                           ;main.c: 227: while(1)
  1820                           
  1821                           
  1822                           ;main.c: 228: {
  1823                           ;main.c: 230: sprintf(display,"%04d", rpm);
  1824  16B8  3075               	movlw	(STR_9-__stringbase)& (0+255)
  1825  16B9  1683               	bsf	3,5	;RP0=1, select bank3
  1826  16BA  1703               	bsf	3,6	;RP1=1, select bank3
  1827  16BB  00B8               	movwf	??_main^(0+384)
  1828  16BC  0838               	movf	??_main^(0+384),w
  1829  16BD  00B0               	movwf	sprintf@f^(0+384)
  1830  16BE  1683               	bsf	3,5	;RP0=1, select bank1
  1831  16BF  1303               	bcf	3,6	;RP1=0, select bank1
  1832  16C0  0849               	movf	(_rpm+1)^(0+128),w
  1833  16C1  1683               	bsf	3,5	;RP0=1, select bank3
  1834  16C2  1703               	bsf	3,6	;RP1=1, select bank3
  1835  16C3  01B2               	clrf	((?_sprintf+1)^(0+384)+1)
  1836  16C4  07B2               	addwf	((?_sprintf+1)^(0+384)+1),f
  1837  16C5  1683               	bsf	3,5	;RP0=1, select bank1
  1838  16C6  1303               	bcf	3,6	;RP1=0, select bank1
  1839  16C7  0848               	movf	_rpm^(0+128),w
  1840  16C8  1683               	bsf	3,5	;RP0=1, select bank3
  1841  16C9  1703               	bsf	3,6	;RP1=1, select bank3
  1842  16CA  01B1               	clrf	(?_sprintf^(0+384)+1)
  1843  16CB  07B1               	addwf	(?_sprintf^(0+384)+1),f
  1844  16CC  30CA               	movlw	_display& (0+255)
  1845  16CD  160A  118A  214F  160A  118A  	fcall	_sprintf
  1846                           
  1847                           ;main.c: 233: USART_WriteString(display);
  1848  16D2  30CA               	movlw	_display& (0+255)
  1849  16D3  1683               	bsf	3,5	;RP0=1, select bank3
  1850  16D4  1703               	bsf	3,6	;RP1=1, select bank3
  1851  16D5  0092               	movwf	USART_WriteString@str^(0+384)
  1852  16D6  3000               	movlw	0
  1853  16D7  0093               	movwf	(USART_WriteString@str+1)^(0+384)
  1854  16D8  160A  118A  21DD  160A  118A  	fcall	_USART_WriteString
  1855                           
  1856                           ;main.c: 234: USART_WriteString("\n\r");
  1857  16DD  304D               	movlw	low ((STR_6+26)-__stringbase)
  1858  16DE  1683               	bsf	3,5	;RP0=1, select bank3
  1859  16DF  1703               	bsf	3,6	;RP1=1, select bank3
  1860  16E0  0092               	movwf	USART_WriteString@str^(0+384)
  1861  16E1  3080               	movlw	128
  1862  16E2  0093               	movwf	(USART_WriteString@str+1)^(0+384)
  1863  16E3  160A  118A  21DD  160A  118A  	fcall	_USART_WriteString
  1864                           
  1865                           ;main.c: 243: _delay((unsigned long)((200)*(18432000/4000.0)));
  1866  16E8  3005               	movlw	5
  1867  16E9  1683               	bsf	3,5	;RP0=1, select bank3
  1868  16EA  1703               	bsf	3,6	;RP1=1, select bank3
  1869  16EB  00BA               	movwf	(??_main^(0+384)+2)
  1870  16EC  30AD               	movlw	173
  1871  16ED  00B9               	movwf	(??_main^(0+384)+1)
  1872  16EE  30E0               	movlw	224
  1873  16EF  00B8               	movwf	??_main^(0+384)
  1874  16F0                     u7187:	
  1875  16F0  0BB8               	decfsz	??_main^(0+384),f
  1876  16F1  2EF0               	goto	u7187
  1877  16F2  0BB9               	decfsz	(??_main^(0+384)+1),f
  1878  16F3  2EF0               	goto	u7187
  1879  16F4  0BBA               	decfsz	(??_main^(0+384)+2),f
  1880  16F5  2EF0               	goto	u7187
  1881  16F6  2EB8               	goto	l5519
  1882  16F7                     __end_of_main:	
  1883                           
  1884                           	psect	text1
  1885  114F                     __ptext1:	
  1886 ;; *************** function _sprintf *****************
  1887 ;; Defined at:
  1888 ;;		line 13 in file "C:\Program Files (x86)\Microchip\xc8\v1.33\sources\common\sprintf.c"
  1889 ;; Parameters:    Size  Location     Type
  1890 ;;  wh              1    wreg     PTR unsigned char 
  1891 ;;		 -> display(10), 
  1892 ;;  f               1   32[BANK3 ] PTR const unsigned char 
  1893 ;;		 -> STR_9(5), 
  1894 ;; Auto vars:     Size  Location     Type
  1895 ;;  wh              1   36[BANK3 ] PTR unsigned char 
  1896 ;;		 -> display(10), 
  1897 ;;  pb              2   38[BANK3 ] struct __prbuf
  1898 ;;  ap              1   37[BANK3 ] PTR void [1]
  1899 ;;		 -> ?_sprintf(2), ?_printf(2), 
  1900 ;; Return value:  Size  Location     Type
  1901 ;;                  2   32[BANK3 ] int 
  1902 ;; Registers used:
  1903 ;;		wreg, fsr0l, fsr0h, status,2, status,0, btemp+1, pclath, cstack
  1904 ;; Tracked objects:
  1905 ;;		On entry : 0/0
  1906 ;;		On exit  : 0/0
  1907 ;;		Unchanged: 0/0
  1908 ;; Data sizes:     COMMON   BANK0   BANK1   BANK3   BANK2
  1909 ;;      Params:         0       0       0       3       0
  1910 ;;      Locals:         0       0       0       4       0
  1911 ;;      Temps:          0       0       0       1       0
  1912 ;;      Totals:         0       0       0       8       0
  1913 ;;Total ram usage:        8 bytes
  1914 ;; Hardware stack levels used:    1
  1915 ;; Hardware stack levels required when called:    7
  1916 ;; This function calls:
  1917 ;;		__doprnt
  1918 ;; This function is called by:
  1919 ;;		_main
  1920 ;; This function uses a non-reentrant model
  1921 ;;
  1922                           
  1923                           
  1924                           ;psect for function _sprintf
  1925  114F                     _sprintf:	
  1926                           
  1927                           ;incstack = 0
  1928                           ; Regs used in _sprintf: [wreg-fsr0h+status,2+status,0+btemp+1+pclath+cstack]
  1929                           ;sprintf@wh stored from wreg
  1930  114F  1683               	bsf	3,5	;RP0=1, select bank3
  1931  1150  1703               	bsf	3,6	;RP1=1, select bank3
  1932  1151  00B4               	movwf	sprintf@wh^(0+384)
  1933  1152  0834               	movf	sprintf@wh^(0+384),w
  1934  1153  00B3               	movwf	??_sprintf^(0+384)
  1935  1154  0833               	movf	??_sprintf^(0+384),w
  1936  1155  00B6               	movwf	sprintf@pb^(0+384)
  1937  1156  01B7               	clrf	(sprintf@pb+1)^(0+384)
  1938  1157  30B1               	movlw	(?_sprintf+1)& (0+255)
  1939  1158  00B3               	movwf	??_sprintf^(0+384)
  1940  1159  0833               	movf	??_sprintf^(0+384),w
  1941  115A  00B5               	movwf	sprintf@ap^(0+384)
  1942  115B  30B6               	movlw	sprintf@pb& (0+255)
  1943  115C  009F               	movwf	__doprnt@pb^(0+384)
  1944  115D  3001               	movlw	1
  1945  115E  00A0               	movwf	(__doprnt@pb+1)^(0+384)
  1946  115F  0830               	movf	sprintf@f^(0+384),w
  1947  1160  00B3               	movwf	??_sprintf^(0+384)
  1948  1161  0833               	movf	??_sprintf^(0+384),w
  1949  1162  00A1               	movwf	__doprnt@f^(0+384)
  1950  1163  30B5               	movlw	sprintf@ap& (0+255)
  1951  1164  00A2               	movwf	__doprnt@ap^(0+384)
  1952  1165  3001               	movlw	1
  1953  1166  00A3               	movwf	(__doprnt@ap+1)^(0+384)
  1954  1167  120A  158A  2515   	fcall	__doprnt
  1955  116A  1683               	bsf	3,5	;RP0=1, select bank3
  1956  116B  1703               	bsf	3,6	;RP1=1, select bank3
  1957  116C  0836               	movf	sprintf@pb^(0+384),w
  1958  116D  0084               	movwf	4
  1959  116E  1383               	bcf	3,7	;select IRP bank0
  1960  116F  0180               	clrf	0
  1961  1170  0008               	return
  1962  1171                     __end_of_sprintf:	
  1963                           ;	Return value of _sprintf is never used
  1964                           
  1965                           
  1966                           	psect	text2
  1967  0D15                     __ptext2:	
  1968 ;; *************** function __doprnt *****************
  1969 ;; Defined at:
  1970 ;;		line 458 in file "C:\Program Files (x86)\Microchip\xc8\v1.33\sources\common\doprnt.c"
  1971 ;; Parameters:    Size  Location     Type
  1972 ;;  pb              2   15[BANK3 ] PTR struct __prbuf
  1973 ;;		 -> sprintf@pb(2), printf@pb(2), 
  1974 ;;  f               1   17[BANK3 ] PTR const unsigned char 
  1975 ;;		 -> STR_9(5), STR_5(2), STR_4(2), STR_3(2), 
  1976 ;;		 -> STR_2(2), STR_1(2), 
  1977 ;;  ap              2   18[BANK3 ] PTR PTR void 
  1978 ;;		 -> sprintf@ap(1), printf@ap(1), 
  1979 ;; Auto vars:     Size  Location     Type
  1980 ;;  _val            4   24[BANK3 ] struct .
  1981 ;;  width           2   29[BANK3 ] int 
  1982 ;;  c               1   31[BANK3 ] char 
  1983 ;;  flag            1   28[BANK3 ] unsigned char 
  1984 ;;  prec            1   23[BANK3 ] char 
  1985 ;; Return value:  Size  Location     Type
  1986 ;;                  2   15[BANK3 ] int 
  1987 ;; Registers used:
  1988 ;;		wreg, fsr0l, fsr0h, status,2, status,0, btemp+1, pclath, cstack
  1989 ;; Tracked objects:
  1990 ;;		On entry : 0/0
  1991 ;;		On exit  : 0/0
  1992 ;;		Unchanged: 0/0
  1993 ;; Data sizes:     COMMON   BANK0   BANK1   BANK3   BANK2
  1994 ;;      Params:         0       0       0       5       0
  1995 ;;      Locals:         0       0       0       9       0
  1996 ;;      Temps:          0       0       0       3       0
  1997 ;;      Totals:         0       0       0      17       0
  1998 ;;Total ram usage:       17 bytes
  1999 ;; Hardware stack levels used:    1
  2000 ;; Hardware stack levels required when called:    6
  2001 ;; This function calls:
  2002 ;;		Absolute function
  2003 ;;		___lwdiv
  2004 ;;		___lwmod
  2005 ;;		___wmul
  2006 ;;		_isdigit
  2007 ;;		_putch
  2008 ;; This function is called by:
  2009 ;;		_sprintf
  2010 ;; This function uses a non-reentrant model
  2011 ;;
  2012                           
  2013                           
  2014                           ;psect for function __doprnt
  2015  0D15                     __doprnt:	
  2016  0D15                     l5327:	
  2017                           ;doprnt.c: 499: signed char c;
  2018                           ;doprnt.c: 501: int width;
  2019                           ;doprnt.c: 506: signed char prec;
  2020                           ;doprnt.c: 508: unsigned char flag;
  2021                           ;doprnt.c: 527: union {
  2022                           ;doprnt.c: 528: unsigned int _val;
  2023                           ;doprnt.c: 529: struct {
  2024                           ;doprnt.c: 530: const char * _cp;
  2025                           ;doprnt.c: 531: unsigned _len;
  2026                           ;doprnt.c: 532: } _str;
  2027                           ;doprnt.c: 533: } _val;
  2028                           ;doprnt.c: 545: while(c = *f++) {
  2029                           
  2030                           ;incstack = 0
  2031 ;; using string table level
  2032                           ; Regs used in __doprnt: [wreg-fsr0h+status,2+status,0+btemp+1+pclath+cstack]
  2033                           
  2034  0D15  3001               	movlw	1
  2035  0D16  1683               	bsf	3,5	;RP0=1, select bank3
  2036  0D17  1703               	bsf	3,6	;RP1=1, select bank3
  2037  0D18  07A1               	addwf	__doprnt@f^(0+384),f
  2038  0D19  30FF               	movlw	-1
  2039  0D1A  0721               	addwf	__doprnt@f^(0+384),w
  2040  0D1B  0084               	movwf	4
  2041  0D1C  120A  158A  200A  120A  158A  	fcall	stringdir
  2042  0D21  00A4               	movwf	??__doprnt^(0+384)
  2043  0D22  0824               	movf	??__doprnt^(0+384),w
  2044  0D23  00AF               	movwf	__doprnt@c^(0+384)
  2045  0D24  08AF               	movf	__doprnt@c^(0+384),f
  2046  0D25  1903               	btfsc	3,2
  2047  0D26  2FFB               	goto	l5329
  2048                           
  2049                           ;doprnt.c: 547: if(c != '%')
  2050  0D27  1683               	bsf	3,5	;RP0=1, select bank3
  2051  0D28  1703               	bsf	3,6	;RP1=1, select bank3
  2052  0D29  082F               	movf	__doprnt@c^(0+384),w
  2053  0D2A  3A25               	xorlw	37
  2054  0D2B  1903               	skipnz
  2055  0D2C  2D6B               	goto	l5213
  2056                           
  2057                           ;doprnt.c: 549: {
  2058                           ;doprnt.c: 550: if(pb->func) (pb->func(c)); else ((*pb->ptr++ = c));
  2059  0D2D  3001               	movlw	1
  2060  0D2E  071F               	addwf	__doprnt@pb^(0+384),w
  2061  0D2F  00A4               	movwf	??__doprnt^(0+384)
  2062  0D30  0820               	movf	(__doprnt@pb+1)^(0+384),w
  2063  0D31  1803               	skipnc
  2064  0D32  3E01               	addlw	1
  2065  0D33  00A5               	movwf	(??__doprnt^(0+384)+1)
  2066  0D34  0824               	movf	??__doprnt^(0+384),w
  2067  0D35  0084               	movwf	4
  2068  0D36  1783               	bsf	3,7
  2069  0D37  1C25               	btfss	(??__doprnt+1)^(0+384),0
  2070  0D38  1383               	bcf	3,7
  2071  0D39  0880               	movf	0,f
  2072  0D3A  1903               	skipnz
  2073  0D3B  2D53               	goto	l5209
  2074  0D3C  082F               	movf	__doprnt@c^(0+384),w
  2075  0D3D  00A4               	movwf	??__doprnt^(0+384)
  2076  0D3E  0824               	movf	??__doprnt^(0+384),w
  2077  0D3F  0091               	movwf	putch@c^(0+384)
  2078  0D40  3001               	movlw	1
  2079  0D41  071F               	addwf	__doprnt@pb^(0+384),w
  2080  0D42  00A5               	movwf	(??__doprnt+1)^(0+384)
  2081  0D43  0820               	movf	(__doprnt@pb+1)^(0+384),w
  2082  0D44  1803               	skipnc
  2083  0D45  3E01               	addlw	1
  2084  0D46  00A6               	movwf	((??__doprnt+1)^(0+384)+1)
  2085  0D47  0825               	movf	(??__doprnt+1)^(0+384),w
  2086  0D48  0084               	movwf	4
  2087  0D49  1783               	bsf	3,7
  2088  0D4A  1C26               	btfss	(??__doprnt+2)^(0+384),0
  2089  0D4B  1383               	bcf	3,7
  2090  0D4C  0800               	movf	0,w
  2091  0D4D  120A  118A  2100  120A  158A  	fcall	fptable
  2092  0D52  2D15               	goto	l5327
  2093  0D53                     l5209:	
  2094  0D53  1683               	bsf	3,5	;RP0=1, select bank3
  2095  0D54  1703               	bsf	3,6	;RP1=1, select bank3
  2096  0D55  082F               	movf	__doprnt@c^(0+384),w
  2097  0D56  00A4               	movwf	??__doprnt^(0+384)
  2098  0D57  081F               	movf	__doprnt@pb^(0+384),w
  2099  0D58  0084               	movwf	4
  2100  0D59  1783               	bsf	3,7
  2101  0D5A  1C20               	btfss	(__doprnt@pb+1)^(0+384),0
  2102  0D5B  1383               	bcf	3,7
  2103  0D5C  0800               	movf	0,w
  2104  0D5D  0084               	movwf	4
  2105  0D5E  0824               	movf	??__doprnt^(0+384),w
  2106  0D5F  1383               	bcf	3,7	;select IRP bank0
  2107  0D60  0080               	movwf	0
  2108  0D61  3001               	movlw	1
  2109  0D62  00A4               	movwf	??__doprnt^(0+384)
  2110  0D63  081F               	movf	__doprnt@pb^(0+384),w
  2111  0D64  0084               	movwf	4
  2112  0D65  1783               	bsf	3,7
  2113  0D66  1C20               	btfss	(__doprnt@pb+1)^(0+384),0
  2114  0D67  1383               	bcf	3,7
  2115  0D68  0824               	movf	??__doprnt^(0+384),w
  2116  0D69  0780               	addwf	0,f
  2117                           
  2118                           ;doprnt.c: 551: continue;
  2119  0D6A  2D15               	goto	l5327
  2120  0D6B                     l5213:	
  2121                           
  2122                           ;doprnt.c: 552: }
  2123                           ;doprnt.c: 555: width = 0;
  2124  0D6B  01AD               	clrf	__doprnt@width^(0+384)
  2125  0D6C  01AE               	clrf	(__doprnt@width+1)^(0+384)
  2126                           
  2127                           ;doprnt.c: 557: flag = 0;
  2128  0D6D  01AC               	clrf	__doprnt@flag^(0+384)
  2129                           
  2130                           ;doprnt.c: 560: switch(*f) {
  2131                           
  2132                           ;doprnt.c: 559: for(;;) {
  2133  0D6E  2D74               	goto	l5219
  2134  0D6F                     l395:	
  2135                           ;doprnt.c: 588: case '0':
  2136                           
  2137                           
  2138                           ;doprnt.c: 589: flag |= 0x04;
  2139  0D6F  152C               	bsf	__doprnt@flag^(0+384),2
  2140                           
  2141                           ;doprnt.c: 590: f++;
  2142  0D70  3001               	movlw	1
  2143  0D71  00A4               	movwf	??__doprnt^(0+384)
  2144  0D72  0824               	movf	??__doprnt^(0+384),w
  2145  0D73  07A1               	addwf	__doprnt@f^(0+384),f
  2146  0D74                     l5219:	
  2147                           ;doprnt.c: 593: }
  2148                           
  2149                           ;doprnt.c: 591: continue;
  2150                           
  2151  0D74  0821               	movf	__doprnt@f^(0+384),w
  2152  0D75  0084               	movwf	4
  2153  0D76  120A  158A  200A  120A  158A  	fcall	stringdir
  2154                           
  2155                           ; Switch size 1, requested type "space"
  2156                           ; Number of cases is 1, Range of values is 48 to 48
  2157                           ; switch strategies available:
  2158                           ; Name         Instructions Cycles
  2159                           ; simple_byte            4     3 (average)
  2160                           ; direct_byte           14    11 (fixed)
  2161                           ; jumptable            263     9 (fixed)
  2162                           ;	Chosen strategy is simple_byte
  2163  0D7B  3A30               	xorlw	48	; case 48
  2164  0D7C  1903               	skipnz
  2165  0D7D  2D6F               	goto	l395
  2166  0D7E  2D7F               	goto	l5221
  2167  0D7F                     l5221:	
  2168                           ;doprnt.c: 595: }
  2169                           
  2170                           ;doprnt.c: 594: break;
  2171                           
  2172                           
  2173                           ;doprnt.c: 606: if(isdigit((unsigned)*f)) {
  2174  0D7F  0821               	movf	__doprnt@f^(0+384),w
  2175  0D80  0084               	movwf	4
  2176  0D81  120A  158A  200A  120A  158A  	fcall	stringdir
  2177  0D86  160A  118A  2032  120A  158A  	fcall	_isdigit
  2178  0D8B  1C03               	btfss	3,0
  2179  0D8C  2DCF               	goto	l5235
  2180                           
  2181                           ;doprnt.c: 607: width = 0;
  2182  0D8D  1683               	bsf	3,5	;RP0=1, select bank3
  2183  0D8E  1703               	bsf	3,6	;RP1=1, select bank3
  2184  0D8F  01AD               	clrf	__doprnt@width^(0+384)
  2185  0D90  01AE               	clrf	(__doprnt@width+1)^(0+384)
  2186  0D91                     l5225:	
  2187                           ;doprnt.c: 608: do {
  2188                           
  2189                           
  2190                           ;doprnt.c: 609: width *= 10;
  2191  0D91  300A               	movlw	10
  2192  0D92  1683               	bsf	3,5	;RP0=1, select bank3
  2193  0D93  1703               	bsf	3,6	;RP1=1, select bank3
  2194  0D94  0091               	movwf	___wmul@multiplier^(0+384)
  2195  0D95  3000               	movlw	0
  2196  0D96  0092               	movwf	(___wmul@multiplier^(0+384)+1)
  2197  0D97  082E               	movf	(__doprnt@width+1)^(0+384),w
  2198  0D98  0194               	clrf	(___wmul@multiplicand+1)^(0+384)
  2199  0D99  0794               	addwf	(___wmul@multiplicand+1)^(0+384),f
  2200  0D9A  082D               	movf	__doprnt@width^(0+384),w
  2201  0D9B  0193               	clrf	___wmul@multiplicand^(0+384)
  2202  0D9C  0793               	addwf	___wmul@multiplicand^(0+384),f
  2203  0D9D  160A  118A  21B8  120A  158A  	fcall	___wmul
  2204  0DA2  1683               	bsf	3,5	;RP0=1, select bank3
  2205  0DA3  1703               	bsf	3,6	;RP1=1, select bank3
  2206  0DA4  0812               	movf	(?___wmul+1)^(0+384),w
  2207  0DA5  01AE               	clrf	(__doprnt@width+1)^(0+384)
  2208  0DA6  07AE               	addwf	(__doprnt@width+1)^(0+384),f
  2209  0DA7  0811               	movf	?___wmul^(0+384),w
  2210  0DA8  01AD               	clrf	__doprnt@width^(0+384)
  2211  0DA9  07AD               	addwf	__doprnt@width^(0+384),f
  2212                           
  2213                           ;doprnt.c: 610: width += *f++ - '0';
  2214  0DAA  0821               	movf	__doprnt@f^(0+384),w
  2215  0DAB  0084               	movwf	4
  2216  0DAC  120A  158A  200A  120A  158A  	fcall	stringdir
  2217  0DB1  3ED0               	addlw	208
  2218  0DB2  00A4               	movwf	??__doprnt^(0+384)
  2219  0DB3  30FF               	movlw	255
  2220  0DB4  1803               	skipnc
  2221  0DB5  3000               	movlw	0
  2222  0DB6  00A5               	movwf	(??__doprnt^(0+384)+1)
  2223  0DB7  0824               	movf	??__doprnt^(0+384),w
  2224  0DB8  07AD               	addwf	__doprnt@width^(0+384),f
  2225  0DB9  1803               	skipnc
  2226  0DBA  0AAE               	incf	(__doprnt@width+1)^(0+384),f
  2227  0DBB  0825               	movf	(??__doprnt+1)^(0+384),w
  2228  0DBC  07AE               	addwf	(__doprnt@width+1)^(0+384),f
  2229  0DBD  3001               	movlw	1
  2230  0DBE  00A4               	movwf	??__doprnt^(0+384)
  2231  0DBF  0824               	movf	??__doprnt^(0+384),w
  2232  0DC0  07A1               	addwf	__doprnt@f^(0+384),f
  2233                           
  2234                           ;doprnt.c: 611: } while(isdigit((unsigned)*f));
  2235  0DC1  0821               	movf	__doprnt@f^(0+384),w
  2236  0DC2  0084               	movwf	4
  2237  0DC3  120A  158A  200A  120A  158A  	fcall	stringdir
  2238  0DC8  160A  118A  2032  120A  158A  	fcall	_isdigit
  2239  0DCD  1803               	btfsc	3,0
  2240  0DCE  2D91               	goto	l5225
  2241  0DCF                     l5235:	
  2242                           ;doprnt.c: 831: }
  2243                           
  2244                           ;doprnt.c: 822: continue;
  2245                           
  2246                           ;doprnt.c: 811: default:
  2247                           
  2248                           ;doprnt.c: 707: case 'i':
  2249                           ;doprnt.c: 708: break;
  2250                           
  2251                           ;doprnt.c: 706: case 'd':
  2252                           
  2253                           ;doprnt.c: 647: goto alldone;
  2254                           
  2255                           ;doprnt.c: 646: case 0:
  2256                           
  2257                           ;doprnt.c: 617: }
  2258                           ;doprnt.c: 644: switch(c = *f++) {
  2259                           
  2260  0DCF  3001               	movlw	1
  2261  0DD0  1683               	bsf	3,5	;RP0=1, select bank3
  2262  0DD1  1703               	bsf	3,6	;RP1=1, select bank3
  2263  0DD2  07A1               	addwf	__doprnt@f^(0+384),f
  2264  0DD3  30FF               	movlw	-1
  2265  0DD4  0721               	addwf	__doprnt@f^(0+384),w
  2266  0DD5  0084               	movwf	4
  2267  0DD6  120A  158A  200A  120A  158A  	fcall	stringdir
  2268  0DDB  00AF               	movwf	__doprnt@c^(0+384)
  2269                           
  2270                           ; Switch size 1, requested type "space"
  2271                           ; Number of cases is 3, Range of values is 0 to 105
  2272                           ; switch strategies available:
  2273                           ; Name         Instructions Cycles
  2274                           ; simple_byte           10     6 (average)
  2275                           ; jumptable            260     6 (fixed)
  2276                           ;	Chosen strategy is simple_byte
  2277  0DDC  3A00               	xorlw	0	; case 0
  2278  0DDD  1903               	skipnz
  2279  0DDE  2FFB               	goto	l5329
  2280  0DDF  3A64               	xorlw	100	; case 100
  2281  0DE0  1903               	skipnz
  2282  0DE1  2DE6               	goto	l5237
  2283  0DE2  3A0D               	xorlw	13	; case 105
  2284  0DE3  1903               	skipnz
  2285  0DE4  2DE6               	goto	l5237
  2286  0DE5  2D15               	goto	l5327
  2287  0DE6                     l5237:	
  2288                           
  2289                           ;doprnt.c: 1262: {
  2290                           ;doprnt.c: 1268: _val._val = (int)(*(int *)__va_arg((*(int **)ap), (int)0));
  2291  0DE6  1683               	bsf	3,5	;RP0=1, select bank3
  2292  0DE7  1703               	bsf	3,6	;RP1=1, select bank3
  2293  0DE8  0822               	movf	__doprnt@ap^(0+384),w
  2294  0DE9  0084               	movwf	4
  2295  0DEA  1783               	bsf	3,7
  2296  0DEB  1C23               	btfss	(__doprnt@ap+1)^(0+384),0
  2297  0DEC  1383               	bcf	3,7
  2298  0DED  0800               	movf	0,w
  2299  0DEE  00A4               	movwf	??__doprnt^(0+384)
  2300  0DEF  3002               	movlw	2
  2301  0DF0  0780               	addwf	0,f
  2302  0DF1  0824               	movf	??__doprnt^(0+384),w
  2303  0DF2  0084               	movwf	4
  2304  0DF3  1783               	bsf	3,7	;select IRP bank2
  2305  0DF4  0800               	movf	0,w
  2306  0DF5  00A8               	movwf	__doprnt@_val^(0+384)
  2307  0DF6  0A84               	incf	4,f
  2308  0DF7  0800               	movf	0,w
  2309  0DF8  00A9               	movwf	(__doprnt@_val+1)^(0+384)
  2310                           
  2311                           ;doprnt.c: 1270: if((int)_val._val < 0) {
  2312  0DF9  1FA9               	btfss	(__doprnt@_val+1)^(0+384),7
  2313  0DFA  2E04               	goto	l5245
  2314                           
  2315                           ;doprnt.c: 1271: flag |= 0x03;
  2316  0DFB  3003               	movlw	3
  2317  0DFC  00A4               	movwf	??__doprnt^(0+384)
  2318  0DFD  0824               	movf	??__doprnt^(0+384),w
  2319  0DFE  04AC               	iorwf	__doprnt@flag^(0+384),f
  2320                           
  2321                           ;doprnt.c: 1272: _val._val = -_val._val;
  2322  0DFF  09A8               	comf	__doprnt@_val^(0+384),f
  2323  0E00  09A9               	comf	(__doprnt@_val+1)^(0+384),f
  2324  0E01  0AA8               	incf	__doprnt@_val^(0+384),f
  2325  0E02  1903               	skipnz
  2326  0E03  0AA9               	incf	(__doprnt@_val+1)^(0+384),f
  2327  0E04                     l5245:	
  2328                           
  2329                           ;doprnt.c: 1273: }
  2330                           ;doprnt.c: 1275: }
  2331                           ;doprnt.c: 1314: for(c = 1 ; c != sizeof dpowers/sizeof dpowers[0] ; c++)
  2332  0E04  01AF               	clrf	__doprnt@c^(0+384)
  2333  0E05  0AAF               	incf	__doprnt@c^(0+384),f
  2334  0E06  082F               	movf	__doprnt@c^(0+384),w
  2335  0E07  3A05               	xorlw	5
  2336  0E08  1903               	btfsc	3,2
  2337  0E09  2E2B               	goto	l5257
  2338  0E0A                     l5249:	
  2339                           
  2340                           ;doprnt.c: 1315: if(_val._val < dpowers[c])
  2341  0E0A  082F               	movf	__doprnt@c^(0+384),w
  2342  0E0B  00A4               	movwf	??__doprnt^(0+384)
  2343  0E0C  0724               	addwf	??__doprnt^(0+384),w
  2344  0E0D  3E01               	addlw	low (_dpowers-__stringbase)
  2345  0E0E  0084               	movwf	4
  2346  0E0F  120A  158A  200A  120A  158A  	fcall	stringdir
  2347  0E14  00A5               	movwf	(??__doprnt+1)^(0+384)
  2348  0E15  120A  158A  200A  120A  158A  	fcall	stringdir
  2349  0E1A  00A6               	movwf	((??__doprnt+1)^(0+384)+1)
  2350  0E1B  0826               	movf	(??__doprnt+2)^(0+384),w
  2351  0E1C  0229               	subwf	(__doprnt@_val+1)^(0+384),w
  2352  0E1D  1D03               	skipz
  2353  0E1E  2E21               	goto	u6825
  2354  0E1F  0825               	movf	(??__doprnt+1)^(0+384),w
  2355  0E20  0228               	subwf	__doprnt@_val^(0+384),w
  2356  0E21                     u6825:	
  2357  0E21  1C03               	btfss	3,0
  2358  0E22  2E2B               	goto	l5257
  2359                           
  2360                           ;doprnt.c: 1316: break;
  2361  0E23  3001               	movlw	1
  2362  0E24  00A4               	movwf	??__doprnt^(0+384)
  2363  0E25  0824               	movf	??__doprnt^(0+384),w
  2364  0E26  07AF               	addwf	__doprnt@c^(0+384),f
  2365  0E27  082F               	movf	__doprnt@c^(0+384),w
  2366  0E28  3A05               	xorlw	5
  2367  0E29  1D03               	skipz
  2368  0E2A  2E0A               	goto	l5249
  2369  0E2B                     l5257:	
  2370                           
  2371                           ;doprnt.c: 1354: if(width && flag & 0x03)
  2372  0E2B  082E               	movf	(__doprnt@width+1)^(0+384),w
  2373  0E2C  042D               	iorwf	__doprnt@width^(0+384),w
  2374  0E2D  1903               	skipnz
  2375  0E2E  2E39               	goto	l413
  2376  0E2F  082C               	movf	__doprnt@flag^(0+384),w
  2377  0E30  3903               	andlw	3
  2378  0E31  1903               	btfsc	3,2
  2379  0E32  2E39               	goto	l413
  2380                           
  2381                           ;doprnt.c: 1355: width--;
  2382  0E33  30FF               	movlw	255
  2383  0E34  07AD               	addwf	__doprnt@width^(0+384),f
  2384  0E35  1803               	skipnc
  2385  0E36  0AAE               	incf	(__doprnt@width+1)^(0+384),f
  2386  0E37  30FF               	movlw	255
  2387  0E38  07AE               	addwf	(__doprnt@width+1)^(0+384),f
  2388  0E39                     l413:	
  2389                           
  2390                           ;doprnt.c: 1390: if(width > c)
  2391  0E39  082F               	movf	__doprnt@c^(0+384),w
  2392  0E3A  00A4               	movwf	??__doprnt^(0+384)
  2393  0E3B  01A5               	clrf	(??__doprnt^(0+384)+1)
  2394  0E3C  1BA4               	btfsc	??__doprnt^(0+384),7
  2395  0E3D  03A5               	decf	(??__doprnt^(0+384)+1),f
  2396  0E3E  0825               	movf	(??__doprnt+1)^(0+384),w
  2397  0E3F  3A80               	xorlw	128
  2398  0E40  00A6               	movwf	(??__doprnt+2)^(0+384)
  2399  0E41  082E               	movf	(__doprnt@width+1)^(0+384),w
  2400  0E42  3A80               	xorlw	128
  2401  0E43  0226               	subwf	(??__doprnt+2)^(0+384),w
  2402  0E44  1D03               	skipz
  2403  0E45  2E48               	goto	u6865
  2404  0E46  082D               	movf	__doprnt@width^(0+384),w
  2405  0E47  0224               	subwf	??__doprnt^(0+384),w
  2406  0E48                     u6865:	
  2407  0E48  1803               	skipnc
  2408  0E49  2E58               	goto	l5265
  2409                           
  2410                           ;doprnt.c: 1391: width -= c;
  2411  0E4A  1683               	bsf	3,5	;RP0=1, select bank3
  2412  0E4B  1703               	bsf	3,6	;RP1=1, select bank3
  2413  0E4C  082F               	movf	__doprnt@c^(0+384),w
  2414  0E4D  00A4               	movwf	??__doprnt^(0+384)
  2415  0E4E  01A5               	clrf	(??__doprnt^(0+384)+1)
  2416  0E4F  1BA4               	btfsc	??__doprnt^(0+384),7
  2417  0E50  03A5               	decf	(??__doprnt^(0+384)+1),f
  2418  0E51  0824               	movf	??__doprnt^(0+384),w
  2419  0E52  02AD               	subwf	__doprnt@width^(0+384),f
  2420  0E53  0825               	movf	(??__doprnt+1)^(0+384),w
  2421  0E54  1C03               	skipc
  2422  0E55  03AE               	decf	(__doprnt@width+1)^(0+384),f
  2423  0E56  02AE               	subwf	(__doprnt@width+1)^(0+384),f
  2424  0E57  2E5C               	goto	l5267
  2425  0E58                     l5265:	
  2426                           
  2427                           ;doprnt.c: 1392: else
  2428                           ;doprnt.c: 1393: width = 0;
  2429  0E58  1683               	bsf	3,5	;RP0=1, select bank3
  2430  0E59  1703               	bsf	3,6	;RP1=1, select bank3
  2431  0E5A  01AD               	clrf	__doprnt@width^(0+384)
  2432  0E5B  01AE               	clrf	(__doprnt@width+1)^(0+384)
  2433  0E5C                     l5267:	
  2434                           
  2435                           ;doprnt.c: 1396: if(flag & 0x04) {
  2436  0E5C  1D2C               	btfss	__doprnt@flag^(0+384),2
  2437  0E5D  2EEB               	goto	l5291
  2438                           
  2439                           ;doprnt.c: 1401: if(flag & 0x03)
  2440  0E5E  082C               	movf	__doprnt@flag^(0+384),w
  2441  0E5F  3903               	andlw	3
  2442  0E60  1903               	btfsc	3,2
  2443  0E61  2E9F               	goto	l5279
  2444                           
  2445                           ;doprnt.c: 1402: if(pb->func) (pb->func('-')); else ((*pb->ptr++ = '-'));
  2446  0E62  3001               	movlw	1
  2447  0E63  071F               	addwf	__doprnt@pb^(0+384),w
  2448  0E64  00A4               	movwf	??__doprnt^(0+384)
  2449  0E65  0820               	movf	(__doprnt@pb+1)^(0+384),w
  2450  0E66  1803               	skipnc
  2451  0E67  3E01               	addlw	1
  2452  0E68  00A5               	movwf	(??__doprnt^(0+384)+1)
  2453  0E69  0824               	movf	??__doprnt^(0+384),w
  2454  0E6A  0084               	movwf	4
  2455  0E6B  1783               	bsf	3,7
  2456  0E6C  1C25               	btfss	(??__doprnt+1)^(0+384),0
  2457  0E6D  1383               	bcf	3,7
  2458  0E6E  0880               	movf	0,f
  2459  0E6F  1903               	skipnz
  2460  0E70  2E88               	goto	l5275
  2461  0E71  302D               	movlw	45
  2462  0E72  00A4               	movwf	??__doprnt^(0+384)
  2463  0E73  0824               	movf	??__doprnt^(0+384),w
  2464  0E74  0091               	movwf	putch@c^(0+384)
  2465  0E75  3001               	movlw	1
  2466  0E76  071F               	addwf	__doprnt@pb^(0+384),w
  2467  0E77  00A5               	movwf	(??__doprnt+1)^(0+384)
  2468  0E78  0820               	movf	(__doprnt@pb+1)^(0+384),w
  2469  0E79  1803               	skipnc
  2470  0E7A  3E01               	addlw	1
  2471  0E7B  00A6               	movwf	((??__doprnt+1)^(0+384)+1)
  2472  0E7C  0825               	movf	(??__doprnt+1)^(0+384),w
  2473  0E7D  0084               	movwf	4
  2474  0E7E  1783               	bsf	3,7
  2475  0E7F  1C26               	btfss	(??__doprnt+2)^(0+384),0
  2476  0E80  1383               	bcf	3,7
  2477  0E81  0800               	movf	0,w
  2478  0E82  120A  118A  2100  120A  158A  	fcall	fptable
  2479  0E87  2E9F               	goto	l5279
  2480  0E88                     l5275:	
  2481  0E88  302D               	movlw	45
  2482  0E89  1683               	bsf	3,5	;RP0=1, select bank3
  2483  0E8A  1703               	bsf	3,6	;RP1=1, select bank3
  2484  0E8B  00A4               	movwf	??__doprnt^(0+384)
  2485  0E8C  081F               	movf	__doprnt@pb^(0+384),w
  2486  0E8D  0084               	movwf	4
  2487  0E8E  1783               	bsf	3,7
  2488  0E8F  1C20               	btfss	(__doprnt@pb+1)^(0+384),0
  2489  0E90  1383               	bcf	3,7
  2490  0E91  0800               	movf	0,w
  2491  0E92  0084               	movwf	4
  2492  0E93  0824               	movf	??__doprnt^(0+384),w
  2493  0E94  1383               	bcf	3,7	;select IRP bank0
  2494  0E95  0080               	movwf	0
  2495  0E96  3001               	movlw	1
  2496  0E97  00A4               	movwf	??__doprnt^(0+384)
  2497  0E98  081F               	movf	__doprnt@pb^(0+384),w
  2498  0E99  0084               	movwf	4
  2499  0E9A  1783               	bsf	3,7
  2500  0E9B  1C20               	btfss	(__doprnt@pb+1)^(0+384),0
  2501  0E9C  1383               	bcf	3,7
  2502  0E9D  0824               	movf	??__doprnt^(0+384),w
  2503  0E9E  0780               	addwf	0,f
  2504  0E9F                     l5279:	
  2505                           
  2506                           ;doprnt.c: 1424: if(width)
  2507  0E9F  1683               	bsf	3,5	;RP0=1, select bank3
  2508  0EA0  1703               	bsf	3,6	;RP1=1, select bank3
  2509  0EA1                     L2:	
  2510  0EA1  082E               	movf	(__doprnt@width+1)^(0+384),w
  2511  0EA2  042D               	iorwf	__doprnt@width^(0+384),w
  2512  0EA3  1903               	skipnz
  2513  0EA4  2F79               	goto	l5313
  2514                           
  2515                           ;doprnt.c: 1426: if(pb->func) (pb->func('0')); else ((*pb->ptr++ = '0'));
  2516                           
  2517                           ;doprnt.c: 1425: do
  2518  0EA5  3001               	movlw	1
  2519  0EA6  071F               	addwf	__doprnt@pb^(0+384),w
  2520  0EA7  00A4               	movwf	??__doprnt^(0+384)
  2521  0EA8  0820               	movf	(__doprnt@pb+1)^(0+384),w
  2522  0EA9  1803               	skipnc
  2523  0EAA  3E01               	addlw	1
  2524  0EAB  00A5               	movwf	(??__doprnt^(0+384)+1)
  2525  0EAC  0824               	movf	??__doprnt^(0+384),w
  2526  0EAD  0084               	movwf	4
  2527  0EAE  1783               	bsf	3,7
  2528  0EAF  1C25               	btfss	(??__doprnt+1)^(0+384),0
  2529  0EB0  1383               	bcf	3,7
  2530  0EB1  0880               	movf	0,f
  2531  0EB2  1903               	skipnz
  2532  0EB3  2ECB               	goto	l5285
  2533  0EB4  3030               	movlw	48
  2534  0EB5  00A4               	movwf	??__doprnt^(0+384)
  2535  0EB6  0824               	movf	??__doprnt^(0+384),w
  2536  0EB7  0091               	movwf	putch@c^(0+384)
  2537  0EB8  3001               	movlw	1
  2538  0EB9  071F               	addwf	__doprnt@pb^(0+384),w
  2539  0EBA  00A5               	movwf	(??__doprnt+1)^(0+384)
  2540  0EBB  0820               	movf	(__doprnt@pb+1)^(0+384),w
  2541  0EBC  1803               	skipnc
  2542  0EBD  3E01               	addlw	1
  2543  0EBE  00A6               	movwf	((??__doprnt+1)^(0+384)+1)
  2544  0EBF  0825               	movf	(??__doprnt+1)^(0+384),w
  2545  0EC0  0084               	movwf	4
  2546  0EC1  1783               	bsf	3,7
  2547  0EC2  1C26               	btfss	(??__doprnt+2)^(0+384),0
  2548  0EC3  1383               	bcf	3,7
  2549  0EC4  0800               	movf	0,w
  2550  0EC5  120A  118A  2100  120A  158A  	fcall	fptable
  2551  0ECA  2EE2               	goto	l5289
  2552  0ECB                     l5285:	
  2553  0ECB  3030               	movlw	48
  2554  0ECC  1683               	bsf	3,5	;RP0=1, select bank3
  2555  0ECD  1703               	bsf	3,6	;RP1=1, select bank3
  2556  0ECE  00A4               	movwf	??__doprnt^(0+384)
  2557  0ECF  081F               	movf	__doprnt@pb^(0+384),w
  2558  0ED0  0084               	movwf	4
  2559  0ED1  1783               	bsf	3,7
  2560  0ED2  1C20               	btfss	(__doprnt@pb+1)^(0+384),0
  2561  0ED3  1383               	bcf	3,7
  2562  0ED4  0800               	movf	0,w
  2563  0ED5  0084               	movwf	4
  2564  0ED6  0824               	movf	??__doprnt^(0+384),w
  2565  0ED7  1383               	bcf	3,7	;select IRP bank0
  2566  0ED8  0080               	movwf	0
  2567  0ED9  3001               	movlw	1
  2568  0EDA  00A4               	movwf	??__doprnt^(0+384)
  2569  0EDB  081F               	movf	__doprnt@pb^(0+384),w
  2570  0EDC  0084               	movwf	4
  2571  0EDD  1783               	bsf	3,7
  2572  0EDE  1C20               	btfss	(__doprnt@pb+1)^(0+384),0
  2573  0EDF  1383               	bcf	3,7
  2574  0EE0  0824               	movf	??__doprnt^(0+384),w
  2575  0EE1  0780               	addwf	0,f
  2576  0EE2                     l5289:	
  2577                           
  2578                           ;doprnt.c: 1427: while(--width);
  2579  0EE2  30FF               	movlw	255
  2580  0EE3  1683               	bsf	3,5	;RP0=1, select bank3
  2581  0EE4  1703               	bsf	3,6	;RP1=1, select bank3
  2582  0EE5  07AD               	addwf	__doprnt@width^(0+384),f
  2583  0EE6  1803               	skipnc
  2584  0EE7  0AAE               	incf	(__doprnt@width+1)^(0+384),f
  2585  0EE8  30FF               	movlw	255
  2586  0EE9  07AE               	addwf	(__doprnt@width+1)^(0+384),f
  2587  0EEA  2EA1               	goto	L2
  2588  0EEB                     l5291:	
  2589                           ;doprnt.c: 1429: } else
  2590                           
  2591                           
  2592                           ;doprnt.c: 1431: {
  2593                           ;doprnt.c: 1433: if(width
  2594                           ;doprnt.c: 1437: )
  2595  0EEB  082E               	movf	(__doprnt@width+1)^(0+384),w
  2596  0EEC  042D               	iorwf	__doprnt@width^(0+384),w
  2597  0EED  1903               	skipnz
  2598  0EEE  2F38               	goto	l5303
  2599  0EEF                     l5293:	
  2600                           ;doprnt.c: 1438: do
  2601                           
  2602                           
  2603                           ;doprnt.c: 1439: if(pb->func) (pb->func(' ')); else ((*pb->ptr++ = ' '));
  2604  0EEF  3001               	movlw	1
  2605  0EF0  071F               	addwf	__doprnt@pb^(0+384),w
  2606  0EF1  00A4               	movwf	??__doprnt^(0+384)
  2607  0EF2  0820               	movf	(__doprnt@pb+1)^(0+384),w
  2608  0EF3  1803               	skipnc
  2609  0EF4  3E01               	addlw	1
  2610  0EF5  00A5               	movwf	(??__doprnt^(0+384)+1)
  2611  0EF6  0824               	movf	??__doprnt^(0+384),w
  2612  0EF7  0084               	movwf	4
  2613  0EF8  1783               	bsf	3,7
  2614  0EF9  1C25               	btfss	(??__doprnt+1)^(0+384),0
  2615  0EFA  1383               	bcf	3,7
  2616  0EFB  0880               	movf	0,f
  2617  0EFC  1903               	skipnz
  2618  0EFD  2F15               	goto	l5297
  2619  0EFE  3020               	movlw	32
  2620  0EFF  00A4               	movwf	??__doprnt^(0+384)
  2621  0F00  0824               	movf	??__doprnt^(0+384),w
  2622  0F01  0091               	movwf	putch@c^(0+384)
  2623  0F02  3001               	movlw	1
  2624  0F03  071F               	addwf	__doprnt@pb^(0+384),w
  2625  0F04  00A5               	movwf	(??__doprnt+1)^(0+384)
  2626  0F05  0820               	movf	(__doprnt@pb+1)^(0+384),w
  2627  0F06  1803               	skipnc
  2628  0F07  3E01               	addlw	1
  2629  0F08  00A6               	movwf	((??__doprnt+1)^(0+384)+1)
  2630  0F09  0825               	movf	(??__doprnt+1)^(0+384),w
  2631  0F0A  0084               	movwf	4
  2632  0F0B  1783               	bsf	3,7
  2633  0F0C  1C26               	btfss	(??__doprnt+2)^(0+384),0
  2634  0F0D  1383               	bcf	3,7
  2635  0F0E  0800               	movf	0,w
  2636  0F0F  120A  118A  2100  120A  158A  	fcall	fptable
  2637  0F14  2F2C               	goto	l5301
  2638  0F15                     l5297:	
  2639  0F15  3020               	movlw	32
  2640  0F16  1683               	bsf	3,5	;RP0=1, select bank3
  2641  0F17  1703               	bsf	3,6	;RP1=1, select bank3
  2642  0F18  00A4               	movwf	??__doprnt^(0+384)
  2643  0F19  081F               	movf	__doprnt@pb^(0+384),w
  2644  0F1A  0084               	movwf	4
  2645  0F1B  1783               	bsf	3,7
  2646  0F1C  1C20               	btfss	(__doprnt@pb+1)^(0+384),0
  2647  0F1D  1383               	bcf	3,7
  2648  0F1E  0800               	movf	0,w
  2649  0F1F  0084               	movwf	4
  2650  0F20  0824               	movf	??__doprnt^(0+384),w
  2651  0F21  1383               	bcf	3,7	;select IRP bank0
  2652  0F22  0080               	movwf	0
  2653  0F23  3001               	movlw	1
  2654  0F24  00A4               	movwf	??__doprnt^(0+384)
  2655  0F25  081F               	movf	__doprnt@pb^(0+384),w
  2656  0F26  0084               	movwf	4
  2657  0F27  1783               	bsf	3,7
  2658  0F28  1C20               	btfss	(__doprnt@pb+1)^(0+384),0
  2659  0F29  1383               	bcf	3,7
  2660  0F2A  0824               	movf	??__doprnt^(0+384),w
  2661  0F2B  0780               	addwf	0,f
  2662  0F2C                     l5301:	
  2663                           
  2664                           ;doprnt.c: 1440: while(--width);
  2665  0F2C  30FF               	movlw	255
  2666  0F2D  1683               	bsf	3,5	;RP0=1, select bank3
  2667  0F2E  1703               	bsf	3,6	;RP1=1, select bank3
  2668  0F2F  07AD               	addwf	__doprnt@width^(0+384),f
  2669  0F30  1803               	skipnc
  2670  0F31  0AAE               	incf	(__doprnt@width+1)^(0+384),f
  2671  0F32  30FF               	movlw	255
  2672  0F33  07AE               	addwf	(__doprnt@width+1)^(0+384),f
  2673  0F34  082E               	movf	(__doprnt@width+1)^(0+384),w
  2674  0F35  042D               	iorwf	__doprnt@width^(0+384),w
  2675  0F36  1D03               	skipz
  2676  0F37  2EEF               	goto	l5293
  2677  0F38                     l5303:	
  2678                           
  2679                           ;doprnt.c: 1447: if(flag & 0x03)
  2680  0F38  082C               	movf	__doprnt@flag^(0+384),w
  2681  0F39  3903               	andlw	3
  2682  0F3A  1903               	btfsc	3,2
  2683  0F3B  2F79               	goto	l5313
  2684                           
  2685                           ;doprnt.c: 1448: if(pb->func) (pb->func('-')); else ((*pb->ptr++ = '-'));
  2686  0F3C  3001               	movlw	1
  2687  0F3D  071F               	addwf	__doprnt@pb^(0+384),w
  2688  0F3E  00A4               	movwf	??__doprnt^(0+384)
  2689  0F3F  0820               	movf	(__doprnt@pb+1)^(0+384),w
  2690  0F40  1803               	skipnc
  2691  0F41  3E01               	addlw	1
  2692  0F42  00A5               	movwf	(??__doprnt^(0+384)+1)
  2693  0F43  0824               	movf	??__doprnt^(0+384),w
  2694  0F44  0084               	movwf	4
  2695  0F45  1783               	bsf	3,7
  2696  0F46  1C25               	btfss	(??__doprnt+1)^(0+384),0
  2697  0F47  1383               	bcf	3,7
  2698  0F48  0880               	movf	0,f
  2699  0F49  1903               	skipnz
  2700  0F4A  2F62               	goto	l5309
  2701  0F4B  302D               	movlw	45
  2702  0F4C  00A4               	movwf	??__doprnt^(0+384)
  2703  0F4D  0824               	movf	??__doprnt^(0+384),w
  2704  0F4E  0091               	movwf	putch@c^(0+384)
  2705  0F4F  3001               	movlw	1
  2706  0F50  071F               	addwf	__doprnt@pb^(0+384),w
  2707  0F51  00A5               	movwf	(??__doprnt+1)^(0+384)
  2708  0F52  0820               	movf	(__doprnt@pb+1)^(0+384),w
  2709  0F53  1803               	skipnc
  2710  0F54  3E01               	addlw	1
  2711  0F55  00A6               	movwf	((??__doprnt+1)^(0+384)+1)
  2712  0F56  0825               	movf	(??__doprnt+1)^(0+384),w
  2713  0F57  0084               	movwf	4
  2714  0F58  1783               	bsf	3,7
  2715  0F59  1C26               	btfss	(??__doprnt+2)^(0+384),0
  2716  0F5A  1383               	bcf	3,7
  2717  0F5B  0800               	movf	0,w
  2718  0F5C  120A  118A  2100  120A  158A  	fcall	fptable
  2719  0F61  2F79               	goto	l5313
  2720  0F62                     l5309:	
  2721  0F62  302D               	movlw	45
  2722  0F63  1683               	bsf	3,5	;RP0=1, select bank3
  2723  0F64  1703               	bsf	3,6	;RP1=1, select bank3
  2724  0F65  00A4               	movwf	??__doprnt^(0+384)
  2725  0F66  081F               	movf	__doprnt@pb^(0+384),w
  2726  0F67  0084               	movwf	4
  2727  0F68  1783               	bsf	3,7
  2728  0F69  1C20               	btfss	(__doprnt@pb+1)^(0+384),0
  2729  0F6A  1383               	bcf	3,7
  2730  0F6B  0800               	movf	0,w
  2731  0F6C  0084               	movwf	4
  2732  0F6D  0824               	movf	??__doprnt^(0+384),w
  2733  0F6E  1383               	bcf	3,7	;select IRP bank0
  2734  0F6F  0080               	movwf	0
  2735  0F70  3001               	movlw	1
  2736  0F71  00A4               	movwf	??__doprnt^(0+384)
  2737  0F72  081F               	movf	__doprnt@pb^(0+384),w
  2738  0F73  0084               	movwf	4
  2739  0F74  1783               	bsf	3,7
  2740  0F75  1C20               	btfss	(__doprnt@pb+1)^(0+384),0
  2741  0F76  1383               	bcf	3,7
  2742  0F77  0824               	movf	??__doprnt^(0+384),w
  2743  0F78  0780               	addwf	0,f
  2744  0F79                     l5313:	
  2745                           
  2746                           ;doprnt.c: 1478: }
  2747                           ;doprnt.c: 1481: prec = c;
  2748  0F79  1683               	bsf	3,5	;RP0=1, select bank3
  2749  0F7A  1703               	bsf	3,6	;RP1=1, select bank3
  2750  0F7B  082F               	movf	__doprnt@c^(0+384),w
  2751  0F7C  00A4               	movwf	??__doprnt^(0+384)
  2752  0F7D  0824               	movf	??__doprnt^(0+384),w
  2753  0F7E  00A7               	movwf	__doprnt@prec^(0+384)
  2754  0F7F                     l5325:	
  2755                           ;doprnt.c: 1483: while(prec--) {
  2756                           
  2757  0F7F  30FF               	movlw	-1
  2758  0F80  1683               	bsf	3,5	;RP0=1, select bank3
  2759  0F81  1703               	bsf	3,6	;RP1=1, select bank3
  2760  0F82  00A4               	movwf	??__doprnt^(0+384)
  2761  0F83  0824               	movf	??__doprnt^(0+384),w
  2762  0F84  07A7               	addwf	__doprnt@prec^(0+384),f
  2763  0F85  0827               	movf	__doprnt@prec^(0+384),w
  2764  0F86  3AFF               	xorlw	-1
  2765  0F87  1903               	btfsc	3,2
  2766  0F88  2D15               	goto	l5327
  2767                           
  2768                           ;doprnt.c: 1487: {
  2769                           ;doprnt.c: 1498: c = (_val._val / dpowers[prec]) % 10 + '0';
  2770  0F89  300A               	movlw	10
  2771  0F8A  0099               	movwf	___lwmod@divisor^(0+384)
  2772  0F8B  3000               	movlw	0
  2773  0F8C  009A               	movwf	(___lwmod@divisor^(0+384)+1)
  2774  0F8D  0827               	movf	__doprnt@prec^(0+384),w
  2775  0F8E  00A4               	movwf	??__doprnt^(0+384)
  2776  0F8F  0724               	addwf	??__doprnt^(0+384),w
  2777  0F90  3E01               	addlw	low (_dpowers-__stringbase)
  2778  0F91  0084               	movwf	4
  2779  0F92  120A  158A  200A  120A  158A  	fcall	stringdir
  2780  0F97  0091               	movwf	___lwdiv@divisor^(0+384)
  2781  0F98  120A  158A  200A  120A  158A  	fcall	stringdir
  2782  0F9D  0092               	movwf	(___lwdiv@divisor+1)^(0+384)
  2783  0F9E  0829               	movf	(__doprnt@_val+1)^(0+384),w
  2784  0F9F  0194               	clrf	(___lwdiv@dividend+1)^(0+384)
  2785  0FA0  0794               	addwf	(___lwdiv@dividend+1)^(0+384),f
  2786  0FA1  0828               	movf	__doprnt@_val^(0+384),w
  2787  0FA2  0193               	clrf	___lwdiv@dividend^(0+384)
  2788  0FA3  0793               	addwf	___lwdiv@dividend^(0+384),f
  2789  0FA4  160A  118A  22B6  120A  158A  	fcall	___lwdiv
  2790  0FA9  1683               	bsf	3,5	;RP0=1, select bank3
  2791  0FAA  1703               	bsf	3,6	;RP1=1, select bank3
  2792  0FAB  0812               	movf	(?___lwdiv+1)^(0+384),w
  2793  0FAC  019C               	clrf	(___lwmod@dividend+1)^(0+384)
  2794  0FAD  079C               	addwf	(___lwmod@dividend+1)^(0+384),f
  2795  0FAE  0811               	movf	?___lwdiv^(0+384),w
  2796  0FAF  019B               	clrf	___lwmod@dividend^(0+384)
  2797  0FB0  079B               	addwf	___lwmod@dividend^(0+384),f
  2798  0FB1  160A  118A  2242  120A  158A  	fcall	___lwmod
  2799  0FB6  1683               	bsf	3,5	;RP0=1, select bank3
  2800  0FB7  1703               	bsf	3,6	;RP1=1, select bank3
  2801  0FB8  0819               	movf	?___lwmod^(0+384),w
  2802  0FB9  3E30               	addlw	48
  2803  0FBA  00A5               	movwf	(??__doprnt+1)^(0+384)
  2804  0FBB  0825               	movf	(??__doprnt+1)^(0+384),w
  2805  0FBC  00AF               	movwf	__doprnt@c^(0+384)
  2806                           
  2807                           ;doprnt.c: 1532: }
  2808                           ;doprnt.c: 1533: if(pb->func) (pb->func(c)); else ((*pb->ptr++ = c));
  2809  0FBD  3001               	movlw	1
  2810  0FBE  071F               	addwf	__doprnt@pb^(0+384),w
  2811  0FBF  00A4               	movwf	??__doprnt^(0+384)
  2812  0FC0  0820               	movf	(__doprnt@pb+1)^(0+384),w
  2813  0FC1  1803               	skipnc
  2814  0FC2  3E01               	addlw	1
  2815  0FC3  00A5               	movwf	(??__doprnt^(0+384)+1)
  2816  0FC4  0824               	movf	??__doprnt^(0+384),w
  2817  0FC5  0084               	movwf	4
  2818  0FC6  1783               	bsf	3,7
  2819  0FC7  1C25               	btfss	(??__doprnt+1)^(0+384),0
  2820  0FC8  1383               	bcf	3,7
  2821  0FC9  0880               	movf	0,f
  2822  0FCA  1903               	skipnz
  2823  0FCB  2FE3               	goto	l5321
  2824  0FCC  082F               	movf	__doprnt@c^(0+384),w
  2825  0FCD  00A4               	movwf	??__doprnt^(0+384)
  2826  0FCE  0824               	movf	??__doprnt^(0+384),w
  2827  0FCF  0091               	movwf	putch@c^(0+384)
  2828  0FD0  3001               	movlw	1
  2829  0FD1  071F               	addwf	__doprnt@pb^(0+384),w
  2830  0FD2  00A5               	movwf	(??__doprnt+1)^(0+384)
  2831  0FD3  0820               	movf	(__doprnt@pb+1)^(0+384),w
  2832  0FD4  1803               	skipnc
  2833  0FD5  3E01               	addlw	1
  2834  0FD6  00A6               	movwf	((??__doprnt+1)^(0+384)+1)
  2835  0FD7  0825               	movf	(??__doprnt+1)^(0+384),w
  2836  0FD8  0084               	movwf	4
  2837  0FD9  1783               	bsf	3,7
  2838  0FDA  1C26               	btfss	(??__doprnt+2)^(0+384),0
  2839  0FDB  1383               	bcf	3,7
  2840  0FDC  0800               	movf	0,w
  2841  0FDD  120A  118A  2100  120A  158A  	fcall	fptable
  2842  0FE2  2F7F               	goto	l5325
  2843  0FE3                     l5321:	
  2844  0FE3  1683               	bsf	3,5	;RP0=1, select bank3
  2845  0FE4  1703               	bsf	3,6	;RP1=1, select bank3
  2846  0FE5  082F               	movf	__doprnt@c^(0+384),w
  2847  0FE6  00A4               	movwf	??__doprnt^(0+384)
  2848  0FE7  081F               	movf	__doprnt@pb^(0+384),w
  2849  0FE8  0084               	movwf	4
  2850  0FE9  1783               	bsf	3,7
  2851  0FEA  1C20               	btfss	(__doprnt@pb+1)^(0+384),0
  2852  0FEB  1383               	bcf	3,7
  2853  0FEC  0800               	movf	0,w
  2854  0FED  0084               	movwf	4
  2855  0FEE  0824               	movf	??__doprnt^(0+384),w
  2856  0FEF  1383               	bcf	3,7	;select IRP bank0
  2857  0FF0  0080               	movwf	0
  2858  0FF1  3001               	movlw	1
  2859  0FF2  00A4               	movwf	??__doprnt^(0+384)
  2860  0FF3  081F               	movf	__doprnt@pb^(0+384),w
  2861  0FF4  0084               	movwf	4
  2862  0FF5  1783               	bsf	3,7
  2863  0FF6  1C20               	btfss	(__doprnt@pb+1)^(0+384),0
  2864  0FF7  1383               	bcf	3,7
  2865  0FF8  0824               	movf	??__doprnt^(0+384),w
  2866  0FF9  0780               	addwf	0,f
  2867  0FFA  2F7F               	goto	l5325
  2868  0FFB                     l5329:	
  2869                           ;doprnt.c: 1534: }
  2870                           ;doprnt.c: 1542: }
  2871                           ;doprnt.c: 1544: alldone:
  2872                           
  2873                           
  2874                           ;doprnt.c: 1549: return 0;
  2875  0FFB  1683               	bsf	3,5	;RP0=1, select bank3
  2876  0FFC  1703               	bsf	3,6	;RP1=1, select bank3
  2877  0FFD  019F               	clrf	?__doprnt^(0+384)
  2878  0FFE  01A0               	clrf	(?__doprnt+1)^(0+384)
  2879  0FFF  0008               	return
  2880  1000                     __end_of__doprnt:	
  2881                           
  2882                           	psect	text3
  2883  00FF                     __ptext3:	
  2884 ;; *************** function _putch *****************
  2885 ;; Defined at:
  2886 ;;		line 7 in file "C:\Program Files (x86)\Microchip\xc8\v1.33\sources\common\putch.c"
  2887 ;; Parameters:    Size  Location     Type
  2888 ;;  c               1    1[BANK3 ] unsigned char 
  2889 ;; Auto vars:     Size  Location     Type
  2890 ;;		None
  2891 ;; Return value:  Size  Location     Type
  2892 ;;		None               void
  2893 ;; Registers used:
  2894 ;;		None
  2895 ;; Tracked objects:
  2896 ;;		On entry : 0/0
  2897 ;;		On exit  : 0/0
  2898 ;;		Unchanged: 0/0
  2899 ;; Data sizes:     COMMON   BANK0   BANK1   BANK3   BANK2
  2900 ;;      Params:         0       0       0       1       0
  2901 ;;      Locals:         0       0       0       0       0
  2902 ;;      Temps:          0       0       0       0       0
  2903 ;;      Totals:         0       0       0       1       0
  2904 ;;Total ram usage:        1 bytes
  2905 ;; Hardware stack levels used:    1
  2906 ;; Hardware stack levels required when called:    5
  2907 ;; This function calls:
  2908 ;;		Nothing
  2909 ;; This function is called by:
  2910 ;;		i1__doprnt
  2911 ;;		__doprnt
  2912 ;; This function uses a non-reentrant model
  2913 ;;
  2914                           
  2915                           
  2916                           ;psect for function _putch
  2917  00FF                     _putch:	
  2918                           
  2919                           ;incstack = 0
  2920                           ; Regs used in _putch: []
  2921  00FF  0008               	return
  2922  0100                     __end_of_putch:	
  2923                           
  2924                           	psect	text4
  2925  1032                     __ptext4:	
  2926 ;; *************** function _isdigit *****************
  2927 ;; Defined at:
  2928 ;;		line 8 in file "C:\Program Files (x86)\Microchip\xc8\v1.33\sources\common\isdigit.c"
  2929 ;; Parameters:    Size  Location     Type
  2930 ;;  c               1    wreg     unsigned char 
  2931 ;; Auto vars:     Size  Location     Type
  2932 ;;  c               1    2[BANK3 ] unsigned char 
  2933 ;; Return value:  Size  Location     Type
  2934 ;;		None               void
  2935 ;; Registers used:
  2936 ;;		wreg, status,2, status,0
  2937 ;; Tracked objects:
  2938 ;;		On entry : 0/0
  2939 ;;		On exit  : 0/0
  2940 ;;		Unchanged: 0/0
  2941 ;; Data sizes:     COMMON   BANK0   BANK1   BANK3   BANK2
  2942 ;;      Params:         0       0       0       0       0
  2943 ;;      Locals:         0       0       0       2       0
  2944 ;;      Temps:          0       0       0       0       0
  2945 ;;      Totals:         0       0       0       2       0
  2946 ;;Total ram usage:        2 bytes
  2947 ;; Hardware stack levels used:    1
  2948 ;; Hardware stack levels required when called:    5
  2949 ;; This function calls:
  2950 ;;		Nothing
  2951 ;; This function is called by:
  2952 ;;		__doprnt
  2953 ;; This function uses a non-reentrant model
  2954 ;;
  2955                           
  2956                           
  2957                           ;psect for function _isdigit
  2958  1032                     _isdigit:	
  2959                           
  2960                           ;incstack = 0
  2961                           ; Regs used in _isdigit: [wreg+status,2+status,0]
  2962                           ;isdigit@c stored from wreg
  2963  1032  1683               	bsf	3,5	;RP0=1, select bank3
  2964  1033  1703               	bsf	3,6	;RP1=1, select bank3
  2965  1034  0092               	movwf	isdigit@c^(0+384)
  2966  1035  0191               	clrf	_isdigit$1415^(0+384)
  2967  1036  303A               	movlw	58
  2968  1037  0212               	subwf	isdigit@c^(0+384),w
  2969  1038  1803               	skipnc
  2970  1039  2840               	goto	l3367
  2971  103A  3030               	movlw	48
  2972  103B  0212               	subwf	isdigit@c^(0+384),w
  2973  103C  1C03               	skipc
  2974  103D  2840               	goto	l3367
  2975  103E  0191               	clrf	_isdigit$1415^(0+384)
  2976  103F  0A91               	incf	_isdigit$1415^(0+384),f
  2977  1040                     l3367:	
  2978  1040  0C11               	rrf	_isdigit$1415^(0+384),w
  2979  1041  0008               	return
  2980  1042                     __end_of_isdigit:	
  2981                           
  2982                           	psect	text5
  2983  11B8                     __ptext5:	
  2984 ;; *************** function ___wmul *****************
  2985 ;; Defined at:
  2986 ;;		line 15 in file "C:\Program Files (x86)\Microchip\xc8\v1.33\sources\common\Umul16.c"
  2987 ;; Parameters:    Size  Location     Type
  2988 ;;  multiplier      2    1[BANK3 ] unsigned int 
  2989 ;;  multiplicand    2    3[BANK3 ] unsigned int 
  2990 ;; Auto vars:     Size  Location     Type
  2991 ;;  product         2    5[BANK3 ] unsigned int 
  2992 ;; Return value:  Size  Location     Type
  2993 ;;                  2    1[BANK3 ] unsigned int 
  2994 ;; Registers used:
  2995 ;;		wreg, status,2, status,0
  2996 ;; Tracked objects:
  2997 ;;		On entry : 0/0
  2998 ;;		On exit  : 0/0
  2999 ;;		Unchanged: 0/0
  3000 ;; Data sizes:     COMMON   BANK0   BANK1   BANK3   BANK2
  3001 ;;      Params:         0       0       0       4       0
  3002 ;;      Locals:         0       0       0       2       0
  3003 ;;      Temps:          0       0       0       0       0
  3004 ;;      Totals:         0       0       0       6       0
  3005 ;;Total ram usage:        6 bytes
  3006 ;; Hardware stack levels used:    1
  3007 ;; Hardware stack levels required when called:    5
  3008 ;; This function calls:
  3009 ;;		Nothing
  3010 ;; This function is called by:
  3011 ;;		__doprnt
  3012 ;; This function uses a non-reentrant model
  3013 ;;
  3014                           
  3015                           
  3016                           ;psect for function ___wmul
  3017  11B8                     ___wmul:	
  3018                           
  3019                           ;incstack = 0
  3020                           ; Regs used in ___wmul: [wreg+status,2+status,0]
  3021  11B8  1683               	bsf	3,5	;RP0=1, select bank3
  3022  11B9  1703               	bsf	3,6	;RP1=1, select bank3
  3023  11BA  0195               	clrf	___wmul@product^(0+384)
  3024  11BB  0196               	clrf	(___wmul@product+1)^(0+384)
  3025  11BC                     l3373:	
  3026  11BC  1C11               	btfss	___wmul@multiplier^(0+384),0
  3027  11BD  29C4               	goto	l524
  3028  11BE  0813               	movf	___wmul@multiplicand^(0+384),w
  3029  11BF  0795               	addwf	___wmul@product^(0+384),f
  3030  11C0  1803               	skipnc
  3031  11C1  0A96               	incf	(___wmul@product+1)^(0+384),f
  3032  11C2  0814               	movf	(___wmul@multiplicand+1)^(0+384),w
  3033  11C3  0796               	addwf	(___wmul@product+1)^(0+384),f
  3034  11C4                     l524:	
  3035  11C4  3001               	movlw	1
  3036  11C5                     u4195:	
  3037  11C5  1003               	clrc
  3038  11C6  0D93               	rlf	___wmul@multiplicand^(0+384),f
  3039  11C7  0D94               	rlf	(___wmul@multiplicand+1)^(0+384),f
  3040  11C8  3EFF               	addlw	-1
  3041  11C9  1D03               	skipz
  3042  11CA  29C5               	goto	u4195
  3043  11CB  3001               	movlw	1
  3044  11CC                     u4205:	
  3045  11CC  1003               	clrc
  3046  11CD  0C92               	rrf	(___wmul@multiplier+1)^(0+384),f
  3047  11CE  0C91               	rrf	___wmul@multiplier^(0+384),f
  3048  11CF  3EFF               	addlw	-1
  3049  11D0  1D03               	skipz
  3050  11D1  29CC               	goto	u4205
  3051  11D2  0812               	movf	(___wmul@multiplier+1)^(0+384),w
  3052  11D3  0411               	iorwf	___wmul@multiplier^(0+384),w
  3053  11D4  1D03               	skipz
  3054  11D5  29BC               	goto	l3373
  3055  11D6  0816               	movf	(___wmul@product+1)^(0+384),w
  3056  11D7  0192               	clrf	(?___wmul+1)^(0+384)
  3057  11D8  0792               	addwf	(?___wmul+1)^(0+384),f
  3058  11D9  0815               	movf	___wmul@product^(0+384),w
  3059  11DA  0191               	clrf	?___wmul^(0+384)
  3060  11DB  0791               	addwf	?___wmul^(0+384),f
  3061  11DC  0008               	return
  3062  11DD                     __end_of___wmul:	
  3063                           
  3064                           	psect	text6
  3065  1242                     __ptext6:	
  3066 ;; *************** function ___lwmod *****************
  3067 ;; Defined at:
  3068 ;;		line 6 in file "C:\Program Files (x86)\Microchip\xc8\v1.33\sources\common\lwmod.c"
  3069 ;; Parameters:    Size  Location     Type
  3070 ;;  divisor         2    9[BANK3 ] unsigned int 
  3071 ;;  dividend        2   11[BANK3 ] unsigned int 
  3072 ;; Auto vars:     Size  Location     Type
  3073 ;;  counter         1   14[BANK3 ] unsigned char 
  3074 ;; Return value:  Size  Location     Type
  3075 ;;                  2    9[BANK3 ] unsigned int 
  3076 ;; Registers used:
  3077 ;;		wreg, status,2, status,0
  3078 ;; Tracked objects:
  3079 ;;		On entry : 0/0
  3080 ;;		On exit  : 0/0
  3081 ;;		Unchanged: 0/0
  3082 ;; Data sizes:     COMMON   BANK0   BANK1   BANK3   BANK2
  3083 ;;      Params:         0       0       0       4       0
  3084 ;;      Locals:         0       0       0       1       0
  3085 ;;      Temps:          0       0       0       1       0
  3086 ;;      Totals:         0       0       0       6       0
  3087 ;;Total ram usage:        6 bytes
  3088 ;; Hardware stack levels used:    1
  3089 ;; Hardware stack levels required when called:    5
  3090 ;; This function calls:
  3091 ;;		Nothing
  3092 ;; This function is called by:
  3093 ;;		__doprnt
  3094 ;; This function uses a non-reentrant model
  3095 ;;
  3096                           
  3097                           
  3098                           ;psect for function ___lwmod
  3099  1242                     ___lwmod:	
  3100                           
  3101                           ;incstack = 0
  3102                           ; Regs used in ___lwmod: [wreg+status,2+status,0]
  3103  1242  1683               	bsf	3,5	;RP0=1, select bank3
  3104  1243  1703               	bsf	3,6	;RP1=1, select bank3
  3105  1244  081A               	movf	(___lwmod@divisor+1)^(0+384),w
  3106  1245  0419               	iorwf	___lwmod@divisor^(0+384),w
  3107  1246  1903               	skipnz
  3108  1247  2A71               	goto	l3427
  3109  1248  019E               	clrf	___lwmod@counter^(0+384)
  3110  1249  0A9E               	incf	___lwmod@counter^(0+384),f
  3111  124A                     l3417:	
  3112  124A  1B9A               	btfsc	(___lwmod@divisor+1)^(0+384),7
  3113  124B  2A58               	goto	l3419
  3114  124C  3001               	movlw	1
  3115  124D                     u4305:	
  3116  124D  1003               	clrc
  3117  124E  0D99               	rlf	___lwmod@divisor^(0+384),f
  3118  124F  0D9A               	rlf	(___lwmod@divisor+1)^(0+384),f
  3119  1250  3EFF               	addlw	-1
  3120  1251  1D03               	skipz
  3121  1252  2A4D               	goto	u4305
  3122  1253  3001               	movlw	1
  3123  1254  009D               	movwf	??___lwmod^(0+384)
  3124  1255  081D               	movf	??___lwmod^(0+384),w
  3125  1256  079E               	addwf	___lwmod@counter^(0+384),f
  3126  1257  2A4A               	goto	l3417
  3127  1258                     l3419:	
  3128  1258  081A               	movf	(___lwmod@divisor+1)^(0+384),w
  3129  1259  021C               	subwf	(___lwmod@dividend+1)^(0+384),w
  3130  125A  1D03               	skipz
  3131  125B  2A5E               	goto	u4325
  3132  125C  0819               	movf	___lwmod@divisor^(0+384),w
  3133  125D  021B               	subwf	___lwmod@dividend^(0+384),w
  3134  125E                     u4325:	
  3135  125E  1C03               	skipc
  3136  125F  2A66               	goto	l3423
  3137  1260  0819               	movf	___lwmod@divisor^(0+384),w
  3138  1261  029B               	subwf	___lwmod@dividend^(0+384),f
  3139  1262  081A               	movf	(___lwmod@divisor+1)^(0+384),w
  3140  1263  1C03               	skipc
  3141  1264  039C               	decf	(___lwmod@dividend+1)^(0+384),f
  3142  1265  029C               	subwf	(___lwmod@dividend+1)^(0+384),f
  3143  1266                     l3423:	
  3144  1266  3001               	movlw	1
  3145  1267                     u4335:	
  3146  1267  1003               	clrc
  3147  1268  0C9A               	rrf	(___lwmod@divisor+1)^(0+384),f
  3148  1269  0C99               	rrf	___lwmod@divisor^(0+384),f
  3149  126A  3EFF               	addlw	-1
  3150  126B  1D03               	skipz
  3151  126C  2A67               	goto	u4335
  3152  126D  3001               	movlw	1
  3153  126E  029E               	subwf	___lwmod@counter^(0+384),f
  3154  126F  1D03               	btfss	3,2
  3155  1270  2A58               	goto	l3419
  3156  1271                     l3427:	
  3157  1271  081C               	movf	(___lwmod@dividend+1)^(0+384),w
  3158  1272  019A               	clrf	(?___lwmod+1)^(0+384)
  3159  1273  079A               	addwf	(?___lwmod+1)^(0+384),f
  3160  1274  081B               	movf	___lwmod@dividend^(0+384),w
  3161  1275  0199               	clrf	?___lwmod^(0+384)
  3162  1276  0799               	addwf	?___lwmod^(0+384),f
  3163  1277  0008               	return
  3164  1278                     __end_of___lwmod:	
  3165                           
  3166                           	psect	text7
  3167  12B6                     __ptext7:	
  3168 ;; *************** function ___lwdiv *****************
  3169 ;; Defined at:
  3170 ;;		line 6 in file "C:\Program Files (x86)\Microchip\xc8\v1.33\sources\common\lwdiv.c"
  3171 ;; Parameters:    Size  Location     Type
  3172 ;;  divisor         2    1[BANK3 ] unsigned int 
  3173 ;;  dividend        2    3[BANK3 ] unsigned int 
  3174 ;; Auto vars:     Size  Location     Type
  3175 ;;  quotient        2    7[BANK3 ] unsigned int 
  3176 ;;  counter         1    6[BANK3 ] unsigned char 
  3177 ;; Return value:  Size  Location     Type
  3178 ;;                  2    1[BANK3 ] unsigned int 
  3179 ;; Registers used:
  3180 ;;		wreg, status,2, status,0
  3181 ;; Tracked objects:
  3182 ;;		On entry : 0/0
  3183 ;;		On exit  : 0/0
  3184 ;;		Unchanged: 0/0
  3185 ;; Data sizes:     COMMON   BANK0   BANK1   BANK3   BANK2
  3186 ;;      Params:         0       0       0       4       0
  3187 ;;      Locals:         0       0       0       3       0
  3188 ;;      Temps:          0       0       0       1       0
  3189 ;;      Totals:         0       0       0       8       0
  3190 ;;Total ram usage:        8 bytes
  3191 ;; Hardware stack levels used:    1
  3192 ;; Hardware stack levels required when called:    5
  3193 ;; This function calls:
  3194 ;;		Nothing
  3195 ;; This function is called by:
  3196 ;;		__doprnt
  3197 ;; This function uses a non-reentrant model
  3198 ;;
  3199                           
  3200                           
  3201                           ;psect for function ___lwdiv
  3202  12B6                     ___lwdiv:	
  3203                           
  3204                           ;incstack = 0
  3205                           ; Regs used in ___lwdiv: [wreg+status,2+status,0]
  3206  12B6  1683               	bsf	3,5	;RP0=1, select bank3
  3207  12B7  1703               	bsf	3,6	;RP1=1, select bank3
  3208  12B8  0197               	clrf	___lwdiv@quotient^(0+384)
  3209  12B9  0198               	clrf	(___lwdiv@quotient+1)^(0+384)
  3210  12BA  0812               	movf	(___lwdiv@divisor+1)^(0+384),w
  3211  12BB  0411               	iorwf	___lwdiv@divisor^(0+384),w
  3212  12BC  1903               	skipnz
  3213  12BD  2AEF               	goto	l3405
  3214  12BE  0196               	clrf	___lwdiv@counter^(0+384)
  3215  12BF  0A96               	incf	___lwdiv@counter^(0+384),f
  3216  12C0                     l3393:	
  3217  12C0  1B92               	btfsc	(___lwdiv@divisor+1)^(0+384),7
  3218  12C1  2ACE               	goto	l3395
  3219  12C2  3001               	movlw	1
  3220  12C3                     u4235:	
  3221  12C3  1003               	clrc
  3222  12C4  0D91               	rlf	___lwdiv@divisor^(0+384),f
  3223  12C5  0D92               	rlf	(___lwdiv@divisor+1)^(0+384),f
  3224  12C6  3EFF               	addlw	-1
  3225  12C7  1D03               	skipz
  3226  12C8  2AC3               	goto	u4235
  3227  12C9  3001               	movlw	1
  3228  12CA  0095               	movwf	??___lwdiv^(0+384)
  3229  12CB  0815               	movf	??___lwdiv^(0+384),w
  3230  12CC  0796               	addwf	___lwdiv@counter^(0+384),f
  3231  12CD  2AC0               	goto	l3393
  3232  12CE                     l3395:	
  3233  12CE  3001               	movlw	1
  3234  12CF                     u4255:	
  3235  12CF  1003               	clrc
  3236  12D0  0D97               	rlf	___lwdiv@quotient^(0+384),f
  3237  12D1  0D98               	rlf	(___lwdiv@quotient+1)^(0+384),f
  3238  12D2  3EFF               	addlw	-1
  3239  12D3  1D03               	skipz
  3240  12D4  2ACF               	goto	u4255
  3241  12D5  0812               	movf	(___lwdiv@divisor+1)^(0+384),w
  3242  12D6  0214               	subwf	(___lwdiv@dividend+1)^(0+384),w
  3243  12D7  1D03               	skipz
  3244  12D8  2ADB               	goto	u4265
  3245  12D9  0811               	movf	___lwdiv@divisor^(0+384),w
  3246  12DA  0213               	subwf	___lwdiv@dividend^(0+384),w
  3247  12DB                     u4265:	
  3248  12DB  1C03               	skipc
  3249  12DC  2AE4               	goto	l3401
  3250  12DD  0811               	movf	___lwdiv@divisor^(0+384),w
  3251  12DE  0293               	subwf	___lwdiv@dividend^(0+384),f
  3252  12DF  0812               	movf	(___lwdiv@divisor+1)^(0+384),w
  3253  12E0  1C03               	skipc
  3254  12E1  0394               	decf	(___lwdiv@dividend+1)^(0+384),f
  3255  12E2  0294               	subwf	(___lwdiv@dividend+1)^(0+384),f
  3256  12E3  1417               	bsf	___lwdiv@quotient^(0+384),0
  3257  12E4                     l3401:	
  3258  12E4  3001               	movlw	1
  3259  12E5                     u4275:	
  3260  12E5  1003               	clrc
  3261  12E6  0C92               	rrf	(___lwdiv@divisor+1)^(0+384),f
  3262  12E7  0C91               	rrf	___lwdiv@divisor^(0+384),f
  3263  12E8  3EFF               	addlw	-1
  3264  12E9  1D03               	skipz
  3265  12EA  2AE5               	goto	u4275
  3266  12EB  3001               	movlw	1
  3267  12EC  0296               	subwf	___lwdiv@counter^(0+384),f
  3268  12ED  1D03               	btfss	3,2
  3269  12EE  2ACE               	goto	l3395
  3270  12EF                     l3405:	
  3271  12EF  0818               	movf	(___lwdiv@quotient+1)^(0+384),w
  3272  12F0  0192               	clrf	(?___lwdiv+1)^(0+384)
  3273  12F1  0792               	addwf	(?___lwdiv+1)^(0+384),f
  3274  12F2  0817               	movf	___lwdiv@quotient^(0+384),w
  3275  12F3  0191               	clrf	?___lwdiv^(0+384)
  3276  12F4  0791               	addwf	?___lwdiv^(0+384),f
  3277  12F5  0008               	return
  3278  12F6                     __end_of___lwdiv:	
  3279                           
  3280                           	psect	text8
  3281  11DD                     __ptext8:	
  3282 ;; *************** function _USART_WriteString *****************
  3283 ;; Defined at:
  3284 ;;		line 52 in file "C:\Users\332414\Desktop\Fuzzy-IA2\Cdigo em C no MPLAB\usart.c"
  3285 ;; Parameters:    Size  Location     Type
  3286 ;;  str             2    2[BANK3 ] PTR const unsigned char 
  3287 ;;		 -> STR_11(40), STR_10(3), display(10), STR_7(20), 
  3288 ;;		 -> STR_6(29), 
  3289 ;; Auto vars:     Size  Location     Type
  3290 ;;		None
  3291 ;; Return value:  Size  Location     Type
  3292 ;;		None               void
  3293 ;; Registers used:
  3294 ;;		wreg, fsr0l, fsr0h, status,2, status,0, btemp+1, pclath, cstack
  3295 ;; Tracked objects:
  3296 ;;		On entry : 0/0
  3297 ;;		On exit  : 0/0
  3298 ;;		Unchanged: 0/0
  3299 ;; Data sizes:     COMMON   BANK0   BANK1   BANK3   BANK2
  3300 ;;      Params:         0       0       0       2       0
  3301 ;;      Locals:         0       0       0       0       0
  3302 ;;      Temps:          0       0       0       0       0
  3303 ;;      Totals:         0       0       0       2       0
  3304 ;;Total ram usage:        2 bytes
  3305 ;; Hardware stack levels used:    1
  3306 ;; Hardware stack levels required when called:    6
  3307 ;; This function calls:
  3308 ;;		_USART_WriteChar
  3309 ;; This function is called by:
  3310 ;;		_main
  3311 ;;		_USART_ReceiveChar
  3312 ;; This function uses a non-reentrant model
  3313 ;;
  3314                           
  3315                           
  3316                           ;psect for function _USART_WriteString
  3317  11DD                     _USART_WriteString:	
  3318  11DD                     l3919:	
  3319                           ;usart.c: 54: while(*str != '\0')
  3320                           
  3321                           ;incstack = 0
  3322                           ; Regs used in _USART_WriteString: [wreg-fsr0h+status,2+status,0+btemp+1+pclath+cstack]
  3323                           
  3324  11DD  1683               	bsf	3,5	;RP0=1, select bank3
  3325  11DE  1703               	bsf	3,6	;RP1=1, select bank3
  3326  11DF  0813               	movf	(USART_WriteString@str+1)^(0+384),w
  3327  11E0  1283               	bcf	3,5	;RP0=0, select bank0
  3328  11E1  1303               	bcf	3,6	;RP1=0, select bank0
  3329  11E2  00FF               	movwf	127
  3330  11E3  1683               	bsf	3,5	;RP0=1, select bank3
  3331  11E4  1703               	bsf	3,6	;RP1=1, select bank3
  3332  11E5  0812               	movf	USART_WriteString@str^(0+384),w
  3333  11E6  0084               	movwf	4
  3334  11E7  1283               	bcf	3,5	;RP0=0, select bank0
  3335  11E8  1303               	bcf	3,6	;RP1=0, select bank0
  3336  11E9  120A  158A  2000  160A  118A  	fcall	stringtab
  3337  11EE  3800               	iorlw	0
  3338  11EF  1903               	btfsc	3,2
  3339  11F0  0008               	return
  3340                           
  3341                           ;usart.c: 55: {
  3342                           ;usart.c: 56: USART_WriteChar(*str);
  3343  11F1  1683               	bsf	3,5	;RP0=1, select bank3
  3344  11F2  1703               	bsf	3,6	;RP1=1, select bank3
  3345  11F3  0813               	movf	(USART_WriteString@str+1)^(0+384),w
  3346  11F4  1283               	bcf	3,5	;RP0=0, select bank0
  3347  11F5  1303               	bcf	3,6	;RP1=0, select bank0
  3348  11F6  00FF               	movwf	127
  3349  11F7  1683               	bsf	3,5	;RP0=1, select bank3
  3350  11F8  1703               	bsf	3,6	;RP1=1, select bank3
  3351  11F9  0812               	movf	USART_WriteString@str^(0+384),w
  3352  11FA  0084               	movwf	4
  3353  11FB  1283               	bcf	3,5	;RP0=0, select bank0
  3354  11FC  1303               	bcf	3,6	;RP1=0, select bank0
  3355  11FD  120A  158A  2000  160A  118A  	fcall	stringtab
  3356  1202  160A  118A  2024  160A  118A  	fcall	_USART_WriteChar
  3357                           
  3358                           ;usart.c: 57: str++;
  3359  1207  3001               	movlw	1
  3360  1208  1683               	bsf	3,5	;RP0=1, select bank3
  3361  1209  1703               	bsf	3,6	;RP1=1, select bank3
  3362  120A  0792               	addwf	USART_WriteString@str^(0+384),f
  3363  120B  1803               	skipnc
  3364  120C  0A93               	incf	(USART_WriteString@str+1)^(0+384),f
  3365  120D  29DD               	goto	l3919
  3366  120E                     __end_of_USART_WriteString:	
  3367                           
  3368                           	psect	text9
  3369  1024                     __ptext9:	
  3370 ;; *************** function _USART_WriteChar *****************
  3371 ;; Defined at:
  3372 ;;		line 44 in file "C:\Users\332414\Desktop\Fuzzy-IA2\Cdigo em C no MPLAB\usart.c"
  3373 ;; Parameters:    Size  Location     Type
  3374 ;;  byte            1    wreg     unsigned char 
  3375 ;; Auto vars:     Size  Location     Type
  3376 ;;  byte            1    1[BANK3 ] unsigned char 
  3377 ;; Return value:  Size  Location     Type
  3378 ;;		None               void
  3379 ;; Registers used:
  3380 ;;		wreg
  3381 ;; Tracked objects:
  3382 ;;		On entry : 0/0
  3383 ;;		On exit  : 0/0
  3384 ;;		Unchanged: 0/0
  3385 ;; Data sizes:     COMMON   BANK0   BANK1   BANK3   BANK2
  3386 ;;      Params:         0       0       0       0       0
  3387 ;;      Locals:         0       0       0       1       0
  3388 ;;      Temps:          0       0       0       0       0
  3389 ;;      Totals:         0       0       0       1       0
  3390 ;;Total ram usage:        1 bytes
  3391 ;; Hardware stack levels used:    1
  3392 ;; Hardware stack levels required when called:    5
  3393 ;; This function calls:
  3394 ;;		Nothing
  3395 ;; This function is called by:
  3396 ;;		_USART_WriteString
  3397 ;; This function uses a non-reentrant model
  3398 ;;
  3399                           
  3400                           
  3401                           ;psect for function _USART_WriteChar
  3402  1024                     _USART_WriteChar:	
  3403                           
  3404                           ;incstack = 0
  3405                           ; Regs used in _USART_WriteChar: [wreg]
  3406                           ;USART_WriteChar@byte stored from wreg
  3407  1024  1683               	bsf	3,5	;RP0=1, select bank3
  3408  1025  1703               	bsf	3,6	;RP1=1, select bank3
  3409  1026  0091               	movwf	USART_WriteChar@byte^(0+384)
  3410  1027                     l143:	
  3411                           ;usart.c: 46: while(!PIR1bits.TXIF);
  3412                           
  3413  1027  1283               	bcf	3,5	;RP0=0, select bank0
  3414  1028  1303               	bcf	3,6	;RP1=0, select bank0
  3415  1029  1E0C               	btfss	12,4	;volatile
  3416  102A  2827               	goto	l143
  3417                           
  3418                           ;usart.c: 47: TXREG = byte;
  3419  102B  1683               	bsf	3,5	;RP0=1, select bank3
  3420  102C  1703               	bsf	3,6	;RP1=1, select bank3
  3421  102D  0811               	movf	USART_WriteChar@byte^(0+384),w
  3422  102E  1283               	bcf	3,5	;RP0=0, select bank0
  3423  102F  1303               	bcf	3,6	;RP1=0, select bank0
  3424  1030  0099               	movwf	25	;volatile
  3425  1031  0008               	return
  3426  1032                     __end_of_USART_WriteChar:	
  3427                           
  3428                           	psect	text10
  3429  07B5                     __ptext10:	
  3430 ;; *************** function _USART_Init *****************
  3431 ;; Defined at:
  3432 ;;		line 6 in file "C:\Users\332414\Desktop\Fuzzy-IA2\Cdigo em C no MPLAB\usart.c"
  3433 ;; Parameters:    Size  Location     Type
  3434 ;;  BaudRate        4   16[BANK3 ] long 
  3435 ;; Auto vars:     Size  Location     Type
  3436 ;;		None
  3437 ;; Return value:  Size  Location     Type
  3438 ;;		None               void
  3439 ;; Registers used:
  3440 ;;		wreg, status,2, status,0, pclath, cstack
  3441 ;; Tracked objects:
  3442 ;;		On entry : 0/0
  3443 ;;		On exit  : 0/0
  3444 ;;		Unchanged: 0/0
  3445 ;; Data sizes:     COMMON   BANK0   BANK1   BANK3   BANK2
  3446 ;;      Params:         0       0       0       4       0
  3447 ;;      Locals:         0       0       0       0       0
  3448 ;;      Temps:          0       0       0       4       0
  3449 ;;      Totals:         0       0       0       8       0
  3450 ;;Total ram usage:        8 bytes
  3451 ;; Hardware stack levels used:    1
  3452 ;; Hardware stack levels required when called:    6
  3453 ;; This function calls:
  3454 ;;		___aldiv
  3455 ;; This function is called by:
  3456 ;;		_main
  3457 ;; This function uses a non-reentrant model
  3458 ;;
  3459                           
  3460                           
  3461                           ;psect for function _USART_Init
  3462  07B5                     _USART_Init:	
  3463                           
  3464                           ;usart.c: 13: SPBRG = (unsigned char)(18432000 / (16 * BaudRate)) - 1;
  3465                           
  3466                           ;incstack = 0
  3467                           ; Regs used in _USART_Init: [wreg+status,2+status,0+pclath+cstack]
  3468  07B5  1683               	bsf	3,5	;RP0=1, select bank3
  3469  07B6  1703               	bsf	3,6	;RP1=1, select bank3
  3470  07B7  0820               	movf	USART_Init@BaudRate^(0+384),w
  3471  07B8  00A4               	movwf	??_USART_Init^(0+384)
  3472  07B9  0821               	movf	(USART_Init@BaudRate+1)^(0+384),w
  3473  07BA  00A5               	movwf	(??_USART_Init^(0+384)+1)
  3474  07BB  0822               	movf	(USART_Init@BaudRate+2)^(0+384),w
  3475  07BC  00A6               	movwf	(??_USART_Init^(0+384)+2)
  3476  07BD  0823               	movf	(USART_Init@BaudRate+3)^(0+384),w
  3477  07BE  00A7               	movwf	(??_USART_Init^(0+384)+3)
  3478  07BF  3004               	movlw	4
  3479  07C0                     u5055:	
  3480  07C0  1003               	clrc
  3481  07C1  0DA4               	rlf	??_USART_Init^(0+384),f
  3482  07C2  0DA5               	rlf	(??_USART_Init^(0+384)+1),f
  3483  07C3  0DA6               	rlf	(??_USART_Init^(0+384)+2),f
  3484  07C4  0DA7               	rlf	(??_USART_Init^(0+384)+3),f
  3485  07C5  3EFF               	addlw	-1
  3486  07C6  1D03               	skipz
  3487  07C7  2FC0               	goto	u5055
  3488  07C8  0827               	movf	(??_USART_Init+3)^(0+384),w
  3489  07C9  0094               	movwf	(___aldiv@divisor+3)^(0+384)
  3490  07CA  0826               	movf	(??_USART_Init+2)^(0+384),w
  3491  07CB  0093               	movwf	(___aldiv@divisor+2)^(0+384)
  3492  07CC  0825               	movf	(??_USART_Init+1)^(0+384),w
  3493  07CD  0092               	movwf	(___aldiv@divisor+1)^(0+384)
  3494  07CE  0824               	movf	??_USART_Init^(0+384),w
  3495  07CF  0091               	movwf	___aldiv@divisor^(0+384)
  3496  07D0  3001               	movlw	1
  3497  07D1  0098               	movwf	(___aldiv@dividend+3)^(0+384)
  3498  07D2  3019               	movlw	25
  3499  07D3  0097               	movwf	(___aldiv@dividend+2)^(0+384)
  3500  07D4  3040               	movlw	64
  3501  07D5  0096               	movwf	(___aldiv@dividend+1)^(0+384)
  3502  07D6  3000               	movlw	0
  3503  07D7  0095               	movwf	___aldiv@dividend^(0+384)
  3504  07D8  160A  118A  24B6   	fcall	___aldiv
  3505  07DB  1683               	bsf	3,5	;RP0=1, select bank3
  3506  07DC  1703               	bsf	3,6	;RP1=1, select bank3
  3507  07DD  0811               	movf	?___aldiv^(0+384),w
  3508  07DE  3EFF               	addlw	255
  3509  07DF  1683               	bsf	3,5	;RP0=1, select bank1
  3510  07E0  1303               	bcf	3,6	;RP1=0, select bank1
  3511  07E1  0099               	movwf	25	;volatile
  3512                           
  3513                           ;usart.c: 16: TXSTAbits.CSRC = 0;
  3514  07E2  1398               	bcf	24,7	;volatile
  3515                           
  3516                           ;usart.c: 17: TXSTAbits.TX9 = 0;
  3517  07E3  1318               	bcf	24,6	;volatile
  3518                           
  3519                           ;usart.c: 18: TXSTAbits.TXEN = 1;
  3520  07E4  1698               	bsf	24,5	;volatile
  3521                           
  3522                           ;usart.c: 19: TXSTAbits.SYNC = 0;
  3523  07E5  1218               	bcf	24,4	;volatile
  3524                           
  3525                           ;usart.c: 21: TXSTAbits.BRGH = 1;
  3526  07E6  1518               	bsf	24,2	;volatile
  3527                           
  3528                           ;usart.c: 22: TXSTAbits.TRMT = 1;
  3529  07E7  1498               	bsf	24,1	;volatile
  3530                           
  3531                           ;usart.c: 23: TXSTAbits.TX9D = 0;
  3532  07E8  1018               	bcf	24,0	;volatile
  3533                           
  3534                           ;usart.c: 26: RCSTAbits.SPEN = 1;
  3535  07E9  1283               	bcf	3,5	;RP0=0, select bank0
  3536  07EA  1303               	bcf	3,6	;RP1=0, select bank0
  3537  07EB  1798               	bsf	24,7	;volatile
  3538                           
  3539                           ;usart.c: 27: RCSTAbits.RX9 = 0;
  3540  07EC  1318               	bcf	24,6	;volatile
  3541                           
  3542                           ;usart.c: 28: RCSTAbits.SREN = 0;
  3543  07ED  1298               	bcf	24,5	;volatile
  3544                           
  3545                           ;usart.c: 29: RCSTAbits.CREN = 1;
  3546  07EE  1618               	bsf	24,4	;volatile
  3547                           
  3548                           ;usart.c: 30: RCSTAbits.ADDEN = 0;
  3549  07EF  1198               	bcf	24,3	;volatile
  3550                           
  3551                           ;usart.c: 31: RCSTAbits.FERR = 0;
  3552  07F0  1118               	bcf	24,2	;volatile
  3553                           
  3554                           ;usart.c: 32: RCSTAbits.OERR = 0;
  3555  07F1  1098               	bcf	24,1	;volatile
  3556                           
  3557                           ;usart.c: 33: RCSTAbits.RX9D = 0;
  3558  07F2  1018               	bcf	24,0	;volatile
  3559                           
  3560                           ;usart.c: 36: PIE1bits.TXIE = 0;
  3561  07F3  1683               	bsf	3,5	;RP0=1, select bank1
  3562  07F4  1303               	bcf	3,6	;RP1=0, select bank1
  3563  07F5  120C               	bcf	12,4	;volatile
  3564                           
  3565                           ;usart.c: 37: PIR1bits.TXIF = 0;
  3566  07F6  1283               	bcf	3,5	;RP0=0, select bank0
  3567  07F7  1303               	bcf	3,6	;RP1=0, select bank0
  3568  07F8  120C               	bcf	12,4	;volatile
  3569                           
  3570                           ;usart.c: 38: PIE1bits.RCIE = 1;
  3571  07F9  1683               	bsf	3,5	;RP0=1, select bank1
  3572  07FA  1303               	bcf	3,6	;RP1=0, select bank1
  3573  07FB  168C               	bsf	12,5	;volatile
  3574                           
  3575                           ;usart.c: 39: PIR1bits.RCIF = 0;
  3576  07FC  1283               	bcf	3,5	;RP0=0, select bank0
  3577  07FD  1303               	bcf	3,6	;RP1=0, select bank0
  3578  07FE  128C               	bcf	12,5	;volatile
  3579  07FF  0008               	return
  3580  0800                     __end_of_USART_Init:	
  3581                           
  3582                           	psect	text11
  3583  14B6                     __ptext11:	
  3584 ;; *************** function ___aldiv *****************
  3585 ;; Defined at:
  3586 ;;		line 6 in file "C:\Program Files (x86)\Microchip\xc8\v1.33\sources\common\aldiv.c"
  3587 ;; Parameters:    Size  Location     Type
  3588 ;;  divisor         4    1[BANK3 ] long 
  3589 ;;  dividend        4    5[BANK3 ] long 
  3590 ;; Auto vars:     Size  Location     Type
  3591 ;;  quotient        4   12[BANK3 ] long 
  3592 ;;  sign            1   11[BANK3 ] unsigned char 
  3593 ;;  counter         1   10[BANK3 ] unsigned char 
  3594 ;; Return value:  Size  Location     Type
  3595 ;;                  4    1[BANK3 ] long 
  3596 ;; Registers used:
  3597 ;;		wreg, status,2, status,0
  3598 ;; Tracked objects:
  3599 ;;		On entry : 0/0
  3600 ;;		On exit  : 0/0
  3601 ;;		Unchanged: 0/0
  3602 ;; Data sizes:     COMMON   BANK0   BANK1   BANK3   BANK2
  3603 ;;      Params:         0       0       0       8       0
  3604 ;;      Locals:         0       0       0       6       0
  3605 ;;      Temps:          0       0       0       1       0
  3606 ;;      Totals:         0       0       0      15       0
  3607 ;;Total ram usage:       15 bytes
  3608 ;; Hardware stack levels used:    1
  3609 ;; Hardware stack levels required when called:    5
  3610 ;; This function calls:
  3611 ;;		Nothing
  3612 ;; This function is called by:
  3613 ;;		_USART_Init
  3614 ;; This function uses a non-reentrant model
  3615 ;;
  3616                           
  3617                           
  3618                           ;psect for function ___aldiv
  3619  14B6                     ___aldiv:	
  3620                           
  3621                           ;incstack = 0
  3622                           ; Regs used in ___aldiv: [wreg+status,2+status,0]
  3623  14B6  1683               	bsf	3,5	;RP0=1, select bank3
  3624  14B7  1703               	bsf	3,6	;RP1=1, select bank3
  3625  14B8  019B               	clrf	___aldiv@sign^(0+384)
  3626  14B9  1F94               	btfss	(___aldiv@divisor+3)^(0+384),7
  3627  14BA  2CC8               	goto	l579
  3628  14BB  0991               	comf	___aldiv@divisor^(0+384),f
  3629  14BC  0992               	comf	(___aldiv@divisor+1)^(0+384),f
  3630  14BD  0993               	comf	(___aldiv@divisor+2)^(0+384),f
  3631  14BE  0994               	comf	(___aldiv@divisor+3)^(0+384),f
  3632  14BF  0A91               	incf	___aldiv@divisor^(0+384),f
  3633  14C0  1903               	skipnz
  3634  14C1  0A92               	incf	(___aldiv@divisor+1)^(0+384),f
  3635  14C2  1903               	skipnz
  3636  14C3  0A93               	incf	(___aldiv@divisor+2)^(0+384),f
  3637  14C4  1903               	skipnz
  3638  14C5  0A94               	incf	(___aldiv@divisor+3)^(0+384),f
  3639  14C6  019B               	clrf	___aldiv@sign^(0+384)
  3640  14C7  0A9B               	incf	___aldiv@sign^(0+384),f
  3641  14C8                     l579:	
  3642  14C8  1F98               	btfss	(___aldiv@dividend+3)^(0+384),7
  3643  14C9  2CD9               	goto	l3735
  3644  14CA  0995               	comf	___aldiv@dividend^(0+384),f
  3645  14CB  0996               	comf	(___aldiv@dividend+1)^(0+384),f
  3646  14CC  0997               	comf	(___aldiv@dividend+2)^(0+384),f
  3647  14CD  0998               	comf	(___aldiv@dividend+3)^(0+384),f
  3648  14CE  0A95               	incf	___aldiv@dividend^(0+384),f
  3649  14CF  1903               	skipnz
  3650  14D0  0A96               	incf	(___aldiv@dividend+1)^(0+384),f
  3651  14D1  1903               	skipnz
  3652  14D2  0A97               	incf	(___aldiv@dividend+2)^(0+384),f
  3653  14D3  1903               	skipnz
  3654  14D4  0A98               	incf	(___aldiv@dividend+3)^(0+384),f
  3655  14D5  3001               	movlw	1
  3656  14D6  0099               	movwf	??___aldiv^(0+384)
  3657  14D7  0819               	movf	??___aldiv^(0+384),w
  3658  14D8  069B               	xorwf	___aldiv@sign^(0+384),f
  3659  14D9                     l3735:	
  3660  14D9  3000               	movlw	0
  3661  14DA  009F               	movwf	(___aldiv@quotient+3)^(0+384)
  3662  14DB  3000               	movlw	0
  3663  14DC  009E               	movwf	(___aldiv@quotient+2)^(0+384)
  3664  14DD  3000               	movlw	0
  3665  14DE  009D               	movwf	(___aldiv@quotient+1)^(0+384)
  3666  14DF  3000               	movlw	0
  3667  14E0  009C               	movwf	___aldiv@quotient^(0+384)
  3668  14E1  0814               	movf	(___aldiv@divisor+3)^(0+384),w
  3669  14E2  0413               	iorwf	(___aldiv@divisor+2)^(0+384),w
  3670  14E3  0412               	iorwf	(___aldiv@divisor+1)^(0+384),w
  3671  14E4  0411               	iorwf	___aldiv@divisor^(0+384),w
  3672  14E5  1903               	skipnz
  3673  14E6  2D2E               	goto	l3757
  3674  14E7  019A               	clrf	___aldiv@counter^(0+384)
  3675  14E8  0A9A               	incf	___aldiv@counter^(0+384),f
  3676  14E9                     l3743:	
  3677  14E9  1B94               	btfsc	(___aldiv@divisor+3)^(0+384),7
  3678  14EA  2CF9               	goto	l3745
  3679  14EB  3001               	movlw	1
  3680  14EC  0099               	movwf	??___aldiv^(0+384)
  3681  14ED                     u4895:	
  3682  14ED  1003               	clrc
  3683  14EE  0D91               	rlf	___aldiv@divisor^(0+384),f
  3684  14EF  0D92               	rlf	(___aldiv@divisor+1)^(0+384),f
  3685  14F0  0D93               	rlf	(___aldiv@divisor+2)^(0+384),f
  3686  14F1  0D94               	rlf	(___aldiv@divisor+3)^(0+384),f
  3687  14F2  0B99               	decfsz	??___aldiv^(0+384),f
  3688  14F3  2CED               	goto	u4895
  3689  14F4  3001               	movlw	1
  3690  14F5  0099               	movwf	??___aldiv^(0+384)
  3691  14F6  0819               	movf	??___aldiv^(0+384),w
  3692  14F7  079A               	addwf	___aldiv@counter^(0+384),f
  3693  14F8  2CE9               	goto	l3743
  3694  14F9                     l3745:	
  3695  14F9  3001               	movlw	1
  3696  14FA  0099               	movwf	??___aldiv^(0+384)
  3697  14FB                     u4915:	
  3698  14FB  1003               	clrc
  3699  14FC  0D9C               	rlf	___aldiv@quotient^(0+384),f
  3700  14FD  0D9D               	rlf	(___aldiv@quotient+1)^(0+384),f
  3701  14FE  0D9E               	rlf	(___aldiv@quotient+2)^(0+384),f
  3702  14FF  0D9F               	rlf	(___aldiv@quotient+3)^(0+384),f
  3703  1500  0B99               	decfsz	??___aldiv^(0+384),f
  3704  1501  2CFB               	goto	u4915
  3705  1502  0814               	movf	(___aldiv@divisor+3)^(0+384),w
  3706  1503  0218               	subwf	(___aldiv@dividend+3)^(0+384),w
  3707  1504  1D03               	skipz
  3708  1505  2D10               	goto	u4925
  3709  1506  0813               	movf	(___aldiv@divisor+2)^(0+384),w
  3710  1507  0217               	subwf	(___aldiv@dividend+2)^(0+384),w
  3711  1508  1D03               	skipz
  3712  1509  2D10               	goto	u4925
  3713  150A  0812               	movf	(___aldiv@divisor+1)^(0+384),w
  3714  150B  0216               	subwf	(___aldiv@dividend+1)^(0+384),w
  3715  150C  1D03               	skipz
  3716  150D  2D10               	goto	u4925
  3717  150E  0811               	movf	___aldiv@divisor^(0+384),w
  3718  150F  0215               	subwf	___aldiv@dividend^(0+384),w
  3719  1510                     u4925:	
  3720  1510  1C03               	skipc
  3721  1511  2D21               	goto	l3753
  3722  1512  0811               	movf	___aldiv@divisor^(0+384),w
  3723  1513  0295               	subwf	___aldiv@dividend^(0+384),f
  3724  1514  0812               	movf	(___aldiv@divisor+1)^(0+384),w
  3725  1515  1C03               	skipc
  3726  1516  0F12               	incfsz	(___aldiv@divisor+1)^(0+384),w
  3727  1517  0296               	subwf	(___aldiv@dividend+1)^(0+384),f
  3728  1518  0813               	movf	(___aldiv@divisor+2)^(0+384),w
  3729  1519  1C03               	skipc
  3730  151A  0F13               	incfsz	(___aldiv@divisor+2)^(0+384),w
  3731  151B  0297               	subwf	(___aldiv@dividend+2)^(0+384),f
  3732  151C  0814               	movf	(___aldiv@divisor+3)^(0+384),w
  3733  151D  1C03               	skipc
  3734  151E  0F14               	incfsz	(___aldiv@divisor+3)^(0+384),w
  3735  151F  0298               	subwf	(___aldiv@dividend+3)^(0+384),f
  3736  1520  141C               	bsf	___aldiv@quotient^(0+384),0
  3737  1521                     l3753:	
  3738  1521  3001               	movlw	1
  3739  1522                     u4935:	
  3740  1522  1003               	clrc
  3741  1523  0C94               	rrf	(___aldiv@divisor+3)^(0+384),f
  3742  1524  0C93               	rrf	(___aldiv@divisor+2)^(0+384),f
  3743  1525  0C92               	rrf	(___aldiv@divisor+1)^(0+384),f
  3744  1526  0C91               	rrf	___aldiv@divisor^(0+384),f
  3745  1527  3EFF               	addlw	-1
  3746  1528  1D03               	skipz
  3747  1529  2D22               	goto	u4935
  3748  152A  3001               	movlw	1
  3749  152B  029A               	subwf	___aldiv@counter^(0+384),f
  3750  152C  1D03               	btfss	3,2
  3751  152D  2CF9               	goto	l3745
  3752  152E                     l3757:	
  3753  152E  081B               	movf	___aldiv@sign^(0+384),w
  3754  152F  1903               	btfsc	3,2
  3755  1530  2D3C               	goto	l3761
  3756  1531  099C               	comf	___aldiv@quotient^(0+384),f
  3757  1532  099D               	comf	(___aldiv@quotient+1)^(0+384),f
  3758  1533  099E               	comf	(___aldiv@quotient+2)^(0+384),f
  3759  1534  099F               	comf	(___aldiv@quotient+3)^(0+384),f
  3760  1535  0A9C               	incf	___aldiv@quotient^(0+384),f
  3761  1536  1903               	skipnz
  3762  1537  0A9D               	incf	(___aldiv@quotient+1)^(0+384),f
  3763  1538  1903               	skipnz
  3764  1539  0A9E               	incf	(___aldiv@quotient+2)^(0+384),f
  3765  153A  1903               	skipnz
  3766  153B  0A9F               	incf	(___aldiv@quotient+3)^(0+384),f
  3767  153C                     l3761:	
  3768  153C  081F               	movf	(___aldiv@quotient+3)^(0+384),w
  3769  153D  0094               	movwf	(?___aldiv+3)^(0+384)
  3770  153E  081E               	movf	(___aldiv@quotient+2)^(0+384),w
  3771  153F  0093               	movwf	(?___aldiv+2)^(0+384)
  3772  1540  081D               	movf	(___aldiv@quotient+1)^(0+384),w
  3773  1541  0092               	movwf	(?___aldiv+1)^(0+384)
  3774  1542  081C               	movf	___aldiv@quotient^(0+384),w
  3775  1543  0091               	movwf	?___aldiv^(0+384)
  3776  1544  0008               	return
  3777  1545                     __end_of___aldiv:	
  3778                           
  3779                           	psect	text12
  3780  1006                     __ptext12:	
  3781 ;; *************** function _TIMER0_Set *****************
  3782 ;; Defined at:
  3783 ;;		line 20 in file "C:\Users\332414\Desktop\Fuzzy-IA2\Cdigo em C no MPLAB\timers.c"
  3784 ;; Parameters:    Size  Location     Type
  3785 ;;  contagens       1    wreg     unsigned char 
  3786 ;; Auto vars:     Size  Location     Type
  3787 ;;  contagens       1    1[BANK3 ] unsigned char 
  3788 ;; Return value:  Size  Location     Type
  3789 ;;		None               void
  3790 ;; Registers used:
  3791 ;;		wreg
  3792 ;; Tracked objects:
  3793 ;;		On entry : 0/0
  3794 ;;		On exit  : 0/0
  3795 ;;		Unchanged: 0/0
  3796 ;; Data sizes:     COMMON   BANK0   BANK1   BANK3   BANK2
  3797 ;;      Params:         0       0       0       0       0
  3798 ;;      Locals:         0       0       0       1       0
  3799 ;;      Temps:          0       0       0       0       0
  3800 ;;      Totals:         0       0       0       1       0
  3801 ;;Total ram usage:        1 bytes
  3802 ;; Hardware stack levels used:    1
  3803 ;; Hardware stack levels required when called:    5
  3804 ;; This function calls:
  3805 ;;		Nothing
  3806 ;; This function is called by:
  3807 ;;		_main
  3808 ;; This function uses a non-reentrant model
  3809 ;;
  3810                           
  3811                           
  3812                           ;psect for function _TIMER0_Set
  3813  1006                     _TIMER0_Set:	
  3814                           
  3815                           ;incstack = 0
  3816                           ; Regs used in _TIMER0_Set: [wreg]
  3817                           ;TIMER0_Set@contagens stored from wreg
  3818  1006  1683               	bsf	3,5	;RP0=1, select bank3
  3819  1007  1703               	bsf	3,6	;RP1=1, select bank3
  3820  1008  0091               	movwf	TIMER0_Set@contagens^(0+384)
  3821                           
  3822                           ;timers.c: 22: TMR0 = contagens;
  3823  1009  0811               	movf	TIMER0_Set@contagens^(0+384),w
  3824  100A  1283               	bcf	3,5	;RP0=0, select bank0
  3825  100B  1303               	bcf	3,6	;RP1=0, select bank0
  3826  100C  0081               	movwf	1	;volatile
  3827  100D  0008               	return
  3828  100E                     __end_of_TIMER0_Set:	
  3829                           
  3830                           	psect	text13
  3831  00F4                     __ptext13:	
  3832 ;; *************** function _TIMER0_Init *****************
  3833 ;; Defined at:
  3834 ;;		line 6 in file "C:\Users\332414\Desktop\Fuzzy-IA2\Cdigo em C no MPLAB\timers.c"
  3835 ;; Parameters:    Size  Location     Type
  3836 ;;		None
  3837 ;; Auto vars:     Size  Location     Type
  3838 ;;		None
  3839 ;; Return value:  Size  Location     Type
  3840 ;;		None               void
  3841 ;; Registers used:
  3842 ;;		None
  3843 ;; Tracked objects:
  3844 ;;		On entry : 0/0
  3845 ;;		On exit  : 0/0
  3846 ;;		Unchanged: 0/0
  3847 ;; Data sizes:     COMMON   BANK0   BANK1   BANK3   BANK2
  3848 ;;      Params:         0       0       0       0       0
  3849 ;;      Locals:         0       0       0       0       0
  3850 ;;      Temps:          0       0       0       0       0
  3851 ;;      Totals:         0       0       0       0       0
  3852 ;;Total ram usage:        0 bytes
  3853 ;; Hardware stack levels used:    1
  3854 ;; Hardware stack levels required when called:    5
  3855 ;; This function calls:
  3856 ;;		Nothing
  3857 ;; This function is called by:
  3858 ;;		_main
  3859 ;; This function uses a non-reentrant model
  3860 ;;
  3861                           
  3862                           
  3863                           ;psect for function _TIMER0_Init
  3864  00F4                     _TIMER0_Init:	
  3865                           
  3866                           ;timers.c: 8: OPTION_REGbits.T0CS = 0;
  3867                           
  3868                           ;incstack = 0
  3869                           ; Regs used in _TIMER0_Init: []
  3870  00F4  1683               	bsf	3,5	;RP0=1, select bank1
  3871  00F5  1303               	bcf	3,6	;RP1=0, select bank1
  3872  00F6  1281               	bcf	1,5	;volatile
  3873                           
  3874                           ;timers.c: 9: OPTION_REGbits.T0SE = 0;
  3875  00F7  1201               	bcf	1,4	;volatile
  3876                           
  3877                           ;timers.c: 10: OPTION_REGbits.PSA = 0;
  3878  00F8  1181               	bcf	1,3	;volatile
  3879                           
  3880                           ;timers.c: 11: OPTION_REGbits.PS2 = 1;
  3881  00F9  1501               	bsf	1,2	;volatile
  3882                           
  3883                           ;timers.c: 12: OPTION_REGbits.PS1 = 1;
  3884  00FA  1481               	bsf	1,1	;volatile
  3885                           
  3886                           ;timers.c: 13: OPTION_REGbits.PS0 = 1;
  3887  00FB  1401               	bsf	1,0	;volatile
  3888                           
  3889                           ;timers.c: 14: INTCONbits.TMR0IF = 0;
  3890  00FC  110B               	bcf	11,2	;volatile
  3891                           
  3892                           ;timers.c: 15: INTCONbits.TMR0IE = 1;
  3893  00FD  168B               	bsf	11,5	;volatile
  3894  00FE  0008               	return
  3895  00FF                     __end_of_TIMER0_Init:	
  3896                           
  3897                           	psect	text14
  3898  1194                     __ptext14:	
  3899 ;; *************** function _PWM_Init *****************
  3900 ;; Defined at:
  3901 ;;		line 5 in file "C:\Users\332414\Desktop\Fuzzy-IA2\Cdigo em C no MPLAB\pwm.c"
  3902 ;; Parameters:    Size  Location     Type
  3903 ;;		None
  3904 ;; Auto vars:     Size  Location     Type
  3905 ;;		None
  3906 ;; Return value:  Size  Location     Type
  3907 ;;		None               void
  3908 ;; Registers used:
  3909 ;;		wreg
  3910 ;; Tracked objects:
  3911 ;;		On entry : 0/0
  3912 ;;		On exit  : 0/0
  3913 ;;		Unchanged: 0/0
  3914 ;; Data sizes:     COMMON   BANK0   BANK1   BANK3   BANK2
  3915 ;;      Params:         0       0       0       0       0
  3916 ;;      Locals:         0       0       0       0       0
  3917 ;;      Temps:          0       0       0       0       0
  3918 ;;      Totals:         0       0       0       0       0
  3919 ;;Total ram usage:        0 bytes
  3920 ;; Hardware stack levels used:    1
  3921 ;; Hardware stack levels required when called:    5
  3922 ;; This function calls:
  3923 ;;		Nothing
  3924 ;; This function is called by:
  3925 ;;		_main
  3926 ;; This function uses a non-reentrant model
  3927 ;;
  3928                           
  3929                           
  3930                           ;psect for function _PWM_Init
  3931  1194                     _PWM_Init:	
  3932                           
  3933                           ;pwm.c: 14: T2CONbits.T2CKPS1 = 1;
  3934                           
  3935                           ;incstack = 0
  3936                           ; Regs used in _PWM_Init: [wreg]
  3937  1194  1283               	bcf	3,5	;RP0=0, select bank0
  3938  1195  1303               	bcf	3,6	;RP1=0, select bank0
  3939  1196  1492               	bsf	18,1	;volatile
  3940                           
  3941                           ;pwm.c: 15: T2CONbits.T2CKPS0 = 0;
  3942  1197  1012               	bcf	18,0	;volatile
  3943                           
  3944                           ;pwm.c: 18: T2CONbits.TOUTPS3 = 0;
  3945  1198  1312               	bcf	18,6	;volatile
  3946                           
  3947                           ;pwm.c: 19: T2CONbits.TOUTPS2 = 0;
  3948  1199  1292               	bcf	18,5	;volatile
  3949                           
  3950                           ;pwm.c: 20: T2CONbits.TOUTPS1 = 0;
  3951  119A  1212               	bcf	18,4	;volatile
  3952                           
  3953                           ;pwm.c: 21: T2CONbits.TOUTPS0 = 0;
  3954  119B  1192               	bcf	18,3	;volatile
  3955                           
  3956                           ;pwm.c: 24: T2CONbits.TMR2ON = 1;
  3957  119C  1512               	bsf	18,2	;volatile
  3958                           
  3959                           ;pwm.c: 27: PR2 = 255;
  3960  119D  30FF               	movlw	255
  3961  119E  1683               	bsf	3,5	;RP0=1, select bank1
  3962  119F  1303               	bcf	3,6	;RP1=0, select bank1
  3963  11A0  0092               	movwf	18	;volatile
  3964                           
  3965                           ;pwm.c: 43: CCP1CONbits.CCP1M3 = 1;
  3966  11A1  1283               	bcf	3,5	;RP0=0, select bank0
  3967  11A2  1303               	bcf	3,6	;RP1=0, select bank0
  3968  11A3  1597               	bsf	23,3	;volatile
  3969                           
  3970                           ;pwm.c: 44: CCP1CONbits.CCP1M2 = 1;
  3971  11A4  1517               	bsf	23,2	;volatile
  3972                           
  3973                           ;pwm.c: 45: CCP1CONbits.CCP1M1 = 1;
  3974  11A5  1497               	bsf	23,1	;volatile
  3975                           
  3976                           ;pwm.c: 46: CCP1CONbits.CCP1M0 = 1;
  3977  11A6  1417               	bsf	23,0	;volatile
  3978                           
  3979                           ;pwm.c: 49: PIE1bits.CCP1IE = 1;
  3980  11A7  1683               	bsf	3,5	;RP0=1, select bank1
  3981  11A8  1303               	bcf	3,6	;RP1=0, select bank1
  3982  11A9  150C               	bsf	12,2	;volatile
  3983                           
  3984                           ;pwm.c: 50: PIR1bits.CCP1IF = 0;
  3985  11AA  1283               	bcf	3,5	;RP0=0, select bank0
  3986  11AB  1303               	bcf	3,6	;RP1=0, select bank0
  3987  11AC  110C               	bcf	12,2	;volatile
  3988                           
  3989                           ;pwm.c: 53: CCP2CONbits.CCP2M3 = 1;
  3990  11AD  159D               	bsf	29,3	;volatile
  3991                           
  3992                           ;pwm.c: 54: CCP2CONbits.CCP2M2 = 1;
  3993  11AE  151D               	bsf	29,2	;volatile
  3994                           
  3995                           ;pwm.c: 55: CCP2CONbits.CCP2M1 = 1;
  3996  11AF  149D               	bsf	29,1	;volatile
  3997                           
  3998                           ;pwm.c: 56: CCP2CONbits.CCP2M0 = 1;
  3999  11B0  141D               	bsf	29,0	;volatile
  4000                           
  4001                           ;pwm.c: 59: PIE2bits.CCP2IE = 1;
  4002  11B1  1683               	bsf	3,5	;RP0=1, select bank1
  4003  11B2  1303               	bcf	3,6	;RP1=0, select bank1
  4004  11B3  140D               	bsf	13,0	;volatile
  4005                           
  4006                           ;pwm.c: 60: PIR2bits.CCP2IF = 0;
  4007  11B4  1283               	bcf	3,5	;RP0=0, select bank0
  4008  11B5  1303               	bcf	3,6	;RP1=0, select bank0
  4009  11B6  100D               	bcf	13,0	;volatile
  4010  11B7  0008               	return
  4011  11B8                     __end_of_PWM_Init:	
  4012                           
  4013                           	psect	text15
  4014  112E                     __ptext15:	
  4015 ;; *************** function _PWM_DutyCycle2 *****************
  4016 ;; Defined at:
  4017 ;;		line 96 in file "C:\Users\332414\Desktop\Fuzzy-IA2\Cdigo em C no MPLAB\pwm.c"
  4018 ;; Parameters:    Size  Location     Type
  4019 ;;  valor           2    1[BANK3 ] int 
  4020 ;; Auto vars:     Size  Location     Type
  4021 ;;		None
  4022 ;; Return value:  Size  Location     Type
  4023 ;;		None               void
  4024 ;; Registers used:
  4025 ;;		wreg, status,2, status,0
  4026 ;; Tracked objects:
  4027 ;;		On entry : 0/0
  4028 ;;		On exit  : 0/0
  4029 ;;		Unchanged: 0/0
  4030 ;; Data sizes:     COMMON   BANK0   BANK1   BANK3   BANK2
  4031 ;;      Params:         0       0       0       2       0
  4032 ;;      Locals:         0       0       0       0       0
  4033 ;;      Temps:          0       0       0       2       0
  4034 ;;      Totals:         0       0       0       4       0
  4035 ;;Total ram usage:        4 bytes
  4036 ;; Hardware stack levels used:    1
  4037 ;; Hardware stack levels required when called:    5
  4038 ;; This function calls:
  4039 ;;		Nothing
  4040 ;; This function is called by:
  4041 ;;		_main
  4042 ;; This function uses a non-reentrant model
  4043 ;;
  4044                           
  4045                           
  4046                           ;psect for function _PWM_DutyCycle2
  4047  112E                     _PWM_DutyCycle2:	
  4048                           
  4049                           ;pwm.c: 98: CCPR2L = valor >> 2;
  4050                           
  4051                           ;incstack = 0
  4052                           ; Regs used in _PWM_DutyCycle2: [wreg+status,2+status,0]
  4053  112E  1683               	bsf	3,5	;RP0=1, select bank3
  4054  112F  1703               	bsf	3,6	;RP1=1, select bank3
  4055  1130  0812               	movf	(PWM_DutyCycle2@valor+1)^(0+384),w
  4056  1131  0094               	movwf	(??_PWM_DutyCycle2^(0+384)+1)
  4057  1132  0811               	movf	PWM_DutyCycle2@valor^(0+384),w
  4058  1133  0093               	movwf	??_PWM_DutyCycle2^(0+384)
  4059  1134  0D14               	rlf	(??_PWM_DutyCycle2^(0+384)+1),w
  4060  1135  0C94               	rrf	(??_PWM_DutyCycle2^(0+384)+1),f
  4061  1136  0C93               	rrf	??_PWM_DutyCycle2^(0+384),f
  4062  1137  0D14               	rlf	(??_PWM_DutyCycle2^(0+384)+1),w
  4063  1138  0C94               	rrf	(??_PWM_DutyCycle2^(0+384)+1),f
  4064  1139  0C93               	rrf	??_PWM_DutyCycle2^(0+384),f
  4065  113A  0813               	movf	??_PWM_DutyCycle2^(0+384),w
  4066  113B  1283               	bcf	3,5	;RP0=0, select bank0
  4067  113C  1303               	bcf	3,6	;RP1=0, select bank0
  4068  113D  009B               	movwf	27	;volatile
  4069                           
  4070                           ;pwm.c: 99: CCP2CON = (valor << 4)|0X0C;
  4071  113E  1683               	bsf	3,5	;RP0=1, select bank3
  4072  113F  1703               	bsf	3,6	;RP1=1, select bank3
  4073  1140  0811               	movf	PWM_DutyCycle2@valor^(0+384),w
  4074  1141  0093               	movwf	??_PWM_DutyCycle2^(0+384)
  4075  1142  3003               	movlw	3
  4076  1143                     u5045:	
  4077  1143  1003               	clrc
  4078  1144  0D93               	rlf	??_PWM_DutyCycle2^(0+384),f
  4079  1145  3EFF               	addlw	-1
  4080  1146  1D03               	skipz
  4081  1147  2943               	goto	u5045
  4082  1148  1003               	clrc
  4083  1149  0D13               	rlf	??_PWM_DutyCycle2^(0+384),w
  4084  114A  380C               	iorlw	12
  4085  114B  1283               	bcf	3,5	;RP0=0, select bank0
  4086  114C  1303               	bcf	3,6	;RP1=0, select bank0
  4087  114D  009D               	movwf	29	;volatile
  4088  114E  0008               	return
  4089  114F                     __end_of_PWM_DutyCycle2:	
  4090                           
  4091                           	psect	text16
  4092  110D                     __ptext16:	
  4093 ;; *************** function _PWM_DutyCycle1 *****************
  4094 ;; Defined at:
  4095 ;;		line 64 in file "C:\Users\332414\Desktop\Fuzzy-IA2\Cdigo em C no MPLAB\pwm.c"
  4096 ;; Parameters:    Size  Location     Type
  4097 ;;  valor           2    1[BANK3 ] int 
  4098 ;; Auto vars:     Size  Location     Type
  4099 ;;		None
  4100 ;; Return value:  Size  Location     Type
  4101 ;;		None               void
  4102 ;; Registers used:
  4103 ;;		wreg, status,2, status,0
  4104 ;; Tracked objects:
  4105 ;;		On entry : 0/0
  4106 ;;		On exit  : 0/0
  4107 ;;		Unchanged: 0/0
  4108 ;; Data sizes:     COMMON   BANK0   BANK1   BANK3   BANK2
  4109 ;;      Params:         0       0       0       2       0
  4110 ;;      Locals:         0       0       0       0       0
  4111 ;;      Temps:          0       0       0       2       0
  4112 ;;      Totals:         0       0       0       4       0
  4113 ;;Total ram usage:        4 bytes
  4114 ;; Hardware stack levels used:    1
  4115 ;; Hardware stack levels required when called:    5
  4116 ;; This function calls:
  4117 ;;		Nothing
  4118 ;; This function is called by:
  4119 ;;		_main
  4120 ;; This function uses a non-reentrant model
  4121 ;;
  4122                           
  4123                           
  4124                           ;psect for function _PWM_DutyCycle1
  4125  110D                     _PWM_DutyCycle1:	
  4126                           
  4127                           ;pwm.c: 91: CCPR1L = valor >> 2;
  4128                           
  4129                           ;incstack = 0
  4130                           ; Regs used in _PWM_DutyCycle1: [wreg+status,2+status,0]
  4131  110D  1683               	bsf	3,5	;RP0=1, select bank3
  4132  110E  1703               	bsf	3,6	;RP1=1, select bank3
  4133  110F  0812               	movf	(PWM_DutyCycle1@valor+1)^(0+384),w
  4134  1110  0094               	movwf	(??_PWM_DutyCycle1^(0+384)+1)
  4135  1111  0811               	movf	PWM_DutyCycle1@valor^(0+384),w
  4136  1112  0093               	movwf	??_PWM_DutyCycle1^(0+384)
  4137  1113  0D14               	rlf	(??_PWM_DutyCycle1^(0+384)+1),w
  4138  1114  0C94               	rrf	(??_PWM_DutyCycle1^(0+384)+1),f
  4139  1115  0C93               	rrf	??_PWM_DutyCycle1^(0+384),f
  4140  1116  0D14               	rlf	(??_PWM_DutyCycle1^(0+384)+1),w
  4141  1117  0C94               	rrf	(??_PWM_DutyCycle1^(0+384)+1),f
  4142  1118  0C93               	rrf	??_PWM_DutyCycle1^(0+384),f
  4143  1119  0813               	movf	??_PWM_DutyCycle1^(0+384),w
  4144  111A  1283               	bcf	3,5	;RP0=0, select bank0
  4145  111B  1303               	bcf	3,6	;RP1=0, select bank0
  4146  111C  0095               	movwf	21	;volatile
  4147                           
  4148                           ;pwm.c: 92: CCP1CON = (valor << 4)|0X0C;
  4149  111D  1683               	bsf	3,5	;RP0=1, select bank3
  4150  111E  1703               	bsf	3,6	;RP1=1, select bank3
  4151  111F  0811               	movf	PWM_DutyCycle1@valor^(0+384),w
  4152  1120  0093               	movwf	??_PWM_DutyCycle1^(0+384)
  4153  1121  3003               	movlw	3
  4154  1122                     u5095:	
  4155  1122  1003               	clrc
  4156  1123  0D93               	rlf	??_PWM_DutyCycle1^(0+384),f
  4157  1124  3EFF               	addlw	-1
  4158  1125  1D03               	skipz
  4159  1126  2922               	goto	u5095
  4160  1127  1003               	clrc
  4161  1128  0D13               	rlf	??_PWM_DutyCycle1^(0+384),w
  4162  1129  380C               	iorlw	12
  4163  112A  1283               	bcf	3,5	;RP0=0, select bank0
  4164  112B  1303               	bcf	3,6	;RP1=0, select bank0
  4165  112C  0097               	movwf	23	;volatile
  4166  112D  0008               	return
  4167  112E                     __end_of_PWM_DutyCycle1:	
  4168                           
  4169                           	psect	text17
  4170  10ED                     __ptext17:	
  4171 ;; *************** function _LCD_WriteString *****************
  4172 ;; Defined at:
  4173 ;;		line 61 in file "C:\Users\332414\Desktop\Fuzzy-IA2\Cdigo em C no MPLAB\lcd.c"
  4174 ;; Parameters:    Size  Location     Type
  4175 ;;  Str             1    wreg     PTR const unsigned char 
  4176 ;;		 -> STR_8(17), 
  4177 ;; Auto vars:     Size  Location     Type
  4178 ;;  Str             1    4[BANK3 ] PTR const unsigned char 
  4179 ;;		 -> STR_8(17), 
  4180 ;; Return value:  Size  Location     Type
  4181 ;;		None               void
  4182 ;; Registers used:
  4183 ;;		wreg, fsr0l, fsr0h, status,2, status,0, pclath, cstack
  4184 ;; Tracked objects:
  4185 ;;		On entry : 0/0
  4186 ;;		On exit  : 0/0
  4187 ;;		Unchanged: 0/0
  4188 ;; Data sizes:     COMMON   BANK0   BANK1   BANK3   BANK2
  4189 ;;      Params:         0       0       0       0       0
  4190 ;;      Locals:         0       0       0       1       0
  4191 ;;      Temps:          0       0       0       1       0
  4192 ;;      Totals:         0       0       0       2       0
  4193 ;;Total ram usage:        2 bytes
  4194 ;; Hardware stack levels used:    1
  4195 ;; Hardware stack levels required when called:    6
  4196 ;; This function calls:
  4197 ;;		_LCD_WriteData
  4198 ;; This function is called by:
  4199 ;;		_main
  4200 ;; This function uses a non-reentrant model
  4201 ;;
  4202                           
  4203                           
  4204                           ;psect for function _LCD_WriteString
  4205  10ED                     _LCD_WriteString:	
  4206                           
  4207                           ;incstack = 0
  4208                           ; Regs used in _LCD_WriteString: [wreg-fsr0h+status,2+status,0+pclath+cstack]
  4209                           ;LCD_WriteString@Str stored from wreg
  4210  10ED  1683               	bsf	3,5	;RP0=1, select bank3
  4211  10EE  1703               	bsf	3,6	;RP1=1, select bank3
  4212  10EF  0094               	movwf	LCD_WriteString@Str^(0+384)
  4213  10F0                     l3941:	
  4214                           ;lcd.c: 63: while(*Str != '\0')
  4215                           
  4216  10F0  0814               	movf	LCD_WriteString@Str^(0+384),w
  4217  10F1  0084               	movwf	4
  4218  10F2  120A  158A  200A  160A  118A  	fcall	stringdir
  4219  10F7  3800               	iorlw	0
  4220  10F8  1903               	btfsc	3,2
  4221  10F9  0008               	return
  4222                           
  4223                           ;lcd.c: 64: {
  4224                           ;lcd.c: 65: LCD_WriteData(*Str);
  4225  10FA  0814               	movf	LCD_WriteString@Str^(0+384),w
  4226  10FB  0084               	movwf	4
  4227  10FC  120A  158A  200A  160A  118A  	fcall	stringdir
  4228  1101  160A  118A  207F  160A  118A  	fcall	_LCD_WriteData
  4229                           
  4230                           ;lcd.c: 66: Str++;
  4231  1106  3001               	movlw	1
  4232  1107  1683               	bsf	3,5	;RP0=1, select bank3
  4233  1108  1703               	bsf	3,6	;RP1=1, select bank3
  4234  1109  0093               	movwf	??_LCD_WriteString^(0+384)
  4235  110A  0813               	movf	??_LCD_WriteString^(0+384),w
  4236  110B  0794               	addwf	LCD_WriteString@Str^(0+384),f
  4237  110C  28F0               	goto	l3941
  4238  110D                     __end_of_LCD_WriteString:	
  4239                           
  4240                           	psect	text18
  4241  107F                     __ptext18:	
  4242 ;; *************** function _LCD_WriteData *****************
  4243 ;; Defined at:
  4244 ;;		line 47 in file "C:\Users\332414\Desktop\Fuzzy-IA2\Cdigo em C no MPLAB\lcd.c"
  4245 ;; Parameters:    Size  Location     Type
  4246 ;;  Byte            1    wreg     unsigned char 
  4247 ;; Auto vars:     Size  Location     Type
  4248 ;;  Byte            1    2[BANK3 ] unsigned char 
  4249 ;; Return value:  Size  Location     Type
  4250 ;;		None               void
  4251 ;; Registers used:
  4252 ;;		wreg
  4253 ;; Tracked objects:
  4254 ;;		On entry : 0/0
  4255 ;;		On exit  : 0/0
  4256 ;;		Unchanged: 0/0
  4257 ;; Data sizes:     COMMON   BANK0   BANK1   BANK3   BANK2
  4258 ;;      Params:         0       0       0       0       0
  4259 ;;      Locals:         0       0       0       1       0
  4260 ;;      Temps:          0       0       0       1       0
  4261 ;;      Totals:         0       0       0       2       0
  4262 ;;Total ram usage:        2 bytes
  4263 ;; Hardware stack levels used:    1
  4264 ;; Hardware stack levels required when called:    5
  4265 ;; This function calls:
  4266 ;;		Nothing
  4267 ;; This function is called by:
  4268 ;;		_LCD_WriteString
  4269 ;; This function uses a non-reentrant model
  4270 ;;
  4271                           
  4272                           
  4273                           ;psect for function _LCD_WriteData
  4274  107F                     _LCD_WriteData:	
  4275                           
  4276                           ;incstack = 0
  4277                           ; Regs used in _LCD_WriteData: [wreg]
  4278                           ;LCD_WriteData@Byte stored from wreg
  4279  107F  1683               	bsf	3,5	;RP0=1, select bank3
  4280  1080  1703               	bsf	3,6	;RP1=1, select bank3
  4281  1081  0092               	movwf	LCD_WriteData@Byte^(0+384)
  4282                           
  4283                           ;lcd.c: 49: PORTEbits.RE0 = 1;
  4284  1082  1283               	bcf	3,5	;RP0=0, select bank0
  4285  1083  1303               	bcf	3,6	;RP1=0, select bank0
  4286  1084  1409               	bsf	9,0	;volatile
  4287                           
  4288                           ;lcd.c: 51: PORTD = Byte;
  4289  1085  1683               	bsf	3,5	;RP0=1, select bank3
  4290  1086  1703               	bsf	3,6	;RP1=1, select bank3
  4291  1087  0812               	movf	LCD_WriteData@Byte^(0+384),w
  4292  1088  1283               	bcf	3,5	;RP0=0, select bank0
  4293  1089  1303               	bcf	3,6	;RP1=0, select bank0
  4294  108A  0088               	movwf	8	;volatile
  4295                           
  4296                           ;lcd.c: 53: PORTEbits.RE1 = 1;
  4297  108B  1489               	bsf	9,1	;volatile
  4298                           
  4299                           ;lcd.c: 55: _delay((unsigned long)((40)*(18432000/4000000.0)));
  4300  108C  303D               	movlw	61
  4301  108D  1683               	bsf	3,5	;RP0=1, select bank3
  4302  108E  1703               	bsf	3,6	;RP1=1, select bank3
  4303  108F  0091               	movwf	??_LCD_WriteData^(0+384)
  4304  1090                     u7197:	
  4305  1090  0B91               	decfsz	??_LCD_WriteData^(0+384),f
  4306  1091  2890               	goto	u7197
  4307                           
  4308                           ;lcd.c: 57: PORTEbits.RE1 = 0;
  4309  1092  1283               	bcf	3,5	;RP0=0, select bank0
  4310  1093  1303               	bcf	3,6	;RP1=0, select bank0
  4311  1094  1089               	bcf	9,1	;volatile
  4312  1095  0008               	return
  4313  1096                     __end_of_LCD_WriteData:	
  4314                           
  4315                           	psect	text19
  4316  13BB                     __ptext19:	
  4317 ;; *************** function _LCD_Init *****************
  4318 ;; Defined at:
  4319 ;;		line 87 in file "C:\Users\332414\Desktop\Fuzzy-IA2\Cdigo em C no MPLAB\lcd.c"
  4320 ;; Parameters:    Size  Location     Type
  4321 ;;		None
  4322 ;; Auto vars:     Size  Location     Type
  4323 ;;		None
  4324 ;; Return value:  Size  Location     Type
  4325 ;;		None               void
  4326 ;; Registers used:
  4327 ;;		wreg, status,2, status,0, pclath, cstack
  4328 ;; Tracked objects:
  4329 ;;		On entry : 0/0
  4330 ;;		On exit  : 0/0
  4331 ;;		Unchanged: 0/0
  4332 ;; Data sizes:     COMMON   BANK0   BANK1   BANK3   BANK2
  4333 ;;      Params:         0       0       0       0       0
  4334 ;;      Locals:         0       0       0       0       0
  4335 ;;      Temps:          0       0       0       2       0
  4336 ;;      Totals:         0       0       0       2       0
  4337 ;;Total ram usage:        2 bytes
  4338 ;; Hardware stack levels used:    1
  4339 ;; Hardware stack levels required when called:    6
  4340 ;; This function calls:
  4341 ;;		_LCD_WriteCmd
  4342 ;; This function is called by:
  4343 ;;		_main
  4344 ;; This function uses a non-reentrant model
  4345 ;;
  4346                           
  4347                           
  4348                           ;psect for function _LCD_Init
  4349  13BB                     _LCD_Init:	
  4350                           
  4351                           ;lcd.c: 90: ADCON1bits.PCFG3 = 0;
  4352                           
  4353                           ;incstack = 0
  4354                           ; Regs used in _LCD_Init: [wreg+status,2+status,0+pclath+cstack]
  4355  13BB  1683               	bsf	3,5	;RP0=1, select bank1
  4356  13BC  1303               	bcf	3,6	;RP1=0, select bank1
  4357  13BD  119F               	bcf	31,3	;volatile
  4358                           
  4359                           ;lcd.c: 91: ADCON1bits.PCFG2 = 1;
  4360  13BE  151F               	bsf	31,2	;volatile
  4361                           
  4362                           ;lcd.c: 92: ADCON1bits.PCFG1 = 0;
  4363  13BF  109F               	bcf	31,1	;volatile
  4364                           
  4365                           ;lcd.c: 93: ADCON1bits.PCFG0 = 0;
  4366  13C0  101F               	bcf	31,0	;volatile
  4367                           
  4368                           ;lcd.c: 95: _delay((unsigned long)((15)*(18432000/4000.0)));
  4369  13C1  305A               	movlw	90
  4370  13C2  1683               	bsf	3,5	;RP0=1, select bank3
  4371  13C3  1703               	bsf	3,6	;RP1=1, select bank3
  4372  13C4  0094               	movwf	(??_LCD_Init^(0+384)+1)
  4373  13C5  30C3               	movlw	195
  4374  13C6  0093               	movwf	??_LCD_Init^(0+384)
  4375  13C7                     u7207:	
  4376  13C7  0B93               	decfsz	??_LCD_Init^(0+384),f
  4377  13C8  2BC7               	goto	u7207
  4378  13C9  0B94               	decfsz	(??_LCD_Init^(0+384)+1),f
  4379  13CA  2BC7               	goto	u7207
  4380                           
  4381                           ;lcd.c: 97: LCD_WriteCmd(0x30);
  4382  13CB  3030               	movlw	48
  4383  13CC  160A  118A  2068  160A  118A  	fcall	_LCD_WriteCmd
  4384                           
  4385                           ;lcd.c: 98: _delay((unsigned long)((4)*(18432000/4000.0)));
  4386  13D1  3018               	movlw	24
  4387  13D2  1683               	bsf	3,5	;RP0=1, select bank3
  4388  13D3  1703               	bsf	3,6	;RP1=1, select bank3
  4389  13D4  0094               	movwf	(??_LCD_Init^(0+384)+1)
  4390  13D5  30EF               	movlw	239
  4391  13D6  0093               	movwf	??_LCD_Init^(0+384)
  4392  13D7                     u7217:	
  4393  13D7  0B93               	decfsz	??_LCD_Init^(0+384),f
  4394  13D8  2BD7               	goto	u7217
  4395  13D9  0B94               	decfsz	(??_LCD_Init^(0+384)+1),f
  4396  13DA  2BD7               	goto	u7217
  4397                           
  4398                           ;lcd.c: 100: LCD_WriteCmd(0x30);
  4399  13DB  3030               	movlw	48
  4400  13DC  160A  118A  2068  160A  118A  	fcall	_LCD_WriteCmd
  4401                           
  4402                           ;lcd.c: 101: _delay((unsigned long)((100)*(18432000/4000000.0)));
  4403  13E1  3099               	movlw	153
  4404  13E2  1683               	bsf	3,5	;RP0=1, select bank3
  4405  13E3  1703               	bsf	3,6	;RP1=1, select bank3
  4406  13E4  0093               	movwf	??_LCD_Init^(0+384)
  4407  13E5                     u7227:	
  4408  13E5  0B93               	decfsz	??_LCD_Init^(0+384),f
  4409  13E6  2BE5               	goto	u7227
  4410                           
  4411                           ;lcd.c: 103: LCD_WriteCmd(0x30);
  4412  13E7  3030               	movlw	48
  4413  13E8  160A  118A  2068  160A  118A  	fcall	_LCD_WriteCmd
  4414                           
  4415                           ;lcd.c: 104: _delay((unsigned long)((40)*(18432000/4000000.0)));
  4416  13ED  303D               	movlw	61
  4417  13EE  1683               	bsf	3,5	;RP0=1, select bank3
  4418  13EF  1703               	bsf	3,6	;RP1=1, select bank3
  4419  13F0  0093               	movwf	??_LCD_Init^(0+384)
  4420  13F1                     u7237:	
  4421  13F1  0B93               	decfsz	??_LCD_Init^(0+384),f
  4422  13F2  2BF1               	goto	u7237
  4423                           
  4424                           ;lcd.c: 106: LCD_WriteCmd(0x38);
  4425  13F3  3038               	movlw	56
  4426  13F4  160A  118A  2068  160A  118A  	fcall	_LCD_WriteCmd
  4427                           
  4428                           ;lcd.c: 107: _delay((unsigned long)((40)*(18432000/4000000.0)));
  4429  13F9  303D               	movlw	61
  4430  13FA  1683               	bsf	3,5	;RP0=1, select bank3
  4431  13FB  1703               	bsf	3,6	;RP1=1, select bank3
  4432  13FC  0093               	movwf	??_LCD_Init^(0+384)
  4433  13FD                     u7247:	
  4434  13FD  0B93               	decfsz	??_LCD_Init^(0+384),f
  4435  13FE  2BFD               	goto	u7247
  4436                           
  4437                           ;lcd.c: 109: LCD_WriteCmd(0x01);
  4438  13FF  3001               	movlw	1
  4439  1400  160A  118A  2068  160A  118A  	fcall	_LCD_WriteCmd
  4440                           
  4441                           ;lcd.c: 110: _delay((unsigned long)((2)*(18432000/4000.0)));
  4442  1405  300C               	movlw	12
  4443  1406  1683               	bsf	3,5	;RP0=1, select bank3
  4444  1407  1703               	bsf	3,6	;RP1=1, select bank3
  4445  1408  0094               	movwf	(??_LCD_Init^(0+384)+1)
  4446  1409  30F7               	movlw	247
  4447  140A  0093               	movwf	??_LCD_Init^(0+384)
  4448  140B                     u7257:	
  4449  140B  0B93               	decfsz	??_LCD_Init^(0+384),f
  4450  140C  2C0B               	goto	u7257
  4451  140D  0B94               	decfsz	(??_LCD_Init^(0+384)+1),f
  4452  140E  2C0B               	goto	u7257
  4453                           
  4454                           ;lcd.c: 112: LCD_WriteCmd(0x0C);
  4455  140F  300C               	movlw	12
  4456  1410  160A  118A  2068  160A  118A  	fcall	_LCD_WriteCmd
  4457                           
  4458                           ;lcd.c: 113: _delay((unsigned long)((40)*(18432000/4000000.0)));
  4459  1415  303D               	movlw	61
  4460  1416  1683               	bsf	3,5	;RP0=1, select bank3
  4461  1417  1703               	bsf	3,6	;RP1=1, select bank3
  4462  1418  0093               	movwf	??_LCD_Init^(0+384)
  4463  1419                     u7267:	
  4464  1419  0B93               	decfsz	??_LCD_Init^(0+384),f
  4465  141A  2C19               	goto	u7267
  4466                           
  4467                           ;lcd.c: 115: LCD_WriteCmd(0x06);
  4468  141B  3006               	movlw	6
  4469  141C  160A  118A  2068  160A  118A  	fcall	_LCD_WriteCmd
  4470                           
  4471                           ;lcd.c: 116: _delay((unsigned long)((40)*(18432000/4000000.0)));
  4472  1421  303D               	movlw	61
  4473  1422  1683               	bsf	3,5	;RP0=1, select bank3
  4474  1423  1703               	bsf	3,6	;RP1=1, select bank3
  4475  1424  0093               	movwf	??_LCD_Init^(0+384)
  4476  1425                     u7277:	
  4477  1425  0B93               	decfsz	??_LCD_Init^(0+384),f
  4478  1426  2C25               	goto	u7277
  4479  1427  0008               	return
  4480  1428                     __end_of_LCD_Init:	
  4481                           
  4482                           	psect	text20
  4483  1068                     __ptext20:	
  4484 ;; *************** function _LCD_WriteCmd *****************
  4485 ;; Defined at:
  4486 ;;		line 32 in file "C:\Users\332414\Desktop\Fuzzy-IA2\Cdigo em C no MPLAB\lcd.c"
  4487 ;; Parameters:    Size  Location     Type
  4488 ;;  Byte            1    wreg     unsigned char 
  4489 ;; Auto vars:     Size  Location     Type
  4490 ;;  Byte            1    2[BANK3 ] unsigned char 
  4491 ;; Return value:  Size  Location     Type
  4492 ;;		None               void
  4493 ;; Registers used:
  4494 ;;		wreg
  4495 ;; Tracked objects:
  4496 ;;		On entry : 0/0
  4497 ;;		On exit  : 0/0
  4498 ;;		Unchanged: 0/0
  4499 ;; Data sizes:     COMMON   BANK0   BANK1   BANK3   BANK2
  4500 ;;      Params:         0       0       0       0       0
  4501 ;;      Locals:         0       0       0       1       0
  4502 ;;      Temps:          0       0       0       1       0
  4503 ;;      Totals:         0       0       0       2       0
  4504 ;;Total ram usage:        2 bytes
  4505 ;; Hardware stack levels used:    1
  4506 ;; Hardware stack levels required when called:    5
  4507 ;; This function calls:
  4508 ;;		Nothing
  4509 ;; This function is called by:
  4510 ;;		_LCD_Init
  4511 ;;		_LCD_Clear
  4512 ;; This function uses a non-reentrant model
  4513 ;;
  4514                           
  4515                           
  4516                           ;psect for function _LCD_WriteCmd
  4517  1068                     _LCD_WriteCmd:	
  4518                           
  4519                           ;incstack = 0
  4520                           ; Regs used in _LCD_WriteCmd: [wreg]
  4521                           ;LCD_WriteCmd@Byte stored from wreg
  4522  1068  1683               	bsf	3,5	;RP0=1, select bank3
  4523  1069  1703               	bsf	3,6	;RP1=1, select bank3
  4524  106A  0092               	movwf	LCD_WriteCmd@Byte^(0+384)
  4525                           
  4526                           ;lcd.c: 34: PORTEbits.RE0 = 0;
  4527  106B  1283               	bcf	3,5	;RP0=0, select bank0
  4528  106C  1303               	bcf	3,6	;RP1=0, select bank0
  4529  106D  1009               	bcf	9,0	;volatile
  4530                           
  4531                           ;lcd.c: 36: PORTD = Byte;
  4532  106E  1683               	bsf	3,5	;RP0=1, select bank3
  4533  106F  1703               	bsf	3,6	;RP1=1, select bank3
  4534  1070  0812               	movf	LCD_WriteCmd@Byte^(0+384),w
  4535  1071  1283               	bcf	3,5	;RP0=0, select bank0
  4536  1072  1303               	bcf	3,6	;RP1=0, select bank0
  4537  1073  0088               	movwf	8	;volatile
  4538                           
  4539                           ;lcd.c: 39: PORTEbits.RE1 = 1;
  4540  1074  1489               	bsf	9,1	;volatile
  4541                           
  4542                           ;lcd.c: 41: _delay((unsigned long)((40)*(18432000/4000000.0)));
  4543  1075  303D               	movlw	61
  4544  1076  1683               	bsf	3,5	;RP0=1, select bank3
  4545  1077  1703               	bsf	3,6	;RP1=1, select bank3
  4546  1078  0091               	movwf	??_LCD_WriteCmd^(0+384)
  4547  1079                     u7287:	
  4548  1079  0B91               	decfsz	??_LCD_WriteCmd^(0+384),f
  4549  107A  2879               	goto	u7287
  4550                           
  4551                           ;lcd.c: 43: PORTEbits.RE1 = 0;
  4552  107B  1283               	bcf	3,5	;RP0=0, select bank0
  4553  107C  1303               	bcf	3,6	;RP1=0, select bank0
  4554  107D  1089               	bcf	9,1	;volatile
  4555  107E  0008               	return
  4556  107F                     __end_of_LCD_WriteCmd:	
  4557                           
  4558                           	psect	text21
  4559  10CD                     __ptext21:	
  4560 ;; *************** function _LCD_Cursor *****************
  4561 ;; Defined at:
  4562 ;;		line 10 in file "C:\Users\332414\Desktop\Fuzzy-IA2\Cdigo em C no MPLAB\lcd.c"
  4563 ;; Parameters:    Size  Location     Type
  4564 ;;  Row             1    wreg     unsigned char 
  4565 ;;  Col             1    1[BANK3 ] unsigned char 
  4566 ;; Auto vars:     Size  Location     Type
  4567 ;;  Row             1    3[BANK3 ] unsigned char 
  4568 ;; Return value:  Size  Location     Type
  4569 ;;		None               void
  4570 ;; Registers used:
  4571 ;;		wreg, status,2, status,0
  4572 ;; Tracked objects:
  4573 ;;		On entry : 0/0
  4574 ;;		On exit  : 0/0
  4575 ;;		Unchanged: 0/0
  4576 ;; Data sizes:     COMMON   BANK0   BANK1   BANK3   BANK2
  4577 ;;      Params:         0       0       0       1       0
  4578 ;;      Locals:         0       0       0       1       0
  4579 ;;      Temps:          0       0       0       1       0
  4580 ;;      Totals:         0       0       0       3       0
  4581 ;;Total ram usage:        3 bytes
  4582 ;; Hardware stack levels used:    1
  4583 ;; Hardware stack levels required when called:    5
  4584 ;; This function calls:
  4585 ;;		Nothing
  4586 ;; This function is called by:
  4587 ;;		_main
  4588 ;; This function uses a non-reentrant model
  4589 ;;
  4590                           
  4591                           
  4592                           ;psect for function _LCD_Cursor
  4593  10CD                     _LCD_Cursor:	
  4594                           
  4595                           ;incstack = 0
  4596                           ; Regs used in _LCD_Cursor: [wreg+status,2+status,0]
  4597                           ;LCD_Cursor@Row stored from wreg
  4598  10CD  1683               	bsf	3,5	;RP0=1, select bank3
  4599  10CE  1703               	bsf	3,6	;RP1=1, select bank3
  4600  10CF  0093               	movwf	LCD_Cursor@Row^(0+384)
  4601                           
  4602                           ;lcd.c: 12: PORTEbits.RE0 = 0;
  4603  10D0  1283               	bcf	3,5	;RP0=0, select bank0
  4604  10D1  1303               	bcf	3,6	;RP1=0, select bank0
  4605  10D2  1009               	bcf	9,0	;volatile
  4606                           
  4607                           ;lcd.c: 14: if (Row == 0)
  4608  10D3  1683               	bsf	3,5	;RP0=1, select bank3
  4609  10D4  1703               	bsf	3,6	;RP1=1, select bank3
  4610  10D5  0893               	movf	LCD_Cursor@Row^(0+384),f
  4611  10D6  1D03               	skipz
  4612  10D7  28DB               	goto	l3927
  4613                           
  4614                           ;lcd.c: 15: {
  4615                           ;lcd.c: 16: PORTD = 0x80 + Col;
  4616  10D8  0811               	movf	LCD_Cursor@Col^(0+384),w
  4617  10D9  3E80               	addlw	128
  4618  10DA  28DF               	goto	L3
  4619  10DB                     l3927:	
  4620                           ;lcd.c: 17: }
  4621                           
  4622                           
  4623                           ;lcd.c: 18: else
  4624                           ;lcd.c: 19: {
  4625                           ;lcd.c: 20: PORTD = 0xC0 + Col;
  4626  10DB  1683               	bsf	3,5	;RP0=1, select bank3
  4627  10DC  1703               	bsf	3,6	;RP1=1, select bank3
  4628  10DD  0811               	movf	LCD_Cursor@Col^(0+384),w
  4629  10DE  3EC0               	addlw	192
  4630  10DF                     L3:	
  4631  10DF  1283               	bcf	3,5	;RP0=0, select bank0
  4632  10E0  1303               	bcf	3,6	;RP1=0, select bank0
  4633  10E1  0088               	movwf	8	;volatile
  4634                           
  4635                           ;lcd.c: 21: }
  4636                           ;lcd.c: 24: PORTEbits.RE1 = 1;
  4637  10E2  1489               	bsf	9,1	;volatile
  4638                           
  4639                           ;lcd.c: 26: _delay((unsigned long)((40)*(18432000/4000000.0)));
  4640  10E3  303D               	movlw	61
  4641  10E4  1683               	bsf	3,5	;RP0=1, select bank3
  4642  10E5  1703               	bsf	3,6	;RP1=1, select bank3
  4643  10E6  0092               	movwf	??_LCD_Cursor^(0+384)
  4644  10E7                     u7297:	
  4645  10E7  0B92               	decfsz	??_LCD_Cursor^(0+384),f
  4646  10E8  28E7               	goto	u7297
  4647                           
  4648                           ;lcd.c: 28: PORTEbits.RE1 = 0;
  4649  10E9  1283               	bcf	3,5	;RP0=0, select bank0
  4650  10EA  1303               	bcf	3,6	;RP1=0, select bank0
  4651  10EB  1089               	bcf	9,1	;volatile
  4652  10EC  0008               	return
  4653  10ED                     __end_of_LCD_Cursor:	
  4654                           
  4655                           	psect	text22
  4656  1042                     __ptext22:	
  4657 ;; *************** function _ADC_Init *****************
  4658 ;; Defined at:
  4659 ;;		line 6 in file "C:\Users\332414\Desktop\Fuzzy-IA2\Cdigo em C no MPLAB\adc.c"
  4660 ;; Parameters:    Size  Location     Type
  4661 ;;		None
  4662 ;; Auto vars:     Size  Location     Type
  4663 ;;		None
  4664 ;; Return value:  Size  Location     Type
  4665 ;;		None               void
  4666 ;; Registers used:
  4667 ;;		None
  4668 ;; Tracked objects:
  4669 ;;		On entry : 0/0
  4670 ;;		On exit  : 0/0
  4671 ;;		Unchanged: 0/0
  4672 ;; Data sizes:     COMMON   BANK0   BANK1   BANK3   BANK2
  4673 ;;      Params:         0       0       0       0       0
  4674 ;;      Locals:         0       0       0       0       0
  4675 ;;      Temps:          0       0       0       0       0
  4676 ;;      Totals:         0       0       0       0       0
  4677 ;;Total ram usage:        0 bytes
  4678 ;; Hardware stack levels used:    1
  4679 ;; Hardware stack levels required when called:    5
  4680 ;; This function calls:
  4681 ;;		Nothing
  4682 ;; This function is called by:
  4683 ;;		_main
  4684 ;; This function uses a non-reentrant model
  4685 ;;
  4686                           
  4687                           
  4688                           ;psect for function _ADC_Init
  4689  1042                     _ADC_Init:	
  4690                           
  4691                           ;adc.c: 9: ADCON1bits.ADFM = 1;
  4692                           
  4693                           ;incstack = 0
  4694                           ; Regs used in _ADC_Init: []
  4695  1042  1683               	bsf	3,5	;RP0=1, select bank1
  4696  1043  1303               	bcf	3,6	;RP1=0, select bank1
  4697  1044  179F               	bsf	31,7	;volatile
  4698                           
  4699                           ;adc.c: 32: ADCON1bits.PCFG3 = 1;
  4700  1045  159F               	bsf	31,3	;volatile
  4701                           
  4702                           ;adc.c: 33: ADCON1bits.PCFG2 = 1;
  4703  1046  151F               	bsf	31,2	;volatile
  4704                           
  4705                           ;adc.c: 34: ADCON1bits.PCFG1 = 1;
  4706  1047  149F               	bsf	31,1	;volatile
  4707                           
  4708                           ;adc.c: 35: ADCON1bits.PCFG0 = 0;
  4709  1048  101F               	bcf	31,0	;volatile
  4710                           
  4711                           ;adc.c: 38: ADCON0bits.ADCS1 = 1;
  4712  1049  1283               	bcf	3,5	;RP0=0, select bank0
  4713  104A  1303               	bcf	3,6	;RP1=0, select bank0
  4714  104B  179F               	bsf	31,7	;volatile
  4715                           
  4716                           ;adc.c: 39: ADCON0bits.ADCS0 = 0;
  4717  104C  131F               	bcf	31,6	;volatile
  4718                           
  4719                           ;adc.c: 42: PIE1bits.ADIE = 0;
  4720  104D  1683               	bsf	3,5	;RP0=1, select bank1
  4721  104E  1303               	bcf	3,6	;RP1=0, select bank1
  4722  104F  130C               	bcf	12,6	;volatile
  4723                           
  4724                           ;adc.c: 43: PIR1bits.ADIF = 0;
  4725  1050  1283               	bcf	3,5	;RP0=0, select bank0
  4726  1051  1303               	bcf	3,6	;RP1=0, select bank0
  4727  1052  130C               	bcf	12,6	;volatile
  4728  1053  0008               	return
  4729  1054                     __end_of_ADC_Init:	
  4730                           
  4731                           	psect	text23
  4732  0112                     __ptext23:	
  4733 ;; *************** function _ISR *****************
  4734 ;; Defined at:
  4735 ;;		line 84 in file "C:\Users\332414\Desktop\Fuzzy-IA2\Cdigo em C no MPLAB\main.c"
  4736 ;; Parameters:    Size  Location     Type
  4737 ;;		None
  4738 ;; Auto vars:     Size  Location     Type
  4739 ;;		None
  4740 ;; Return value:  Size  Location     Type
  4741 ;;		None               void
  4742 ;; Registers used:
  4743 ;;		wreg, fsr0l, fsr0h, status,2, status,0, btemp+1, pclath, cstack
  4744 ;; Tracked objects:
  4745 ;;		On entry : 0/0
  4746 ;;		On exit  : 0/0
  4747 ;;		Unchanged: 0/0
  4748 ;; Data sizes:     COMMON   BANK0   BANK1   BANK3   BANK2
  4749 ;;      Params:         0       0       0       0       0
  4750 ;;      Locals:         0       0      27       0       0
  4751 ;;      Temps:          0       4       0       0       0
  4752 ;;      Totals:         0       4      27       0       0
  4753 ;;Total ram usage:       31 bytes
  4754 ;; Hardware stack levels used:    1
  4755 ;; Hardware stack levels required when called:    4
  4756 ;; This function calls:
  4757 ;;		___ftadd
  4758 ;;		___ftdiv
  4759 ;;		___ftge
  4760 ;;		___ftmul
  4761 ;;		___ftneg
  4762 ;;		___fttol
  4763 ;;		___lwtoft
  4764 ;;		_trapezoidal
  4765 ;;		i1_PWM_DutyCycle2
  4766 ;;		i1_TIMER0_Set
  4767 ;; This function is called by:
  4768 ;;		Interrupt level 1
  4769 ;; This function uses a non-reentrant model
  4770 ;;
  4771                           
  4772                           
  4773                           ;psect for function _ISR
  4774  0112                     _ISR:	
  4775                           
  4776                           ;main.c: 87: if (PIR1bits.RCIF)
  4777  0112  1A8C               	btfsc	12,5	;volatile
  4778                           
  4779                           ;main.c: 88: {
  4780                           ;main.c: 92: PIR1bits.RCIF = 0;
  4781  0113  128C               	bcf	12,5	;volatile
  4782                           
  4783                           ;main.c: 93: }
  4784                           ;main.c: 96: if (PIR1bits.ADIF)
  4785  0114  1B0C               	btfsc	12,6	;volatile
  4786                           
  4787                           ;main.c: 97: {
  4788                           ;main.c: 101: PIR1bits.ADIF = 0;
  4789  0115  130C               	bcf	12,6	;volatile
  4790                           
  4791                           ;main.c: 102: }
  4792                           ;main.c: 106: if (INTCONbits.T0IF)
  4793  0116  1D0B               	btfss	11,2	;volatile
  4794  0117  2FA6               	goto	i1l5467
  4795                           
  4796                           ;main.c: 107: {
  4797                           ;main.c: 109: TIMER0_Set(238);
  4798  0118  30EE               	movlw	238
  4799  0119  160A  118A  2000  120A  118A  	fcall	i1_TIMER0_Set
  4800                           
  4801                           ;main.c: 112: if (contagens_tm0 < 499)
  4802  011E  3001               	movlw	1
  4803  011F  1683               	bsf	3,5	;RP0=1, select bank1
  4804  0120  1303               	bcf	3,6	;RP1=0, select bank1
  4805  0121  0245               	subwf	(_contagens_tm0+1)^(0+128),w
  4806  0122  30F3               	movlw	243
  4807  0123  1903               	skipnz
  4808  0124  0244               	subwf	_contagens_tm0^(0+128),w
  4809  0125  1803               	skipnc
  4810  0126  2931               	goto	i1l5405
  4811                           
  4812                           ;main.c: 113: {
  4813                           ;main.c: 115: contagens_tm0++;
  4814  0127  3001               	movlw	1
  4815  0128  07C4               	addwf	_contagens_tm0^(0+128),f
  4816  0129  1803               	skipnc
  4817  012A  0AC5               	incf	(_contagens_tm0+1)^(0+128),f
  4818  012B  3000               	movlw	0
  4819  012C  07C5               	addwf	(_contagens_tm0+1)^(0+128),f
  4820                           
  4821                           ;main.c: 118: PORTBbits.RB6 = 1;
  4822  012D  1283               	bcf	3,5	;RP0=0, select bank0
  4823  012E  1303               	bcf	3,6	;RP1=0, select bank0
  4824  012F  1706               	bsf	6,6	;volatile
  4825                           
  4826                           ;main.c: 119: }
  4827  0130  2FA5               	goto	i1l5465
  4828  0131                     i1l5405:	
  4829                           
  4830                           ;main.c: 120: else
  4831                           ;main.c: 121: {
  4832                           ;main.c: 123: contagens_tm0 = 0;
  4833  0131  1683               	bsf	3,5	;RP0=1, select bank1
  4834  0132  1303               	bcf	3,6	;RP1=0, select bank1
  4835  0133  01C4               	clrf	_contagens_tm0^(0+128)
  4836  0134  01C5               	clrf	(_contagens_tm0+1)^(0+128)
  4837                           
  4838                           ;main.c: 126: pulsos = (TMR1H << 8) + TMR1L;
  4839  0135  1283               	bcf	3,5	;RP0=0, select bank0
  4840  0136  1303               	bcf	3,6	;RP1=0, select bank0
  4841  0137  080F               	movf	15,w	;volatile
  4842  0138  1683               	bsf	3,5	;RP0=1, select bank1
  4843  0139  1303               	bcf	3,6	;RP1=0, select bank1
  4844  013A  01C7               	clrf	(_pulsos+1)^(0+128)
  4845  013B  07C7               	addwf	(_pulsos+1)^(0+128),f
  4846  013C  1283               	bcf	3,5	;RP0=0, select bank0
  4847  013D  1303               	bcf	3,6	;RP1=0, select bank0
  4848  013E  080E               	movf	14,w	;volatile
  4849  013F  1683               	bsf	3,5	;RP0=1, select bank1
  4850  0140  1303               	bcf	3,6	;RP1=0, select bank1
  4851  0141  01C6               	clrf	_pulsos^(0+128)
  4852  0142  07C6               	addwf	_pulsos^(0+128),f
  4853                           
  4854                           ;main.c: 127: rpm = ((pulsos / 7.0) * 120);
  4855  0143  0847               	movf	(_pulsos+1)^(0+128),w
  4856  0144  01F9               	clrf	___lwtoft@c+1
  4857  0145  07F9               	addwf	___lwtoft@c+1,f
  4858  0146  0846               	movf	_pulsos^(0+128),w
  4859  0147  01F8               	clrf	___lwtoft@c
  4860  0148  07F8               	addwf	___lwtoft@c,f
  4861  0149  160A  118A  2054  120A  118A  	fcall	___lwtoft
  4862  014E  0878               	movf	?___lwtoft,w
  4863  014F  1283               	bcf	3,5	;RP0=0, select bank0
  4864  0150  1303               	bcf	3,6	;RP1=0, select bank0
  4865  0151  00A3               	movwf	___ftdiv@f1
  4866  0152  0879               	movf	?___lwtoft+1,w
  4867  0153  00A4               	movwf	___ftdiv@f1+1
  4868  0154  087A               	movf	?___lwtoft+2,w
  4869  0155  00A5               	movwf	___ftdiv@f1+2
  4870  0156  3000               	movlw	0
  4871  0157  00A0               	movwf	___ftdiv@f2
  4872  0158  30E0               	movlw	224
  4873  0159  00A1               	movwf	___ftdiv@f2+1
  4874  015A  3040               	movlw	64
  4875  015B  00A2               	movwf	___ftdiv@f2+2
  4876  015C  120A  118A  203C  120A  118A  	fcall	___ftdiv
  4877  0161  1283               	bcf	3,5	;RP0=0, select bank0
  4878  0162  1303               	bcf	3,6	;RP1=0, select bank0
  4879  0163  0820               	movf	?___ftdiv,w
  4880  0164  00B3               	movwf	___ftmul@f2
  4881  0165  0821               	movf	?___ftdiv+1,w
  4882  0166  00B4               	movwf	___ftmul@f2+1
  4883  0167  0822               	movf	?___ftdiv+2,w
  4884  0168  00B5               	movwf	___ftmul@f2+2
  4885  0169  3000               	movlw	0
  4886  016A  00B0               	movwf	___ftmul@f1
  4887  016B  30F0               	movlw	240
  4888  016C  00B1               	movwf	___ftmul@f1+1
  4889  016D  3042               	movlw	66
  4890  016E  00B2               	movwf	___ftmul@f1+2
  4891  016F  160A  118A  2545  120A  118A  	fcall	___ftmul
  4892  0174  1283               	bcf	3,5	;RP0=0, select bank0
  4893  0175  1303               	bcf	3,6	;RP1=0, select bank0
  4894  0176  0830               	movf	?___ftmul,w
  4895  0177  00C0               	movwf	___fttol@f1
  4896  0178  0831               	movf	?___ftmul+1,w
  4897  0179  00C1               	movwf	___fttol@f1+1
  4898  017A  0832               	movf	?___ftmul+2,w
  4899  017B  00C2               	movwf	___fttol@f1+2
  4900  017C  160A  118A  2428  120A  118A  	fcall	___fttol
  4901  0181  1283               	bcf	3,5	;RP0=0, select bank0
  4902  0182  1303               	bcf	3,6	;RP1=0, select bank0
  4903  0183  0841               	movf	?___fttol+1,w
  4904  0184  1683               	bsf	3,5	;RP0=1, select bank1
  4905  0185  1303               	bcf	3,6	;RP1=0, select bank1
  4906  0186  01C9               	clrf	(_rpm+1)^(0+128)
  4907  0187  07C9               	addwf	(_rpm+1)^(0+128),f
  4908  0188  1283               	bcf	3,5	;RP0=0, select bank0
  4909  0189  1303               	bcf	3,6	;RP1=0, select bank0
  4910  018A  0840               	movf	?___fttol,w
  4911  018B  1683               	bsf	3,5	;RP0=1, select bank1
  4912  018C  1303               	bcf	3,6	;RP1=0, select bank1
  4913  018D  01C8               	clrf	_rpm^(0+128)
  4914  018E  07C8               	addwf	_rpm^(0+128),f
  4915                           
  4916                           ;main.c: 130: TMR1L = 0x00;
  4917  018F  1283               	bcf	3,5	;RP0=0, select bank0
  4918  0190  1303               	bcf	3,6	;RP1=0, select bank0
  4919  0191  018E               	clrf	14	;volatile
  4920                           
  4921                           ;main.c: 131: TMR1H = 0x00;
  4922  0192  018F               	clrf	15	;volatile
  4923                           
  4924                           ;main.c: 133: p1 = trapezoidal((float)rpm, -10.0f, 0.0f, (requiredRpm - (0.66f * require
      +                          dRpm) - 100.0f), (requiredRpm - ((2/3)*requiredRpm) + 100));
  4925  0193  1683               	bsf	3,5	;RP0=1, select bank1
  4926  0194  1303               	bcf	3,6	;RP1=0, select bank1
  4927  0195  0854               	movf	_requiredRpm^(0+128),w
  4928  0196  1283               	bcf	3,5	;RP0=0, select bank0
  4929  0197  1303               	bcf	3,6	;RP1=0, select bank0
  4930  0198  00B3               	movwf	___ftmul@f2
  4931  0199  1683               	bsf	3,5	;RP0=1, select bank1
  4932  019A  1303               	bcf	3,6	;RP1=0, select bank1
  4933  019B  0855               	movf	(_requiredRpm+1)^(0+128),w
  4934  019C  1283               	bcf	3,5	;RP0=0, select bank0
  4935  019D  1303               	bcf	3,6	;RP1=0, select bank0
  4936  019E  00B4               	movwf	___ftmul@f2+1
  4937  019F  1683               	bsf	3,5	;RP0=1, select bank1
  4938  01A0  1303               	bcf	3,6	;RP1=0, select bank1
  4939  01A1  0856               	movf	(_requiredRpm+2)^(0+128),w
  4940  01A2  1283               	bcf	3,5	;RP0=0, select bank0
  4941  01A3  1303               	bcf	3,6	;RP1=0, select bank0
  4942  01A4  00B5               	movwf	___ftmul@f2+2
  4943  01A5  30F6               	movlw	246
  4944  01A6  00B0               	movwf	___ftmul@f1
  4945  01A7  3028               	movlw	40
  4946  01A8  00B1               	movwf	___ftmul@f1+1
  4947  01A9  303F               	movlw	63
  4948  01AA  00B2               	movwf	___ftmul@f1+2
  4949  01AB  160A  118A  2545  120A  118A  	fcall	___ftmul
  4950  01B0  1283               	bcf	3,5	;RP0=0, select bank0
  4951  01B1  1303               	bcf	3,6	;RP1=0, select bank0
  4952  01B2  0830               	movf	?___ftmul,w
  4953  01B3  00C3               	movwf	___ftadd@f2
  4954  01B4  0831               	movf	?___ftmul+1,w
  4955  01B5  00C4               	movwf	___ftadd@f2+1
  4956  01B6  0832               	movf	?___ftmul+2,w
  4957  01B7  00C5               	movwf	___ftadd@f2+2
  4958  01B8  3000               	movlw	0
  4959  01B9  00C0               	movwf	___ftadd@f1
  4960  01BA  30C8               	movlw	200
  4961  01BB  00C1               	movwf	___ftadd@f1+1
  4962  01BC  3042               	movlw	66
  4963  01BD  00C2               	movwf	___ftadd@f1+2
  4964  01BE  160A  118A  26F7  120A  118A  	fcall	___ftadd
  4965  01C3  1283               	bcf	3,5	;RP0=0, select bank0
  4966  01C4  1303               	bcf	3,6	;RP1=0, select bank0
  4967  01C5  0840               	movf	?___ftadd,w
  4968  01C6  00CD               	movwf	___ftneg@f1
  4969  01C7  0841               	movf	?___ftadd+1,w
  4970  01C8  00CE               	movwf	___ftneg@f1+1
  4971  01C9  0842               	movf	?___ftadd+2,w
  4972  01CA  00CF               	movwf	___ftneg@f1+2
  4973  01CB  120A  158A  2093  120A  118A  	fcall	___ftneg
  4974  01D0  1283               	bcf	3,5	;RP0=0, select bank0
  4975  01D1  1303               	bcf	3,6	;RP1=0, select bank0
  4976  01D2  084D               	movf	?___ftneg,w
  4977  01D3  1683               	bsf	3,5	;RP0=1, select bank1
  4978  01D4  1303               	bcf	3,6	;RP1=0, select bank1
  4979  01D5  00B5               	movwf	_ISR$1733^(0+128)
  4980  01D6  1283               	bcf	3,5	;RP0=0, select bank0
  4981  01D7  1303               	bcf	3,6	;RP1=0, select bank0
  4982  01D8  084E               	movf	?___ftneg+1,w
  4983  01D9  1683               	bsf	3,5	;RP0=1, select bank1
  4984  01DA  1303               	bcf	3,6	;RP1=0, select bank1
  4985  01DB  00B6               	movwf	(_ISR$1733+1)^(0+128)
  4986  01DC  1283               	bcf	3,5	;RP0=0, select bank0
  4987  01DD  1303               	bcf	3,6	;RP1=0, select bank0
  4988  01DE  084F               	movf	?___ftneg+2,w
  4989  01DF  1683               	bsf	3,5	;RP0=1, select bank1
  4990  01E0  1303               	bcf	3,6	;RP1=0, select bank1
  4991  01E1  00B7               	movwf	(_ISR$1733+2)^(0+128)
  4992                           
  4993                           ;main.c: 133: p1 = trapezoidal((float)rpm, -10.0f, 0.0f, (requiredRpm - (0.66f * require
      +                          dRpm) - 100.0f), (requiredRpm - ((2/3)*requiredRpm) + 100));
  4994  01E2  0854               	movf	_requiredRpm^(0+128),w
  4995  01E3  1283               	bcf	3,5	;RP0=0, select bank0
  4996  01E4  1303               	bcf	3,6	;RP1=0, select bank0
  4997  01E5  00C0               	movwf	___ftadd@f1
  4998  01E6  1683               	bsf	3,5	;RP0=1, select bank1
  4999  01E7  1303               	bcf	3,6	;RP1=0, select bank1
  5000  01E8  0855               	movf	(_requiredRpm+1)^(0+128),w
  5001  01E9  1283               	bcf	3,5	;RP0=0, select bank0
  5002  01EA  1303               	bcf	3,6	;RP1=0, select bank0
  5003  01EB  00C1               	movwf	___ftadd@f1+1
  5004  01EC  1683               	bsf	3,5	;RP0=1, select bank1
  5005  01ED  1303               	bcf	3,6	;RP1=0, select bank1
  5006  01EE  0856               	movf	(_requiredRpm+2)^(0+128),w
  5007  01EF  1283               	bcf	3,5	;RP0=0, select bank0
  5008  01F0  1303               	bcf	3,6	;RP1=0, select bank0
  5009  01F1  00C2               	movwf	___ftadd@f1+2
  5010  01F2  1683               	bsf	3,5	;RP0=1, select bank1
  5011  01F3  1303               	bcf	3,6	;RP1=0, select bank1
  5012  01F4  0854               	movf	_requiredRpm^(0+128),w
  5013  01F5  1283               	bcf	3,5	;RP0=0, select bank0
  5014  01F6  1303               	bcf	3,6	;RP1=0, select bank0
  5015  01F7  00B3               	movwf	___ftmul@f2
  5016  01F8  1683               	bsf	3,5	;RP0=1, select bank1
  5017  01F9  1303               	bcf	3,6	;RP1=0, select bank1
  5018  01FA  0855               	movf	(_requiredRpm+1)^(0+128),w
  5019  01FB  1283               	bcf	3,5	;RP0=0, select bank0
  5020  01FC  1303               	bcf	3,6	;RP1=0, select bank0
  5021  01FD  00B4               	movwf	___ftmul@f2+1
  5022  01FE  1683               	bsf	3,5	;RP0=1, select bank1
  5023  01FF  1303               	bcf	3,6	;RP1=0, select bank1
  5024  0200  0856               	movf	(_requiredRpm+2)^(0+128),w
  5025  0201  1283               	bcf	3,5	;RP0=0, select bank0
  5026  0202  1303               	bcf	3,6	;RP1=0, select bank0
  5027  0203  00B5               	movwf	___ftmul@f2+2
  5028  0204  3000               	movlw	0
  5029  0205  00B0               	movwf	___ftmul@f1
  5030  0206  3000               	movlw	0
  5031  0207  00B1               	movwf	___ftmul@f1+1
  5032  0208  3000               	movlw	0
  5033  0209  00B2               	movwf	___ftmul@f1+2
  5034  020A  160A  118A  2545  120A  118A  	fcall	___ftmul
  5035  020F  1283               	bcf	3,5	;RP0=0, select bank0
  5036  0210  1303               	bcf	3,6	;RP1=0, select bank0
  5037  0211  0830               	movf	?___ftmul,w
  5038  0212  00CD               	movwf	___ftneg@f1
  5039  0213  0831               	movf	?___ftmul+1,w
  5040  0214  00CE               	movwf	___ftneg@f1+1
  5041  0215  0832               	movf	?___ftmul+2,w
  5042  0216  00CF               	movwf	___ftneg@f1+2
  5043  0217  120A  158A  2093  120A  118A  	fcall	___ftneg
  5044  021C  1283               	bcf	3,5	;RP0=0, select bank0
  5045  021D  1303               	bcf	3,6	;RP1=0, select bank0
  5046  021E  084D               	movf	?___ftneg,w
  5047  021F  00C3               	movwf	___ftadd@f2
  5048  0220  084E               	movf	?___ftneg+1,w
  5049  0221  00C4               	movwf	___ftadd@f2+1
  5050  0222  084F               	movf	?___ftneg+2,w
  5051  0223  00C5               	movwf	___ftadd@f2+2
  5052  0224  160A  118A  26F7  120A  118A  	fcall	___ftadd
  5053  0229  1283               	bcf	3,5	;RP0=0, select bank0
  5054  022A  1303               	bcf	3,6	;RP1=0, select bank0
  5055  022B  0840               	movf	?___ftadd,w
  5056  022C  1683               	bsf	3,5	;RP0=1, select bank1
  5057  022D  1303               	bcf	3,6	;RP1=0, select bank1
  5058  022E  00AC               	movwf	_ISR$1734^(0+128)
  5059  022F  1283               	bcf	3,5	;RP0=0, select bank0
  5060  0230  1303               	bcf	3,6	;RP1=0, select bank0
  5061  0231  0841               	movf	?___ftadd+1,w
  5062  0232  1683               	bsf	3,5	;RP0=1, select bank1
  5063  0233  1303               	bcf	3,6	;RP1=0, select bank1
  5064  0234  00AD               	movwf	(_ISR$1734+1)^(0+128)
  5065  0235  1283               	bcf	3,5	;RP0=0, select bank0
  5066  0236  1303               	bcf	3,6	;RP1=0, select bank0
  5067  0237  0842               	movf	?___ftadd+2,w
  5068  0238  1683               	bsf	3,5	;RP0=1, select bank1
  5069  0239  1303               	bcf	3,6	;RP1=0, select bank1
  5070  023A  00AE               	movwf	(_ISR$1734+2)^(0+128)
  5071                           
  5072                           ;main.c: 133: p1 = trapezoidal((float)rpm, -10.0f, 0.0f, (requiredRpm - (0.66f * require
      +                          dRpm) - 100.0f), (requiredRpm - ((2/3)*requiredRpm) + 100));
  5073  023B  0854               	movf	_requiredRpm^(0+128),w
  5074  023C  1283               	bcf	3,5	;RP0=0, select bank0
  5075  023D  1303               	bcf	3,6	;RP1=0, select bank0
  5076  023E  00C0               	movwf	___ftadd@f1
  5077  023F  1683               	bsf	3,5	;RP0=1, select bank1
  5078  0240  1303               	bcf	3,6	;RP1=0, select bank1
  5079  0241  0855               	movf	(_requiredRpm+1)^(0+128),w
  5080  0242  1283               	bcf	3,5	;RP0=0, select bank0
  5081  0243  1303               	bcf	3,6	;RP1=0, select bank0
  5082  0244  00C1               	movwf	___ftadd@f1+1
  5083  0245  1683               	bsf	3,5	;RP0=1, select bank1
  5084  0246  1303               	bcf	3,6	;RP1=0, select bank1
  5085  0247  0856               	movf	(_requiredRpm+2)^(0+128),w
  5086  0248  1283               	bcf	3,5	;RP0=0, select bank0
  5087  0249  1303               	bcf	3,6	;RP1=0, select bank0
  5088  024A  00C2               	movwf	___ftadd@f1+2
  5089  024B  1683               	bsf	3,5	;RP0=1, select bank1
  5090  024C  1303               	bcf	3,6	;RP1=0, select bank1
  5091  024D  0835               	movf	_ISR$1733^(0+128),w
  5092  024E  1283               	bcf	3,5	;RP0=0, select bank0
  5093  024F  1303               	bcf	3,6	;RP1=0, select bank0
  5094  0250  00C3               	movwf	___ftadd@f2
  5095  0251  1683               	bsf	3,5	;RP0=1, select bank1
  5096  0252  1303               	bcf	3,6	;RP1=0, select bank1
  5097  0253  0836               	movf	(_ISR$1733+1)^(0+128),w
  5098  0254  1283               	bcf	3,5	;RP0=0, select bank0
  5099  0255  1303               	bcf	3,6	;RP1=0, select bank0
  5100  0256  00C4               	movwf	___ftadd@f2+1
  5101  0257  1683               	bsf	3,5	;RP0=1, select bank1
  5102  0258  1303               	bcf	3,6	;RP1=0, select bank1
  5103  0259  0837               	movf	(_ISR$1733+2)^(0+128),w
  5104  025A  1283               	bcf	3,5	;RP0=0, select bank0
  5105  025B  1303               	bcf	3,6	;RP1=0, select bank0
  5106  025C  00C5               	movwf	___ftadd@f2+2
  5107  025D  160A  118A  26F7  120A  118A  	fcall	___ftadd
  5108  0262  1283               	bcf	3,5	;RP0=0, select bank0
  5109  0263  1303               	bcf	3,6	;RP1=0, select bank0
  5110  0264  0840               	movf	?___ftadd,w
  5111  0265  1683               	bsf	3,5	;RP0=1, select bank1
  5112  0266  1303               	bcf	3,6	;RP1=0, select bank1
  5113  0267  00AF               	movwf	_ISR$1735^(0+128)
  5114  0268  1283               	bcf	3,5	;RP0=0, select bank0
  5115  0269  1303               	bcf	3,6	;RP1=0, select bank0
  5116  026A  0841               	movf	?___ftadd+1,w
  5117  026B  1683               	bsf	3,5	;RP0=1, select bank1
  5118  026C  1303               	bcf	3,6	;RP1=0, select bank1
  5119  026D  00B0               	movwf	(_ISR$1735+1)^(0+128)
  5120  026E  1283               	bcf	3,5	;RP0=0, select bank0
  5121  026F  1303               	bcf	3,6	;RP1=0, select bank0
  5122  0270  0842               	movf	?___ftadd+2,w
  5123  0271  1683               	bsf	3,5	;RP0=1, select bank1
  5124  0272  1303               	bcf	3,6	;RP1=0, select bank1
  5125  0273  00B1               	movwf	(_ISR$1735+2)^(0+128)
  5126                           
  5127                           ;main.c: 133: p1 = trapezoidal((float)rpm, -10.0f, 0.0f, (requiredRpm - (0.66f * require
      +                          dRpm) - 100.0f), (requiredRpm - ((2/3)*requiredRpm) + 100));
  5128  0274  3000               	movlw	0
  5129  0275  1283               	bcf	3,5	;RP0=0, select bank0
  5130  0276  1303               	bcf	3,6	;RP1=0, select bank0
  5131  0277  00C0               	movwf	___ftadd@f1
  5132  0278  30C8               	movlw	200
  5133  0279  00C1               	movwf	___ftadd@f1+1
  5134  027A  3042               	movlw	66
  5135  027B  00C2               	movwf	___ftadd@f1+2
  5136  027C  1683               	bsf	3,5	;RP0=1, select bank1
  5137  027D  1303               	bcf	3,6	;RP1=0, select bank1
  5138  027E  082C               	movf	_ISR$1734^(0+128),w
  5139  027F  1283               	bcf	3,5	;RP0=0, select bank0
  5140  0280  1303               	bcf	3,6	;RP1=0, select bank0
  5141  0281  00C3               	movwf	___ftadd@f2
  5142  0282  1683               	bsf	3,5	;RP0=1, select bank1
  5143  0283  1303               	bcf	3,6	;RP1=0, select bank1
  5144  0284  082D               	movf	(_ISR$1734+1)^(0+128),w
  5145  0285  1283               	bcf	3,5	;RP0=0, select bank0
  5146  0286  1303               	bcf	3,6	;RP1=0, select bank0
  5147  0287  00C4               	movwf	___ftadd@f2+1
  5148  0288  1683               	bsf	3,5	;RP0=1, select bank1
  5149  0289  1303               	bcf	3,6	;RP1=0, select bank1
  5150  028A  082E               	movf	(_ISR$1734+2)^(0+128),w
  5151  028B  1283               	bcf	3,5	;RP0=0, select bank0
  5152  028C  1303               	bcf	3,6	;RP1=0, select bank0
  5153  028D  00C5               	movwf	___ftadd@f2+2
  5154  028E  160A  118A  26F7  120A  118A  	fcall	___ftadd
  5155  0293  1283               	bcf	3,5	;RP0=0, select bank0
  5156  0294  1303               	bcf	3,6	;RP1=0, select bank0
  5157  0295  0840               	movf	?___ftadd,w
  5158  0296  1683               	bsf	3,5	;RP0=1, select bank1
  5159  0297  1303               	bcf	3,6	;RP1=0, select bank1
  5160  0298  00B8               	movwf	_ISR$1736^(0+128)
  5161  0299  1283               	bcf	3,5	;RP0=0, select bank0
  5162  029A  1303               	bcf	3,6	;RP1=0, select bank0
  5163  029B  0841               	movf	?___ftadd+1,w
  5164  029C  1683               	bsf	3,5	;RP0=1, select bank1
  5165  029D  1303               	bcf	3,6	;RP1=0, select bank1
  5166  029E  00B9               	movwf	(_ISR$1736+1)^(0+128)
  5167  029F  1283               	bcf	3,5	;RP0=0, select bank0
  5168  02A0  1303               	bcf	3,6	;RP1=0, select bank0
  5169  02A1  0842               	movf	?___ftadd+2,w
  5170  02A2  1683               	bsf	3,5	;RP0=1, select bank1
  5171  02A3  1303               	bcf	3,6	;RP1=0, select bank1
  5172  02A4  00BA               	movwf	(_ISR$1736+2)^(0+128)
  5173                           
  5174                           ;main.c: 133: p1 = trapezoidal((float)rpm, -10.0f, 0.0f, (requiredRpm - (0.66f * require
      +                          dRpm) - 100.0f), (requiredRpm - ((2/3)*requiredRpm) + 100));
  5175  02A5  0849               	movf	(_rpm+1)^(0+128),w
  5176  02A6  01F9               	clrf	___lwtoft@c+1
  5177  02A7  07F9               	addwf	___lwtoft@c+1,f
  5178  02A8  0848               	movf	_rpm^(0+128),w
  5179  02A9  01F8               	clrf	___lwtoft@c
  5180  02AA  07F8               	addwf	___lwtoft@c,f
  5181  02AB  160A  118A  2054  120A  118A  	fcall	___lwtoft
  5182  02B0  0878               	movf	?___lwtoft,w
  5183  02B1  1283               	bcf	3,5	;RP0=0, select bank0
  5184  02B2  1303               	bcf	3,6	;RP1=0, select bank0
  5185  02B3  00D0               	movwf	trapezoidal@x
  5186  02B4  0879               	movf	?___lwtoft+1,w
  5187  02B5  00D1               	movwf	trapezoidal@x+1
  5188  02B6  087A               	movf	?___lwtoft+2,w
  5189  02B7  00D2               	movwf	trapezoidal@x+2
  5190  02B8  3000               	movlw	0
  5191  02B9  00D3               	movwf	trapezoidal@a
  5192  02BA  3020               	movlw	32
  5193  02BB  00D4               	movwf	trapezoidal@a+1
  5194  02BC  30C1               	movlw	193
  5195  02BD  00D5               	movwf	trapezoidal@a+2
  5196  02BE  3000               	movlw	0
  5197  02BF  00D6               	movwf	trapezoidal@b
  5198  02C0  3000               	movlw	0
  5199  02C1  00D7               	movwf	trapezoidal@b+1
  5200  02C2  3000               	movlw	0
  5201  02C3  00D8               	movwf	trapezoidal@b+2
  5202  02C4  1683               	bsf	3,5	;RP0=1, select bank1
  5203  02C5  1303               	bcf	3,6	;RP1=0, select bank1
  5204  02C6  082F               	movf	_ISR$1735^(0+128),w
  5205  02C7  1283               	bcf	3,5	;RP0=0, select bank0
  5206  02C8  1303               	bcf	3,6	;RP1=0, select bank0
  5207  02C9  00D9               	movwf	trapezoidal@c
  5208  02CA  1683               	bsf	3,5	;RP0=1, select bank1
  5209  02CB  1303               	bcf	3,6	;RP1=0, select bank1
  5210  02CC  0830               	movf	(_ISR$1735+1)^(0+128),w
  5211  02CD  1283               	bcf	3,5	;RP0=0, select bank0
  5212  02CE  1303               	bcf	3,6	;RP1=0, select bank0
  5213  02CF  00DA               	movwf	trapezoidal@c+1
  5214  02D0  1683               	bsf	3,5	;RP0=1, select bank1
  5215  02D1  1303               	bcf	3,6	;RP1=0, select bank1
  5216  02D2  0831               	movf	(_ISR$1735+2)^(0+128),w
  5217  02D3  1283               	bcf	3,5	;RP0=0, select bank0
  5218  02D4  1303               	bcf	3,6	;RP1=0, select bank0
  5219  02D5  00DB               	movwf	trapezoidal@c+2
  5220  02D6  1683               	bsf	3,5	;RP0=1, select bank1
  5221  02D7  1303               	bcf	3,6	;RP1=0, select bank1
  5222  02D8  0838               	movf	_ISR$1736^(0+128),w
  5223  02D9  1283               	bcf	3,5	;RP0=0, select bank0
  5224  02DA  1303               	bcf	3,6	;RP1=0, select bank0
  5225  02DB  00DC               	movwf	trapezoidal@d
  5226  02DC  1683               	bsf	3,5	;RP0=1, select bank1
  5227  02DD  1303               	bcf	3,6	;RP1=0, select bank1
  5228  02DE  0839               	movf	(_ISR$1736+1)^(0+128),w
  5229  02DF  1283               	bcf	3,5	;RP0=0, select bank0
  5230  02E0  1303               	bcf	3,6	;RP1=0, select bank0
  5231  02E1  00DD               	movwf	trapezoidal@d+1
  5232  02E2  1683               	bsf	3,5	;RP0=1, select bank1
  5233  02E3  1303               	bcf	3,6	;RP1=0, select bank1
  5234  02E4  083A               	movf	(_ISR$1736+2)^(0+128),w
  5235  02E5  1283               	bcf	3,5	;RP0=0, select bank0
  5236  02E6  1303               	bcf	3,6	;RP1=0, select bank0
  5237  02E7  00DE               	movwf	trapezoidal@d+2
  5238  02E8  120A  158A  209D  120A  118A  	fcall	_trapezoidal
  5239  02ED  1283               	bcf	3,5	;RP0=0, select bank0
  5240  02EE  1303               	bcf	3,6	;RP1=0, select bank0
  5241  02EF  0850               	movf	?_trapezoidal,w
  5242  02F0  1683               	bsf	3,5	;RP0=1, select bank1
  5243  02F1  1303               	bcf	3,6	;RP1=0, select bank1
  5244  02F2  00BB               	movwf	_p1^(0+128)
  5245  02F3  1283               	bcf	3,5	;RP0=0, select bank0
  5246  02F4  1303               	bcf	3,6	;RP1=0, select bank0
  5247  02F5  0851               	movf	?_trapezoidal+1,w
  5248  02F6  1683               	bsf	3,5	;RP0=1, select bank1
  5249  02F7  1303               	bcf	3,6	;RP1=0, select bank1
  5250  02F8  00BC               	movwf	(_p1+1)^(0+128)
  5251  02F9  1283               	bcf	3,5	;RP0=0, select bank0
  5252  02FA  1303               	bcf	3,6	;RP1=0, select bank0
  5253  02FB  0852               	movf	?_trapezoidal+2,w
  5254  02FC  1683               	bsf	3,5	;RP0=1, select bank1
  5255  02FD  1303               	bcf	3,6	;RP1=0, select bank1
  5256  02FE  00BD               	movwf	(_p1+2)^(0+128)
  5257                           
  5258                           ;main.c: 134: p2 = trapezoidal((float)rpm, requiredRpm - ((2/3)*requiredRpm), requiredRp
      +                          m - ((2/3)*requiredRpm) + 100, requiredRpm - ((1/3)*requiredRpm - 100),requiredRpm - ((1
      +                          /3)*requiredRpm + 100));
  5259  02FF  0854               	movf	_requiredRpm^(0+128),w
  5260  0300  1283               	bcf	3,5	;RP0=0, select bank0
  5261  0301  1303               	bcf	3,6	;RP1=0, select bank0
  5262  0302  00C0               	movwf	___ftadd@f1
  5263  0303  1683               	bsf	3,5	;RP0=1, select bank1
  5264  0304  1303               	bcf	3,6	;RP1=0, select bank1
  5265  0305  0855               	movf	(_requiredRpm+1)^(0+128),w
  5266  0306  1283               	bcf	3,5	;RP0=0, select bank0
  5267  0307  1303               	bcf	3,6	;RP1=0, select bank0
  5268  0308  00C1               	movwf	___ftadd@f1+1
  5269  0309  1683               	bsf	3,5	;RP0=1, select bank1
  5270  030A  1303               	bcf	3,6	;RP1=0, select bank1
  5271  030B  0856               	movf	(_requiredRpm+2)^(0+128),w
  5272  030C  1283               	bcf	3,5	;RP0=0, select bank0
  5273  030D  1303               	bcf	3,6	;RP1=0, select bank0
  5274  030E  00C2               	movwf	___ftadd@f1+2
  5275  030F  1683               	bsf	3,5	;RP0=1, select bank1
  5276  0310  1303               	bcf	3,6	;RP1=0, select bank1
  5277  0311  0854               	movf	_requiredRpm^(0+128),w
  5278  0312  1283               	bcf	3,5	;RP0=0, select bank0
  5279  0313  1303               	bcf	3,6	;RP1=0, select bank0
  5280  0314  00B3               	movwf	___ftmul@f2
  5281  0315  1683               	bsf	3,5	;RP0=1, select bank1
  5282  0316  1303               	bcf	3,6	;RP1=0, select bank1
  5283  0317  0855               	movf	(_requiredRpm+1)^(0+128),w
  5284  0318  1283               	bcf	3,5	;RP0=0, select bank0
  5285  0319  1303               	bcf	3,6	;RP1=0, select bank0
  5286  031A  00B4               	movwf	___ftmul@f2+1
  5287  031B  1683               	bsf	3,5	;RP0=1, select bank1
  5288  031C  1303               	bcf	3,6	;RP1=0, select bank1
  5289  031D  0856               	movf	(_requiredRpm+2)^(0+128),w
  5290  031E  1283               	bcf	3,5	;RP0=0, select bank0
  5291  031F  1303               	bcf	3,6	;RP1=0, select bank0
  5292  0320  00B5               	movwf	___ftmul@f2+2
  5293  0321  3000               	movlw	0
  5294  0322  00B0               	movwf	___ftmul@f1
  5295  0323  3000               	movlw	0
  5296  0324  00B1               	movwf	___ftmul@f1+1
  5297  0325  3000               	movlw	0
  5298  0326  00B2               	movwf	___ftmul@f1+2
  5299  0327  160A  118A  2545  120A  118A  	fcall	___ftmul
  5300  032C  1283               	bcf	3,5	;RP0=0, select bank0
  5301  032D  1303               	bcf	3,6	;RP1=0, select bank0
  5302  032E  0830               	movf	?___ftmul,w
  5303  032F  00CD               	movwf	___ftneg@f1
  5304  0330  0831               	movf	?___ftmul+1,w
  5305  0331  00CE               	movwf	___ftneg@f1+1
  5306  0332  0832               	movf	?___ftmul+2,w
  5307  0333  00CF               	movwf	___ftneg@f1+2
  5308  0334  120A  158A  2093  120A  118A  	fcall	___ftneg
  5309  0339  1283               	bcf	3,5	;RP0=0, select bank0
  5310  033A  1303               	bcf	3,6	;RP1=0, select bank0
  5311  033B  084D               	movf	?___ftneg,w
  5312  033C  00C3               	movwf	___ftadd@f2
  5313  033D  084E               	movf	?___ftneg+1,w
  5314  033E  00C4               	movwf	___ftadd@f2+1
  5315  033F  084F               	movf	?___ftneg+2,w
  5316  0340  00C5               	movwf	___ftadd@f2+2
  5317  0341  160A  118A  26F7  120A  118A  	fcall	___ftadd
  5318  0346  1283               	bcf	3,5	;RP0=0, select bank0
  5319  0347  1303               	bcf	3,6	;RP1=0, select bank0
  5320  0348  0840               	movf	?___ftadd,w
  5321  0349  1683               	bsf	3,5	;RP0=1, select bank1
  5322  034A  1303               	bcf	3,6	;RP1=0, select bank1
  5323  034B  00B5               	movwf	_ISR$1733^(0+128)
  5324  034C  1283               	bcf	3,5	;RP0=0, select bank0
  5325  034D  1303               	bcf	3,6	;RP1=0, select bank0
  5326  034E  0841               	movf	?___ftadd+1,w
  5327  034F  1683               	bsf	3,5	;RP0=1, select bank1
  5328  0350  1303               	bcf	3,6	;RP1=0, select bank1
  5329  0351  00B6               	movwf	(_ISR$1733+1)^(0+128)
  5330  0352  1283               	bcf	3,5	;RP0=0, select bank0
  5331  0353  1303               	bcf	3,6	;RP1=0, select bank0
  5332  0354  0842               	movf	?___ftadd+2,w
  5333  0355  1683               	bsf	3,5	;RP0=1, select bank1
  5334  0356  1303               	bcf	3,6	;RP1=0, select bank1
  5335  0357  00B7               	movwf	(_ISR$1733+2)^(0+128)
  5336                           
  5337                           ;main.c: 134: p2 = trapezoidal((float)rpm, requiredRpm - ((2/3)*requiredRpm), requiredRp
      +                          m - ((2/3)*requiredRpm) + 100, requiredRpm - ((1/3)*requiredRpm - 100),requiredRpm - ((1
      +                          /3)*requiredRpm + 100));
  5338  0358  0854               	movf	_requiredRpm^(0+128),w
  5339  0359  1283               	bcf	3,5	;RP0=0, select bank0
  5340  035A  1303               	bcf	3,6	;RP1=0, select bank0
  5341  035B  00B3               	movwf	___ftmul@f2
  5342  035C  1683               	bsf	3,5	;RP0=1, select bank1
  5343  035D  1303               	bcf	3,6	;RP1=0, select bank1
  5344  035E  0855               	movf	(_requiredRpm+1)^(0+128),w
  5345  035F  1283               	bcf	3,5	;RP0=0, select bank0
  5346  0360  1303               	bcf	3,6	;RP1=0, select bank0
  5347  0361  00B4               	movwf	___ftmul@f2+1
  5348  0362  1683               	bsf	3,5	;RP0=1, select bank1
  5349  0363  1303               	bcf	3,6	;RP1=0, select bank1
  5350  0364  0856               	movf	(_requiredRpm+2)^(0+128),w
  5351  0365  1283               	bcf	3,5	;RP0=0, select bank0
  5352  0366  1303               	bcf	3,6	;RP1=0, select bank0
  5353  0367  00B5               	movwf	___ftmul@f2+2
  5354  0368  3000               	movlw	0
  5355  0369  00B0               	movwf	___ftmul@f1
  5356  036A  3000               	movlw	0
  5357  036B  00B1               	movwf	___ftmul@f1+1
  5358  036C  3000               	movlw	0
  5359  036D  00B2               	movwf	___ftmul@f1+2
  5360  036E  160A  118A  2545  120A  118A  	fcall	___ftmul
  5361  0373  1283               	bcf	3,5	;RP0=0, select bank0
  5362  0374  1303               	bcf	3,6	;RP1=0, select bank0
  5363  0375  0830               	movf	?___ftmul,w
  5364  0376  00C3               	movwf	___ftadd@f2
  5365  0377  0831               	movf	?___ftmul+1,w
  5366  0378  00C4               	movwf	___ftadd@f2+1
  5367  0379  0832               	movf	?___ftmul+2,w
  5368  037A  00C5               	movwf	___ftadd@f2+2
  5369  037B  3000               	movlw	0
  5370  037C  00C0               	movwf	___ftadd@f1
  5371  037D  30C8               	movlw	200
  5372  037E  00C1               	movwf	___ftadd@f1+1
  5373  037F  30C2               	movlw	194
  5374  0380  00C2               	movwf	___ftadd@f1+2
  5375  0381  160A  118A  26F7  120A  118A  	fcall	___ftadd
  5376  0386  1283               	bcf	3,5	;RP0=0, select bank0
  5377  0387  1303               	bcf	3,6	;RP1=0, select bank0
  5378  0388  0840               	movf	?___ftadd,w
  5379  0389  00CD               	movwf	___ftneg@f1
  5380  038A  0841               	movf	?___ftadd+1,w
  5381  038B  00CE               	movwf	___ftneg@f1+1
  5382  038C  0842               	movf	?___ftadd+2,w
  5383  038D  00CF               	movwf	___ftneg@f1+2
  5384  038E  120A  158A  2093  120A  118A  	fcall	___ftneg
  5385  0393  1283               	bcf	3,5	;RP0=0, select bank0
  5386  0394  1303               	bcf	3,6	;RP1=0, select bank0
  5387  0395  084D               	movf	?___ftneg,w
  5388  0396  1683               	bsf	3,5	;RP0=1, select bank1
  5389  0397  1303               	bcf	3,6	;RP1=0, select bank1
  5390  0398  00AC               	movwf	_ISR$1734^(0+128)
  5391  0399  1283               	bcf	3,5	;RP0=0, select bank0
  5392  039A  1303               	bcf	3,6	;RP1=0, select bank0
  5393  039B  084E               	movf	?___ftneg+1,w
  5394  039C  1683               	bsf	3,5	;RP0=1, select bank1
  5395  039D  1303               	bcf	3,6	;RP1=0, select bank1
  5396  039E  00AD               	movwf	(_ISR$1734+1)^(0+128)
  5397  039F  1283               	bcf	3,5	;RP0=0, select bank0
  5398  03A0  1303               	bcf	3,6	;RP1=0, select bank0
  5399  03A1  084F               	movf	?___ftneg+2,w
  5400  03A2  1683               	bsf	3,5	;RP0=1, select bank1
  5401  03A3  1303               	bcf	3,6	;RP1=0, select bank1
  5402  03A4  00AE               	movwf	(_ISR$1734+2)^(0+128)
  5403                           
  5404                           ;main.c: 134: p2 = trapezoidal((float)rpm, requiredRpm - ((2/3)*requiredRpm), requiredRp
      +                          m - ((2/3)*requiredRpm) + 100, requiredRpm - ((1/3)*requiredRpm - 100),requiredRpm - ((1
      +                          /3)*requiredRpm + 100));
  5405  03A5  0854               	movf	_requiredRpm^(0+128),w
  5406  03A6  1283               	bcf	3,5	;RP0=0, select bank0
  5407  03A7  1303               	bcf	3,6	;RP1=0, select bank0
  5408  03A8  00B3               	movwf	___ftmul@f2
  5409  03A9  1683               	bsf	3,5	;RP0=1, select bank1
  5410  03AA  1303               	bcf	3,6	;RP1=0, select bank1
  5411  03AB  0855               	movf	(_requiredRpm+1)^(0+128),w
  5412  03AC  1283               	bcf	3,5	;RP0=0, select bank0
  5413  03AD  1303               	bcf	3,6	;RP1=0, select bank0
  5414  03AE  00B4               	movwf	___ftmul@f2+1
  5415  03AF  1683               	bsf	3,5	;RP0=1, select bank1
  5416  03B0  1303               	bcf	3,6	;RP1=0, select bank1
  5417  03B1  0856               	movf	(_requiredRpm+2)^(0+128),w
  5418  03B2  1283               	bcf	3,5	;RP0=0, select bank0
  5419  03B3  1303               	bcf	3,6	;RP1=0, select bank0
  5420  03B4  00B5               	movwf	___ftmul@f2+2
  5421  03B5  3000               	movlw	0
  5422  03B6  00B0               	movwf	___ftmul@f1
  5423  03B7  3000               	movlw	0
  5424  03B8  00B1               	movwf	___ftmul@f1+1
  5425  03B9  3000               	movlw	0
  5426  03BA  00B2               	movwf	___ftmul@f1+2
  5427  03BB  160A  118A  2545  120A  118A  	fcall	___ftmul
  5428  03C0  1283               	bcf	3,5	;RP0=0, select bank0
  5429  03C1  1303               	bcf	3,6	;RP1=0, select bank0
  5430  03C2  0830               	movf	?___ftmul,w
  5431  03C3  00C3               	movwf	___ftadd@f2
  5432  03C4  0831               	movf	?___ftmul+1,w
  5433  03C5  00C4               	movwf	___ftadd@f2+1
  5434  03C6  0832               	movf	?___ftmul+2,w
  5435  03C7  00C5               	movwf	___ftadd@f2+2
  5436  03C8  3000               	movlw	0
  5437  03C9  00C0               	movwf	___ftadd@f1
  5438  03CA  30C8               	movlw	200
  5439  03CB  00C1               	movwf	___ftadd@f1+1
  5440  03CC  3042               	movlw	66
  5441  03CD  00C2               	movwf	___ftadd@f1+2
  5442  03CE  160A  118A  26F7  120A  118A  	fcall	___ftadd
  5443  03D3  1283               	bcf	3,5	;RP0=0, select bank0
  5444  03D4  1303               	bcf	3,6	;RP1=0, select bank0
  5445  03D5  0840               	movf	?___ftadd,w
  5446  03D6  00CD               	movwf	___ftneg@f1
  5447  03D7  0841               	movf	?___ftadd+1,w
  5448  03D8  00CE               	movwf	___ftneg@f1+1
  5449  03D9  0842               	movf	?___ftadd+2,w
  5450  03DA  00CF               	movwf	___ftneg@f1+2
  5451  03DB  120A  158A  2093  120A  118A  	fcall	___ftneg
  5452  03E0  1283               	bcf	3,5	;RP0=0, select bank0
  5453  03E1  1303               	bcf	3,6	;RP1=0, select bank0
  5454  03E2  084D               	movf	?___ftneg,w
  5455  03E3  1683               	bsf	3,5	;RP0=1, select bank1
  5456  03E4  1303               	bcf	3,6	;RP1=0, select bank1
  5457  03E5  00A0               	movwf	_ISR$1737^(0+128)
  5458  03E6  1283               	bcf	3,5	;RP0=0, select bank0
  5459  03E7  1303               	bcf	3,6	;RP1=0, select bank0
  5460  03E8  084E               	movf	?___ftneg+1,w
  5461  03E9  1683               	bsf	3,5	;RP0=1, select bank1
  5462  03EA  1303               	bcf	3,6	;RP1=0, select bank1
  5463  03EB  00A1               	movwf	(_ISR$1737+1)^(0+128)
  5464  03EC  1283               	bcf	3,5	;RP0=0, select bank0
  5465  03ED  1303               	bcf	3,6	;RP1=0, select bank0
  5466  03EE  084F               	movf	?___ftneg+2,w
  5467  03EF  1683               	bsf	3,5	;RP0=1, select bank1
  5468  03F0  1303               	bcf	3,6	;RP1=0, select bank1
  5469  03F1  00A2               	movwf	(_ISR$1737+2)^(0+128)
  5470                           
  5471                           ;main.c: 134: p2 = trapezoidal((float)rpm, requiredRpm - ((2/3)*requiredRpm), requiredRp
      +                          m - ((2/3)*requiredRpm) + 100, requiredRpm - ((1/3)*requiredRpm - 100),requiredRpm - ((1
      +                          /3)*requiredRpm + 100));
  5472  03F2  0854               	movf	_requiredRpm^(0+128),w
  5473  03F3  1283               	bcf	3,5	;RP0=0, select bank0
  5474  03F4  1303               	bcf	3,6	;RP1=0, select bank0
  5475  03F5  00C0               	movwf	___ftadd@f1
  5476  03F6  1683               	bsf	3,5	;RP0=1, select bank1
  5477  03F7  1303               	bcf	3,6	;RP1=0, select bank1
  5478  03F8  0855               	movf	(_requiredRpm+1)^(0+128),w
  5479  03F9  1283               	bcf	3,5	;RP0=0, select bank0
  5480  03FA  1303               	bcf	3,6	;RP1=0, select bank0
  5481  03FB  00C1               	movwf	___ftadd@f1+1
  5482  03FC  1683               	bsf	3,5	;RP0=1, select bank1
  5483  03FD  1303               	bcf	3,6	;RP1=0, select bank1
  5484  03FE  0856               	movf	(_requiredRpm+2)^(0+128),w
  5485  03FF  1283               	bcf	3,5	;RP0=0, select bank0
  5486  0400  1303               	bcf	3,6	;RP1=0, select bank0
  5487  0401  00C2               	movwf	___ftadd@f1+2
  5488  0402  1683               	bsf	3,5	;RP0=1, select bank1
  5489  0403  1303               	bcf	3,6	;RP1=0, select bank1
  5490  0404  0854               	movf	_requiredRpm^(0+128),w
  5491  0405  1283               	bcf	3,5	;RP0=0, select bank0
  5492  0406  1303               	bcf	3,6	;RP1=0, select bank0
  5493  0407  00B3               	movwf	___ftmul@f2
  5494  0408  1683               	bsf	3,5	;RP0=1, select bank1
  5495  0409  1303               	bcf	3,6	;RP1=0, select bank1
  5496  040A  0855               	movf	(_requiredRpm+1)^(0+128),w
  5497  040B  1283               	bcf	3,5	;RP0=0, select bank0
  5498  040C  1303               	bcf	3,6	;RP1=0, select bank0
  5499  040D  00B4               	movwf	___ftmul@f2+1
  5500  040E  1683               	bsf	3,5	;RP0=1, select bank1
  5501  040F  1303               	bcf	3,6	;RP1=0, select bank1
  5502  0410  0856               	movf	(_requiredRpm+2)^(0+128),w
  5503  0411  1283               	bcf	3,5	;RP0=0, select bank0
  5504  0412  1303               	bcf	3,6	;RP1=0, select bank0
  5505  0413  00B5               	movwf	___ftmul@f2+2
  5506  0414  3000               	movlw	0
  5507  0415  00B0               	movwf	___ftmul@f1
  5508  0416  3000               	movlw	0
  5509  0417  00B1               	movwf	___ftmul@f1+1
  5510  0418  3000               	movlw	0
  5511  0419  00B2               	movwf	___ftmul@f1+2
  5512  041A  160A  118A  2545  120A  118A  	fcall	___ftmul
  5513  041F  1283               	bcf	3,5	;RP0=0, select bank0
  5514  0420  1303               	bcf	3,6	;RP1=0, select bank0
  5515  0421  0830               	movf	?___ftmul,w
  5516  0422  00CD               	movwf	___ftneg@f1
  5517  0423  0831               	movf	?___ftmul+1,w
  5518  0424  00CE               	movwf	___ftneg@f1+1
  5519  0425  0832               	movf	?___ftmul+2,w
  5520  0426  00CF               	movwf	___ftneg@f1+2
  5521  0427  120A  158A  2093  120A  118A  	fcall	___ftneg
  5522  042C  1283               	bcf	3,5	;RP0=0, select bank0
  5523  042D  1303               	bcf	3,6	;RP1=0, select bank0
  5524  042E  084D               	movf	?___ftneg,w
  5525  042F  00C3               	movwf	___ftadd@f2
  5526  0430  084E               	movf	?___ftneg+1,w
  5527  0431  00C4               	movwf	___ftadd@f2+1
  5528  0432  084F               	movf	?___ftneg+2,w
  5529  0433  00C5               	movwf	___ftadd@f2+2
  5530  0434  160A  118A  26F7  120A  118A  	fcall	___ftadd
  5531  0439  1283               	bcf	3,5	;RP0=0, select bank0
  5532  043A  1303               	bcf	3,6	;RP1=0, select bank0
  5533  043B  0840               	movf	?___ftadd,w
  5534  043C  1683               	bsf	3,5	;RP0=1, select bank1
  5535  043D  1303               	bcf	3,6	;RP1=0, select bank1
  5536  043E  00B8               	movwf	_ISR$1736^(0+128)
  5537  043F  1283               	bcf	3,5	;RP0=0, select bank0
  5538  0440  1303               	bcf	3,6	;RP1=0, select bank0
  5539  0441  0841               	movf	?___ftadd+1,w
  5540  0442  1683               	bsf	3,5	;RP0=1, select bank1
  5541  0443  1303               	bcf	3,6	;RP1=0, select bank1
  5542  0444  00B9               	movwf	(_ISR$1736+1)^(0+128)
  5543  0445  1283               	bcf	3,5	;RP0=0, select bank0
  5544  0446  1303               	bcf	3,6	;RP1=0, select bank0
  5545  0447  0842               	movf	?___ftadd+2,w
  5546  0448  1683               	bsf	3,5	;RP0=1, select bank1
  5547  0449  1303               	bcf	3,6	;RP1=0, select bank1
  5548  044A  00BA               	movwf	(_ISR$1736+2)^(0+128)
  5549                           
  5550                           ;main.c: 134: p2 = trapezoidal((float)rpm, requiredRpm - ((2/3)*requiredRpm), requiredRp
      +                          m - ((2/3)*requiredRpm) + 100, requiredRpm - ((1/3)*requiredRpm - 100),requiredRpm - ((1
      +                          /3)*requiredRpm + 100));
  5551  044B  3000               	movlw	0
  5552  044C  1283               	bcf	3,5	;RP0=0, select bank0
  5553  044D  1303               	bcf	3,6	;RP1=0, select bank0
  5554  044E  00C0               	movwf	___ftadd@f1
  5555  044F  30C8               	movlw	200
  5556  0450  00C1               	movwf	___ftadd@f1+1
  5557  0451  3042               	movlw	66
  5558  0452  00C2               	movwf	___ftadd@f1+2
  5559  0453  1683               	bsf	3,5	;RP0=1, select bank1
  5560  0454  1303               	bcf	3,6	;RP1=0, select bank1
  5561  0455  0835               	movf	_ISR$1733^(0+128),w
  5562  0456  1283               	bcf	3,5	;RP0=0, select bank0
  5563  0457  1303               	bcf	3,6	;RP1=0, select bank0
  5564  0458  00C3               	movwf	___ftadd@f2
  5565  0459  1683               	bsf	3,5	;RP0=1, select bank1
  5566  045A  1303               	bcf	3,6	;RP1=0, select bank1
  5567  045B  0836               	movf	(_ISR$1733+1)^(0+128),w
  5568  045C  1283               	bcf	3,5	;RP0=0, select bank0
  5569  045D  1303               	bcf	3,6	;RP1=0, select bank0
  5570  045E  00C4               	movwf	___ftadd@f2+1
  5571  045F  1683               	bsf	3,5	;RP0=1, select bank1
  5572  0460  1303               	bcf	3,6	;RP1=0, select bank1
  5573  0461  0837               	movf	(_ISR$1733+2)^(0+128),w
  5574  0462  1283               	bcf	3,5	;RP0=0, select bank0
  5575  0463  1303               	bcf	3,6	;RP1=0, select bank0
  5576  0464  00C5               	movwf	___ftadd@f2+2
  5577  0465  160A  118A  26F7  120A  118A  	fcall	___ftadd
  5578  046A  1283               	bcf	3,5	;RP0=0, select bank0
  5579  046B  1303               	bcf	3,6	;RP1=0, select bank0
  5580  046C  0840               	movf	?___ftadd,w
  5581  046D  1683               	bsf	3,5	;RP0=1, select bank1
  5582  046E  1303               	bcf	3,6	;RP1=0, select bank1
  5583  046F  00B2               	movwf	_ISR$1738^(0+128)
  5584  0470  1283               	bcf	3,5	;RP0=0, select bank0
  5585  0471  1303               	bcf	3,6	;RP1=0, select bank0
  5586  0472  0841               	movf	?___ftadd+1,w
  5587  0473  1683               	bsf	3,5	;RP0=1, select bank1
  5588  0474  1303               	bcf	3,6	;RP1=0, select bank1
  5589  0475  00B3               	movwf	(_ISR$1738+1)^(0+128)
  5590  0476  1283               	bcf	3,5	;RP0=0, select bank0
  5591  0477  1303               	bcf	3,6	;RP1=0, select bank0
  5592  0478  0842               	movf	?___ftadd+2,w
  5593  0479  1683               	bsf	3,5	;RP0=1, select bank1
  5594  047A  1303               	bcf	3,6	;RP1=0, select bank1
  5595  047B  00B4               	movwf	(_ISR$1738+2)^(0+128)
  5596                           
  5597                           ;main.c: 134: p2 = trapezoidal((float)rpm, requiredRpm - ((2/3)*requiredRpm), requiredRp
      +                          m - ((2/3)*requiredRpm) + 100, requiredRpm - ((1/3)*requiredRpm - 100),requiredRpm - ((1
      +                          /3)*requiredRpm + 100));
  5598  047C  0854               	movf	_requiredRpm^(0+128),w
  5599  047D  1283               	bcf	3,5	;RP0=0, select bank0
  5600  047E  1303               	bcf	3,6	;RP1=0, select bank0
  5601  047F  00C0               	movwf	___ftadd@f1
  5602  0480  1683               	bsf	3,5	;RP0=1, select bank1
  5603  0481  1303               	bcf	3,6	;RP1=0, select bank1
  5604  0482  0855               	movf	(_requiredRpm+1)^(0+128),w
  5605  0483  1283               	bcf	3,5	;RP0=0, select bank0
  5606  0484  1303               	bcf	3,6	;RP1=0, select bank0
  5607  0485  00C1               	movwf	___ftadd@f1+1
  5608  0486  1683               	bsf	3,5	;RP0=1, select bank1
  5609  0487  1303               	bcf	3,6	;RP1=0, select bank1
  5610  0488  0856               	movf	(_requiredRpm+2)^(0+128),w
  5611  0489  1283               	bcf	3,5	;RP0=0, select bank0
  5612  048A  1303               	bcf	3,6	;RP1=0, select bank0
  5613  048B  00C2               	movwf	___ftadd@f1+2
  5614  048C  1683               	bsf	3,5	;RP0=1, select bank1
  5615  048D  1303               	bcf	3,6	;RP1=0, select bank1
  5616  048E  082C               	movf	_ISR$1734^(0+128),w
  5617  048F  1283               	bcf	3,5	;RP0=0, select bank0
  5618  0490  1303               	bcf	3,6	;RP1=0, select bank0
  5619  0491  00C3               	movwf	___ftadd@f2
  5620  0492  1683               	bsf	3,5	;RP0=1, select bank1
  5621  0493  1303               	bcf	3,6	;RP1=0, select bank1
  5622  0494  082D               	movf	(_ISR$1734+1)^(0+128),w
  5623  0495  1283               	bcf	3,5	;RP0=0, select bank0
  5624  0496  1303               	bcf	3,6	;RP1=0, select bank0
  5625  0497  00C4               	movwf	___ftadd@f2+1
  5626  0498  1683               	bsf	3,5	;RP0=1, select bank1
  5627  0499  1303               	bcf	3,6	;RP1=0, select bank1
  5628  049A  082E               	movf	(_ISR$1734+2)^(0+128),w
  5629  049B  1283               	bcf	3,5	;RP0=0, select bank0
  5630  049C  1303               	bcf	3,6	;RP1=0, select bank0
  5631  049D  00C5               	movwf	___ftadd@f2+2
  5632  049E  160A  118A  26F7  120A  118A  	fcall	___ftadd
  5633  04A3  1283               	bcf	3,5	;RP0=0, select bank0
  5634  04A4  1303               	bcf	3,6	;RP1=0, select bank0
  5635  04A5  0840               	movf	?___ftadd,w
  5636  04A6  1683               	bsf	3,5	;RP0=1, select bank1
  5637  04A7  1303               	bcf	3,6	;RP1=0, select bank1
  5638  04A8  00A3               	movwf	_ISR$1739^(0+128)
  5639  04A9  1283               	bcf	3,5	;RP0=0, select bank0
  5640  04AA  1303               	bcf	3,6	;RP1=0, select bank0
  5641  04AB  0841               	movf	?___ftadd+1,w
  5642  04AC  1683               	bsf	3,5	;RP0=1, select bank1
  5643  04AD  1303               	bcf	3,6	;RP1=0, select bank1
  5644  04AE  00A4               	movwf	(_ISR$1739+1)^(0+128)
  5645  04AF  1283               	bcf	3,5	;RP0=0, select bank0
  5646  04B0  1303               	bcf	3,6	;RP1=0, select bank0
  5647  04B1  0842               	movf	?___ftadd+2,w
  5648  04B2  1683               	bsf	3,5	;RP0=1, select bank1
  5649  04B3  1303               	bcf	3,6	;RP1=0, select bank1
  5650  04B4  00A5               	movwf	(_ISR$1739+2)^(0+128)
  5651                           
  5652                           ;main.c: 134: p2 = trapezoidal((float)rpm, requiredRpm - ((2/3)*requiredRpm), requiredRp
      +                          m - ((2/3)*requiredRpm) + 100, requiredRpm - ((1/3)*requiredRpm - 100),requiredRpm - ((1
      +                          /3)*requiredRpm + 100));
  5653  04B5  0854               	movf	_requiredRpm^(0+128),w
  5654  04B6  1283               	bcf	3,5	;RP0=0, select bank0
  5655  04B7  1303               	bcf	3,6	;RP1=0, select bank0
  5656  04B8  00C0               	movwf	___ftadd@f1
  5657  04B9  1683               	bsf	3,5	;RP0=1, select bank1
  5658  04BA  1303               	bcf	3,6	;RP1=0, select bank1
  5659  04BB  0855               	movf	(_requiredRpm+1)^(0+128),w
  5660  04BC  1283               	bcf	3,5	;RP0=0, select bank0
  5661  04BD  1303               	bcf	3,6	;RP1=0, select bank0
  5662  04BE  00C1               	movwf	___ftadd@f1+1
  5663  04BF  1683               	bsf	3,5	;RP0=1, select bank1
  5664  04C0  1303               	bcf	3,6	;RP1=0, select bank1
  5665  04C1  0856               	movf	(_requiredRpm+2)^(0+128),w
  5666  04C2  1283               	bcf	3,5	;RP0=0, select bank0
  5667  04C3  1303               	bcf	3,6	;RP1=0, select bank0
  5668  04C4  00C2               	movwf	___ftadd@f1+2
  5669  04C5  1683               	bsf	3,5	;RP0=1, select bank1
  5670  04C6  1303               	bcf	3,6	;RP1=0, select bank1
  5671  04C7  0820               	movf	_ISR$1737^(0+128),w
  5672  04C8  1283               	bcf	3,5	;RP0=0, select bank0
  5673  04C9  1303               	bcf	3,6	;RP1=0, select bank0
  5674  04CA  00C3               	movwf	___ftadd@f2
  5675  04CB  1683               	bsf	3,5	;RP0=1, select bank1
  5676  04CC  1303               	bcf	3,6	;RP1=0, select bank1
  5677  04CD  0821               	movf	(_ISR$1737+1)^(0+128),w
  5678  04CE  1283               	bcf	3,5	;RP0=0, select bank0
  5679  04CF  1303               	bcf	3,6	;RP1=0, select bank0
  5680  04D0  00C4               	movwf	___ftadd@f2+1
  5681  04D1  1683               	bsf	3,5	;RP0=1, select bank1
  5682  04D2  1303               	bcf	3,6	;RP1=0, select bank1
  5683  04D3  0822               	movf	(_ISR$1737+2)^(0+128),w
  5684  04D4  1283               	bcf	3,5	;RP0=0, select bank0
  5685  04D5  1303               	bcf	3,6	;RP1=0, select bank0
  5686  04D6  00C5               	movwf	___ftadd@f2+2
  5687  04D7  160A  118A  26F7  120A  118A  	fcall	___ftadd
  5688  04DC  1283               	bcf	3,5	;RP0=0, select bank0
  5689  04DD  1303               	bcf	3,6	;RP1=0, select bank0
  5690  04DE  0840               	movf	?___ftadd,w
  5691  04DF  1683               	bsf	3,5	;RP0=1, select bank1
  5692  04E0  1303               	bcf	3,6	;RP1=0, select bank1
  5693  04E1  00A6               	movwf	_ISR$1740^(0+128)
  5694  04E2  1283               	bcf	3,5	;RP0=0, select bank0
  5695  04E3  1303               	bcf	3,6	;RP1=0, select bank0
  5696  04E4  0841               	movf	?___ftadd+1,w
  5697  04E5  1683               	bsf	3,5	;RP0=1, select bank1
  5698  04E6  1303               	bcf	3,6	;RP1=0, select bank1
  5699  04E7  00A7               	movwf	(_ISR$1740+1)^(0+128)
  5700  04E8  1283               	bcf	3,5	;RP0=0, select bank0
  5701  04E9  1303               	bcf	3,6	;RP1=0, select bank0
  5702  04EA  0842               	movf	?___ftadd+2,w
  5703  04EB  1683               	bsf	3,5	;RP0=1, select bank1
  5704  04EC  1303               	bcf	3,6	;RP1=0, select bank1
  5705  04ED  00A8               	movwf	(_ISR$1740+2)^(0+128)
  5706                           
  5707                           ;main.c: 134: p2 = trapezoidal((float)rpm, requiredRpm - ((2/3)*requiredRpm), requiredRp
      +                          m - ((2/3)*requiredRpm) + 100, requiredRpm - ((1/3)*requiredRpm - 100),requiredRpm - ((1
      +                          /3)*requiredRpm + 100));
  5708  04EE  0849               	movf	(_rpm+1)^(0+128),w
  5709  04EF  01F9               	clrf	___lwtoft@c+1
  5710  04F0  07F9               	addwf	___lwtoft@c+1,f
  5711  04F1  0848               	movf	_rpm^(0+128),w
  5712  04F2  01F8               	clrf	___lwtoft@c
  5713  04F3  07F8               	addwf	___lwtoft@c,f
  5714  04F4  160A  118A  2054  120A  118A  	fcall	___lwtoft
  5715  04F9  0878               	movf	?___lwtoft,w
  5716  04FA  1283               	bcf	3,5	;RP0=0, select bank0
  5717  04FB  1303               	bcf	3,6	;RP1=0, select bank0
  5718  04FC  00D0               	movwf	trapezoidal@x
  5719  04FD  0879               	movf	?___lwtoft+1,w
  5720  04FE  00D1               	movwf	trapezoidal@x+1
  5721  04FF  087A               	movf	?___lwtoft+2,w
  5722  0500  00D2               	movwf	trapezoidal@x+2
  5723  0501  1683               	bsf	3,5	;RP0=1, select bank1
  5724  0502  1303               	bcf	3,6	;RP1=0, select bank1
  5725  0503  0838               	movf	_ISR$1736^(0+128),w
  5726  0504  1283               	bcf	3,5	;RP0=0, select bank0
  5727  0505  1303               	bcf	3,6	;RP1=0, select bank0
  5728  0506  00D3               	movwf	trapezoidal@a
  5729  0507  1683               	bsf	3,5	;RP0=1, select bank1
  5730  0508  1303               	bcf	3,6	;RP1=0, select bank1
  5731  0509  0839               	movf	(_ISR$1736+1)^(0+128),w
  5732  050A  1283               	bcf	3,5	;RP0=0, select bank0
  5733  050B  1303               	bcf	3,6	;RP1=0, select bank0
  5734  050C  00D4               	movwf	trapezoidal@a+1
  5735  050D  1683               	bsf	3,5	;RP0=1, select bank1
  5736  050E  1303               	bcf	3,6	;RP1=0, select bank1
  5737  050F  083A               	movf	(_ISR$1736+2)^(0+128),w
  5738  0510  1283               	bcf	3,5	;RP0=0, select bank0
  5739  0511  1303               	bcf	3,6	;RP1=0, select bank0
  5740  0512  00D5               	movwf	trapezoidal@a+2
  5741  0513  1683               	bsf	3,5	;RP0=1, select bank1
  5742  0514  1303               	bcf	3,6	;RP1=0, select bank1
  5743  0515  0832               	movf	_ISR$1738^(0+128),w
  5744  0516  1283               	bcf	3,5	;RP0=0, select bank0
  5745  0517  1303               	bcf	3,6	;RP1=0, select bank0
  5746  0518  00D6               	movwf	trapezoidal@b
  5747  0519  1683               	bsf	3,5	;RP0=1, select bank1
  5748  051A  1303               	bcf	3,6	;RP1=0, select bank1
  5749  051B  0833               	movf	(_ISR$1738+1)^(0+128),w
  5750  051C  1283               	bcf	3,5	;RP0=0, select bank0
  5751  051D  1303               	bcf	3,6	;RP1=0, select bank0
  5752  051E  00D7               	movwf	trapezoidal@b+1
  5753  051F  1683               	bsf	3,5	;RP0=1, select bank1
  5754  0520  1303               	bcf	3,6	;RP1=0, select bank1
  5755  0521  0834               	movf	(_ISR$1738+2)^(0+128),w
  5756  0522  1283               	bcf	3,5	;RP0=0, select bank0
  5757  0523  1303               	bcf	3,6	;RP1=0, select bank0
  5758  0524  00D8               	movwf	trapezoidal@b+2
  5759  0525  1683               	bsf	3,5	;RP0=1, select bank1
  5760  0526  1303               	bcf	3,6	;RP1=0, select bank1
  5761  0527  0823               	movf	_ISR$1739^(0+128),w
  5762  0528  1283               	bcf	3,5	;RP0=0, select bank0
  5763  0529  1303               	bcf	3,6	;RP1=0, select bank0
  5764  052A  00D9               	movwf	trapezoidal@c
  5765  052B  1683               	bsf	3,5	;RP0=1, select bank1
  5766  052C  1303               	bcf	3,6	;RP1=0, select bank1
  5767  052D  0824               	movf	(_ISR$1739+1)^(0+128),w
  5768  052E  1283               	bcf	3,5	;RP0=0, select bank0
  5769  052F  1303               	bcf	3,6	;RP1=0, select bank0
  5770  0530  00DA               	movwf	trapezoidal@c+1
  5771  0531  1683               	bsf	3,5	;RP0=1, select bank1
  5772  0532  1303               	bcf	3,6	;RP1=0, select bank1
  5773  0533  0825               	movf	(_ISR$1739+2)^(0+128),w
  5774  0534  1283               	bcf	3,5	;RP0=0, select bank0
  5775  0535  1303               	bcf	3,6	;RP1=0, select bank0
  5776  0536  00DB               	movwf	trapezoidal@c+2
  5777  0537  1683               	bsf	3,5	;RP0=1, select bank1
  5778  0538  1303               	bcf	3,6	;RP1=0, select bank1
  5779  0539  0826               	movf	_ISR$1740^(0+128),w
  5780  053A  1283               	bcf	3,5	;RP0=0, select bank0
  5781  053B  1303               	bcf	3,6	;RP1=0, select bank0
  5782  053C  00DC               	movwf	trapezoidal@d
  5783  053D  1683               	bsf	3,5	;RP0=1, select bank1
  5784  053E  1303               	bcf	3,6	;RP1=0, select bank1
  5785  053F  0827               	movf	(_ISR$1740+1)^(0+128),w
  5786  0540  1283               	bcf	3,5	;RP0=0, select bank0
  5787  0541  1303               	bcf	3,6	;RP1=0, select bank0
  5788  0542  00DD               	movwf	trapezoidal@d+1
  5789  0543  1683               	bsf	3,5	;RP0=1, select bank1
  5790  0544  1303               	bcf	3,6	;RP1=0, select bank1
  5791  0545  0828               	movf	(_ISR$1740+2)^(0+128),w
  5792  0546  1283               	bcf	3,5	;RP0=0, select bank0
  5793  0547  1303               	bcf	3,6	;RP1=0, select bank0
  5794  0548  00DE               	movwf	trapezoidal@d+2
  5795  0549  120A  158A  209D  120A  118A  	fcall	_trapezoidal
  5796  054E  1283               	bcf	3,5	;RP0=0, select bank0
  5797  054F  1303               	bcf	3,6	;RP1=0, select bank0
  5798  0550  0850               	movf	?_trapezoidal,w
  5799  0551  1683               	bsf	3,5	;RP0=1, select bank1
  5800  0552  1303               	bcf	3,6	;RP1=0, select bank1
  5801  0553  00BE               	movwf	_p2^(0+128)
  5802  0554  1283               	bcf	3,5	;RP0=0, select bank0
  5803  0555  1303               	bcf	3,6	;RP1=0, select bank0
  5804  0556  0851               	movf	?_trapezoidal+1,w
  5805  0557  1683               	bsf	3,5	;RP0=1, select bank1
  5806  0558  1303               	bcf	3,6	;RP1=0, select bank1
  5807  0559  00BF               	movwf	(_p2+1)^(0+128)
  5808  055A  1283               	bcf	3,5	;RP0=0, select bank0
  5809  055B  1303               	bcf	3,6	;RP1=0, select bank0
  5810  055C  0852               	movf	?_trapezoidal+2,w
  5811  055D  1683               	bsf	3,5	;RP0=1, select bank1
  5812  055E  1303               	bcf	3,6	;RP1=0, select bank1
  5813  055F  00C0               	movwf	(_p2+2)^(0+128)
  5814                           
  5815                           ;main.c: 135: p3 = trapezoidal((float)rpm, requiredRpm - ((1/3)*requiredRpm), requiredRp
      +                          m - ((1/3)*requiredRpm) + 100, requiredRpm - 100,requiredRpm + 100);
  5816  0560  0854               	movf	_requiredRpm^(0+128),w
  5817  0561  1283               	bcf	3,5	;RP0=0, select bank0
  5818  0562  1303               	bcf	3,6	;RP1=0, select bank0
  5819  0563  00C0               	movwf	___ftadd@f1
  5820  0564  1683               	bsf	3,5	;RP0=1, select bank1
  5821  0565  1303               	bcf	3,6	;RP1=0, select bank1
  5822  0566  0855               	movf	(_requiredRpm+1)^(0+128),w
  5823  0567  1283               	bcf	3,5	;RP0=0, select bank0
  5824  0568  1303               	bcf	3,6	;RP1=0, select bank0
  5825  0569  00C1               	movwf	___ftadd@f1+1
  5826  056A  1683               	bsf	3,5	;RP0=1, select bank1
  5827  056B  1303               	bcf	3,6	;RP1=0, select bank1
  5828  056C  0856               	movf	(_requiredRpm+2)^(0+128),w
  5829  056D  1283               	bcf	3,5	;RP0=0, select bank0
  5830  056E  1303               	bcf	3,6	;RP1=0, select bank0
  5831  056F  00C2               	movwf	___ftadd@f1+2
  5832  0570  1683               	bsf	3,5	;RP0=1, select bank1
  5833  0571  1303               	bcf	3,6	;RP1=0, select bank1
  5834  0572  0854               	movf	_requiredRpm^(0+128),w
  5835  0573  1283               	bcf	3,5	;RP0=0, select bank0
  5836  0574  1303               	bcf	3,6	;RP1=0, select bank0
  5837  0575  00B3               	movwf	___ftmul@f2
  5838  0576  1683               	bsf	3,5	;RP0=1, select bank1
  5839  0577  1303               	bcf	3,6	;RP1=0, select bank1
  5840  0578  0855               	movf	(_requiredRpm+1)^(0+128),w
  5841  0579  1283               	bcf	3,5	;RP0=0, select bank0
  5842  057A  1303               	bcf	3,6	;RP1=0, select bank0
  5843  057B  00B4               	movwf	___ftmul@f2+1
  5844  057C  1683               	bsf	3,5	;RP0=1, select bank1
  5845  057D  1303               	bcf	3,6	;RP1=0, select bank1
  5846  057E  0856               	movf	(_requiredRpm+2)^(0+128),w
  5847  057F  1283               	bcf	3,5	;RP0=0, select bank0
  5848  0580  1303               	bcf	3,6	;RP1=0, select bank0
  5849  0581  00B5               	movwf	___ftmul@f2+2
  5850  0582  3000               	movlw	0
  5851  0583  00B0               	movwf	___ftmul@f1
  5852  0584  3000               	movlw	0
  5853  0585  00B1               	movwf	___ftmul@f1+1
  5854  0586  3000               	movlw	0
  5855  0587  00B2               	movwf	___ftmul@f1+2
  5856  0588  160A  118A  2545  120A  118A  	fcall	___ftmul
  5857  058D  1283               	bcf	3,5	;RP0=0, select bank0
  5858  058E  1303               	bcf	3,6	;RP1=0, select bank0
  5859  058F  0830               	movf	?___ftmul,w
  5860  0590  00CD               	movwf	___ftneg@f1
  5861  0591  0831               	movf	?___ftmul+1,w
  5862  0592  00CE               	movwf	___ftneg@f1+1
  5863  0593  0832               	movf	?___ftmul+2,w
  5864  0594  00CF               	movwf	___ftneg@f1+2
  5865  0595  120A  158A  2093  120A  118A  	fcall	___ftneg
  5866  059A  1283               	bcf	3,5	;RP0=0, select bank0
  5867  059B  1303               	bcf	3,6	;RP1=0, select bank0
  5868  059C  084D               	movf	?___ftneg,w
  5869  059D  00C3               	movwf	___ftadd@f2
  5870  059E  084E               	movf	?___ftneg+1,w
  5871  059F  00C4               	movwf	___ftadd@f2+1
  5872  05A0  084F               	movf	?___ftneg+2,w
  5873  05A1  00C5               	movwf	___ftadd@f2+2
  5874  05A2  160A  118A  26F7  120A  118A  	fcall	___ftadd
  5875  05A7  1283               	bcf	3,5	;RP0=0, select bank0
  5876  05A8  1303               	bcf	3,6	;RP1=0, select bank0
  5877  05A9  0840               	movf	?___ftadd,w
  5878  05AA  1683               	bsf	3,5	;RP0=1, select bank1
  5879  05AB  1303               	bcf	3,6	;RP1=0, select bank1
  5880  05AC  00B5               	movwf	_ISR$1733^(0+128)
  5881  05AD  1283               	bcf	3,5	;RP0=0, select bank0
  5882  05AE  1303               	bcf	3,6	;RP1=0, select bank0
  5883  05AF  0841               	movf	?___ftadd+1,w
  5884  05B0  1683               	bsf	3,5	;RP0=1, select bank1
  5885  05B1  1303               	bcf	3,6	;RP1=0, select bank1
  5886  05B2  00B6               	movwf	(_ISR$1733+1)^(0+128)
  5887  05B3  1283               	bcf	3,5	;RP0=0, select bank0
  5888  05B4  1303               	bcf	3,6	;RP1=0, select bank0
  5889  05B5  0842               	movf	?___ftadd+2,w
  5890  05B6  1683               	bsf	3,5	;RP0=1, select bank1
  5891  05B7  1303               	bcf	3,6	;RP1=0, select bank1
  5892  05B8  00B7               	movwf	(_ISR$1733+2)^(0+128)
  5893                           
  5894                           ;main.c: 135: p3 = trapezoidal((float)rpm, requiredRpm - ((1/3)*requiredRpm), requiredRp
      +                          m - ((1/3)*requiredRpm) + 100, requiredRpm - 100,requiredRpm + 100);
  5895  05B9  0854               	movf	_requiredRpm^(0+128),w
  5896  05BA  1283               	bcf	3,5	;RP0=0, select bank0
  5897  05BB  1303               	bcf	3,6	;RP1=0, select bank0
  5898  05BC  00C0               	movwf	___ftadd@f1
  5899  05BD  1683               	bsf	3,5	;RP0=1, select bank1
  5900  05BE  1303               	bcf	3,6	;RP1=0, select bank1
  5901  05BF  0855               	movf	(_requiredRpm+1)^(0+128),w
  5902  05C0  1283               	bcf	3,5	;RP0=0, select bank0
  5903  05C1  1303               	bcf	3,6	;RP1=0, select bank0
  5904  05C2  00C1               	movwf	___ftadd@f1+1
  5905  05C3  1683               	bsf	3,5	;RP0=1, select bank1
  5906  05C4  1303               	bcf	3,6	;RP1=0, select bank1
  5907  05C5  0856               	movf	(_requiredRpm+2)^(0+128),w
  5908  05C6  1283               	bcf	3,5	;RP0=0, select bank0
  5909  05C7  1303               	bcf	3,6	;RP1=0, select bank0
  5910  05C8  00C2               	movwf	___ftadd@f1+2
  5911  05C9  1683               	bsf	3,5	;RP0=1, select bank1
  5912  05CA  1303               	bcf	3,6	;RP1=0, select bank1
  5913  05CB  0854               	movf	_requiredRpm^(0+128),w
  5914  05CC  1283               	bcf	3,5	;RP0=0, select bank0
  5915  05CD  1303               	bcf	3,6	;RP1=0, select bank0
  5916  05CE  00B3               	movwf	___ftmul@f2
  5917  05CF  1683               	bsf	3,5	;RP0=1, select bank1
  5918  05D0  1303               	bcf	3,6	;RP1=0, select bank1
  5919  05D1  0855               	movf	(_requiredRpm+1)^(0+128),w
  5920  05D2  1283               	bcf	3,5	;RP0=0, select bank0
  5921  05D3  1303               	bcf	3,6	;RP1=0, select bank0
  5922  05D4  00B4               	movwf	___ftmul@f2+1
  5923  05D5  1683               	bsf	3,5	;RP0=1, select bank1
  5924  05D6  1303               	bcf	3,6	;RP1=0, select bank1
  5925  05D7  0856               	movf	(_requiredRpm+2)^(0+128),w
  5926  05D8  1283               	bcf	3,5	;RP0=0, select bank0
  5927  05D9  1303               	bcf	3,6	;RP1=0, select bank0
  5928  05DA  00B5               	movwf	___ftmul@f2+2
  5929  05DB  3000               	movlw	0
  5930  05DC  00B0               	movwf	___ftmul@f1
  5931  05DD  3000               	movlw	0
  5932  05DE  00B1               	movwf	___ftmul@f1+1
  5933  05DF  3000               	movlw	0
  5934  05E0  00B2               	movwf	___ftmul@f1+2
  5935  05E1  160A  118A  2545  120A  118A  	fcall	___ftmul
  5936  05E6  1283               	bcf	3,5	;RP0=0, select bank0
  5937  05E7  1303               	bcf	3,6	;RP1=0, select bank0
  5938  05E8  0830               	movf	?___ftmul,w
  5939  05E9  00CD               	movwf	___ftneg@f1
  5940  05EA  0831               	movf	?___ftmul+1,w
  5941  05EB  00CE               	movwf	___ftneg@f1+1
  5942  05EC  0832               	movf	?___ftmul+2,w
  5943  05ED  00CF               	movwf	___ftneg@f1+2
  5944  05EE  120A  158A  2093  120A  118A  	fcall	___ftneg
  5945  05F3  1283               	bcf	3,5	;RP0=0, select bank0
  5946  05F4  1303               	bcf	3,6	;RP1=0, select bank0
  5947  05F5  084D               	movf	?___ftneg,w
  5948  05F6  00C3               	movwf	___ftadd@f2
  5949  05F7  084E               	movf	?___ftneg+1,w
  5950  05F8  00C4               	movwf	___ftadd@f2+1
  5951  05F9  084F               	movf	?___ftneg+2,w
  5952  05FA  00C5               	movwf	___ftadd@f2+2
  5953  05FB  160A  118A  26F7  120A  118A  	fcall	___ftadd
  5954  0600  1283               	bcf	3,5	;RP0=0, select bank0
  5955  0601  1303               	bcf	3,6	;RP1=0, select bank0
  5956  0602  0840               	movf	?___ftadd,w
  5957  0603  1683               	bsf	3,5	;RP0=1, select bank1
  5958  0604  1303               	bcf	3,6	;RP1=0, select bank1
  5959  0605  00A9               	movwf	_ISR$1741^(0+128)
  5960  0606  1283               	bcf	3,5	;RP0=0, select bank0
  5961  0607  1303               	bcf	3,6	;RP1=0, select bank0
  5962  0608  0841               	movf	?___ftadd+1,w
  5963  0609  1683               	bsf	3,5	;RP0=1, select bank1
  5964  060A  1303               	bcf	3,6	;RP1=0, select bank1
  5965  060B  00AA               	movwf	(_ISR$1741+1)^(0+128)
  5966  060C  1283               	bcf	3,5	;RP0=0, select bank0
  5967  060D  1303               	bcf	3,6	;RP1=0, select bank0
  5968  060E  0842               	movf	?___ftadd+2,w
  5969  060F  1683               	bsf	3,5	;RP0=1, select bank1
  5970  0610  1303               	bcf	3,6	;RP1=0, select bank1
  5971  0611  00AB               	movwf	(_ISR$1741+2)^(0+128)
  5972                           
  5973                           ;main.c: 135: p3 = trapezoidal((float)rpm, requiredRpm - ((1/3)*requiredRpm), requiredRp
      +                          m - ((1/3)*requiredRpm) + 100, requiredRpm - 100,requiredRpm + 100);
  5974  0612  3000               	movlw	0
  5975  0613  1283               	bcf	3,5	;RP0=0, select bank0
  5976  0614  1303               	bcf	3,6	;RP1=0, select bank0
  5977  0615  00C0               	movwf	___ftadd@f1
  5978  0616  30C8               	movlw	200
  5979  0617  00C1               	movwf	___ftadd@f1+1
  5980  0618  3042               	movlw	66
  5981  0619  00C2               	movwf	___ftadd@f1+2
  5982  061A  1683               	bsf	3,5	;RP0=1, select bank1
  5983  061B  1303               	bcf	3,6	;RP1=0, select bank1
  5984  061C  0835               	movf	_ISR$1733^(0+128),w
  5985  061D  1283               	bcf	3,5	;RP0=0, select bank0
  5986  061E  1303               	bcf	3,6	;RP1=0, select bank0
  5987  061F  00C3               	movwf	___ftadd@f2
  5988  0620  1683               	bsf	3,5	;RP0=1, select bank1
  5989  0621  1303               	bcf	3,6	;RP1=0, select bank1
  5990  0622  0836               	movf	(_ISR$1733+1)^(0+128),w
  5991  0623  1283               	bcf	3,5	;RP0=0, select bank0
  5992  0624  1303               	bcf	3,6	;RP1=0, select bank0
  5993  0625  00C4               	movwf	___ftadd@f2+1
  5994  0626  1683               	bsf	3,5	;RP0=1, select bank1
  5995  0627  1303               	bcf	3,6	;RP1=0, select bank1
  5996  0628  0837               	movf	(_ISR$1733+2)^(0+128),w
  5997  0629  1283               	bcf	3,5	;RP0=0, select bank0
  5998  062A  1303               	bcf	3,6	;RP1=0, select bank0
  5999  062B  00C5               	movwf	___ftadd@f2+2
  6000  062C  160A  118A  26F7  120A  118A  	fcall	___ftadd
  6001  0631  1283               	bcf	3,5	;RP0=0, select bank0
  6002  0632  1303               	bcf	3,6	;RP1=0, select bank0
  6003  0633  0840               	movf	?___ftadd,w
  6004  0634  1683               	bsf	3,5	;RP0=1, select bank1
  6005  0635  1303               	bcf	3,6	;RP1=0, select bank1
  6006  0636  00AF               	movwf	_ISR$1735^(0+128)
  6007  0637  1283               	bcf	3,5	;RP0=0, select bank0
  6008  0638  1303               	bcf	3,6	;RP1=0, select bank0
  6009  0639  0841               	movf	?___ftadd+1,w
  6010  063A  1683               	bsf	3,5	;RP0=1, select bank1
  6011  063B  1303               	bcf	3,6	;RP1=0, select bank1
  6012  063C  00B0               	movwf	(_ISR$1735+1)^(0+128)
  6013  063D  1283               	bcf	3,5	;RP0=0, select bank0
  6014  063E  1303               	bcf	3,6	;RP1=0, select bank0
  6015  063F  0842               	movf	?___ftadd+2,w
  6016  0640  1683               	bsf	3,5	;RP0=1, select bank1
  6017  0641  1303               	bcf	3,6	;RP1=0, select bank1
  6018  0642  00B1               	movwf	(_ISR$1735+2)^(0+128)
  6019                           
  6020                           ;main.c: 135: p3 = trapezoidal((float)rpm, requiredRpm - ((1/3)*requiredRpm), requiredRp
      +                          m - ((1/3)*requiredRpm) + 100, requiredRpm - 100,requiredRpm + 100);
  6021  0643  3000               	movlw	0
  6022  0644  1283               	bcf	3,5	;RP0=0, select bank0
  6023  0645  1303               	bcf	3,6	;RP1=0, select bank0
  6024  0646  00C0               	movwf	___ftadd@f1
  6025  0647  30C8               	movlw	200
  6026  0648  00C1               	movwf	___ftadd@f1+1
  6027  0649  30C2               	movlw	194
  6028  064A  00C2               	movwf	___ftadd@f1+2
  6029  064B  1683               	bsf	3,5	;RP0=1, select bank1
  6030  064C  1303               	bcf	3,6	;RP1=0, select bank1
  6031  064D  0854               	movf	_requiredRpm^(0+128),w
  6032  064E  1283               	bcf	3,5	;RP0=0, select bank0
  6033  064F  1303               	bcf	3,6	;RP1=0, select bank0
  6034  0650  00C3               	movwf	___ftadd@f2
  6035  0651  1683               	bsf	3,5	;RP0=1, select bank1
  6036  0652  1303               	bcf	3,6	;RP1=0, select bank1
  6037  0653  0855               	movf	(_requiredRpm+1)^(0+128),w
  6038  0654  1283               	bcf	3,5	;RP0=0, select bank0
  6039  0655  1303               	bcf	3,6	;RP1=0, select bank0
  6040  0656  00C4               	movwf	___ftadd@f2+1
  6041  0657  1683               	bsf	3,5	;RP0=1, select bank1
  6042  0658  1303               	bcf	3,6	;RP1=0, select bank1
  6043  0659  0856               	movf	(_requiredRpm+2)^(0+128),w
  6044  065A  1283               	bcf	3,5	;RP0=0, select bank0
  6045  065B  1303               	bcf	3,6	;RP1=0, select bank0
  6046  065C  00C5               	movwf	___ftadd@f2+2
  6047  065D  160A  118A  26F7  120A  118A  	fcall	___ftadd
  6048  0662  1283               	bcf	3,5	;RP0=0, select bank0
  6049  0663  1303               	bcf	3,6	;RP1=0, select bank0
  6050  0664  0840               	movf	?___ftadd,w
  6051  0665  1683               	bsf	3,5	;RP0=1, select bank1
  6052  0666  1303               	bcf	3,6	;RP1=0, select bank1
  6053  0667  00B8               	movwf	_ISR$1736^(0+128)
  6054  0668  1283               	bcf	3,5	;RP0=0, select bank0
  6055  0669  1303               	bcf	3,6	;RP1=0, select bank0
  6056  066A  0841               	movf	?___ftadd+1,w
  6057  066B  1683               	bsf	3,5	;RP0=1, select bank1
  6058  066C  1303               	bcf	3,6	;RP1=0, select bank1
  6059  066D  00B9               	movwf	(_ISR$1736+1)^(0+128)
  6060  066E  1283               	bcf	3,5	;RP0=0, select bank0
  6061  066F  1303               	bcf	3,6	;RP1=0, select bank0
  6062  0670  0842               	movf	?___ftadd+2,w
  6063  0671  1683               	bsf	3,5	;RP0=1, select bank1
  6064  0672  1303               	bcf	3,6	;RP1=0, select bank1
  6065  0673  00BA               	movwf	(_ISR$1736+2)^(0+128)
  6066                           
  6067                           ;main.c: 135: p3 = trapezoidal((float)rpm, requiredRpm - ((1/3)*requiredRpm), requiredRp
      +                          m - ((1/3)*requiredRpm) + 100, requiredRpm - 100,requiredRpm + 100);
  6068  0674  3000               	movlw	0
  6069  0675  1283               	bcf	3,5	;RP0=0, select bank0
  6070  0676  1303               	bcf	3,6	;RP1=0, select bank0
  6071  0677  00C0               	movwf	___ftadd@f1
  6072  0678  30C8               	movlw	200
  6073  0679  00C1               	movwf	___ftadd@f1+1
  6074  067A  3042               	movlw	66
  6075  067B  00C2               	movwf	___ftadd@f1+2
  6076  067C  1683               	bsf	3,5	;RP0=1, select bank1
  6077  067D  1303               	bcf	3,6	;RP1=0, select bank1
  6078  067E  0854               	movf	_requiredRpm^(0+128),w
  6079  067F  1283               	bcf	3,5	;RP0=0, select bank0
  6080  0680  1303               	bcf	3,6	;RP1=0, select bank0
  6081  0681  00C3               	movwf	___ftadd@f2
  6082  0682  1683               	bsf	3,5	;RP0=1, select bank1
  6083  0683  1303               	bcf	3,6	;RP1=0, select bank1
  6084  0684  0855               	movf	(_requiredRpm+1)^(0+128),w
  6085  0685  1283               	bcf	3,5	;RP0=0, select bank0
  6086  0686  1303               	bcf	3,6	;RP1=0, select bank0
  6087  0687  00C4               	movwf	___ftadd@f2+1
  6088  0688  1683               	bsf	3,5	;RP0=1, select bank1
  6089  0689  1303               	bcf	3,6	;RP1=0, select bank1
  6090  068A  0856               	movf	(_requiredRpm+2)^(0+128),w
  6091  068B  1283               	bcf	3,5	;RP0=0, select bank0
  6092  068C  1303               	bcf	3,6	;RP1=0, select bank0
  6093  068D  00C5               	movwf	___ftadd@f2+2
  6094  068E  160A  118A  26F7  120A  118A  	fcall	___ftadd
  6095  0693  1283               	bcf	3,5	;RP0=0, select bank0
  6096  0694  1303               	bcf	3,6	;RP1=0, select bank0
  6097  0695  0840               	movf	?___ftadd,w
  6098  0696  1683               	bsf	3,5	;RP0=1, select bank1
  6099  0697  1303               	bcf	3,6	;RP1=0, select bank1
  6100  0698  00B2               	movwf	_ISR$1738^(0+128)
  6101  0699  1283               	bcf	3,5	;RP0=0, select bank0
  6102  069A  1303               	bcf	3,6	;RP1=0, select bank0
  6103  069B  0841               	movf	?___ftadd+1,w
  6104  069C  1683               	bsf	3,5	;RP0=1, select bank1
  6105  069D  1303               	bcf	3,6	;RP1=0, select bank1
  6106  069E  00B3               	movwf	(_ISR$1738+1)^(0+128)
  6107  069F  1283               	bcf	3,5	;RP0=0, select bank0
  6108  06A0  1303               	bcf	3,6	;RP1=0, select bank0
  6109  06A1  0842               	movf	?___ftadd+2,w
  6110  06A2  1683               	bsf	3,5	;RP0=1, select bank1
  6111  06A3  1303               	bcf	3,6	;RP1=0, select bank1
  6112  06A4  00B4               	movwf	(_ISR$1738+2)^(0+128)
  6113                           
  6114                           ;main.c: 135: p3 = trapezoidal((float)rpm, requiredRpm - ((1/3)*requiredRpm), requiredRp
      +                          m - ((1/3)*requiredRpm) + 100, requiredRpm - 100,requiredRpm + 100);
  6115  06A5  0849               	movf	(_rpm+1)^(0+128),w
  6116  06A6  01F9               	clrf	___lwtoft@c+1
  6117  06A7  07F9               	addwf	___lwtoft@c+1,f
  6118  06A8  0848               	movf	_rpm^(0+128),w
  6119  06A9  01F8               	clrf	___lwtoft@c
  6120  06AA  07F8               	addwf	___lwtoft@c,f
  6121  06AB  160A  118A  2054  120A  118A  	fcall	___lwtoft
  6122  06B0  0878               	movf	?___lwtoft,w
  6123  06B1  1283               	bcf	3,5	;RP0=0, select bank0
  6124  06B2  1303               	bcf	3,6	;RP1=0, select bank0
  6125  06B3  00D0               	movwf	trapezoidal@x
  6126  06B4  0879               	movf	?___lwtoft+1,w
  6127  06B5  00D1               	movwf	trapezoidal@x+1
  6128  06B6  087A               	movf	?___lwtoft+2,w
  6129  06B7  00D2               	movwf	trapezoidal@x+2
  6130  06B8  1683               	bsf	3,5	;RP0=1, select bank1
  6131  06B9  1303               	bcf	3,6	;RP1=0, select bank1
  6132  06BA  0829               	movf	_ISR$1741^(0+128),w
  6133  06BB  1283               	bcf	3,5	;RP0=0, select bank0
  6134  06BC  1303               	bcf	3,6	;RP1=0, select bank0
  6135  06BD  00D3               	movwf	trapezoidal@a
  6136  06BE  1683               	bsf	3,5	;RP0=1, select bank1
  6137  06BF  1303               	bcf	3,6	;RP1=0, select bank1
  6138  06C0  082A               	movf	(_ISR$1741+1)^(0+128),w
  6139  06C1  1283               	bcf	3,5	;RP0=0, select bank0
  6140  06C2  1303               	bcf	3,6	;RP1=0, select bank0
  6141  06C3  00D4               	movwf	trapezoidal@a+1
  6142  06C4  1683               	bsf	3,5	;RP0=1, select bank1
  6143  06C5  1303               	bcf	3,6	;RP1=0, select bank1
  6144  06C6  082B               	movf	(_ISR$1741+2)^(0+128),w
  6145  06C7  1283               	bcf	3,5	;RP0=0, select bank0
  6146  06C8  1303               	bcf	3,6	;RP1=0, select bank0
  6147  06C9  00D5               	movwf	trapezoidal@a+2
  6148  06CA  1683               	bsf	3,5	;RP0=1, select bank1
  6149  06CB  1303               	bcf	3,6	;RP1=0, select bank1
  6150  06CC  082F               	movf	_ISR$1735^(0+128),w
  6151  06CD  1283               	bcf	3,5	;RP0=0, select bank0
  6152  06CE  1303               	bcf	3,6	;RP1=0, select bank0
  6153  06CF  00D6               	movwf	trapezoidal@b
  6154  06D0  1683               	bsf	3,5	;RP0=1, select bank1
  6155  06D1  1303               	bcf	3,6	;RP1=0, select bank1
  6156  06D2  0830               	movf	(_ISR$1735+1)^(0+128),w
  6157  06D3  1283               	bcf	3,5	;RP0=0, select bank0
  6158  06D4  1303               	bcf	3,6	;RP1=0, select bank0
  6159  06D5  00D7               	movwf	trapezoidal@b+1
  6160  06D6  1683               	bsf	3,5	;RP0=1, select bank1
  6161  06D7  1303               	bcf	3,6	;RP1=0, select bank1
  6162  06D8  0831               	movf	(_ISR$1735+2)^(0+128),w
  6163  06D9  1283               	bcf	3,5	;RP0=0, select bank0
  6164  06DA  1303               	bcf	3,6	;RP1=0, select bank0
  6165  06DB  00D8               	movwf	trapezoidal@b+2
  6166  06DC  1683               	bsf	3,5	;RP0=1, select bank1
  6167  06DD  1303               	bcf	3,6	;RP1=0, select bank1
  6168  06DE  0838               	movf	_ISR$1736^(0+128),w
  6169  06DF  1283               	bcf	3,5	;RP0=0, select bank0
  6170  06E0  1303               	bcf	3,6	;RP1=0, select bank0
  6171  06E1  00D9               	movwf	trapezoidal@c
  6172  06E2  1683               	bsf	3,5	;RP0=1, select bank1
  6173  06E3  1303               	bcf	3,6	;RP1=0, select bank1
  6174  06E4  0839               	movf	(_ISR$1736+1)^(0+128),w
  6175  06E5  1283               	bcf	3,5	;RP0=0, select bank0
  6176  06E6  1303               	bcf	3,6	;RP1=0, select bank0
  6177  06E7  00DA               	movwf	trapezoidal@c+1
  6178  06E8  1683               	bsf	3,5	;RP0=1, select bank1
  6179  06E9  1303               	bcf	3,6	;RP1=0, select bank1
  6180  06EA  083A               	movf	(_ISR$1736+2)^(0+128),w
  6181  06EB  1283               	bcf	3,5	;RP0=0, select bank0
  6182  06EC  1303               	bcf	3,6	;RP1=0, select bank0
  6183  06ED  00DB               	movwf	trapezoidal@c+2
  6184  06EE  1683               	bsf	3,5	;RP0=1, select bank1
  6185  06EF  1303               	bcf	3,6	;RP1=0, select bank1
  6186  06F0  0832               	movf	_ISR$1738^(0+128),w
  6187  06F1  1283               	bcf	3,5	;RP0=0, select bank0
  6188  06F2  1303               	bcf	3,6	;RP1=0, select bank0
  6189  06F3  00DC               	movwf	trapezoidal@d
  6190  06F4  1683               	bsf	3,5	;RP0=1, select bank1
  6191  06F5  1303               	bcf	3,6	;RP1=0, select bank1
  6192  06F6  0833               	movf	(_ISR$1738+1)^(0+128),w
  6193  06F7  1283               	bcf	3,5	;RP0=0, select bank0
  6194  06F8  1303               	bcf	3,6	;RP1=0, select bank0
  6195  06F9  00DD               	movwf	trapezoidal@d+1
  6196  06FA  1683               	bsf	3,5	;RP0=1, select bank1
  6197  06FB  1303               	bcf	3,6	;RP1=0, select bank1
  6198  06FC  0834               	movf	(_ISR$1738+2)^(0+128),w
  6199  06FD  1283               	bcf	3,5	;RP0=0, select bank0
  6200  06FE  1303               	bcf	3,6	;RP1=0, select bank0
  6201  06FF  00DE               	movwf	trapezoidal@d+2
  6202  0700  120A  158A  209D  120A  118A  	fcall	_trapezoidal
  6203  0705  1283               	bcf	3,5	;RP0=0, select bank0
  6204  0706  1303               	bcf	3,6	;RP1=0, select bank0
  6205  0707  0850               	movf	?_trapezoidal,w
  6206  0708  1683               	bsf	3,5	;RP0=1, select bank1
  6207  0709  1303               	bcf	3,6	;RP1=0, select bank1
  6208  070A  00C1               	movwf	_p3^(0+128)
  6209  070B  1283               	bcf	3,5	;RP0=0, select bank0
  6210  070C  1303               	bcf	3,6	;RP1=0, select bank0
  6211  070D  0851               	movf	?_trapezoidal+1,w
  6212  070E  1683               	bsf	3,5	;RP0=1, select bank1
  6213  070F  1303               	bcf	3,6	;RP1=0, select bank1
  6214  0710  00C2               	movwf	(_p3+1)^(0+128)
  6215  0711  1283               	bcf	3,5	;RP0=0, select bank0
  6216  0712  1303               	bcf	3,6	;RP1=0, select bank0
  6217  0713  0852               	movf	?_trapezoidal+2,w
  6218  0714  1683               	bsf	3,5	;RP0=1, select bank1
  6219  0715  1303               	bcf	3,6	;RP1=0, select bank1
  6220  0716  00C3               	movwf	(_p3+2)^(0+128)
  6221                           
  6222                           ;main.c: 137: if(p1>p2){
  6223  0717  083E               	movf	_p2^(0+128),w
  6224  0718  00F0               	movwf	___ftge@ff1
  6225  0719  083F               	movf	(_p2+1)^(0+128),w
  6226  071A  00F1               	movwf	___ftge@ff1+1
  6227  071B  0840               	movf	(_p2+2)^(0+128),w
  6228  071C  00F2               	movwf	___ftge@ff1+2
  6229  071D  083B               	movf	_p1^(0+128),w
  6230  071E  00F3               	movwf	___ftge@ff2
  6231  071F  083C               	movf	(_p1+1)^(0+128),w
  6232  0720  00F4               	movwf	___ftge@ff2+1
  6233  0721  083D               	movf	(_p1+2)^(0+128),w
  6234  0722  00F5               	movwf	___ftge@ff2+2
  6235  0723  160A  118A  22F6  120A  118A  	fcall	___ftge
  6236  0728  1803               	btfsc	3,0
  6237  0729  2F40               	goto	i1l5457
  6238                           
  6239                           ;main.c: 138: PWM_DutyCycle2((int)(1023 * p1));
  6240  072A  1683               	bsf	3,5	;RP0=1, select bank1
  6241  072B  1303               	bcf	3,6	;RP1=0, select bank1
  6242  072C  083B               	movf	_p1^(0+128),w
  6243  072D  1283               	bcf	3,5	;RP0=0, select bank0
  6244  072E  1303               	bcf	3,6	;RP1=0, select bank0
  6245  072F  00B3               	movwf	___ftmul@f2
  6246  0730  1683               	bsf	3,5	;RP0=1, select bank1
  6247  0731  1303               	bcf	3,6	;RP1=0, select bank1
  6248  0732  083C               	movf	(_p1+1)^(0+128),w
  6249  0733  1283               	bcf	3,5	;RP0=0, select bank0
  6250  0734  1303               	bcf	3,6	;RP1=0, select bank0
  6251  0735  00B4               	movwf	___ftmul@f2+1
  6252  0736  1683               	bsf	3,5	;RP0=1, select bank1
  6253  0737  1303               	bcf	3,6	;RP1=0, select bank1
  6254  0738  083D               	movf	(_p1+2)^(0+128),w
  6255  0739  1283               	bcf	3,5	;RP0=0, select bank0
  6256  073A  1303               	bcf	3,6	;RP1=0, select bank0
  6257  073B  00B5               	movwf	___ftmul@f2+2
  6258  073C  30C0               	movlw	192
  6259  073D  00B0               	movwf	___ftmul@f1
  6260  073E  307F               	movlw	127
  6261  073F  2F80               	goto	L4
  6262  0740                     i1l5457:	
  6263                           ;main.c: 139: }else{
  6264                           
  6265                           
  6266                           ;main.c: 140: if(p2 > p3){
  6267  0740  1683               	bsf	3,5	;RP0=1, select bank1
  6268  0741  1303               	bcf	3,6	;RP1=0, select bank1
  6269  0742  0841               	movf	_p3^(0+128),w
  6270  0743  00F0               	movwf	___ftge@ff1
  6271  0744  0842               	movf	(_p3+1)^(0+128),w
  6272  0745  00F1               	movwf	___ftge@ff1+1
  6273  0746  0843               	movf	(_p3+2)^(0+128),w
  6274  0747  00F2               	movwf	___ftge@ff1+2
  6275  0748  083E               	movf	_p2^(0+128),w
  6276  0749  00F3               	movwf	___ftge@ff2
  6277  074A  083F               	movf	(_p2+1)^(0+128),w
  6278  074B  00F4               	movwf	___ftge@ff2+1
  6279  074C  0840               	movf	(_p2+2)^(0+128),w
  6280  074D  00F5               	movwf	___ftge@ff2+2
  6281  074E  160A  118A  22F6  120A  118A  	fcall	___ftge
  6282  0753  1803               	btfsc	3,0
  6283  0754  2F6B               	goto	i1l5461
  6284                           
  6285                           ;main.c: 141: PWM_DutyCycle2((int)(767 * p2));
  6286  0755  1683               	bsf	3,5	;RP0=1, select bank1
  6287  0756  1303               	bcf	3,6	;RP1=0, select bank1
  6288  0757  083E               	movf	_p2^(0+128),w
  6289  0758  1283               	bcf	3,5	;RP0=0, select bank0
  6290  0759  1303               	bcf	3,6	;RP1=0, select bank0
  6291  075A  00B3               	movwf	___ftmul@f2
  6292  075B  1683               	bsf	3,5	;RP0=1, select bank1
  6293  075C  1303               	bcf	3,6	;RP1=0, select bank1
  6294  075D  083F               	movf	(_p2+1)^(0+128),w
  6295  075E  1283               	bcf	3,5	;RP0=0, select bank0
  6296  075F  1303               	bcf	3,6	;RP1=0, select bank0
  6297  0760  00B4               	movwf	___ftmul@f2+1
  6298  0761  1683               	bsf	3,5	;RP0=1, select bank1
  6299  0762  1303               	bcf	3,6	;RP1=0, select bank1
  6300  0763  0840               	movf	(_p2+2)^(0+128),w
  6301  0764  1283               	bcf	3,5	;RP0=0, select bank0
  6302  0765  1303               	bcf	3,6	;RP1=0, select bank0
  6303  0766  00B5               	movwf	___ftmul@f2+2
  6304  0767  30C0               	movlw	192
  6305  0768  00B0               	movwf	___ftmul@f1
  6306  0769  303F               	movlw	63
  6307  076A  2F80               	goto	L4
  6308  076B                     i1l5461:	
  6309                           ;main.c: 142: }else{
  6310                           
  6311                           
  6312                           ;main.c: 143: PWM_DutyCycle2((int)(512 * p3));
  6313  076B  1683               	bsf	3,5	;RP0=1, select bank1
  6314  076C  1303               	bcf	3,6	;RP1=0, select bank1
  6315  076D  0841               	movf	_p3^(0+128),w
  6316  076E  1283               	bcf	3,5	;RP0=0, select bank0
  6317  076F  1303               	bcf	3,6	;RP1=0, select bank0
  6318  0770  00B3               	movwf	___ftmul@f2
  6319  0771  1683               	bsf	3,5	;RP0=1, select bank1
  6320  0772  1303               	bcf	3,6	;RP1=0, select bank1
  6321  0773  0842               	movf	(_p3+1)^(0+128),w
  6322  0774  1283               	bcf	3,5	;RP0=0, select bank0
  6323  0775  1303               	bcf	3,6	;RP1=0, select bank0
  6324  0776  00B4               	movwf	___ftmul@f2+1
  6325  0777  1683               	bsf	3,5	;RP0=1, select bank1
  6326  0778  1303               	bcf	3,6	;RP1=0, select bank1
  6327  0779  0843               	movf	(_p3+2)^(0+128),w
  6328  077A  1283               	bcf	3,5	;RP0=0, select bank0
  6329  077B  1303               	bcf	3,6	;RP1=0, select bank0
  6330  077C  00B5               	movwf	___ftmul@f2+2
  6331  077D  3000               	movlw	0
  6332  077E  00B0               	movwf	___ftmul@f1
  6333  077F  3000               	movlw	0
  6334  0780                     L4:	
  6335  0780  00B1               	movwf	___ftmul@f1+1
  6336  0781  3044               	movlw	68
  6337  0782  00B2               	movwf	___ftmul@f1+2
  6338  0783  160A  118A  2545  120A  118A  	fcall	___ftmul
  6339  0788  1283               	bcf	3,5	;RP0=0, select bank0
  6340  0789  1303               	bcf	3,6	;RP1=0, select bank0
  6341  078A  0830               	movf	?___ftmul,w
  6342  078B  00C0               	movwf	___fttol@f1
  6343  078C  0831               	movf	?___ftmul+1,w
  6344  078D  00C1               	movwf	___fttol@f1+1
  6345  078E  0832               	movf	?___ftmul+2,w
  6346  078F  00C2               	movwf	___fttol@f1+2
  6347  0790  160A  118A  2428  120A  118A  	fcall	___fttol
  6348  0795  1283               	bcf	3,5	;RP0=0, select bank0
  6349  0796  1303               	bcf	3,6	;RP1=0, select bank0
  6350  0797  0841               	movf	?___fttol+1,w
  6351  0798  01CF               	clrf	i1PWM_DutyCycle2@valor+1
  6352  0799  07CF               	addwf	i1PWM_DutyCycle2@valor+1,f
  6353  079A  0840               	movf	?___fttol,w
  6354  079B  01CE               	clrf	i1PWM_DutyCycle2@valor
  6355  079C  07CE               	addwf	i1PWM_DutyCycle2@valor,f
  6356  079D  160A  118A  2096  120A  118A  	fcall	i1_PWM_DutyCycle2
  6357                           
  6358                           ;main.c: 144: }
  6359                           ;main.c: 145: }
  6360                           ;main.c: 150: PORTBbits.RB6 = 0;
  6361  07A2  1283               	bcf	3,5	;RP0=0, select bank0
  6362  07A3  1303               	bcf	3,6	;RP1=0, select bank0
  6363  07A4  1306               	bcf	6,6	;volatile
  6364  07A5                     i1l5465:	
  6365                           
  6366                           ;main.c: 151: }
  6367                           ;main.c: 154: INTCONbits.T0IF = 0;
  6368  07A5  110B               	bcf	11,2	;volatile
  6369  07A6                     i1l5467:	
  6370                           
  6371                           ;main.c: 155: }
  6372                           ;main.c: 158: if (PIR1bits.TMR1IF)
  6373  07A6  180C               	btfsc	12,0	;volatile
  6374                           
  6375                           ;main.c: 159: {
  6376                           ;main.c: 163: PIR1bits.TMR1IF = 0;
  6377  07A7  100C               	bcf	12,0	;volatile
  6378                           
  6379                           ;main.c: 164: }
  6380                           ;main.c: 167: if (PIR1bits.SSPIF)
  6381  07A8  198C               	btfsc	12,3	;volatile
  6382                           
  6383                           ;main.c: 168: {
  6384                           ;main.c: 172: PIR1bits.SSPIF = 0;
  6385  07A9  118C               	bcf	12,3	;volatile
  6386  07AA  0862               	movf	??_ISR+3,w
  6387  07AB  00FF               	movwf	127
  6388  07AC  0861               	movf	??_ISR+2,w
  6389  07AD  008A               	movwf	10
  6390  07AE  0860               	movf	??_ISR+1,w
  6391  07AF  0084               	movwf	4
  6392  07B0  0E5F               	swapf	??_ISR^0,w
  6393  07B1  0083               	movwf	3
  6394  07B2  0EFE               	swapf	126,f
  6395  07B3  0E7E               	swapf	126,w
  6396  07B4  0009               	retfie
  6397  07B5                     __end_of_ISR:	
  6398                           
  6399                           	psect	intentry
  6400  0004                     __pintentry:	
  6401                           ;incstack = 0
  6402                           ; Regs used in _ISR: [wreg-fsr0h+status,2+status,0+btemp+1+pclath+cstack]
  6403                           
  6404  0004                     interrupt_function:	
  6405  007E                     saved_w	set	btemp
  6406  0004  00FE               	movwf	btemp
  6407  0005  0E03               	swapf	3,w
  6408  0006  1283               	bcf	3,5	;RP0=0, select bank0
  6409  0007  1303               	bcf	3,6	;RP1=0, select bank0
  6410  0008  00DF               	movwf	??_ISR
  6411  0009  0804               	movf	4,w
  6412  000A  00E0               	movwf	??_ISR+1
  6413  000B  080A               	movf	10,w
  6414  000C  00E1               	movwf	??_ISR+2
  6415  000D  087F               	movf	btemp+1,w
  6416  000E  00E2               	movwf	??_ISR+3
  6417  000F  120A  118A  2912   	ljmp	_ISR
  6418                           
  6419                           	psect	text24
  6420  1000                     __ptext24:	
  6421 ;; *************** function i1_TIMER0_Set *****************
  6422 ;; Defined at:
  6423 ;;		line 20 in file "C:\Users\332414\Desktop\Fuzzy-IA2\Cdigo em C no MPLAB\timers.c"
  6424 ;; Parameters:    Size  Location     Type
  6425 ;;  contagens       1    wreg     unsigned char 
  6426 ;; Auto vars:     Size  Location     Type
  6427 ;;  contagens       1    0[COMMON] unsigned char 
  6428 ;; Return value:  Size  Location     Type
  6429 ;;		None               void
  6430 ;; Registers used:
  6431 ;;		wreg
  6432 ;; Tracked objects:
  6433 ;;		On entry : 0/0
  6434 ;;		On exit  : 0/0
  6435 ;;		Unchanged: 0/0
  6436 ;; Data sizes:     COMMON   BANK0   BANK1   BANK3   BANK2
  6437 ;;      Params:         0       0       0       0       0
  6438 ;;      Locals:         1       0       0       0       0
  6439 ;;      Temps:          0       0       0       0       0
  6440 ;;      Totals:         1       0       0       0       0
  6441 ;;Total ram usage:        1 bytes
  6442 ;; Hardware stack levels used:    1
  6443 ;; This function calls:
  6444 ;;		Nothing
  6445 ;; This function is called by:
  6446 ;;		_ISR
  6447 ;; This function uses a non-reentrant model
  6448 ;;
  6449                           
  6450                           
  6451                           ;psect for function i1_TIMER0_Set
  6452  1000                     i1_TIMER0_Set:	
  6453                           
  6454                           ;incstack = 0
  6455                           ; Regs used in i1_TIMER0_Set: [wreg]
  6456                           ;i1TIMER0_Set@contagens stored from wreg
  6457  1000  00F0               	movwf	i1TIMER0_Set@contagens
  6458                           
  6459                           ;timers.c: 22: TMR0 = contagens;
  6460  1001  0870               	movf	i1TIMER0_Set@contagens,w
  6461  1002  1283               	bcf	3,5	;RP0=0, select bank0
  6462  1003  1303               	bcf	3,6	;RP1=0, select bank0
  6463  1004  0081               	movwf	1	;volatile
  6464  1005  0008               	return
  6465  1006                     __end_ofi1_TIMER0_Set:	
  6466                           
  6467                           	psect	text25
  6468  1096                     __ptext25:	
  6469 ;; *************** function i1_PWM_DutyCycle2 *****************
  6470 ;; Defined at:
  6471 ;;		line 96 in file "C:\Users\332414\Desktop\Fuzzy-IA2\Cdigo em C no MPLAB\pwm.c"
  6472 ;; Parameters:    Size  Location     Type
  6473 ;;  valor           2   46[BANK0 ] int 
  6474 ;; Auto vars:     Size  Location     Type
  6475 ;;		None
  6476 ;; Return value:  Size  Location     Type
  6477 ;;		None               void
  6478 ;; Registers used:
  6479 ;;		wreg, status,2, status,0
  6480 ;; Tracked objects:
  6481 ;;		On entry : 0/0
  6482 ;;		On exit  : 0/0
  6483 ;;		Unchanged: 0/0
  6484 ;; Data sizes:     COMMON   BANK0   BANK1   BANK3   BANK2
  6485 ;;      Params:         0       2       0       0       0
  6486 ;;      Locals:         0       0       0       0       0
  6487 ;;      Temps:          2       0       0       0       0
  6488 ;;      Totals:         2       2       0       0       0
  6489 ;;Total ram usage:        4 bytes
  6490 ;; Hardware stack levels used:    1
  6491 ;; This function calls:
  6492 ;;		Nothing
  6493 ;; This function is called by:
  6494 ;;		_ISR
  6495 ;; This function uses a non-reentrant model
  6496 ;;
  6497                           
  6498                           
  6499                           ;psect for function i1_PWM_DutyCycle2
  6500  1096                     i1_PWM_DutyCycle2:	
  6501                           
  6502                           ;pwm.c: 98: CCPR2L = valor >> 2;
  6503                           
  6504                           ;incstack = 0
  6505                           ; Regs used in i1_PWM_DutyCycle2: [wreg+status,2+status,0]
  6506  1096  1283               	bcf	3,5	;RP0=0, select bank0
  6507  1097  1303               	bcf	3,6	;RP1=0, select bank0
  6508  1098  084F               	movf	i1PWM_DutyCycle2@valor+1,w
  6509  1099  00FD               	movwf	??i1_PWM_DutyCycle2+1
  6510  109A  084E               	movf	i1PWM_DutyCycle2@valor,w
  6511  109B  00FC               	movwf	??i1_PWM_DutyCycle2
  6512  109C  0D7D               	rlf	??i1_PWM_DutyCycle2+1,w
  6513  109D  0CFD               	rrf	??i1_PWM_DutyCycle2+1,f
  6514  109E  0CFC               	rrf	??i1_PWM_DutyCycle2,f
  6515  109F  0D7D               	rlf	??i1_PWM_DutyCycle2+1,w
  6516  10A0  0CFD               	rrf	??i1_PWM_DutyCycle2+1,f
  6517  10A1  0CFC               	rrf	??i1_PWM_DutyCycle2,f
  6518  10A2  087C               	movf	??i1_PWM_DutyCycle2,w
  6519  10A3  009B               	movwf	27	;volatile
  6520                           
  6521                           ;pwm.c: 99: CCP2CON = (valor << 4)|0X0C;
  6522  10A4  084E               	movf	i1PWM_DutyCycle2@valor,w
  6523  10A5  00FC               	movwf	??i1_PWM_DutyCycle2
  6524  10A6  3003               	movlw	3
  6525  10A7                     u401_25:	
  6526  10A7  1003               	clrc
  6527  10A8  0DFC               	rlf	??i1_PWM_DutyCycle2,f
  6528  10A9  3EFF               	addlw	-1
  6529  10AA  1D03               	skipz
  6530  10AB  28A7               	goto	u401_25
  6531  10AC  1003               	clrc
  6532  10AD  0D7C               	rlf	??i1_PWM_DutyCycle2,w
  6533  10AE  380C               	iorlw	12
  6534  10AF  009D               	movwf	29	;volatile
  6535  10B0  0008               	return
  6536  10B1                     __end_ofi1_PWM_DutyCycle2:	
  6537                           
  6538                           	psect	text26
  6539  089D                     __ptext26:	
  6540 ;; *************** function _trapezoidal *****************
  6541 ;; Defined at:
  6542 ;;		line 43 in file "C:\Users\332414\Desktop\Fuzzy-IA2\Cdigo em C no MPLAB\main.c"
  6543 ;; Parameters:    Size  Location     Type
  6544 ;;  x               3   48[BANK0 ] float 
  6545 ;;  a               3   51[BANK0 ] float 
  6546 ;;  b               3   54[BANK0 ] float 
  6547 ;;  c               3   57[BANK0 ] float 
  6548 ;;  d               3   60[BANK0 ] float 
  6549 ;; Auto vars:     Size  Location     Type
  6550 ;;		None
  6551 ;; Return value:  Size  Location     Type
  6552 ;;                  3   48[BANK0 ] float 
  6553 ;; Registers used:
  6554 ;;		wreg, fsr0l, fsr0h, status,2, status,0, btemp+1, pclath, cstack
  6555 ;; Tracked objects:
  6556 ;;		On entry : 0/0
  6557 ;;		On exit  : 0/0
  6558 ;;		Unchanged: 0/0
  6559 ;; Data sizes:     COMMON   BANK0   BANK1   BANK3   BANK2
  6560 ;;      Params:         0      15       0       0       0
  6561 ;;      Locals:         0       0       0       0       0
  6562 ;;      Temps:          0       0       0       0       0
  6563 ;;      Totals:         0      15       0       0       0
  6564 ;;Total ram usage:       15 bytes
  6565 ;; Hardware stack levels used:    1
  6566 ;; Hardware stack levels required when called:    3
  6567 ;; This function calls:
  6568 ;;		___ftadd
  6569 ;;		___ftdiv
  6570 ;;		___ftge
  6571 ;;		___ftneg
  6572 ;;		_printf
  6573 ;; This function is called by:
  6574 ;;		_ISR
  6575 ;; This function uses a non-reentrant model
  6576 ;;
  6577                           
  6578                           
  6579                           ;psect for function _trapezoidal
  6580  089D                     _trapezoidal:	
  6581                           
  6582                           ;main.c: 44: if (x <= a){
  6583                           
  6584                           ;incstack = 0
  6585                           ; Regs used in _trapezoidal: [wreg-fsr0h+status,2+status,0+btemp+1+pclath+cstack]
  6586  089D  1283               	bcf	3,5	;RP0=0, select bank0
  6587  089E  1303               	bcf	3,6	;RP1=0, select bank0
  6588  089F  0853               	movf	trapezoidal@a,w
  6589  08A0  00F0               	movwf	___ftge@ff1
  6590  08A1  0854               	movf	trapezoidal@a+1,w
  6591  08A2  00F1               	movwf	___ftge@ff1+1
  6592  08A3  0855               	movf	trapezoidal@a+2,w
  6593  08A4  00F2               	movwf	___ftge@ff1+2
  6594  08A5  0850               	movf	trapezoidal@x,w
  6595  08A6  00F3               	movwf	___ftge@ff2
  6596  08A7  0851               	movf	trapezoidal@x+1,w
  6597  08A8  00F4               	movwf	___ftge@ff2+1
  6598  08A9  0852               	movf	trapezoidal@x+2,w
  6599  08AA  00F5               	movwf	___ftge@ff2+2
  6600  08AB  160A  118A  22F6  120A  158A  	fcall	___ftge
  6601  08B0  1C03               	btfss	3,0
  6602  08B1  28BF               	goto	i1l5341
  6603                           
  6604                           ;main.c: 45: printf("1");
  6605  08B2  307A               	movlw	(STR_1-__stringbase)& (0+255)
  6606  08B3  160A  118A  20B1   	fcall	_printf
  6607                           
  6608                           ;main.c: 46: return 0.0f;
  6609  08B6  3000               	movlw	0
  6610  08B7  1283               	bcf	3,5	;RP0=0, select bank0
  6611  08B8  1303               	bcf	3,6	;RP1=0, select bank0
  6612  08B9  00D0               	movwf	?_trapezoidal
  6613  08BA  3000               	movlw	0
  6614  08BB  00D1               	movwf	?_trapezoidal+1
  6615  08BC  3000               	movlw	0
  6616  08BD  00D2               	movwf	?_trapezoidal+2
  6617  08BE  0008               	return
  6618  08BF                     i1l5341:	
  6619                           
  6620                           ;main.c: 47: }
  6621                           ;main.c: 48: if (a < x && x <= b){
  6622  08BF  1283               	bcf	3,5	;RP0=0, select bank0
  6623  08C0  1303               	bcf	3,6	;RP1=0, select bank0
  6624  08C1  0853               	movf	trapezoidal@a,w
  6625  08C2  00F0               	movwf	___ftge@ff1
  6626  08C3  0854               	movf	trapezoidal@a+1,w
  6627  08C4  00F1               	movwf	___ftge@ff1+1
  6628  08C5  0855               	movf	trapezoidal@a+2,w
  6629  08C6  00F2               	movwf	___ftge@ff1+2
  6630  08C7  0850               	movf	trapezoidal@x,w
  6631  08C8  00F3               	movwf	___ftge@ff2
  6632  08C9  0851               	movf	trapezoidal@x+1,w
  6633  08CA  00F4               	movwf	___ftge@ff2+1
  6634  08CB  0852               	movf	trapezoidal@x+2,w
  6635  08CC  00F5               	movwf	___ftge@ff2+2
  6636  08CD  160A  118A  22F6  120A  158A  	fcall	___ftge
  6637  08D2  1803               	btfsc	3,0
  6638  08D3  2949               	goto	i1l5351
  6639  08D4  1283               	bcf	3,5	;RP0=0, select bank0
  6640  08D5  1303               	bcf	3,6	;RP1=0, select bank0
  6641  08D6  0856               	movf	trapezoidal@b,w
  6642  08D7  00F0               	movwf	___ftge@ff1
  6643  08D8  0857               	movf	trapezoidal@b+1,w
  6644  08D9  00F1               	movwf	___ftge@ff1+1
  6645  08DA  0858               	movf	trapezoidal@b+2,w
  6646  08DB  00F2               	movwf	___ftge@ff1+2
  6647  08DC  0850               	movf	trapezoidal@x,w
  6648  08DD  00F3               	movwf	___ftge@ff2
  6649  08DE  0851               	movf	trapezoidal@x+1,w
  6650  08DF  00F4               	movwf	___ftge@ff2+1
  6651  08E0  0852               	movf	trapezoidal@x+2,w
  6652  08E1  00F5               	movwf	___ftge@ff2+2
  6653  08E2  160A  118A  22F6  120A  158A  	fcall	___ftge
  6654  08E7  1C03               	btfss	3,0
  6655  08E8  2949               	goto	i1l5351
  6656                           
  6657                           ;main.c: 49: printf("2");
  6658  08E9  307C               	movlw	(STR_2-__stringbase)& (0+255)
  6659  08EA  160A  118A  20B1  120A  158A  	fcall	_printf
  6660                           
  6661                           ;main.c: 50: return (x-a)/(b-a);
  6662  08EF  1283               	bcf	3,5	;RP0=0, select bank0
  6663  08F0  1303               	bcf	3,6	;RP1=0, select bank0
  6664  08F1  0856               	movf	trapezoidal@b,w
  6665  08F2  00C0               	movwf	___ftadd@f1
  6666  08F3  0857               	movf	trapezoidal@b+1,w
  6667  08F4  00C1               	movwf	___ftadd@f1+1
  6668  08F5  0858               	movf	trapezoidal@b+2,w
  6669  08F6  00C2               	movwf	___ftadd@f1+2
  6670  08F7  0853               	movf	trapezoidal@a,w
  6671  08F8  00CD               	movwf	___ftneg@f1
  6672  08F9  0854               	movf	trapezoidal@a+1,w
  6673  08FA  00CE               	movwf	___ftneg@f1+1
  6674  08FB  0855               	movf	trapezoidal@a+2,w
  6675  08FC  00CF               	movwf	___ftneg@f1+2
  6676  08FD  120A  158A  2093  120A  158A  	fcall	___ftneg
  6677  0902  1283               	bcf	3,5	;RP0=0, select bank0
  6678  0903  1303               	bcf	3,6	;RP1=0, select bank0
  6679  0904  084D               	movf	?___ftneg,w
  6680  0905  00C3               	movwf	___ftadd@f2
  6681  0906  084E               	movf	?___ftneg+1,w
  6682  0907  00C4               	movwf	___ftadd@f2+1
  6683  0908  084F               	movf	?___ftneg+2,w
  6684  0909  00C5               	movwf	___ftadd@f2+2
  6685  090A  160A  118A  26F7  120A  158A  	fcall	___ftadd
  6686  090F  1283               	bcf	3,5	;RP0=0, select bank0
  6687  0910  1303               	bcf	3,6	;RP1=0, select bank0
  6688  0911  0840               	movf	?___ftadd,w
  6689  0912  00A0               	movwf	___ftdiv@f2
  6690  0913  0841               	movf	?___ftadd+1,w
  6691  0914  00A1               	movwf	___ftdiv@f2+1
  6692  0915  0842               	movf	?___ftadd+2,w
  6693  0916  00A2               	movwf	___ftdiv@f2+2
  6694  0917  0850               	movf	trapezoidal@x,w
  6695  0918  00C0               	movwf	___ftadd@f1
  6696  0919  0851               	movf	trapezoidal@x+1,w
  6697  091A  00C1               	movwf	___ftadd@f1+1
  6698  091B  0852               	movf	trapezoidal@x+2,w
  6699  091C  00C2               	movwf	___ftadd@f1+2
  6700  091D  0853               	movf	trapezoidal@a,w
  6701  091E  00CD               	movwf	___ftneg@f1
  6702  091F  0854               	movf	trapezoidal@a+1,w
  6703  0920  00CE               	movwf	___ftneg@f1+1
  6704  0921  0855               	movf	trapezoidal@a+2,w
  6705  0922  00CF               	movwf	___ftneg@f1+2
  6706  0923  120A  158A  2093  120A  158A  	fcall	___ftneg
  6707  0928  1283               	bcf	3,5	;RP0=0, select bank0
  6708  0929  1303               	bcf	3,6	;RP1=0, select bank0
  6709  092A  084D               	movf	?___ftneg,w
  6710  092B  00C3               	movwf	___ftadd@f2
  6711  092C  084E               	movf	?___ftneg+1,w
  6712  092D  00C4               	movwf	___ftadd@f2+1
  6713  092E  084F               	movf	?___ftneg+2,w
  6714  092F  00C5               	movwf	___ftadd@f2+2
  6715  0930  160A  118A  26F7  120A  158A  	fcall	___ftadd
  6716  0935  1283               	bcf	3,5	;RP0=0, select bank0
  6717  0936  1303               	bcf	3,6	;RP1=0, select bank0
  6718  0937  0840               	movf	?___ftadd,w
  6719  0938  00A3               	movwf	___ftdiv@f1
  6720  0939  0841               	movf	?___ftadd+1,w
  6721  093A  00A4               	movwf	___ftdiv@f1+1
  6722  093B  0842               	movf	?___ftadd+2,w
  6723  093C  00A5               	movwf	___ftdiv@f1+2
  6724  093D  120A  118A  203C   	fcall	___ftdiv
  6725  0940  1283               	bcf	3,5	;RP0=0, select bank0
  6726  0941  1303               	bcf	3,6	;RP1=0, select bank0
  6727  0942  0820               	movf	?___ftdiv,w
  6728  0943  00D0               	movwf	?_trapezoidal
  6729  0944  0821               	movf	?___ftdiv+1,w
  6730  0945  00D1               	movwf	?_trapezoidal+1
  6731  0946  0822               	movf	?___ftdiv+2,w
  6732  0947  00D2               	movwf	?_trapezoidal+2
  6733  0948  0008               	return
  6734  0949                     i1l5351:	
  6735                           
  6736                           ;main.c: 51: }
  6737                           ;main.c: 52: if (b < x && x <= c){
  6738  0949  1283               	bcf	3,5	;RP0=0, select bank0
  6739  094A  1303               	bcf	3,6	;RP1=0, select bank0
  6740  094B  0856               	movf	trapezoidal@b,w
  6741  094C  00F0               	movwf	___ftge@ff1
  6742  094D  0857               	movf	trapezoidal@b+1,w
  6743  094E  00F1               	movwf	___ftge@ff1+1
  6744  094F  0858               	movf	trapezoidal@b+2,w
  6745  0950  00F2               	movwf	___ftge@ff1+2
  6746  0951  0850               	movf	trapezoidal@x,w
  6747  0952  00F3               	movwf	___ftge@ff2
  6748  0953  0851               	movf	trapezoidal@x+1,w
  6749  0954  00F4               	movwf	___ftge@ff2+1
  6750  0955  0852               	movf	trapezoidal@x+2,w
  6751  0956  00F5               	movwf	___ftge@ff2+2
  6752  0957  160A  118A  22F6  120A  158A  	fcall	___ftge
  6753  095C  1803               	btfsc	3,0
  6754  095D  2980               	goto	i1l5361
  6755  095E  1283               	bcf	3,5	;RP0=0, select bank0
  6756  095F  1303               	bcf	3,6	;RP1=0, select bank0
  6757  0960  0859               	movf	trapezoidal@c,w
  6758  0961  00F0               	movwf	___ftge@ff1
  6759  0962  085A               	movf	trapezoidal@c+1,w
  6760  0963  00F1               	movwf	___ftge@ff1+1
  6761  0964  085B               	movf	trapezoidal@c+2,w
  6762  0965  00F2               	movwf	___ftge@ff1+2
  6763  0966  0850               	movf	trapezoidal@x,w
  6764  0967  00F3               	movwf	___ftge@ff2
  6765  0968  0851               	movf	trapezoidal@x+1,w
  6766  0969  00F4               	movwf	___ftge@ff2+1
  6767  096A  0852               	movf	trapezoidal@x+2,w
  6768  096B  00F5               	movwf	___ftge@ff2+2
  6769  096C  160A  118A  22F6  120A  158A  	fcall	___ftge
  6770  0971  1C03               	btfss	3,0
  6771  0972  2980               	goto	i1l5361
  6772                           
  6773                           ;main.c: 53: printf("3");
  6774  0973  307E               	movlw	(STR_3-__stringbase)& (0+255)
  6775  0974  160A  118A  20B1   	fcall	_printf
  6776                           
  6777                           ;main.c: 54: return 1.0f;
  6778  0977  3000               	movlw	0
  6779  0978  1283               	bcf	3,5	;RP0=0, select bank0
  6780  0979  1303               	bcf	3,6	;RP1=0, select bank0
  6781  097A  00D0               	movwf	?_trapezoidal
  6782  097B  3080               	movlw	128
  6783  097C  00D1               	movwf	?_trapezoidal+1
  6784  097D  303F               	movlw	63
  6785  097E  00D2               	movwf	?_trapezoidal+2
  6786  097F  0008               	return
  6787  0980                     i1l5361:	
  6788                           
  6789                           ;main.c: 55: }
  6790                           ;main.c: 56: if (c < x && x <= d){
  6791  0980  1283               	bcf	3,5	;RP0=0, select bank0
  6792  0981  1303               	bcf	3,6	;RP1=0, select bank0
  6793  0982  0859               	movf	trapezoidal@c,w
  6794  0983  00F0               	movwf	___ftge@ff1
  6795  0984  085A               	movf	trapezoidal@c+1,w
  6796  0985  00F1               	movwf	___ftge@ff1+1
  6797  0986  085B               	movf	trapezoidal@c+2,w
  6798  0987  00F2               	movwf	___ftge@ff1+2
  6799  0988  0850               	movf	trapezoidal@x,w
  6800  0989  00F3               	movwf	___ftge@ff2
  6801  098A  0851               	movf	trapezoidal@x+1,w
  6802  098B  00F4               	movwf	___ftge@ff2+1
  6803  098C  0852               	movf	trapezoidal@x+2,w
  6804  098D  00F5               	movwf	___ftge@ff2+2
  6805  098E  160A  118A  22F6  120A  158A  	fcall	___ftge
  6806  0993  1803               	btfsc	3,0
  6807  0994  2A0A               	goto	i1l5371
  6808  0995  1283               	bcf	3,5	;RP0=0, select bank0
  6809  0996  1303               	bcf	3,6	;RP1=0, select bank0
  6810  0997  085C               	movf	trapezoidal@d,w
  6811  0998  00F0               	movwf	___ftge@ff1
  6812  0999  085D               	movf	trapezoidal@d+1,w
  6813  099A  00F1               	movwf	___ftge@ff1+1
  6814  099B  085E               	movf	trapezoidal@d+2,w
  6815  099C  00F2               	movwf	___ftge@ff1+2
  6816  099D  0850               	movf	trapezoidal@x,w
  6817  099E  00F3               	movwf	___ftge@ff2
  6818  099F  0851               	movf	trapezoidal@x+1,w
  6819  09A0  00F4               	movwf	___ftge@ff2+1
  6820  09A1  0852               	movf	trapezoidal@x+2,w
  6821  09A2  00F5               	movwf	___ftge@ff2+2
  6822  09A3  160A  118A  22F6  120A  158A  	fcall	___ftge
  6823  09A8  1C03               	btfss	3,0
  6824  09A9  2A0A               	goto	i1l5371
  6825                           
  6826                           ;main.c: 57: printf("4");
  6827  09AA  3080               	movlw	(STR_4-__stringbase)& (0+255)
  6828  09AB  160A  118A  20B1  120A  158A  	fcall	_printf
  6829                           
  6830                           ;main.c: 58: return ((d-x)/(d-c));
  6831  09B0  1283               	bcf	3,5	;RP0=0, select bank0
  6832  09B1  1303               	bcf	3,6	;RP1=0, select bank0
  6833  09B2  085C               	movf	trapezoidal@d,w
  6834  09B3  00C0               	movwf	___ftadd@f1
  6835  09B4  085D               	movf	trapezoidal@d+1,w
  6836  09B5  00C1               	movwf	___ftadd@f1+1
  6837  09B6  085E               	movf	trapezoidal@d+2,w
  6838  09B7  00C2               	movwf	___ftadd@f1+2
  6839  09B8  0859               	movf	trapezoidal@c,w
  6840  09B9  00CD               	movwf	___ftneg@f1
  6841  09BA  085A               	movf	trapezoidal@c+1,w
  6842  09BB  00CE               	movwf	___ftneg@f1+1
  6843  09BC  085B               	movf	trapezoidal@c+2,w
  6844  09BD  00CF               	movwf	___ftneg@f1+2
  6845  09BE  120A  158A  2093  120A  158A  	fcall	___ftneg
  6846  09C3  1283               	bcf	3,5	;RP0=0, select bank0
  6847  09C4  1303               	bcf	3,6	;RP1=0, select bank0
  6848  09C5  084D               	movf	?___ftneg,w
  6849  09C6  00C3               	movwf	___ftadd@f2
  6850  09C7  084E               	movf	?___ftneg+1,w
  6851  09C8  00C4               	movwf	___ftadd@f2+1
  6852  09C9  084F               	movf	?___ftneg+2,w
  6853  09CA  00C5               	movwf	___ftadd@f2+2
  6854  09CB  160A  118A  26F7  120A  158A  	fcall	___ftadd
  6855  09D0  1283               	bcf	3,5	;RP0=0, select bank0
  6856  09D1  1303               	bcf	3,6	;RP1=0, select bank0
  6857  09D2  0840               	movf	?___ftadd,w
  6858  09D3  00A0               	movwf	___ftdiv@f2
  6859  09D4  0841               	movf	?___ftadd+1,w
  6860  09D5  00A1               	movwf	___ftdiv@f2+1
  6861  09D6  0842               	movf	?___ftadd+2,w
  6862  09D7  00A2               	movwf	___ftdiv@f2+2
  6863  09D8  085C               	movf	trapezoidal@d,w
  6864  09D9  00C0               	movwf	___ftadd@f1
  6865  09DA  085D               	movf	trapezoidal@d+1,w
  6866  09DB  00C1               	movwf	___ftadd@f1+1
  6867  09DC  085E               	movf	trapezoidal@d+2,w
  6868  09DD  00C2               	movwf	___ftadd@f1+2
  6869  09DE  0850               	movf	trapezoidal@x,w
  6870  09DF  00CD               	movwf	___ftneg@f1
  6871  09E0  0851               	movf	trapezoidal@x+1,w
  6872  09E1  00CE               	movwf	___ftneg@f1+1
  6873  09E2  0852               	movf	trapezoidal@x+2,w
  6874  09E3  00CF               	movwf	___ftneg@f1+2
  6875  09E4  120A  158A  2093  120A  158A  	fcall	___ftneg
  6876  09E9  1283               	bcf	3,5	;RP0=0, select bank0
  6877  09EA  1303               	bcf	3,6	;RP1=0, select bank0
  6878  09EB  084D               	movf	?___ftneg,w
  6879  09EC  00C3               	movwf	___ftadd@f2
  6880  09ED  084E               	movf	?___ftneg+1,w
  6881  09EE  00C4               	movwf	___ftadd@f2+1
  6882  09EF  084F               	movf	?___ftneg+2,w
  6883  09F0  00C5               	movwf	___ftadd@f2+2
  6884  09F1  160A  118A  26F7  120A  158A  	fcall	___ftadd
  6885  09F6  1283               	bcf	3,5	;RP0=0, select bank0
  6886  09F7  1303               	bcf	3,6	;RP1=0, select bank0
  6887  09F8  0840               	movf	?___ftadd,w
  6888  09F9  00A3               	movwf	___ftdiv@f1
  6889  09FA  0841               	movf	?___ftadd+1,w
  6890  09FB  00A4               	movwf	___ftdiv@f1+1
  6891  09FC  0842               	movf	?___ftadd+2,w
  6892  09FD  00A5               	movwf	___ftdiv@f1+2
  6893  09FE  120A  118A  203C   	fcall	___ftdiv
  6894  0A01  1283               	bcf	3,5	;RP0=0, select bank0
  6895  0A02  1303               	bcf	3,6	;RP1=0, select bank0
  6896  0A03  0820               	movf	?___ftdiv,w
  6897  0A04  00D0               	movwf	?_trapezoidal
  6898  0A05  0821               	movf	?___ftdiv+1,w
  6899  0A06  00D1               	movwf	?_trapezoidal+1
  6900  0A07  0822               	movf	?___ftdiv+2,w
  6901  0A08  00D2               	movwf	?_trapezoidal+2
  6902  0A09  0008               	return
  6903  0A0A                     i1l5371:	
  6904                           
  6905                           ;main.c: 59: }
  6906                           ;main.c: 60: if (x > d){
  6907  0A0A  1283               	bcf	3,5	;RP0=0, select bank0
  6908  0A0B  1303               	bcf	3,6	;RP1=0, select bank0
  6909  0A0C  085C               	movf	trapezoidal@d,w
  6910  0A0D  00F0               	movwf	___ftge@ff1
  6911  0A0E  085D               	movf	trapezoidal@d+1,w
  6912  0A0F  00F1               	movwf	___ftge@ff1+1
  6913  0A10  085E               	movf	trapezoidal@d+2,w
  6914  0A11  00F2               	movwf	___ftge@ff1+2
  6915  0A12  0850               	movf	trapezoidal@x,w
  6916  0A13  00F3               	movwf	___ftge@ff2
  6917  0A14  0851               	movf	trapezoidal@x+1,w
  6918  0A15  00F4               	movwf	___ftge@ff2+1
  6919  0A16  0852               	movf	trapezoidal@x+2,w
  6920  0A17  00F5               	movwf	___ftge@ff2+2
  6921  0A18  160A  118A  22F6  120A  158A  	fcall	___ftge
  6922  0A1D  1803               	btfsc	3,0
  6923  0A1E  0008               	return
  6924                           
  6925                           ;main.c: 61: printf("5");
  6926  0A1F  3082               	movlw	(STR_5-__stringbase)& (0+255)
  6927  0A20  160A  118A  20B1   	fcall	_printf
  6928                           
  6929                           ;main.c: 62: return 0.0f;
  6930  0A23  3000               	movlw	0
  6931  0A24  1283               	bcf	3,5	;RP0=0, select bank0
  6932  0A25  1303               	bcf	3,6	;RP1=0, select bank0
  6933  0A26  00D0               	movwf	?_trapezoidal
  6934  0A27  3000               	movlw	0
  6935  0A28  00D1               	movwf	?_trapezoidal+1
  6936  0A29  3000               	movlw	0
  6937  0A2A  00D2               	movwf	?_trapezoidal+2
  6938  0A2B  0008               	return
  6939  0A2C                     __end_of_trapezoidal:	
  6940                           
  6941                           	psect	text27
  6942  10B1                     __ptext27:	
  6943 ;; *************** function _printf *****************
  6944 ;; Defined at:
  6945 ;;		line 13 in file "C:\Program Files (x86)\Microchip\xc8\v1.33\sources\common\printf.c"
  6946 ;; Parameters:    Size  Location     Type
  6947 ;;  f               1    wreg     PTR const unsigned char 
  6948 ;;		 -> STR_5(2), STR_4(2), STR_3(2), STR_2(2), 
  6949 ;;		 -> STR_1(2), 
  6950 ;; Auto vars:     Size  Location     Type
  6951 ;;  f               1   18[BANK0 ] PTR const unsigned char 
  6952 ;;		 -> STR_5(2), STR_4(2), STR_3(2), STR_2(2), 
  6953 ;;		 -> STR_1(2), 
  6954 ;;  pb              2   20[BANK0 ] struct __prbuf
  6955 ;;  ap              1   19[BANK0 ] PTR void [1]
  6956 ;;		 -> ?_sprintf(2), ?_printf(2), 
  6957 ;; Return value:  Size  Location     Type
  6958 ;;                  2    2[COMMON] int 
  6959 ;; Registers used:
  6960 ;;		wreg, fsr0l, fsr0h, status,2, status,0, btemp+1, pclath, cstack
  6961 ;; Tracked objects:
  6962 ;;		On entry : 0/0
  6963 ;;		On exit  : 0/0
  6964 ;;		Unchanged: 0/0
  6965 ;; Data sizes:     COMMON   BANK0   BANK1   BANK3   BANK2
  6966 ;;      Params:         0       0       0       0       0
  6967 ;;      Locals:         0       4       0       0       0
  6968 ;;      Temps:          0       1       0       0       0
  6969 ;;      Totals:         0       5       0       0       0
  6970 ;;Total ram usage:        5 bytes
  6971 ;; Hardware stack levels used:    1
  6972 ;; Hardware stack levels required when called:    2
  6973 ;; This function calls:
  6974 ;;		i1__doprnt
  6975 ;; This function is called by:
  6976 ;;		_trapezoidal
  6977 ;; This function uses a non-reentrant model
  6978 ;;
  6979                           
  6980                           
  6981                           ;psect for function _printf
  6982  10B1                     _printf:	
  6983                           
  6984                           ;incstack = 0
  6985                           ; Regs used in _printf: [wreg-fsr0h+status,2+status,0+btemp+1+pclath+cstack]
  6986                           ;printf@f stored from wreg
  6987  10B1  1283               	bcf	3,5	;RP0=0, select bank0
  6988  10B2  1303               	bcf	3,6	;RP1=0, select bank0
  6989  10B3  00B2               	movwf	printf@f
  6990  10B4  01B4               	clrf	printf@pb
  6991  10B5  3001               	movlw	(fp_i1_putch-i1fpbase)& (0+255)
  6992  10B6  00B1               	movwf	??_printf
  6993  10B7  0831               	movf	??_printf,w
  6994  10B8  00B5               	movwf	printf@pb+1
  6995  10B9  3070               	movlw	?_printf& (0+255)
  6996  10BA  00B1               	movwf	??_printf
  6997  10BB  0831               	movf	??_printf,w
  6998  10BC  00B3               	movwf	printf@ap
  6999                           
  7000                           ;	Return value of _printf is never used
  7001  10BD  3034               	movlw	printf@pb& (0+255)
  7002  10BE  00A0               	movwf	i1__doprnt@pb
  7003  10BF  3000               	movlw	0
  7004  10C0  00A1               	movwf	i1__doprnt@pb+1
  7005  10C1  0832               	movf	printf@f,w
  7006  10C2  00B1               	movwf	??_printf
  7007  10C3  0831               	movf	??_printf,w
  7008  10C4  00A2               	movwf	i1__doprnt@f
  7009  10C5  3033               	movlw	printf@ap& (0+255)
  7010  10C6  00A3               	movwf	i1__doprnt@ap
  7011  10C7  3000               	movlw	0
  7012  10C8  00A4               	movwf	i1__doprnt@ap+1
  7013  10C9  120A  158A  222C   	fcall	i1__doprnt
  7014  10CC  0008               	return
  7015  10CD                     __end_of_printf:	
  7016                           
  7017                           	psect	text28
  7018  0A2C                     __ptext28:	
  7019 ;; *************** function i1__doprnt *****************
  7020 ;; Defined at:
  7021 ;;		line 458 in file "C:\Program Files (x86)\Microchip\xc8\v1.33\sources\common\doprnt.c"
  7022 ;; Parameters:    Size  Location     Type
  7023 ;;  pb              2    0[BANK0 ] PTR struct __prbuf
  7024 ;;		 -> sprintf@pb(2), printf@pb(2), 
  7025 ;;  f               1    2[BANK0 ] PTR const unsigned char 
  7026 ;;		 -> STR_9(5), STR_5(2), STR_4(2), STR_3(2), 
  7027 ;;		 -> STR_2(2), STR_1(2), 
  7028 ;;  ap              2    3[BANK0 ] PTR PTR void 
  7029 ;;		 -> sprintf@ap(1), printf@ap(1), 
  7030 ;; Auto vars:     Size  Location     Type
  7031 ;;  _doprnt         4    9[BANK0 ] struct .
  7032 ;;  _doprnt         2   14[BANK0 ] int 
  7033 ;;  _doprnt         1   16[BANK0 ] char 
  7034 ;;  _doprnt         1   13[BANK0 ] unsigned char 
  7035 ;;  _doprnt         1    8[BANK0 ] char 
  7036 ;; Return value:  Size  Location     Type
  7037 ;;                  2    0[BANK0 ] int 
  7038 ;; Registers used:
  7039 ;;		wreg, fsr0l, fsr0h, status,2, status,0, btemp+1, pclath, cstack
  7040 ;; Tracked objects:
  7041 ;;		On entry : 0/0
  7042 ;;		On exit  : 0/0
  7043 ;;		Unchanged: 0/0
  7044 ;; Data sizes:     COMMON   BANK0   BANK1   BANK3   BANK2
  7045 ;;      Params:         0       5       0       0       0
  7046 ;;      Locals:         0       9       0       0       0
  7047 ;;      Temps:          0       3       0       0       0
  7048 ;;      Totals:         0      17       0       0       0
  7049 ;;Total ram usage:       17 bytes
  7050 ;; Hardware stack levels used:    1
  7051 ;; Hardware stack levels required when called:    1
  7052 ;; This function calls:
  7053 ;;		Absolute function
  7054 ;;		i1___lwdiv
  7055 ;;		i1___lwmod
  7056 ;;		i1___wmul
  7057 ;;		i1_isdigit
  7058 ;;		i1_putch
  7059 ;; This function is called by:
  7060 ;;		_printf
  7061 ;; This function uses a non-reentrant model
  7062 ;;
  7063                           
  7064                           
  7065                           ;psect for function i1__doprnt
  7066  0A2C                     i1__doprnt:	
  7067  0A2C                     i1l5185:	
  7068                           ;doprnt.c: 499: signed char c;
  7069                           ;doprnt.c: 501: int width;
  7070                           ;doprnt.c: 506: signed char prec;
  7071                           ;doprnt.c: 508: unsigned char flag;
  7072                           ;doprnt.c: 527: union {
  7073                           ;doprnt.c: 528: unsigned int _val;
  7074                           ;doprnt.c: 529: struct {
  7075                           ;doprnt.c: 530: const char * _cp;
  7076                           ;doprnt.c: 531: unsigned _len;
  7077                           ;doprnt.c: 532: } _str;
  7078                           ;doprnt.c: 533: } _val;
  7079                           ;doprnt.c: 545: while(c = *f++) {
  7080                           
  7081                           ;incstack = 0
  7082 ;; using string table level
  7083                           ; Regs used in i1__doprnt: [wreg-fsr0h+status,2+status,0+btemp+1+pclath+cstack]
  7084                           
  7085  0A2C  3001               	movlw	1
  7086  0A2D  1283               	bcf	3,5	;RP0=0, select bank0
  7087  0A2E  1303               	bcf	3,6	;RP1=0, select bank0
  7088  0A2F  07A2               	addwf	i1__doprnt@f,f
  7089  0A30  30FF               	movlw	-1
  7090  0A31  0722               	addwf	i1__doprnt@f,w
  7091  0A32  0084               	movwf	4
  7092  0A33  120A  158A  200A  120A  158A  	fcall	stringdir
  7093  0A38  00A5               	movwf	??i1__doprnt
  7094  0A39  0825               	movf	??i1__doprnt,w
  7095  0A3A  00B0               	movwf	i1__doprnt@c
  7096  0A3B  08B0               	movf	i1__doprnt@c,f
  7097  0A3C  1903               	btfsc	3,2
  7098  0A3D  2D10               	goto	i1l5187
  7099                           
  7100                           ;doprnt.c: 547: if(c != '%')
  7101  0A3E  1283               	bcf	3,5	;RP0=0, select bank0
  7102  0A3F  1303               	bcf	3,6	;RP1=0, select bank0
  7103  0A40  0830               	movf	i1__doprnt@c,w
  7104  0A41  3A25               	xorlw	37
  7105  0A42  1903               	skipnz
  7106  0A43  2A82               	goto	i1l5071
  7107                           
  7108                           ;doprnt.c: 549: {
  7109                           ;doprnt.c: 550: if(pb->func) (pb->func(c)); else ((*pb->ptr++ = c));
  7110  0A44  3001               	movlw	1
  7111  0A45  0720               	addwf	i1__doprnt@pb,w
  7112  0A46  00A5               	movwf	??i1__doprnt
  7113  0A47  0821               	movf	i1__doprnt@pb+1,w
  7114  0A48  1803               	skipnc
  7115  0A49  3E01               	addlw	1
  7116  0A4A  00A6               	movwf	??i1__doprnt+1
  7117  0A4B  0825               	movf	??i1__doprnt,w
  7118  0A4C  0084               	movwf	4
  7119  0A4D  1783               	bsf	3,7
  7120  0A4E  1C26               	btfss	??i1__doprnt+1,0
  7121  0A4F  1383               	bcf	3,7
  7122  0A50  0880               	movf	0,f
  7123  0A51  1903               	skipnz
  7124  0A52  2A6A               	goto	i1l5067
  7125  0A53  0830               	movf	i1__doprnt@c,w
  7126  0A54  00A5               	movwf	??i1__doprnt
  7127  0A55  0825               	movf	??i1__doprnt,w
  7128  0A56  00F0               	movwf	i1putch@c
  7129  0A57  3001               	movlw	1
  7130  0A58  0720               	addwf	i1__doprnt@pb,w
  7131  0A59  00A6               	movwf	??i1__doprnt+1
  7132  0A5A  0821               	movf	i1__doprnt@pb+1,w
  7133  0A5B  1803               	skipnc
  7134  0A5C  3E01               	addlw	1
  7135  0A5D  00A7               	movwf	??i1__doprnt+2
  7136  0A5E  0826               	movf	??i1__doprnt+1,w
  7137  0A5F  0084               	movwf	4
  7138  0A60  1783               	bsf	3,7
  7139  0A61  1C27               	btfss	??i1__doprnt+2,0
  7140  0A62  1383               	bcf	3,7
  7141  0A63  0800               	movf	0,w
  7142  0A64  120A  118A  2109  120A  158A  	fcall	i1fptable
  7143  0A69  2A2C               	goto	i1l5185
  7144  0A6A                     i1l5067:	
  7145  0A6A  1283               	bcf	3,5	;RP0=0, select bank0
  7146  0A6B  1303               	bcf	3,6	;RP1=0, select bank0
  7147  0A6C  0830               	movf	i1__doprnt@c,w
  7148  0A6D  00A5               	movwf	??i1__doprnt
  7149  0A6E  0820               	movf	i1__doprnt@pb,w
  7150  0A6F  0084               	movwf	4
  7151  0A70  1783               	bsf	3,7
  7152  0A71  1C21               	btfss	i1__doprnt@pb+1,0
  7153  0A72  1383               	bcf	3,7
  7154  0A73  0800               	movf	0,w
  7155  0A74  0084               	movwf	4
  7156  0A75  0825               	movf	??i1__doprnt,w
  7157  0A76  1383               	bcf	3,7	;select IRP bank0
  7158  0A77  0080               	movwf	0
  7159  0A78  3001               	movlw	1
  7160  0A79  00A5               	movwf	??i1__doprnt
  7161  0A7A  0820               	movf	i1__doprnt@pb,w
  7162  0A7B  0084               	movwf	4
  7163  0A7C  1783               	bsf	3,7
  7164  0A7D  1C21               	btfss	i1__doprnt@pb+1,0
  7165  0A7E  1383               	bcf	3,7
  7166  0A7F  0825               	movf	??i1__doprnt,w
  7167  0A80  0780               	addwf	0,f
  7168                           
  7169                           ;doprnt.c: 551: continue;
  7170  0A81  2A2C               	goto	i1l5185
  7171  0A82                     i1l5071:	
  7172                           
  7173                           ;doprnt.c: 552: }
  7174                           ;doprnt.c: 555: width = 0;
  7175  0A82  01AE               	clrf	i1__doprnt@width
  7176  0A83  01AF               	clrf	i1__doprnt@width+1
  7177                           
  7178                           ;doprnt.c: 557: flag = 0;
  7179  0A84  01AD               	clrf	i1__doprnt@flag
  7180                           
  7181                           ;doprnt.c: 560: switch(*f) {
  7182                           
  7183                           ;doprnt.c: 559: for(;;) {
  7184  0A85  2A8B               	goto	i1l5077
  7185  0A86                     i1l395:	
  7186                           ;doprnt.c: 588: case '0':
  7187                           
  7188                           
  7189                           ;doprnt.c: 589: flag |= 0x04;
  7190  0A86  152D               	bsf	i1__doprnt@flag,2
  7191                           
  7192                           ;doprnt.c: 590: f++;
  7193  0A87  3001               	movlw	1
  7194  0A88  00A5               	movwf	??i1__doprnt
  7195  0A89  0825               	movf	??i1__doprnt,w
  7196  0A8A  07A2               	addwf	i1__doprnt@f,f
  7197  0A8B                     i1l5077:	
  7198                           ;doprnt.c: 593: }
  7199                           
  7200                           ;doprnt.c: 591: continue;
  7201                           
  7202  0A8B  0822               	movf	i1__doprnt@f,w
  7203  0A8C  0084               	movwf	4
  7204  0A8D  120A  158A  200A  120A  158A  	fcall	stringdir
  7205                           
  7206                           ; Switch size 1, requested type "space"
  7207                           ; Number of cases is 1, Range of values is 48 to 48
  7208                           ; switch strategies available:
  7209                           ; Name         Instructions Cycles
  7210                           ; simple_byte            4     3 (average)
  7211                           ; direct_byte           14    11 (fixed)
  7212                           ; jumptable            263     9 (fixed)
  7213                           ;	Chosen strategy is simple_byte
  7214  0A92  3A30               	xorlw	48	; case 48
  7215  0A93  1903               	skipnz
  7216  0A94  2A86               	goto	i1l395
  7217  0A95  2A96               	goto	i1l5079
  7218  0A96                     i1l5079:	
  7219                           ;doprnt.c: 595: }
  7220                           
  7221                           ;doprnt.c: 594: break;
  7222                           
  7223                           
  7224                           ;doprnt.c: 606: if(isdigit((unsigned)*f)) {
  7225  0A96  0822               	movf	i1__doprnt@f,w
  7226  0A97  0084               	movwf	4
  7227  0A98  120A  158A  200A  120A  158A  	fcall	stringdir
  7228  0A9D  160A  118A  2016  120A  158A  	fcall	i1_isdigit
  7229  0AA2  1C03               	btfss	3,0
  7230  0AA3  2AE6               	goto	i1l5093
  7231                           
  7232                           ;doprnt.c: 607: width = 0;
  7233  0AA4  1283               	bcf	3,5	;RP0=0, select bank0
  7234  0AA5  1303               	bcf	3,6	;RP1=0, select bank0
  7235  0AA6  01AE               	clrf	i1__doprnt@width
  7236  0AA7  01AF               	clrf	i1__doprnt@width+1
  7237  0AA8                     i1l5083:	
  7238                           ;doprnt.c: 608: do {
  7239                           
  7240                           
  7241                           ;doprnt.c: 609: width *= 10;
  7242  0AA8  300A               	movlw	10
  7243  0AA9  00F0               	movwf	i1___wmul@multiplier
  7244  0AAA  3000               	movlw	0
  7245  0AAB  00F1               	movwf	i1___wmul@multiplier+1
  7246  0AAC  1283               	bcf	3,5	;RP0=0, select bank0
  7247  0AAD  1303               	bcf	3,6	;RP1=0, select bank0
  7248  0AAE  082F               	movf	i1__doprnt@width+1,w
  7249  0AAF  01F3               	clrf	i1___wmul@multiplicand+1
  7250  0AB0  07F3               	addwf	i1___wmul@multiplicand+1,f
  7251  0AB1  082E               	movf	i1__doprnt@width,w
  7252  0AB2  01F2               	clrf	i1___wmul@multiplicand
  7253  0AB3  07F2               	addwf	i1___wmul@multiplicand,f
  7254  0AB4  160A  118A  2171  120A  158A  	fcall	i1___wmul
  7255  0AB9  0871               	movf	?i1___wmul+1,w
  7256  0ABA  1283               	bcf	3,5	;RP0=0, select bank0
  7257  0ABB  1303               	bcf	3,6	;RP1=0, select bank0
  7258  0ABC  01AF               	clrf	i1__doprnt@width+1
  7259  0ABD  07AF               	addwf	i1__doprnt@width+1,f
  7260  0ABE  0870               	movf	?i1___wmul,w
  7261  0ABF  01AE               	clrf	i1__doprnt@width
  7262  0AC0  07AE               	addwf	i1__doprnt@width,f
  7263                           
  7264                           ;doprnt.c: 610: width += *f++ - '0';
  7265  0AC1  0822               	movf	i1__doprnt@f,w
  7266  0AC2  0084               	movwf	4
  7267  0AC3  120A  158A  200A  120A  158A  	fcall	stringdir
  7268  0AC8  3ED0               	addlw	208
  7269  0AC9  00A5               	movwf	??i1__doprnt
  7270  0ACA  30FF               	movlw	255
  7271  0ACB  1803               	skipnc
  7272  0ACC  3000               	movlw	0
  7273  0ACD  00A6               	movwf	??i1__doprnt+1
  7274  0ACE  0825               	movf	??i1__doprnt,w
  7275  0ACF  07AE               	addwf	i1__doprnt@width,f
  7276  0AD0  1803               	skipnc
  7277  0AD1  0AAF               	incf	i1__doprnt@width+1,f
  7278  0AD2  0826               	movf	??i1__doprnt+1,w
  7279  0AD3  07AF               	addwf	i1__doprnt@width+1,f
  7280  0AD4  3001               	movlw	1
  7281  0AD5  00A5               	movwf	??i1__doprnt
  7282  0AD6  0825               	movf	??i1__doprnt,w
  7283  0AD7  07A2               	addwf	i1__doprnt@f,f
  7284                           
  7285                           ;doprnt.c: 611: } while(isdigit((unsigned)*f));
  7286  0AD8  0822               	movf	i1__doprnt@f,w
  7287  0AD9  0084               	movwf	4
  7288  0ADA  120A  158A  200A  120A  158A  	fcall	stringdir
  7289  0ADF  160A  118A  2016  120A  158A  	fcall	i1_isdigit
  7290  0AE4  1803               	btfsc	3,0
  7291  0AE5  2AA8               	goto	i1l5083
  7292  0AE6                     i1l5093:	
  7293                           ;doprnt.c: 831: }
  7294                           
  7295                           ;doprnt.c: 822: continue;
  7296                           
  7297                           ;doprnt.c: 811: default:
  7298                           
  7299                           ;doprnt.c: 707: case 'i':
  7300                           ;doprnt.c: 708: break;
  7301                           
  7302                           ;doprnt.c: 706: case 'd':
  7303                           
  7304                           ;doprnt.c: 647: goto alldone;
  7305                           
  7306                           ;doprnt.c: 646: case 0:
  7307                           
  7308                           ;doprnt.c: 617: }
  7309                           ;doprnt.c: 644: switch(c = *f++) {
  7310                           
  7311  0AE6  3001               	movlw	1
  7312  0AE7  1283               	bcf	3,5	;RP0=0, select bank0
  7313  0AE8  1303               	bcf	3,6	;RP1=0, select bank0
  7314  0AE9  07A2               	addwf	i1__doprnt@f,f
  7315  0AEA  30FF               	movlw	-1
  7316  0AEB  0722               	addwf	i1__doprnt@f,w
  7317  0AEC  0084               	movwf	4
  7318  0AED  120A  158A  200A  120A  158A  	fcall	stringdir
  7319  0AF2  00B0               	movwf	i1__doprnt@c
  7320                           
  7321                           ; Switch size 1, requested type "space"
  7322                           ; Number of cases is 3, Range of values is 0 to 105
  7323                           ; switch strategies available:
  7324                           ; Name         Instructions Cycles
  7325                           ; simple_byte           10     6 (average)
  7326                           ; jumptable            260     6 (fixed)
  7327                           ;	Chosen strategy is simple_byte
  7328  0AF3  3A00               	xorlw	0	; case 0
  7329  0AF4  1903               	skipnz
  7330  0AF5  2D10               	goto	i1l5187
  7331  0AF6  3A64               	xorlw	100	; case 100
  7332  0AF7  1903               	skipnz
  7333  0AF8  2AFD               	goto	i1l5095
  7334  0AF9  3A0D               	xorlw	13	; case 105
  7335  0AFA  1903               	skipnz
  7336  0AFB  2AFD               	goto	i1l5095
  7337  0AFC  2A2C               	goto	i1l5185
  7338  0AFD                     i1l5095:	
  7339                           
  7340                           ;doprnt.c: 1262: {
  7341                           ;doprnt.c: 1268: _val._val = (int)(*(int *)__va_arg((*(int **)ap), (int)0));
  7342  0AFD  1283               	bcf	3,5	;RP0=0, select bank0
  7343  0AFE  1303               	bcf	3,6	;RP1=0, select bank0
  7344  0AFF  0823               	movf	i1__doprnt@ap,w
  7345  0B00  0084               	movwf	4
  7346  0B01  1783               	bsf	3,7
  7347  0B02  1C24               	btfss	i1__doprnt@ap+1,0
  7348  0B03  1383               	bcf	3,7
  7349  0B04  0800               	movf	0,w
  7350  0B05  00A5               	movwf	??i1__doprnt
  7351  0B06  3002               	movlw	2
  7352  0B07  0780               	addwf	0,f
  7353  0B08  0825               	movf	??i1__doprnt,w
  7354  0B09  0084               	movwf	4
  7355  0B0A  1783               	bsf	3,7	;select IRP bank2
  7356  0B0B  0800               	movf	0,w
  7357  0B0C  00A9               	movwf	i1__doprnt@_val
  7358  0B0D  0A84               	incf	4,f
  7359  0B0E  0800               	movf	0,w
  7360  0B0F  00AA               	movwf	i1__doprnt@_val+1
  7361                           
  7362                           ;doprnt.c: 1270: if((int)_val._val < 0) {
  7363  0B10  1FAA               	btfss	i1__doprnt@_val+1,7
  7364  0B11  2B1B               	goto	i1l5103
  7365                           
  7366                           ;doprnt.c: 1271: flag |= 0x03;
  7367  0B12  3003               	movlw	3
  7368  0B13  00A5               	movwf	??i1__doprnt
  7369  0B14  0825               	movf	??i1__doprnt,w
  7370  0B15  04AD               	iorwf	i1__doprnt@flag,f
  7371                           
  7372                           ;doprnt.c: 1272: _val._val = -_val._val;
  7373  0B16  09A9               	comf	i1__doprnt@_val,f
  7374  0B17  09AA               	comf	i1__doprnt@_val+1,f
  7375  0B18  0AA9               	incf	i1__doprnt@_val,f
  7376  0B19  1903               	skipnz
  7377  0B1A  0AAA               	incf	i1__doprnt@_val+1,f
  7378  0B1B                     i1l5103:	
  7379                           
  7380                           ;doprnt.c: 1273: }
  7381                           ;doprnt.c: 1275: }
  7382                           ;doprnt.c: 1314: for(c = 1 ; c != sizeof dpowers/sizeof dpowers[0] ; c++)
  7383  0B1B  01B0               	clrf	i1__doprnt@c
  7384  0B1C  0AB0               	incf	i1__doprnt@c,f
  7385  0B1D  0830               	movf	i1__doprnt@c,w
  7386  0B1E  3A05               	xorlw	5
  7387  0B1F  1903               	btfsc	3,2
  7388  0B20  2B42               	goto	i1l5115
  7389  0B21                     i1l5107:	
  7390                           
  7391                           ;doprnt.c: 1315: if(_val._val < dpowers[c])
  7392  0B21  0830               	movf	i1__doprnt@c,w
  7393  0B22  00A5               	movwf	??i1__doprnt
  7394  0B23  0725               	addwf	??i1__doprnt,w
  7395  0B24  3E01               	addlw	low (_dpowers-__stringbase)
  7396  0B25  0084               	movwf	4
  7397  0B26  120A  158A  200A  120A  158A  	fcall	stringdir
  7398  0B2B  00A6               	movwf	??i1__doprnt+1
  7399  0B2C  120A  158A  200A  120A  158A  	fcall	stringdir
  7400  0B31  00A7               	movwf	??i1__doprnt+2
  7401  0B32  0827               	movf	??i1__doprnt+2,w
  7402  0B33  022A               	subwf	i1__doprnt@_val+1,w
  7403  0B34  1D03               	skipz
  7404  0B35  2B38               	goto	u657_25
  7405  0B36  0826               	movf	??i1__doprnt+1,w
  7406  0B37  0229               	subwf	i1__doprnt@_val,w
  7407  0B38                     u657_25:	
  7408  0B38  1C03               	btfss	3,0
  7409  0B39  2B42               	goto	i1l5115
  7410                           
  7411                           ;doprnt.c: 1316: break;
  7412  0B3A  3001               	movlw	1
  7413  0B3B  00A5               	movwf	??i1__doprnt
  7414  0B3C  0825               	movf	??i1__doprnt,w
  7415  0B3D  07B0               	addwf	i1__doprnt@c,f
  7416  0B3E  0830               	movf	i1__doprnt@c,w
  7417  0B3F  3A05               	xorlw	5
  7418  0B40  1D03               	skipz
  7419  0B41  2B21               	goto	i1l5107
  7420  0B42                     i1l5115:	
  7421                           
  7422                           ;doprnt.c: 1354: if(width && flag & 0x03)
  7423  0B42  082F               	movf	i1__doprnt@width+1,w
  7424  0B43  042E               	iorwf	i1__doprnt@width,w
  7425  0B44  1903               	skipnz
  7426  0B45  2B50               	goto	i1l413
  7427  0B46  082D               	movf	i1__doprnt@flag,w
  7428  0B47  3903               	andlw	3
  7429  0B48  1903               	btfsc	3,2
  7430  0B49  2B50               	goto	i1l413
  7431                           
  7432                           ;doprnt.c: 1355: width--;
  7433  0B4A  30FF               	movlw	255
  7434  0B4B  07AE               	addwf	i1__doprnt@width,f
  7435  0B4C  1803               	skipnc
  7436  0B4D  0AAF               	incf	i1__doprnt@width+1,f
  7437  0B4E  30FF               	movlw	255
  7438  0B4F  07AF               	addwf	i1__doprnt@width+1,f
  7439  0B50                     i1l413:	
  7440                           
  7441                           ;doprnt.c: 1390: if(width > c)
  7442  0B50  0830               	movf	i1__doprnt@c,w
  7443  0B51  00A5               	movwf	??i1__doprnt
  7444  0B52  01A6               	clrf	??i1__doprnt+1
  7445  0B53  1BA5               	btfsc	??i1__doprnt,7
  7446  0B54  03A6               	decf	??i1__doprnt+1,f
  7447  0B55  0826               	movf	??i1__doprnt+1,w
  7448  0B56  3A80               	xorlw	128
  7449  0B57  00A7               	movwf	??i1__doprnt+2
  7450  0B58  082F               	movf	i1__doprnt@width+1,w
  7451  0B59  3A80               	xorlw	128
  7452  0B5A  0227               	subwf	??i1__doprnt+2,w
  7453  0B5B  1D03               	skipz
  7454  0B5C  2B5F               	goto	u661_25
  7455  0B5D  082E               	movf	i1__doprnt@width,w
  7456  0B5E  0225               	subwf	??i1__doprnt,w
  7457  0B5F                     u661_25:	
  7458  0B5F  1803               	skipnc
  7459  0B60  2B6F               	goto	i1l5123
  7460                           
  7461                           ;doprnt.c: 1391: width -= c;
  7462  0B61  1283               	bcf	3,5	;RP0=0, select bank0
  7463  0B62  1303               	bcf	3,6	;RP1=0, select bank0
  7464  0B63  0830               	movf	i1__doprnt@c,w
  7465  0B64  00A5               	movwf	??i1__doprnt
  7466  0B65  01A6               	clrf	??i1__doprnt+1
  7467  0B66  1BA5               	btfsc	??i1__doprnt,7
  7468  0B67  03A6               	decf	??i1__doprnt+1,f
  7469  0B68  0825               	movf	??i1__doprnt,w
  7470  0B69  02AE               	subwf	i1__doprnt@width,f
  7471  0B6A  0826               	movf	??i1__doprnt+1,w
  7472  0B6B  1C03               	skipc
  7473  0B6C  03AF               	decf	i1__doprnt@width+1,f
  7474  0B6D  02AF               	subwf	i1__doprnt@width+1,f
  7475  0B6E  2B73               	goto	i1l5125
  7476  0B6F                     i1l5123:	
  7477                           
  7478                           ;doprnt.c: 1392: else
  7479                           ;doprnt.c: 1393: width = 0;
  7480  0B6F  1283               	bcf	3,5	;RP0=0, select bank0
  7481  0B70  1303               	bcf	3,6	;RP1=0, select bank0
  7482  0B71  01AE               	clrf	i1__doprnt@width
  7483  0B72  01AF               	clrf	i1__doprnt@width+1
  7484  0B73                     i1l5125:	
  7485                           
  7486                           ;doprnt.c: 1396: if(flag & 0x04) {
  7487  0B73  1D2D               	btfss	i1__doprnt@flag,2
  7488  0B74  2C02               	goto	i1l5149
  7489                           
  7490                           ;doprnt.c: 1401: if(flag & 0x03)
  7491  0B75  082D               	movf	i1__doprnt@flag,w
  7492  0B76  3903               	andlw	3
  7493  0B77  1903               	btfsc	3,2
  7494  0B78  2BB6               	goto	i1l5137
  7495                           
  7496                           ;doprnt.c: 1402: if(pb->func) (pb->func('-')); else ((*pb->ptr++ = '-'));
  7497  0B79  3001               	movlw	1
  7498  0B7A  0720               	addwf	i1__doprnt@pb,w
  7499  0B7B  00A5               	movwf	??i1__doprnt
  7500  0B7C  0821               	movf	i1__doprnt@pb+1,w
  7501  0B7D  1803               	skipnc
  7502  0B7E  3E01               	addlw	1
  7503  0B7F  00A6               	movwf	??i1__doprnt+1
  7504  0B80  0825               	movf	??i1__doprnt,w
  7505  0B81  0084               	movwf	4
  7506  0B82  1783               	bsf	3,7
  7507  0B83  1C26               	btfss	??i1__doprnt+1,0
  7508  0B84  1383               	bcf	3,7
  7509  0B85  0880               	movf	0,f
  7510  0B86  1903               	skipnz
  7511  0B87  2B9F               	goto	i1l5133
  7512  0B88  302D               	movlw	45
  7513  0B89  00A5               	movwf	??i1__doprnt
  7514  0B8A  0825               	movf	??i1__doprnt,w
  7515  0B8B  00F0               	movwf	i1putch@c
  7516  0B8C  3001               	movlw	1
  7517  0B8D  0720               	addwf	i1__doprnt@pb,w
  7518  0B8E  00A6               	movwf	??i1__doprnt+1
  7519  0B8F  0821               	movf	i1__doprnt@pb+1,w
  7520  0B90  1803               	skipnc
  7521  0B91  3E01               	addlw	1
  7522  0B92  00A7               	movwf	??i1__doprnt+2
  7523  0B93  0826               	movf	??i1__doprnt+1,w
  7524  0B94  0084               	movwf	4
  7525  0B95  1783               	bsf	3,7
  7526  0B96  1C27               	btfss	??i1__doprnt+2,0
  7527  0B97  1383               	bcf	3,7
  7528  0B98  0800               	movf	0,w
  7529  0B99  120A  118A  2109  120A  158A  	fcall	i1fptable
  7530  0B9E  2BB6               	goto	i1l5137
  7531  0B9F                     i1l5133:	
  7532  0B9F  302D               	movlw	45
  7533  0BA0  1283               	bcf	3,5	;RP0=0, select bank0
  7534  0BA1  1303               	bcf	3,6	;RP1=0, select bank0
  7535  0BA2  00A5               	movwf	??i1__doprnt
  7536  0BA3  0820               	movf	i1__doprnt@pb,w
  7537  0BA4  0084               	movwf	4
  7538  0BA5  1783               	bsf	3,7
  7539  0BA6  1C21               	btfss	i1__doprnt@pb+1,0
  7540  0BA7  1383               	bcf	3,7
  7541  0BA8  0800               	movf	0,w
  7542  0BA9  0084               	movwf	4
  7543  0BAA  0825               	movf	??i1__doprnt,w
  7544  0BAB  1383               	bcf	3,7	;select IRP bank0
  7545  0BAC  0080               	movwf	0
  7546  0BAD  3001               	movlw	1
  7547  0BAE  00A5               	movwf	??i1__doprnt
  7548  0BAF  0820               	movf	i1__doprnt@pb,w
  7549  0BB0  0084               	movwf	4
  7550  0BB1  1783               	bsf	3,7
  7551  0BB2  1C21               	btfss	i1__doprnt@pb+1,0
  7552  0BB3  1383               	bcf	3,7
  7553  0BB4  0825               	movf	??i1__doprnt,w
  7554  0BB5  0780               	addwf	0,f
  7555  0BB6                     i1l5137:	
  7556                           
  7557                           ;doprnt.c: 1424: if(width)
  7558  0BB6  1283               	bcf	3,5	;RP0=0, select bank0
  7559  0BB7  1303               	bcf	3,6	;RP1=0, select bank0
  7560  0BB8                     L6:	
  7561  0BB8  082F               	movf	i1__doprnt@width+1,w
  7562  0BB9  042E               	iorwf	i1__doprnt@width,w
  7563  0BBA  1903               	skipnz
  7564  0BBB  2C90               	goto	i1l5171
  7565                           
  7566                           ;doprnt.c: 1426: if(pb->func) (pb->func('0')); else ((*pb->ptr++ = '0'));
  7567                           
  7568                           ;doprnt.c: 1425: do
  7569  0BBC  3001               	movlw	1
  7570  0BBD  0720               	addwf	i1__doprnt@pb,w
  7571  0BBE  00A5               	movwf	??i1__doprnt
  7572  0BBF  0821               	movf	i1__doprnt@pb+1,w
  7573  0BC0  1803               	skipnc
  7574  0BC1  3E01               	addlw	1
  7575  0BC2  00A6               	movwf	??i1__doprnt+1
  7576  0BC3  0825               	movf	??i1__doprnt,w
  7577  0BC4  0084               	movwf	4
  7578  0BC5  1783               	bsf	3,7
  7579  0BC6  1C26               	btfss	??i1__doprnt+1,0
  7580  0BC7  1383               	bcf	3,7
  7581  0BC8  0880               	movf	0,f
  7582  0BC9  1903               	skipnz
  7583  0BCA  2BE2               	goto	i1l5143
  7584  0BCB  3030               	movlw	48
  7585  0BCC  00A5               	movwf	??i1__doprnt
  7586  0BCD  0825               	movf	??i1__doprnt,w
  7587  0BCE  00F0               	movwf	i1putch@c
  7588  0BCF  3001               	movlw	1
  7589  0BD0  0720               	addwf	i1__doprnt@pb,w
  7590  0BD1  00A6               	movwf	??i1__doprnt+1
  7591  0BD2  0821               	movf	i1__doprnt@pb+1,w
  7592  0BD3  1803               	skipnc
  7593  0BD4  3E01               	addlw	1
  7594  0BD5  00A7               	movwf	??i1__doprnt+2
  7595  0BD6  0826               	movf	??i1__doprnt+1,w
  7596  0BD7  0084               	movwf	4
  7597  0BD8  1783               	bsf	3,7
  7598  0BD9  1C27               	btfss	??i1__doprnt+2,0
  7599  0BDA  1383               	bcf	3,7
  7600  0BDB  0800               	movf	0,w
  7601  0BDC  120A  118A  2109  120A  158A  	fcall	i1fptable
  7602  0BE1  2BF9               	goto	i1l5147
  7603  0BE2                     i1l5143:	
  7604  0BE2  3030               	movlw	48
  7605  0BE3  1283               	bcf	3,5	;RP0=0, select bank0
  7606  0BE4  1303               	bcf	3,6	;RP1=0, select bank0
  7607  0BE5  00A5               	movwf	??i1__doprnt
  7608  0BE6  0820               	movf	i1__doprnt@pb,w
  7609  0BE7  0084               	movwf	4
  7610  0BE8  1783               	bsf	3,7
  7611  0BE9  1C21               	btfss	i1__doprnt@pb+1,0
  7612  0BEA  1383               	bcf	3,7
  7613  0BEB  0800               	movf	0,w
  7614  0BEC  0084               	movwf	4
  7615  0BED  0825               	movf	??i1__doprnt,w
  7616  0BEE  1383               	bcf	3,7	;select IRP bank0
  7617  0BEF  0080               	movwf	0
  7618  0BF0  3001               	movlw	1
  7619  0BF1  00A5               	movwf	??i1__doprnt
  7620  0BF2  0820               	movf	i1__doprnt@pb,w
  7621  0BF3  0084               	movwf	4
  7622  0BF4  1783               	bsf	3,7
  7623  0BF5  1C21               	btfss	i1__doprnt@pb+1,0
  7624  0BF6  1383               	bcf	3,7
  7625  0BF7  0825               	movf	??i1__doprnt,w
  7626  0BF8  0780               	addwf	0,f
  7627  0BF9                     i1l5147:	
  7628                           
  7629                           ;doprnt.c: 1427: while(--width);
  7630  0BF9  30FF               	movlw	255
  7631  0BFA  1283               	bcf	3,5	;RP0=0, select bank0
  7632  0BFB  1303               	bcf	3,6	;RP1=0, select bank0
  7633  0BFC  07AE               	addwf	i1__doprnt@width,f
  7634  0BFD  1803               	skipnc
  7635  0BFE  0AAF               	incf	i1__doprnt@width+1,f
  7636  0BFF  30FF               	movlw	255
  7637  0C00  07AF               	addwf	i1__doprnt@width+1,f
  7638  0C01  2BB8               	goto	L6
  7639  0C02                     i1l5149:	
  7640                           ;doprnt.c: 1429: } else
  7641                           
  7642                           
  7643                           ;doprnt.c: 1431: {
  7644                           ;doprnt.c: 1433: if(width
  7645                           ;doprnt.c: 1437: )
  7646  0C02  082F               	movf	i1__doprnt@width+1,w
  7647  0C03  042E               	iorwf	i1__doprnt@width,w
  7648  0C04  1903               	skipnz
  7649  0C05  2C4F               	goto	i1l5161
  7650  0C06                     i1l5151:	
  7651                           ;doprnt.c: 1438: do
  7652                           
  7653                           
  7654                           ;doprnt.c: 1439: if(pb->func) (pb->func(' ')); else ((*pb->ptr++ = ' '));
  7655  0C06  3001               	movlw	1
  7656  0C07  0720               	addwf	i1__doprnt@pb,w
  7657  0C08  00A5               	movwf	??i1__doprnt
  7658  0C09  0821               	movf	i1__doprnt@pb+1,w
  7659  0C0A  1803               	skipnc
  7660  0C0B  3E01               	addlw	1
  7661  0C0C  00A6               	movwf	??i1__doprnt+1
  7662  0C0D  0825               	movf	??i1__doprnt,w
  7663  0C0E  0084               	movwf	4
  7664  0C0F  1783               	bsf	3,7
  7665  0C10  1C26               	btfss	??i1__doprnt+1,0
  7666  0C11  1383               	bcf	3,7
  7667  0C12  0880               	movf	0,f
  7668  0C13  1903               	skipnz
  7669  0C14  2C2C               	goto	i1l5155
  7670  0C15  3020               	movlw	32
  7671  0C16  00A5               	movwf	??i1__doprnt
  7672  0C17  0825               	movf	??i1__doprnt,w
  7673  0C18  00F0               	movwf	i1putch@c
  7674  0C19  3001               	movlw	1
  7675  0C1A  0720               	addwf	i1__doprnt@pb,w
  7676  0C1B  00A6               	movwf	??i1__doprnt+1
  7677  0C1C  0821               	movf	i1__doprnt@pb+1,w
  7678  0C1D  1803               	skipnc
  7679  0C1E  3E01               	addlw	1
  7680  0C1F  00A7               	movwf	??i1__doprnt+2
  7681  0C20  0826               	movf	??i1__doprnt+1,w
  7682  0C21  0084               	movwf	4
  7683  0C22  1783               	bsf	3,7
  7684  0C23  1C27               	btfss	??i1__doprnt+2,0
  7685  0C24  1383               	bcf	3,7
  7686  0C25  0800               	movf	0,w
  7687  0C26  120A  118A  2109  120A  158A  	fcall	i1fptable
  7688  0C2B  2C43               	goto	i1l5159
  7689  0C2C                     i1l5155:	
  7690  0C2C  3020               	movlw	32
  7691  0C2D  1283               	bcf	3,5	;RP0=0, select bank0
  7692  0C2E  1303               	bcf	3,6	;RP1=0, select bank0
  7693  0C2F  00A5               	movwf	??i1__doprnt
  7694  0C30  0820               	movf	i1__doprnt@pb,w
  7695  0C31  0084               	movwf	4
  7696  0C32  1783               	bsf	3,7
  7697  0C33  1C21               	btfss	i1__doprnt@pb+1,0
  7698  0C34  1383               	bcf	3,7
  7699  0C35  0800               	movf	0,w
  7700  0C36  0084               	movwf	4
  7701  0C37  0825               	movf	??i1__doprnt,w
  7702  0C38  1383               	bcf	3,7	;select IRP bank0
  7703  0C39  0080               	movwf	0
  7704  0C3A  3001               	movlw	1
  7705  0C3B  00A5               	movwf	??i1__doprnt
  7706  0C3C  0820               	movf	i1__doprnt@pb,w
  7707  0C3D  0084               	movwf	4
  7708  0C3E  1783               	bsf	3,7
  7709  0C3F  1C21               	btfss	i1__doprnt@pb+1,0
  7710  0C40  1383               	bcf	3,7
  7711  0C41  0825               	movf	??i1__doprnt,w
  7712  0C42  0780               	addwf	0,f
  7713  0C43                     i1l5159:	
  7714                           
  7715                           ;doprnt.c: 1440: while(--width);
  7716  0C43  30FF               	movlw	255
  7717  0C44  1283               	bcf	3,5	;RP0=0, select bank0
  7718  0C45  1303               	bcf	3,6	;RP1=0, select bank0
  7719  0C46  07AE               	addwf	i1__doprnt@width,f
  7720  0C47  1803               	skipnc
  7721  0C48  0AAF               	incf	i1__doprnt@width+1,f
  7722  0C49  30FF               	movlw	255
  7723  0C4A  07AF               	addwf	i1__doprnt@width+1,f
  7724  0C4B  082F               	movf	i1__doprnt@width+1,w
  7725  0C4C  042E               	iorwf	i1__doprnt@width,w
  7726  0C4D  1D03               	skipz
  7727  0C4E  2C06               	goto	i1l5151
  7728  0C4F                     i1l5161:	
  7729                           
  7730                           ;doprnt.c: 1447: if(flag & 0x03)
  7731  0C4F  082D               	movf	i1__doprnt@flag,w
  7732  0C50  3903               	andlw	3
  7733  0C51  1903               	btfsc	3,2
  7734  0C52  2C90               	goto	i1l5171
  7735                           
  7736                           ;doprnt.c: 1448: if(pb->func) (pb->func('-')); else ((*pb->ptr++ = '-'));
  7737  0C53  3001               	movlw	1
  7738  0C54  0720               	addwf	i1__doprnt@pb,w
  7739  0C55  00A5               	movwf	??i1__doprnt
  7740  0C56  0821               	movf	i1__doprnt@pb+1,w
  7741  0C57  1803               	skipnc
  7742  0C58  3E01               	addlw	1
  7743  0C59  00A6               	movwf	??i1__doprnt+1
  7744  0C5A  0825               	movf	??i1__doprnt,w
  7745  0C5B  0084               	movwf	4
  7746  0C5C  1783               	bsf	3,7
  7747  0C5D  1C26               	btfss	??i1__doprnt+1,0
  7748  0C5E  1383               	bcf	3,7
  7749  0C5F  0880               	movf	0,f
  7750  0C60  1903               	skipnz
  7751  0C61  2C79               	goto	i1l5167
  7752  0C62  302D               	movlw	45
  7753  0C63  00A5               	movwf	??i1__doprnt
  7754  0C64  0825               	movf	??i1__doprnt,w
  7755  0C65  00F0               	movwf	i1putch@c
  7756  0C66  3001               	movlw	1
  7757  0C67  0720               	addwf	i1__doprnt@pb,w
  7758  0C68  00A6               	movwf	??i1__doprnt+1
  7759  0C69  0821               	movf	i1__doprnt@pb+1,w
  7760  0C6A  1803               	skipnc
  7761  0C6B  3E01               	addlw	1
  7762  0C6C  00A7               	movwf	??i1__doprnt+2
  7763  0C6D  0826               	movf	??i1__doprnt+1,w
  7764  0C6E  0084               	movwf	4
  7765  0C6F  1783               	bsf	3,7
  7766  0C70  1C27               	btfss	??i1__doprnt+2,0
  7767  0C71  1383               	bcf	3,7
  7768  0C72  0800               	movf	0,w
  7769  0C73  120A  118A  2109  120A  158A  	fcall	i1fptable
  7770  0C78  2C90               	goto	i1l5171
  7771  0C79                     i1l5167:	
  7772  0C79  302D               	movlw	45
  7773  0C7A  1283               	bcf	3,5	;RP0=0, select bank0
  7774  0C7B  1303               	bcf	3,6	;RP1=0, select bank0
  7775  0C7C  00A5               	movwf	??i1__doprnt
  7776  0C7D  0820               	movf	i1__doprnt@pb,w
  7777  0C7E  0084               	movwf	4
  7778  0C7F  1783               	bsf	3,7
  7779  0C80  1C21               	btfss	i1__doprnt@pb+1,0
  7780  0C81  1383               	bcf	3,7
  7781  0C82  0800               	movf	0,w
  7782  0C83  0084               	movwf	4
  7783  0C84  0825               	movf	??i1__doprnt,w
  7784  0C85  1383               	bcf	3,7	;select IRP bank0
  7785  0C86  0080               	movwf	0
  7786  0C87  3001               	movlw	1
  7787  0C88  00A5               	movwf	??i1__doprnt
  7788  0C89  0820               	movf	i1__doprnt@pb,w
  7789  0C8A  0084               	movwf	4
  7790  0C8B  1783               	bsf	3,7
  7791  0C8C  1C21               	btfss	i1__doprnt@pb+1,0
  7792  0C8D  1383               	bcf	3,7
  7793  0C8E  0825               	movf	??i1__doprnt,w
  7794  0C8F  0780               	addwf	0,f
  7795  0C90                     i1l5171:	
  7796                           
  7797                           ;doprnt.c: 1478: }
  7798                           ;doprnt.c: 1481: prec = c;
  7799  0C90  1283               	bcf	3,5	;RP0=0, select bank0
  7800  0C91  1303               	bcf	3,6	;RP1=0, select bank0
  7801  0C92  0830               	movf	i1__doprnt@c,w
  7802  0C93  00A5               	movwf	??i1__doprnt
  7803  0C94  0825               	movf	??i1__doprnt,w
  7804  0C95  00A8               	movwf	i1__doprnt@prec
  7805  0C96                     i1l5183:	
  7806                           ;doprnt.c: 1483: while(prec--) {
  7807                           
  7808  0C96  30FF               	movlw	-1
  7809  0C97  1283               	bcf	3,5	;RP0=0, select bank0
  7810  0C98  1303               	bcf	3,6	;RP1=0, select bank0
  7811  0C99  00A5               	movwf	??i1__doprnt
  7812  0C9A  0825               	movf	??i1__doprnt,w
  7813  0C9B  07A8               	addwf	i1__doprnt@prec,f
  7814  0C9C  0828               	movf	i1__doprnt@prec,w
  7815  0C9D  3AFF               	xorlw	-1
  7816  0C9E  1903               	btfsc	3,2
  7817  0C9F  2A2C               	goto	i1l5185
  7818                           
  7819                           ;doprnt.c: 1487: {
  7820                           ;doprnt.c: 1498: c = (_val._val / dpowers[prec]) % 10 + '0';
  7821  0CA0  300A               	movlw	10
  7822  0CA1  00F8               	movwf	i1___lwmod@divisor
  7823  0CA2  3000               	movlw	0
  7824  0CA3  00F9               	movwf	i1___lwmod@divisor+1
  7825  0CA4  0828               	movf	i1__doprnt@prec,w
  7826  0CA5  00A5               	movwf	??i1__doprnt
  7827  0CA6  0725               	addwf	??i1__doprnt,w
  7828  0CA7  3E01               	addlw	low (_dpowers-__stringbase)
  7829  0CA8  0084               	movwf	4
  7830  0CA9  120A  158A  200A  120A  158A  	fcall	stringdir
  7831  0CAE  00F0               	movwf	i1___lwdiv@divisor
  7832  0CAF  120A  158A  200A  120A  158A  	fcall	stringdir
  7833  0CB4  00F1               	movwf	i1___lwdiv@divisor+1
  7834  0CB5  082A               	movf	i1__doprnt@_val+1,w
  7835  0CB6  01F3               	clrf	i1___lwdiv@dividend+1
  7836  0CB7  07F3               	addwf	i1___lwdiv@dividend+1,f
  7837  0CB8  0829               	movf	i1__doprnt@_val,w
  7838  0CB9  01F2               	clrf	i1___lwdiv@dividend
  7839  0CBA  07F2               	addwf	i1___lwdiv@dividend,f
  7840  0CBB  160A  118A  2278  120A  158A  	fcall	i1___lwdiv
  7841  0CC0  0871               	movf	?i1___lwdiv+1,w
  7842  0CC1  01FB               	clrf	i1___lwmod@dividend+1
  7843  0CC2  07FB               	addwf	i1___lwmod@dividend+1,f
  7844  0CC3  0870               	movf	?i1___lwdiv,w
  7845  0CC4  01FA               	clrf	i1___lwmod@dividend
  7846  0CC5  07FA               	addwf	i1___lwmod@dividend,f
  7847  0CC6  160A  118A  220E  120A  158A  	fcall	i1___lwmod
  7848  0CCB  0878               	movf	?i1___lwmod,w
  7849  0CCC  3E30               	addlw	48
  7850  0CCD  1283               	bcf	3,5	;RP0=0, select bank0
  7851  0CCE  1303               	bcf	3,6	;RP1=0, select bank0
  7852  0CCF  00A6               	movwf	??i1__doprnt+1
  7853  0CD0  0826               	movf	??i1__doprnt+1,w
  7854  0CD1  00B0               	movwf	i1__doprnt@c
  7855                           
  7856                           ;doprnt.c: 1532: }
  7857                           ;doprnt.c: 1533: if(pb->func) (pb->func(c)); else ((*pb->ptr++ = c));
  7858  0CD2  3001               	movlw	1
  7859  0CD3  0720               	addwf	i1__doprnt@pb,w
  7860  0CD4  00A5               	movwf	??i1__doprnt
  7861  0CD5  0821               	movf	i1__doprnt@pb+1,w
  7862  0CD6  1803               	skipnc
  7863  0CD7  3E01               	addlw	1
  7864  0CD8  00A6               	movwf	??i1__doprnt+1
  7865  0CD9  0825               	movf	??i1__doprnt,w
  7866  0CDA  0084               	movwf	4
  7867  0CDB  1783               	bsf	3,7
  7868  0CDC  1C26               	btfss	??i1__doprnt+1,0
  7869  0CDD  1383               	bcf	3,7
  7870  0CDE  0880               	movf	0,f
  7871  0CDF  1903               	skipnz
  7872  0CE0  2CF8               	goto	i1l5179
  7873  0CE1  0830               	movf	i1__doprnt@c,w
  7874  0CE2  00A5               	movwf	??i1__doprnt
  7875  0CE3  0825               	movf	??i1__doprnt,w
  7876  0CE4  00F0               	movwf	i1putch@c
  7877  0CE5  3001               	movlw	1
  7878  0CE6  0720               	addwf	i1__doprnt@pb,w
  7879  0CE7  00A6               	movwf	??i1__doprnt+1
  7880  0CE8  0821               	movf	i1__doprnt@pb+1,w
  7881  0CE9  1803               	skipnc
  7882  0CEA  3E01               	addlw	1
  7883  0CEB  00A7               	movwf	??i1__doprnt+2
  7884  0CEC  0826               	movf	??i1__doprnt+1,w
  7885  0CED  0084               	movwf	4
  7886  0CEE  1783               	bsf	3,7
  7887  0CEF  1C27               	btfss	??i1__doprnt+2,0
  7888  0CF0  1383               	bcf	3,7
  7889  0CF1  0800               	movf	0,w
  7890  0CF2  120A  118A  2109  120A  158A  	fcall	i1fptable
  7891  0CF7  2C96               	goto	i1l5183
  7892  0CF8                     i1l5179:	
  7893  0CF8  1283               	bcf	3,5	;RP0=0, select bank0
  7894  0CF9  1303               	bcf	3,6	;RP1=0, select bank0
  7895  0CFA  0830               	movf	i1__doprnt@c,w
  7896  0CFB  00A5               	movwf	??i1__doprnt
  7897  0CFC  0820               	movf	i1__doprnt@pb,w
  7898  0CFD  0084               	movwf	4
  7899  0CFE  1783               	bsf	3,7
  7900  0CFF  1C21               	btfss	i1__doprnt@pb+1,0
  7901  0D00  1383               	bcf	3,7
  7902  0D01  0800               	movf	0,w
  7903  0D02  0084               	movwf	4
  7904  0D03  0825               	movf	??i1__doprnt,w
  7905  0D04  1383               	bcf	3,7	;select IRP bank0
  7906  0D05  0080               	movwf	0
  7907  0D06  3001               	movlw	1
  7908  0D07  00A5               	movwf	??i1__doprnt
  7909  0D08  0820               	movf	i1__doprnt@pb,w
  7910  0D09  0084               	movwf	4
  7911  0D0A  1783               	bsf	3,7
  7912  0D0B  1C21               	btfss	i1__doprnt@pb+1,0
  7913  0D0C  1383               	bcf	3,7
  7914  0D0D  0825               	movf	??i1__doprnt,w
  7915  0D0E  0780               	addwf	0,f
  7916  0D0F  2C96               	goto	i1l5183
  7917  0D10                     i1l5187:	
  7918                           ;doprnt.c: 1534: }
  7919                           ;doprnt.c: 1542: }
  7920                           ;doprnt.c: 1544: alldone:
  7921                           
  7922                           
  7923                           ;doprnt.c: 1549: return 0;
  7924  0D10  1283               	bcf	3,5	;RP0=0, select bank0
  7925  0D11  1303               	bcf	3,6	;RP1=0, select bank0
  7926  0D12  01A0               	clrf	?i1__doprnt
  7927  0D13  01A1               	clrf	?i1__doprnt+1
  7928  0D14  0008               	return
  7929  0D15                     __end_ofi1__doprnt:	
  7930                           
  7931                           	psect	text29
  7932  0003                     __ptext29:	
  7933 ;; *************** function i1_putch *****************
  7934 ;; Defined at:
  7935 ;;		line 7 in file "C:\Program Files (x86)\Microchip\xc8\v1.33\sources\common\putch.c"
  7936 ;; Parameters:    Size  Location     Type
  7937 ;;  c               1    0[COMMON] unsigned char 
  7938 ;; Auto vars:     Size  Location     Type
  7939 ;;		None
  7940 ;; Return value:  Size  Location     Type
  7941 ;;		None               void
  7942 ;; Registers used:
  7943 ;;		None
  7944 ;; Tracked objects:
  7945 ;;		On entry : 0/0
  7946 ;;		On exit  : 0/0
  7947 ;;		Unchanged: 0/0
  7948 ;; Data sizes:     COMMON   BANK0   BANK1   BANK3   BANK2
  7949 ;;      Params:         1       0       0       0       0
  7950 ;;      Locals:         0       0       0       0       0
  7951 ;;      Temps:          0       0       0       0       0
  7952 ;;      Totals:         1       0       0       0       0
  7953 ;;Total ram usage:        1 bytes
  7954 ;; Hardware stack levels used:    1
  7955 ;; This function calls:
  7956 ;;		Nothing
  7957 ;; This function is called by:
  7958 ;;		_printf
  7959 ;; This function uses a non-reentrant model
  7960 ;;
  7961                           
  7962                           
  7963                           ;psect for function i1_putch
  7964  0003                     i1_putch:	
  7965                           
  7966                           ;incstack = 0
  7967                           ; Regs used in i1_putch: []
  7968  0003  0008               	return
  7969  0004                     __end_ofi1_putch:	
  7970                           
  7971                           	psect	text30
  7972  1016                     __ptext30:	
  7973 ;; *************** function i1_isdigit *****************
  7974 ;; Defined at:
  7975 ;;		line 8 in file "C:\Program Files (x86)\Microchip\xc8\v1.33\sources\common\isdigit.c"
  7976 ;; Parameters:    Size  Location     Type
  7977 ;;  c               1    wreg     unsigned char 
  7978 ;; Auto vars:     Size  Location     Type
  7979 ;;  c               1    1[COMMON] unsigned char 
  7980 ;; Return value:  Size  Location     Type
  7981 ;;		None               void
  7982 ;; Registers used:
  7983 ;;		wreg, status,2, status,0
  7984 ;; Tracked objects:
  7985 ;;		On entry : 0/0
  7986 ;;		On exit  : 0/0
  7987 ;;		Unchanged: 0/0
  7988 ;; Data sizes:     COMMON   BANK0   BANK1   BANK3   BANK2
  7989 ;;      Params:         0       0       0       0       0
  7990 ;;      Locals:         2       0       0       0       0
  7991 ;;      Temps:          0       0       0       0       0
  7992 ;;      Totals:         2       0       0       0       0
  7993 ;;Total ram usage:        2 bytes
  7994 ;; Hardware stack levels used:    1
  7995 ;; This function calls:
  7996 ;;		Nothing
  7997 ;; This function is called by:
  7998 ;;		i1__doprnt
  7999 ;; This function uses a non-reentrant model
  8000 ;;
  8001                           
  8002                           
  8003                           ;psect for function i1_isdigit
  8004  1016                     i1_isdigit:	
  8005                           
  8006                           ;incstack = 0
  8007                           ; Regs used in i1_isdigit: [wreg+status,2+status,0]
  8008                           ;i1isdigit@c stored from wreg
  8009  1016  00F1               	movwf	i1isdigit@c
  8010  1017  01F0               	clrf	i1_isdigit$1415
  8011  1018  303A               	movlw	58
  8012  1019  0271               	subwf	i1isdigit@c,w
  8013  101A  1803               	skipnc
  8014  101B  2822               	goto	i1l2243
  8015  101C  3030               	movlw	48
  8016  101D  0271               	subwf	i1isdigit@c,w
  8017  101E  1C03               	skipc
  8018  101F  2822               	goto	i1l2243
  8019  1020  01F0               	clrf	i1_isdigit$1415
  8020  1021  0AF0               	incf	i1_isdigit$1415,f
  8021  1022                     i1l2243:	
  8022  1022  0C70               	rrf	i1_isdigit$1415,w
  8023  1023  0008               	return
  8024  1024                     __end_ofi1_isdigit:	
  8025                           
  8026                           	psect	text31
  8027  1171                     __ptext31:	
  8028 ;; *************** function i1___wmul *****************
  8029 ;; Defined at:
  8030 ;;		line 15 in file "C:\Program Files (x86)\Microchip\xc8\v1.33\sources\common\Umul16.c"
  8031 ;; Parameters:    Size  Location     Type
  8032 ;;  multiplier      2    0[COMMON] unsigned int 
  8033 ;;  multiplicand    2    2[COMMON] unsigned int 
  8034 ;; Auto vars:     Size  Location     Type
  8035 ;;  __wmul          2    4[COMMON] unsigned int 
  8036 ;; Return value:  Size  Location     Type
  8037 ;;                  2    0[COMMON] unsigned int 
  8038 ;; Registers used:
  8039 ;;		wreg, status,2, status,0
  8040 ;; Tracked objects:
  8041 ;;		On entry : 0/0
  8042 ;;		On exit  : 0/0
  8043 ;;		Unchanged: 0/0
  8044 ;; Data sizes:     COMMON   BANK0   BANK1   BANK3   BANK2
  8045 ;;      Params:         4       0       0       0       0
  8046 ;;      Locals:         2       0       0       0       0
  8047 ;;      Temps:          0       0       0       0       0
  8048 ;;      Totals:         6       0       0       0       0
  8049 ;;Total ram usage:        6 bytes
  8050 ;; Hardware stack levels used:    1
  8051 ;; This function calls:
  8052 ;;		Nothing
  8053 ;; This function is called by:
  8054 ;;		i1__doprnt
  8055 ;; This function uses a non-reentrant model
  8056 ;;
  8057                           
  8058                           
  8059                           ;psect for function i1___wmul
  8060  1171                     i1___wmul:	
  8061                           
  8062                           ;incstack = 0
  8063                           ; Regs used in i1___wmul: [wreg+status,2+status,0]
  8064  1171  01F4               	clrf	i1___wmul@product
  8065  1172  01F5               	clrf	i1___wmul@product+1
  8066  1173                     i1l2225:	
  8067  1173  1C70               	btfss	i1___wmul@multiplier,0
  8068  1174  297B               	goto	i1l524
  8069  1175  0872               	movf	i1___wmul@multiplicand,w
  8070  1176  07F4               	addwf	i1___wmul@product,f
  8071  1177  1803               	skipnc
  8072  1178  0AF5               	incf	i1___wmul@product+1,f
  8073  1179  0873               	movf	i1___wmul@multiplicand+1,w
  8074  117A  07F5               	addwf	i1___wmul@product+1,f
  8075  117B                     i1l524:	
  8076  117B  3001               	movlw	1
  8077  117C                     u216_25:	
  8078  117C  1003               	clrc
  8079  117D  0DF2               	rlf	i1___wmul@multiplicand,f
  8080  117E  0DF3               	rlf	i1___wmul@multiplicand+1,f
  8081  117F  3EFF               	addlw	-1
  8082  1180  1D03               	skipz
  8083  1181  297C               	goto	u216_25
  8084  1182  3001               	movlw	1
  8085  1183                     u217_25:	
  8086  1183  1003               	clrc
  8087  1184  0CF1               	rrf	i1___wmul@multiplier+1,f
  8088  1185  0CF0               	rrf	i1___wmul@multiplier,f
  8089  1186  3EFF               	addlw	-1
  8090  1187  1D03               	skipz
  8091  1188  2983               	goto	u217_25
  8092  1189  0871               	movf	i1___wmul@multiplier+1,w
  8093  118A  0470               	iorwf	i1___wmul@multiplier,w
  8094  118B  1D03               	skipz
  8095  118C  2973               	goto	i1l2225
  8096  118D  0875               	movf	i1___wmul@product+1,w
  8097  118E  01F1               	clrf	?i1___wmul+1
  8098  118F  07F1               	addwf	?i1___wmul+1,f
  8099  1190  0874               	movf	i1___wmul@product,w
  8100  1191  01F0               	clrf	?i1___wmul
  8101  1192  07F0               	addwf	?i1___wmul,f
  8102  1193  0008               	return
  8103  1194                     __end_ofi1___wmul:	
  8104                           
  8105                           	psect	text32
  8106  120E                     __ptext32:	
  8107 ;; *************** function i1___lwmod *****************
  8108 ;; Defined at:
  8109 ;;		line 6 in file "C:\Program Files (x86)\Microchip\xc8\v1.33\sources\common\lwmod.c"
  8110 ;; Parameters:    Size  Location     Type
  8111 ;;  divisor         2    8[COMMON] unsigned int 
  8112 ;;  dividend        2   10[COMMON] unsigned int 
  8113 ;; Auto vars:     Size  Location     Type
  8114 ;;  __lwmod         1   13[COMMON] unsigned char 
  8115 ;; Return value:  Size  Location     Type
  8116 ;;                  2    8[COMMON] unsigned int 
  8117 ;; Registers used:
  8118 ;;		wreg, status,2, status,0
  8119 ;; Tracked objects:
  8120 ;;		On entry : 0/0
  8121 ;;		On exit  : 0/0
  8122 ;;		Unchanged: 0/0
  8123 ;; Data sizes:     COMMON   BANK0   BANK1   BANK3   BANK2
  8124 ;;      Params:         4       0       0       0       0
  8125 ;;      Locals:         1       0       0       0       0
  8126 ;;      Temps:          1       0       0       0       0
  8127 ;;      Totals:         6       0       0       0       0
  8128 ;;Total ram usage:        6 bytes
  8129 ;; Hardware stack levels used:    1
  8130 ;; This function calls:
  8131 ;;		Nothing
  8132 ;; This function is called by:
  8133 ;;		i1__doprnt
  8134 ;; This function uses a non-reentrant model
  8135 ;;
  8136                           
  8137                           
  8138                           ;psect for function i1___lwmod
  8139  120E                     i1___lwmod:	
  8140                           
  8141                           ;incstack = 0
  8142                           ; Regs used in i1___lwmod: [wreg+status,2+status,0]
  8143  120E  0879               	movf	i1___lwmod@divisor+1,w
  8144  120F  0478               	iorwf	i1___lwmod@divisor,w
  8145  1210  1903               	skipnz
  8146  1211  2A3B               	goto	i1l2291
  8147  1212  01FD               	clrf	i1___lwmod@counter
  8148  1213  0AFD               	incf	i1___lwmod@counter,f
  8149  1214                     i1l2281:	
  8150  1214  1BF9               	btfsc	i1___lwmod@divisor+1,7
  8151  1215  2A22               	goto	i1l2283
  8152  1216  3001               	movlw	1
  8153  1217                     u229_25:	
  8154  1217  1003               	clrc
  8155  1218  0DF8               	rlf	i1___lwmod@divisor,f
  8156  1219  0DF9               	rlf	i1___lwmod@divisor+1,f
  8157  121A  3EFF               	addlw	-1
  8158  121B  1D03               	skipz
  8159  121C  2A17               	goto	u229_25
  8160  121D  3001               	movlw	1
  8161  121E  00FC               	movwf	??i1___lwmod
  8162  121F  087C               	movf	??i1___lwmod,w
  8163  1220  07FD               	addwf	i1___lwmod@counter,f
  8164  1221  2A14               	goto	i1l2281
  8165  1222                     i1l2283:	
  8166  1222  0879               	movf	i1___lwmod@divisor+1,w
  8167  1223  027B               	subwf	i1___lwmod@dividend+1,w
  8168  1224  1D03               	skipz
  8169  1225  2A28               	goto	u231_25
  8170  1226  0878               	movf	i1___lwmod@divisor,w
  8171  1227  027A               	subwf	i1___lwmod@dividend,w
  8172  1228                     u231_25:	
  8173  1228  1C03               	skipc
  8174  1229  2A30               	goto	i1l2287
  8175  122A  0878               	movf	i1___lwmod@divisor,w
  8176  122B  02FA               	subwf	i1___lwmod@dividend,f
  8177  122C  0879               	movf	i1___lwmod@divisor+1,w
  8178  122D  1C03               	skipc
  8179  122E  03FB               	decf	i1___lwmod@dividend+1,f
  8180  122F  02FB               	subwf	i1___lwmod@dividend+1,f
  8181  1230                     i1l2287:	
  8182  1230  3001               	movlw	1
  8183  1231                     u232_25:	
  8184  1231  1003               	clrc
  8185  1232  0CF9               	rrf	i1___lwmod@divisor+1,f
  8186  1233  0CF8               	rrf	i1___lwmod@divisor,f
  8187  1234  3EFF               	addlw	-1
  8188  1235  1D03               	skipz
  8189  1236  2A31               	goto	u232_25
  8190  1237  3001               	movlw	1
  8191  1238  02FD               	subwf	i1___lwmod@counter,f
  8192  1239  1D03               	btfss	3,2
  8193  123A  2A22               	goto	i1l2283
  8194  123B                     i1l2291:	
  8195  123B  087B               	movf	i1___lwmod@dividend+1,w
  8196  123C  01F9               	clrf	?i1___lwmod+1
  8197  123D  07F9               	addwf	?i1___lwmod+1,f
  8198  123E  087A               	movf	i1___lwmod@dividend,w
  8199  123F  01F8               	clrf	?i1___lwmod
  8200  1240  07F8               	addwf	?i1___lwmod,f
  8201  1241  0008               	return
  8202  1242                     __end_ofi1___lwmod:	
  8203                           
  8204                           	psect	text33
  8205  1278                     __ptext33:	
  8206 ;; *************** function i1___lwdiv *****************
  8207 ;; Defined at:
  8208 ;;		line 6 in file "C:\Program Files (x86)\Microchip\xc8\v1.33\sources\common\lwdiv.c"
  8209 ;; Parameters:    Size  Location     Type
  8210 ;;  divisor         2    0[COMMON] unsigned int 
  8211 ;;  dividend        2    2[COMMON] unsigned int 
  8212 ;; Auto vars:     Size  Location     Type
  8213 ;;  __lwdiv         2    5[COMMON] unsigned int 
  8214 ;;  __lwdiv         1    7[COMMON] unsigned char 
  8215 ;; Return value:  Size  Location     Type
  8216 ;;                  2    0[COMMON] unsigned int 
  8217 ;; Registers used:
  8218 ;;		wreg, status,2, status,0
  8219 ;; Tracked objects:
  8220 ;;		On entry : 0/0
  8221 ;;		On exit  : 0/0
  8222 ;;		Unchanged: 0/0
  8223 ;; Data sizes:     COMMON   BANK0   BANK1   BANK3   BANK2
  8224 ;;      Params:         4       0       0       0       0
  8225 ;;      Locals:         3       0       0       0       0
  8226 ;;      Temps:          1       0       0       0       0
  8227 ;;      Totals:         8       0       0       0       0
  8228 ;;Total ram usage:        8 bytes
  8229 ;; Hardware stack levels used:    1
  8230 ;; This function calls:
  8231 ;;		Nothing
  8232 ;; This function is called by:
  8233 ;;		i1__doprnt
  8234 ;; This function uses a non-reentrant model
  8235 ;;
  8236                           
  8237                           
  8238                           ;psect for function i1___lwdiv
  8239  1278                     i1___lwdiv:	
  8240                           
  8241                           ;incstack = 0
  8242                           ; Regs used in i1___lwdiv: [wreg+status,2+status,0]
  8243  1278  01F5               	clrf	i1___lwdiv@quotient
  8244  1279  01F6               	clrf	i1___lwdiv@quotient+1
  8245  127A  0871               	movf	i1___lwdiv@divisor+1,w
  8246  127B  0470               	iorwf	i1___lwdiv@divisor,w
  8247  127C  1903               	skipnz
  8248  127D  2AAF               	goto	i1l2269
  8249  127E  01F7               	clrf	i1___lwdiv@counter
  8250  127F  0AF7               	incf	i1___lwdiv@counter,f
  8251  1280                     i1l2257:	
  8252  1280  1BF1               	btfsc	i1___lwdiv@divisor+1,7
  8253  1281  2A8E               	goto	i1l2259
  8254  1282  3001               	movlw	1
  8255  1283                     u222_25:	
  8256  1283  1003               	clrc
  8257  1284  0DF0               	rlf	i1___lwdiv@divisor,f
  8258  1285  0DF1               	rlf	i1___lwdiv@divisor+1,f
  8259  1286  3EFF               	addlw	-1
  8260  1287  1D03               	skipz
  8261  1288  2A83               	goto	u222_25
  8262  1289  3001               	movlw	1
  8263  128A  00F4               	movwf	??i1___lwdiv
  8264  128B  0874               	movf	??i1___lwdiv,w
  8265  128C  07F7               	addwf	i1___lwdiv@counter,f
  8266  128D  2A80               	goto	i1l2257
  8267  128E                     i1l2259:	
  8268  128E  3001               	movlw	1
  8269  128F                     u224_25:	
  8270  128F  1003               	clrc
  8271  1290  0DF5               	rlf	i1___lwdiv@quotient,f
  8272  1291  0DF6               	rlf	i1___lwdiv@quotient+1,f
  8273  1292  3EFF               	addlw	-1
  8274  1293  1D03               	skipz
  8275  1294  2A8F               	goto	u224_25
  8276  1295  0871               	movf	i1___lwdiv@divisor+1,w
  8277  1296  0273               	subwf	i1___lwdiv@dividend+1,w
  8278  1297  1D03               	skipz
  8279  1298  2A9B               	goto	u225_25
  8280  1299  0870               	movf	i1___lwdiv@divisor,w
  8281  129A  0272               	subwf	i1___lwdiv@dividend,w
  8282  129B                     u225_25:	
  8283  129B  1C03               	skipc
  8284  129C  2AA4               	goto	i1l2265
  8285  129D  0870               	movf	i1___lwdiv@divisor,w
  8286  129E  02F2               	subwf	i1___lwdiv@dividend,f
  8287  129F  0871               	movf	i1___lwdiv@divisor+1,w
  8288  12A0  1C03               	skipc
  8289  12A1  03F3               	decf	i1___lwdiv@dividend+1,f
  8290  12A2  02F3               	subwf	i1___lwdiv@dividend+1,f
  8291  12A3  1475               	bsf	i1___lwdiv@quotient,0
  8292  12A4                     i1l2265:	
  8293  12A4  3001               	movlw	1
  8294  12A5                     u226_25:	
  8295  12A5  1003               	clrc
  8296  12A6  0CF1               	rrf	i1___lwdiv@divisor+1,f
  8297  12A7  0CF0               	rrf	i1___lwdiv@divisor,f
  8298  12A8  3EFF               	addlw	-1
  8299  12A9  1D03               	skipz
  8300  12AA  2AA5               	goto	u226_25
  8301  12AB  3001               	movlw	1
  8302  12AC  02F7               	subwf	i1___lwdiv@counter,f
  8303  12AD  1D03               	btfss	3,2
  8304  12AE  2A8E               	goto	i1l2259
  8305  12AF                     i1l2269:	
  8306  12AF  0876               	movf	i1___lwdiv@quotient+1,w
  8307  12B0  01F1               	clrf	?i1___lwdiv+1
  8308  12B1  07F1               	addwf	?i1___lwdiv+1,f
  8309  12B2  0875               	movf	i1___lwdiv@quotient,w
  8310  12B3  01F0               	clrf	?i1___lwdiv
  8311  12B4  07F0               	addwf	?i1___lwdiv,f
  8312  12B5  0008               	return
  8313  12B6                     __end_ofi1___lwdiv:	
  8314                           
  8315                           	psect	text34
  8316  0893                     __ptext34:	
  8317 ;; *************** function ___ftneg *****************
  8318 ;; Defined at:
  8319 ;;		line 15 in file "C:\Program Files (x86)\Microchip\xc8\v1.33\sources\common\ftneg.c"
  8320 ;; Parameters:    Size  Location     Type
  8321 ;;  f1              3   45[BANK0 ] float 
  8322 ;; Auto vars:     Size  Location     Type
  8323 ;;		None
  8324 ;; Return value:  Size  Location     Type
  8325 ;;                  3   45[BANK0 ] float 
  8326 ;; Registers used:
  8327 ;;		wreg
  8328 ;; Tracked objects:
  8329 ;;		On entry : 0/0
  8330 ;;		On exit  : 0/0
  8331 ;;		Unchanged: 0/0
  8332 ;; Data sizes:     COMMON   BANK0   BANK1   BANK3   BANK2
  8333 ;;      Params:         0       3       0       0       0
  8334 ;;      Locals:         0       0       0       0       0
  8335 ;;      Temps:          0       0       0       0       0
  8336 ;;      Totals:         0       3       0       0       0
  8337 ;;Total ram usage:        3 bytes
  8338 ;; Hardware stack levels used:    1
  8339 ;; This function calls:
  8340 ;;		Nothing
  8341 ;; This function is called by:
  8342 ;;		_trapezoidal
  8343 ;;		_ISR
  8344 ;;		_triangular
  8345 ;; This function uses a non-reentrant model
  8346 ;;
  8347                           
  8348                           
  8349                           ;psect for function ___ftneg
  8350  0893                     ___ftneg:	
  8351                           
  8352                           ;incstack = 0
  8353                           ; Regs used in ___ftneg: [wreg]
  8354  0893  1283               	bcf	3,5	;RP0=0, select bank0
  8355  0894  1303               	bcf	3,6	;RP1=0, select bank0
  8356  0895  084F               	movf	___ftneg@f1+2,w
  8357  0896  044E               	iorwf	___ftneg@f1+1,w
  8358  0897  044D               	iorwf	___ftneg@f1,w
  8359  0898  1903               	skipnz
  8360  0899  0008               	return
  8361  089A  3080               	movlw	128
  8362  089B  06CF               	xorwf	___ftneg@f1+2,f
  8363  089C  0008               	return
  8364  089D                     __end_of___ftneg:	
  8365                           
  8366                           	psect	text35
  8367  12F6                     __ptext35:	
  8368 ;; *************** function ___ftge *****************
  8369 ;; Defined at:
  8370 ;;		line 4 in file "C:\Program Files (x86)\Microchip\xc8\v1.33\sources\common\ftge.c"
  8371 ;; Parameters:    Size  Location     Type
  8372 ;;  ff1             3    0[COMMON] float 
  8373 ;;  ff2             3    3[COMMON] float 
  8374 ;; Auto vars:     Size  Location     Type
  8375 ;;		None
  8376 ;; Return value:  Size  Location     Type
  8377 ;;		None               void
  8378 ;; Registers used:
  8379 ;;		wreg, status,2, status,0
  8380 ;; Tracked objects:
  8381 ;;		On entry : 0/0
  8382 ;;		On exit  : 0/0
  8383 ;;		Unchanged: 0/0
  8384 ;; Data sizes:     COMMON   BANK0   BANK1   BANK3   BANK2
  8385 ;;      Params:         6       0       0       0       0
  8386 ;;      Locals:         0       0       0       0       0
  8387 ;;      Temps:          6       0       0       0       0
  8388 ;;      Totals:        12       0       0       0       0
  8389 ;;Total ram usage:       12 bytes
  8390 ;; Hardware stack levels used:    1
  8391 ;; This function calls:
  8392 ;;		Nothing
  8393 ;; This function is called by:
  8394 ;;		_trapezoidal
  8395 ;;		_ISR
  8396 ;;		_triangular
  8397 ;; This function uses a non-reentrant model
  8398 ;;
  8399                           
  8400                           
  8401                           ;psect for function ___ftge
  8402  12F6                     ___ftge:	
  8403                           
  8404                           ;incstack = 0
  8405                           ; Regs used in ___ftge: [wreg+status,2+status,0]
  8406  12F6  1FF2               	btfss	___ftge@ff1+2,7
  8407  12F7  2B1D               	goto	i1l2849
  8408  12F8  3000               	movlw	0
  8409  12F9  00F6               	movwf	??___ftge
  8410  12FA  3000               	movlw	0
  8411  12FB  00F7               	movwf	??___ftge+1
  8412  12FC  3080               	movlw	128
  8413  12FD  00F8               	movwf	??___ftge+2
  8414  12FE  0970               	comf	___ftge@ff1,w
  8415  12FF  00F9               	movwf	??___ftge+3
  8416  1300  0971               	comf	___ftge@ff1+1,w
  8417  1301  00FA               	movwf	??___ftge+4
  8418  1302  0972               	comf	___ftge@ff1+2,w
  8419  1303  00FB               	movwf	??___ftge+5
  8420  1304  0AF9               	incf	??___ftge+3,f
  8421  1305  1903               	skipnz
  8422  1306  0AFA               	incf	??___ftge+4,f
  8423  1307  1903               	skipnz
  8424  1308  0AFB               	incf	??___ftge+5,f
  8425  1309  0879               	movf	??___ftge+3,w
  8426  130A  07F6               	addwf	??___ftge,f
  8427  130B  087A               	movf	??___ftge+4,w
  8428  130C  1803               	skipnc
  8429  130D  0F7A               	incfsz	??___ftge+4,w
  8430  130E  2B10               	goto	u358_21
  8431  130F  2B11               	goto	u358_22
  8432  1310                     u358_21:	
  8433  1310  07F7               	addwf	??___ftge+1,f
  8434  1311                     u358_22:	
  8435  1311  087B               	movf	??___ftge+5,w
  8436  1312  1803               	skipnc
  8437  1313  0F7B               	incfsz	??___ftge+5,w
  8438  1314  2B16               	goto	u358_23
  8439  1315  2B17               	goto	u358_24
  8440  1316                     u358_23:	
  8441  1316  07F8               	addwf	??___ftge+2,f
  8442  1317                     u358_24:	
  8443  1317  0876               	movf	??___ftge,w
  8444  1318  00F0               	movwf	___ftge@ff1
  8445  1319  0877               	movf	??___ftge+1,w
  8446  131A  00F1               	movwf	___ftge@ff1+1
  8447  131B  0878               	movf	??___ftge+2,w
  8448  131C  00F2               	movwf	___ftge@ff1+2
  8449  131D                     i1l2849:	
  8450  131D  1FF5               	btfss	___ftge@ff2+2,7
  8451  131E  2B44               	goto	i1l2853
  8452  131F  3000               	movlw	0
  8453  1320  00F6               	movwf	??___ftge
  8454  1321  3000               	movlw	0
  8455  1322  00F7               	movwf	??___ftge+1
  8456  1323  3080               	movlw	128
  8457  1324  00F8               	movwf	??___ftge+2
  8458  1325  0973               	comf	___ftge@ff2,w
  8459  1326  00F9               	movwf	??___ftge+3
  8460  1327  0974               	comf	___ftge@ff2+1,w
  8461  1328  00FA               	movwf	??___ftge+4
  8462  1329  0975               	comf	___ftge@ff2+2,w
  8463  132A  00FB               	movwf	??___ftge+5
  8464  132B  0AF9               	incf	??___ftge+3,f
  8465  132C  1903               	skipnz
  8466  132D  0AFA               	incf	??___ftge+4,f
  8467  132E  1903               	skipnz
  8468  132F  0AFB               	incf	??___ftge+5,f
  8469  1330  0879               	movf	??___ftge+3,w
  8470  1331  07F6               	addwf	??___ftge,f
  8471  1332  087A               	movf	??___ftge+4,w
  8472  1333  1803               	skipnc
  8473  1334  0F7A               	incfsz	??___ftge+4,w
  8474  1335  2B37               	goto	u360_21
  8475  1336  2B38               	goto	u360_22
  8476  1337                     u360_21:	
  8477  1337  07F7               	addwf	??___ftge+1,f
  8478  1338                     u360_22:	
  8479  1338  087B               	movf	??___ftge+5,w
  8480  1339  1803               	skipnc
  8481  133A  0F7B               	incfsz	??___ftge+5,w
  8482  133B  2B3D               	goto	u360_23
  8483  133C  2B3E               	goto	u360_24
  8484  133D                     u360_23:	
  8485  133D  07F8               	addwf	??___ftge+2,f
  8486  133E                     u360_24:	
  8487  133E  0876               	movf	??___ftge,w
  8488  133F  00F3               	movwf	___ftge@ff2
  8489  1340  0877               	movf	??___ftge+1,w
  8490  1341  00F4               	movwf	___ftge@ff2+1
  8491  1342  0878               	movf	??___ftge+2,w
  8492  1343  00F5               	movwf	___ftge@ff2+2
  8493  1344                     i1l2853:	
  8494  1344  3080               	movlw	128
  8495  1345  06F2               	xorwf	___ftge@ff1+2,f
  8496  1346  3080               	movlw	128
  8497  1347  06F5               	xorwf	___ftge@ff2+2,f
  8498  1348  0875               	movf	___ftge@ff2+2,w
  8499  1349  0272               	subwf	___ftge@ff1+2,w
  8500  134A  1D03               	skipz
  8501  134B  0008               	return
  8502  134C  0874               	movf	___ftge@ff2+1,w
  8503  134D  0271               	subwf	___ftge@ff1+1,w
  8504  134E  1D03               	skipz
  8505  134F  0008               	return
  8506  1350  0873               	movf	___ftge@ff2,w
  8507  1351  0270               	subwf	___ftge@ff1,w
  8508  1352  0008               	return
  8509  1353                     __end_of___ftge:	
  8510                           
  8511                           	psect	text36
  8512  003C                     __ptext36:	
  8513 ;; *************** function ___ftdiv *****************
  8514 ;; Defined at:
  8515 ;;		line 49 in file "C:\Program Files (x86)\Microchip\xc8\v1.33\sources\pic\ftdiv.c"
  8516 ;; Parameters:    Size  Location     Type
  8517 ;;  f2              3    0[BANK0 ] float 
  8518 ;;  f1              3    3[BANK0 ] float 
  8519 ;; Auto vars:     Size  Location     Type
  8520 ;;  f3              3   11[BANK0 ] float 
  8521 ;;  sign            1   15[BANK0 ] unsigned char 
  8522 ;;  exp             1   14[BANK0 ] unsigned char 
  8523 ;;  cntr            1   10[BANK0 ] unsigned char 
  8524 ;; Return value:  Size  Location     Type
  8525 ;;                  3    0[BANK0 ] float 
  8526 ;; Registers used:
  8527 ;;		wreg, status,2, status,0, pclath, cstack
  8528 ;; Tracked objects:
  8529 ;;		On entry : 0/0
  8530 ;;		On exit  : 0/0
  8531 ;;		Unchanged: 0/0
  8532 ;; Data sizes:     COMMON   BANK0   BANK1   BANK3   BANK2
  8533 ;;      Params:         0       6       0       0       0
  8534 ;;      Locals:         0       6       0       0       0
  8535 ;;      Temps:          0       4       0       0       0
  8536 ;;      Totals:         0      16       0       0       0
  8537 ;;Total ram usage:       16 bytes
  8538 ;; Hardware stack levels used:    1
  8539 ;; Hardware stack levels required when called:    1
  8540 ;; This function calls:
  8541 ;;		___ftpack
  8542 ;; This function is called by:
  8543 ;;		_trapezoidal
  8544 ;;		_ISR
  8545 ;;		_triangular
  8546 ;; This function uses a non-reentrant model
  8547 ;;
  8548                           
  8549                           
  8550                           ;psect for function ___ftdiv
  8551  003C                     ___ftdiv:	
  8552                           
  8553                           ;incstack = 0
  8554                           ; Regs used in ___ftdiv: [wreg+status,2+status,0+pclath+cstack]
  8555  003C  1283               	bcf	3,5	;RP0=0, select bank0
  8556  003D  1303               	bcf	3,6	;RP1=0, select bank0
  8557  003E  0823               	movf	___ftdiv@f1,w
  8558  003F  00A6               	movwf	??___ftdiv
  8559  0040  0824               	movf	___ftdiv@f1+1,w
  8560  0041  00A7               	movwf	??___ftdiv+1
  8561  0042  0825               	movf	___ftdiv@f1+2,w
  8562  0043  00A8               	movwf	??___ftdiv+2
  8563  0044  1003               	clrc
  8564  0045  0D27               	rlf	??___ftdiv+1,w
  8565  0046  0D28               	rlf	??___ftdiv+2,w
  8566  0047  00A9               	movwf	??___ftdiv+3
  8567  0048  0829               	movf	??___ftdiv+3,w
  8568  0049  00AE               	movwf	___ftdiv@exp
  8569  004A  08AE               	movf	___ftdiv@exp,f
  8570  004B  1D03               	skipz
  8571  004C  2854               	goto	i1l2809
  8572  004D  3000               	movlw	0
  8573  004E  00A0               	movwf	?___ftdiv
  8574  004F  3000               	movlw	0
  8575  0050  00A1               	movwf	?___ftdiv+1
  8576  0051  3000               	movlw	0
  8577  0052  00A2               	movwf	?___ftdiv+2
  8578  0053  0008               	return
  8579  0054                     i1l2809:	
  8580  0054  0820               	movf	___ftdiv@f2,w
  8581  0055  00A6               	movwf	??___ftdiv
  8582  0056  0821               	movf	___ftdiv@f2+1,w
  8583  0057  00A7               	movwf	??___ftdiv+1
  8584  0058  0822               	movf	___ftdiv@f2+2,w
  8585  0059  00A8               	movwf	??___ftdiv+2
  8586  005A  1003               	clrc
  8587  005B  0D27               	rlf	??___ftdiv+1,w
  8588  005C  0D28               	rlf	??___ftdiv+2,w
  8589  005D  00A9               	movwf	??___ftdiv+3
  8590  005E  0829               	movf	??___ftdiv+3,w
  8591  005F  00AF               	movwf	___ftdiv@sign
  8592  0060  08AF               	movf	___ftdiv@sign,f
  8593  0061  1D03               	skipz
  8594  0062  286A               	goto	i1l2815
  8595  0063  3000               	movlw	0
  8596  0064  00A0               	movwf	?___ftdiv
  8597  0065  3000               	movlw	0
  8598  0066  00A1               	movwf	?___ftdiv+1
  8599  0067  3000               	movlw	0
  8600  0068  00A2               	movwf	?___ftdiv+2
  8601  0069  0008               	return
  8602  006A                     i1l2815:	
  8603  006A  3000               	movlw	0
  8604  006B  00AB               	movwf	___ftdiv@f3
  8605  006C  3000               	movlw	0
  8606  006D  00AC               	movwf	___ftdiv@f3+1
  8607  006E  3000               	movlw	0
  8608  006F  00AD               	movwf	___ftdiv@f3+2
  8609  0070  3089               	movlw	137
  8610  0071  072F               	addwf	___ftdiv@sign,w
  8611  0072  00A6               	movwf	??___ftdiv
  8612  0073  0826               	movf	??___ftdiv,w
  8613  0074  02AE               	subwf	___ftdiv@exp,f
  8614  0075  0823               	movf	___ftdiv@f1,w
  8615  0076  00A6               	movwf	??___ftdiv
  8616  0077  0824               	movf	___ftdiv@f1+1,w
  8617  0078  00A7               	movwf	??___ftdiv+1
  8618  0079  0825               	movf	___ftdiv@f1+2,w
  8619  007A  00A8               	movwf	??___ftdiv+2
  8620  007B  3010               	movlw	16
  8621  007C                     u351_25:	
  8622  007C  1003               	clrc
  8623  007D  0CA8               	rrf	??___ftdiv+2,f
  8624  007E  0CA7               	rrf	??___ftdiv+1,f
  8625  007F  0CA6               	rrf	??___ftdiv,f
  8626  0080  3EFF               	addlw	-1
  8627  0081  1D03               	skipz
  8628  0082  287C               	goto	u351_25
  8629  0083  0826               	movf	??___ftdiv,w
  8630  0084  00A9               	movwf	??___ftdiv+3
  8631  0085  0829               	movf	??___ftdiv+3,w
  8632  0086  00AF               	movwf	___ftdiv@sign
  8633  0087  0820               	movf	___ftdiv@f2,w
  8634  0088  00A6               	movwf	??___ftdiv
  8635  0089  0821               	movf	___ftdiv@f2+1,w
  8636  008A  00A7               	movwf	??___ftdiv+1
  8637  008B  0822               	movf	___ftdiv@f2+2,w
  8638  008C  00A8               	movwf	??___ftdiv+2
  8639  008D  3010               	movlw	16
  8640  008E                     u352_25:	
  8641  008E  1003               	clrc
  8642  008F  0CA8               	rrf	??___ftdiv+2,f
  8643  0090  0CA7               	rrf	??___ftdiv+1,f
  8644  0091  0CA6               	rrf	??___ftdiv,f
  8645  0092  3EFF               	addlw	-1
  8646  0093  1D03               	skipz
  8647  0094  288E               	goto	u352_25
  8648  0095  0826               	movf	??___ftdiv,w
  8649  0096  00A9               	movwf	??___ftdiv+3
  8650  0097  0829               	movf	??___ftdiv+3,w
  8651  0098  06AF               	xorwf	___ftdiv@sign,f
  8652  0099  3080               	movlw	128
  8653  009A  00A6               	movwf	??___ftdiv
  8654  009B  0826               	movf	??___ftdiv,w
  8655  009C  05AF               	andwf	___ftdiv@sign,f
  8656  009D  17A4               	bsf	___ftdiv@f1+1,7
  8657  009E  30FF               	movlw	255
  8658  009F  05A3               	andwf	___ftdiv@f1,f
  8659  00A0  30FF               	movlw	255
  8660  00A1  05A4               	andwf	___ftdiv@f1+1,f
  8661  00A2  3000               	movlw	0
  8662  00A3  05A5               	andwf	___ftdiv@f1+2,f
  8663  00A4  17A1               	bsf	___ftdiv@f2+1,7
  8664  00A5  30FF               	movlw	255
  8665  00A6  05A0               	andwf	___ftdiv@f2,f
  8666  00A7  30FF               	movlw	255
  8667  00A8  05A1               	andwf	___ftdiv@f2+1,f
  8668  00A9  3000               	movlw	0
  8669  00AA  05A2               	andwf	___ftdiv@f2+2,f
  8670  00AB  3018               	movlw	24
  8671  00AC  00A6               	movwf	??___ftdiv
  8672  00AD  0826               	movf	??___ftdiv,w
  8673  00AE  00AA               	movwf	___ftdiv@cntr
  8674  00AF                     i1l2829:	
  8675  00AF  3001               	movlw	1
  8676  00B0                     u353_25:	
  8677  00B0  1003               	clrc
  8678  00B1  0DAB               	rlf	___ftdiv@f3,f
  8679  00B2  0DAC               	rlf	___ftdiv@f3+1,f
  8680  00B3  0DAD               	rlf	___ftdiv@f3+2,f
  8681  00B4  3EFF               	addlw	-1
  8682  00B5  1D03               	skipz
  8683  00B6  28B0               	goto	u353_25
  8684  00B7  0822               	movf	___ftdiv@f2+2,w
  8685  00B8  0225               	subwf	___ftdiv@f1+2,w
  8686  00B9  1D03               	skipz
  8687  00BA  28C1               	goto	u354_25
  8688  00BB  0821               	movf	___ftdiv@f2+1,w
  8689  00BC  0224               	subwf	___ftdiv@f1+1,w
  8690  00BD  1D03               	skipz
  8691  00BE  28C1               	goto	u354_25
  8692  00BF  0820               	movf	___ftdiv@f2,w
  8693  00C0  0223               	subwf	___ftdiv@f1,w
  8694  00C1                     u354_25:	
  8695  00C1  1C03               	skipc
  8696  00C2  28CE               	goto	i1l2837
  8697  00C3  0820               	movf	___ftdiv@f2,w
  8698  00C4  02A3               	subwf	___ftdiv@f1,f
  8699  00C5  0821               	movf	___ftdiv@f2+1,w
  8700  00C6  1C03               	skipc
  8701  00C7  0F21               	incfsz	___ftdiv@f2+1,w
  8702  00C8  02A4               	subwf	___ftdiv@f1+1,f
  8703  00C9  0822               	movf	___ftdiv@f2+2,w
  8704  00CA  1C03               	skipc
  8705  00CB  0A22               	incf	___ftdiv@f2+2,w
  8706  00CC  02A5               	subwf	___ftdiv@f1+2,f
  8707  00CD  142B               	bsf	___ftdiv@f3,0
  8708  00CE                     i1l2837:	
  8709  00CE  3001               	movlw	1
  8710  00CF                     u355_25:	
  8711  00CF  1003               	clrc
  8712  00D0  0DA3               	rlf	___ftdiv@f1,f
  8713  00D1  0DA4               	rlf	___ftdiv@f1+1,f
  8714  00D2  0DA5               	rlf	___ftdiv@f1+2,f
  8715  00D3  3EFF               	addlw	-1
  8716  00D4  1D03               	skipz
  8717  00D5  28CF               	goto	u355_25
  8718  00D6  3001               	movlw	1
  8719  00D7  02AA               	subwf	___ftdiv@cntr,f
  8720  00D8  1D03               	btfss	3,2
  8721  00D9  28AF               	goto	i1l2829
  8722  00DA  082B               	movf	___ftdiv@f3,w
  8723  00DB  00F0               	movwf	___ftpack@arg
  8724  00DC  082C               	movf	___ftdiv@f3+1,w
  8725  00DD  00F1               	movwf	___ftpack@arg+1
  8726  00DE  082D               	movf	___ftdiv@f3+2,w
  8727  00DF  00F2               	movwf	___ftpack@arg+2
  8728  00E0  082E               	movf	___ftdiv@exp,w
  8729  00E1  00A6               	movwf	??___ftdiv
  8730  00E2  0826               	movf	??___ftdiv,w
  8731  00E3  00F3               	movwf	___ftpack@exp
  8732  00E4  082F               	movf	___ftdiv@sign,w
  8733  00E5  00A7               	movwf	??___ftdiv+1
  8734  00E6  0827               	movf	??___ftdiv+1,w
  8735  00E7  00F4               	movwf	___ftpack@sign
  8736  00E8  160A  118A  2353   	fcall	___ftpack
  8737  00EB  0870               	movf	?___ftpack,w
  8738  00EC  1283               	bcf	3,5	;RP0=0, select bank0
  8739  00ED  1303               	bcf	3,6	;RP1=0, select bank0
  8740  00EE  00A0               	movwf	?___ftdiv
  8741  00EF  0871               	movf	?___ftpack+1,w
  8742  00F0  00A1               	movwf	?___ftdiv+1
  8743  00F1  0872               	movf	?___ftpack+2,w
  8744  00F2  00A2               	movwf	?___ftdiv+2
  8745  00F3  0008               	return
  8746  00F4                     __end_of___ftdiv:	
  8747                           
  8748                           	psect	text37
  8749  16F7                     __ptext37:	
  8750 ;; *************** function ___ftadd *****************
  8751 ;; Defined at:
  8752 ;;		line 86 in file "C:\Program Files (x86)\Microchip\xc8\v1.33\sources\common\ftadd.c"
  8753 ;; Parameters:    Size  Location     Type
  8754 ;;  f1              3   32[BANK0 ] float 
  8755 ;;  f2              3   35[BANK0 ] float 
  8756 ;; Auto vars:     Size  Location     Type
  8757 ;;  exp1            1   44[BANK0 ] unsigned char 
  8758 ;;  exp2            1   43[BANK0 ] unsigned char 
  8759 ;;  sign            1   42[BANK0 ] unsigned char 
  8760 ;; Return value:  Size  Location     Type
  8761 ;;                  3   32[BANK0 ] float 
  8762 ;; Registers used:
  8763 ;;		wreg, status,2, status,0, pclath, cstack
  8764 ;; Tracked objects:
  8765 ;;		On entry : 0/0
  8766 ;;		On exit  : 0/0
  8767 ;;		Unchanged: 0/0
  8768 ;; Data sizes:     COMMON   BANK0   BANK1   BANK3   BANK2
  8769 ;;      Params:         0       6       0       0       0
  8770 ;;      Locals:         0       3       0       0       0
  8771 ;;      Temps:          0       4       0       0       0
  8772 ;;      Totals:         0      13       0       0       0
  8773 ;;Total ram usage:       13 bytes
  8774 ;; Hardware stack levels used:    1
  8775 ;; Hardware stack levels required when called:    1
  8776 ;; This function calls:
  8777 ;;		___ftpack
  8778 ;; This function is called by:
  8779 ;;		_trapezoidal
  8780 ;;		_ISR
  8781 ;;		_triangular
  8782 ;; This function uses a non-reentrant model
  8783 ;;
  8784                           
  8785                           
  8786                           ;psect for function ___ftadd
  8787  16F7                     ___ftadd:	
  8788                           
  8789                           ;incstack = 0
  8790                           ; Regs used in ___ftadd: [wreg+status,2+status,0+pclath+cstack]
  8791  16F7  1283               	bcf	3,5	;RP0=0, select bank0
  8792  16F8  1303               	bcf	3,6	;RP1=0, select bank0
  8793  16F9  0840               	movf	___ftadd@f1,w
  8794  16FA  00C6               	movwf	??___ftadd
  8795  16FB  0841               	movf	___ftadd@f1+1,w
  8796  16FC  00C7               	movwf	??___ftadd+1
  8797  16FD  0842               	movf	___ftadd@f1+2,w
  8798  16FE  00C8               	movwf	??___ftadd+2
  8799  16FF  1003               	clrc
  8800  1700  0D47               	rlf	??___ftadd+1,w
  8801  1701  0D48               	rlf	??___ftadd+2,w
  8802  1702  00C9               	movwf	??___ftadd+3
  8803  1703  0849               	movf	??___ftadd+3,w
  8804  1704  00CC               	movwf	___ftadd@exp1
  8805  1705  0843               	movf	___ftadd@f2,w
  8806  1706  00C6               	movwf	??___ftadd
  8807  1707  0844               	movf	___ftadd@f2+1,w
  8808  1708  00C7               	movwf	??___ftadd+1
  8809  1709  0845               	movf	___ftadd@f2+2,w
  8810  170A  00C8               	movwf	??___ftadd+2
  8811  170B  1003               	clrc
  8812  170C  0D47               	rlf	??___ftadd+1,w
  8813  170D  0D48               	rlf	??___ftadd+2,w
  8814  170E  00C9               	movwf	??___ftadd+3
  8815  170F  0849               	movf	??___ftadd+3,w
  8816  1710  00CB               	movwf	___ftadd@exp2
  8817  1711  084C               	movf	___ftadd@exp1,w
  8818  1712  1903               	btfsc	3,2
  8819  1713  2F20               	goto	i1l2739
  8820  1714  084B               	movf	___ftadd@exp2,w
  8821  1715  024C               	subwf	___ftadd@exp1,w
  8822  1716  1803               	skipnc
  8823  1717  2F27               	goto	i1l2743
  8824  1718  034C               	decf	___ftadd@exp1,w
  8825  1719  3AFF               	xorlw	255
  8826  171A  074B               	addwf	___ftadd@exp2,w
  8827  171B  00C6               	movwf	??___ftadd
  8828  171C  3019               	movlw	25
  8829  171D  0246               	subwf	??___ftadd,w
  8830  171E  1C03               	skipc
  8831  171F  2F27               	goto	i1l2743
  8832  1720                     i1l2739:	
  8833  1720  0843               	movf	___ftadd@f2,w
  8834  1721  00C0               	movwf	?___ftadd
  8835  1722  0844               	movf	___ftadd@f2+1,w
  8836  1723  00C1               	movwf	?___ftadd+1
  8837  1724  0845               	movf	___ftadd@f2+2,w
  8838  1725  00C2               	movwf	?___ftadd+2
  8839  1726  0008               	return
  8840  1727                     i1l2743:	
  8841  1727  084B               	movf	___ftadd@exp2,w
  8842  1728  1903               	btfsc	3,2
  8843  1729  0008               	return
  8844  172A  084C               	movf	___ftadd@exp1,w
  8845  172B  024B               	subwf	___ftadd@exp2,w
  8846  172C  1803               	skipnc
  8847  172D  2F36               	goto	i1l2749
  8848  172E  034B               	decf	___ftadd@exp2,w
  8849  172F  3AFF               	xorlw	255
  8850  1730  074C               	addwf	___ftadd@exp1,w
  8851  1731  00C6               	movwf	??___ftadd
  8852  1732  3019               	movlw	25
  8853  1733  0246               	subwf	??___ftadd,w
  8854  1734  1803               	btfsc	3,0
  8855  1735  0008               	return
  8856  1736                     i1l2749:	
  8857  1736  3006               	movlw	6
  8858  1737  00C6               	movwf	??___ftadd
  8859  1738  0846               	movf	??___ftadd,w
  8860  1739  00CA               	movwf	___ftadd@sign
  8861  173A  1BC2               	btfsc	___ftadd@f1+2,7
  8862  173B  17CA               	bsf	___ftadd@sign,7
  8863  173C  1BC5               	btfsc	___ftadd@f2+2,7
  8864  173D  174A               	bsf	___ftadd@sign,6
  8865  173E  17C1               	bsf	___ftadd@f1+1,7
  8866  173F  30FF               	movlw	255
  8867  1740  05C0               	andwf	___ftadd@f1,f
  8868  1741  30FF               	movlw	255
  8869  1742  05C1               	andwf	___ftadd@f1+1,f
  8870  1743  3000               	movlw	0
  8871  1744  05C2               	andwf	___ftadd@f1+2,f
  8872  1745  17C4               	bsf	___ftadd@f2+1,7
  8873  1746  30FF               	movlw	255
  8874  1747  05C3               	andwf	___ftadd@f2,f
  8875  1748  30FF               	movlw	255
  8876  1749  05C4               	andwf	___ftadd@f2+1,f
  8877  174A  3000               	movlw	0
  8878  174B  05C5               	andwf	___ftadd@f2+2,f
  8879  174C  084B               	movf	___ftadd@exp2,w
  8880  174D  024C               	subwf	___ftadd@exp1,w
  8881  174E  1803               	skipnc
  8882  174F  2F76               	goto	i1l2771
  8883  1750                     i1l2761:	
  8884  1750  3001               	movlw	1
  8885  1751                     u334_25:	
  8886  1751  1003               	clrc
  8887  1752  0DC3               	rlf	___ftadd@f2,f
  8888  1753  0DC4               	rlf	___ftadd@f2+1,f
  8889  1754  0DC5               	rlf	___ftadd@f2+2,f
  8890  1755  3EFF               	addlw	-1
  8891  1756  1D03               	skipz
  8892  1757  2F51               	goto	u334_25
  8893  1758  3001               	movlw	1
  8894  1759  02CB               	subwf	___ftadd@exp2,f
  8895  175A  084B               	movf	___ftadd@exp2,w
  8896  175B  064C               	xorwf	___ftadd@exp1,w
  8897  175C  1903               	skipnz
  8898  175D  2F71               	goto	i1l2769
  8899  175E  3001               	movlw	1
  8900  175F  02CA               	subwf	___ftadd@sign,f
  8901  1760  084A               	movf	___ftadd@sign,w
  8902  1761  3907               	andlw	7
  8903  1762  1903               	btfsc	3,2
  8904  1763  2F71               	goto	i1l2769
  8905  1764  2F50               	goto	i1l2761
  8906  1765                     i1l2767:	
  8907  1765  3001               	movlw	1
  8908  1766                     u337_25:	
  8909  1766  1003               	clrc
  8910  1767  0CC2               	rrf	___ftadd@f1+2,f
  8911  1768  0CC1               	rrf	___ftadd@f1+1,f
  8912  1769  0CC0               	rrf	___ftadd@f1,f
  8913  176A  3EFF               	addlw	-1
  8914  176B  1D03               	skipz
  8915  176C  2F66               	goto	u337_25
  8916  176D  3001               	movlw	1
  8917  176E  00C6               	movwf	??___ftadd
  8918  176F  0846               	movf	??___ftadd,w
  8919  1770  07CC               	addwf	___ftadd@exp1,f
  8920  1771                     i1l2769:	
  8921  1771  084C               	movf	___ftadd@exp1,w
  8922  1772  064B               	xorwf	___ftadd@exp2,w
  8923  1773  1903               	btfsc	3,2
  8924  1774  2F9F               	goto	i1l714
  8925  1775  2F65               	goto	i1l2767
  8926  1776                     i1l2771:	
  8927  1776  084C               	movf	___ftadd@exp1,w
  8928  1777  024B               	subwf	___ftadd@exp2,w
  8929  1778  1803               	skipnc
  8930  1779  2F9F               	goto	i1l714
  8931  177A                     i1l2773:	
  8932  177A  3001               	movlw	1
  8933  177B                     u340_25:	
  8934  177B  1003               	clrc
  8935  177C  0DC0               	rlf	___ftadd@f1,f
  8936  177D  0DC1               	rlf	___ftadd@f1+1,f
  8937  177E  0DC2               	rlf	___ftadd@f1+2,f
  8938  177F  3EFF               	addlw	-1
  8939  1780  1D03               	skipz
  8940  1781  2F7B               	goto	u340_25
  8941  1782  3001               	movlw	1
  8942  1783  02CC               	subwf	___ftadd@exp1,f
  8943  1784  084B               	movf	___ftadd@exp2,w
  8944  1785  064C               	xorwf	___ftadd@exp1,w
  8945  1786  1903               	skipnz
  8946  1787  2F9B               	goto	i1l2781
  8947  1788  3001               	movlw	1
  8948  1789  02CA               	subwf	___ftadd@sign,f
  8949  178A  084A               	movf	___ftadd@sign,w
  8950  178B  3907               	andlw	7
  8951  178C  1903               	btfsc	3,2
  8952  178D  2F9B               	goto	i1l2781
  8953  178E  2F7A               	goto	i1l2773
  8954  178F                     i1l2779:	
  8955  178F  3001               	movlw	1
  8956  1790                     u343_25:	
  8957  1790  1003               	clrc
  8958  1791  0CC5               	rrf	___ftadd@f2+2,f
  8959  1792  0CC4               	rrf	___ftadd@f2+1,f
  8960  1793  0CC3               	rrf	___ftadd@f2,f
  8961  1794  3EFF               	addlw	-1
  8962  1795  1D03               	skipz
  8963  1796  2F90               	goto	u343_25
  8964  1797  3001               	movlw	1
  8965  1798  00C6               	movwf	??___ftadd
  8966  1799  0846               	movf	??___ftadd,w
  8967  179A  07CB               	addwf	___ftadd@exp2,f
  8968  179B                     i1l2781:	
  8969  179B  084C               	movf	___ftadd@exp1,w
  8970  179C  064B               	xorwf	___ftadd@exp2,w
  8971  179D  1D03               	skipz
  8972  179E  2F8F               	goto	i1l2779
  8973  179F                     i1l714:	
  8974  179F  1FCA               	btfss	___ftadd@sign,7
  8975  17A0  2FB1               	goto	i1l2785
  8976  17A1  30FF               	movlw	255
  8977  17A2  06C0               	xorwf	___ftadd@f1,f
  8978  17A3  30FF               	movlw	255
  8979  17A4  06C1               	xorwf	___ftadd@f1+1,f
  8980  17A5  30FF               	movlw	255
  8981  17A6  06C2               	xorwf	___ftadd@f1+2,f
  8982  17A7  3001               	movlw	1
  8983  17A8  07C0               	addwf	___ftadd@f1,f
  8984  17A9  3000               	movlw	0
  8985  17AA  1803               	skipnc
  8986  17AB  3001               	movlw	1
  8987  17AC  07C1               	addwf	___ftadd@f1+1,f
  8988  17AD  3000               	movlw	0
  8989  17AE  1803               	skipnc
  8990  17AF  3001               	movlw	1
  8991  17B0  07C2               	addwf	___ftadd@f1+2,f
  8992  17B1                     i1l2785:	
  8993  17B1  1F4A               	btfss	___ftadd@sign,6
  8994  17B2  2FC3               	goto	i1l2789
  8995  17B3  30FF               	movlw	255
  8996  17B4  06C3               	xorwf	___ftadd@f2,f
  8997  17B5  30FF               	movlw	255
  8998  17B6  06C4               	xorwf	___ftadd@f2+1,f
  8999  17B7  30FF               	movlw	255
  9000  17B8  06C5               	xorwf	___ftadd@f2+2,f
  9001  17B9  3001               	movlw	1
  9002  17BA  07C3               	addwf	___ftadd@f2,f
  9003  17BB  3000               	movlw	0
  9004  17BC  1803               	skipnc
  9005  17BD  3001               	movlw	1
  9006  17BE  07C4               	addwf	___ftadd@f2+1,f
  9007  17BF  3000               	movlw	0
  9008  17C0  1803               	skipnc
  9009  17C1  3001               	movlw	1
  9010  17C2  07C5               	addwf	___ftadd@f2+2,f
  9011  17C3                     i1l2789:	
  9012  17C3  01CA               	clrf	___ftadd@sign
  9013  17C4  0840               	movf	___ftadd@f1,w
  9014  17C5  07C3               	addwf	___ftadd@f2,f
  9015  17C6  0841               	movf	___ftadd@f1+1,w
  9016  17C7  1103               	clrz
  9017  17C8  1803               	skipnc
  9018  17C9  0A41               	incf	___ftadd@f1+1,w
  9019  17CA  1D03               	btfss	3,2
  9020  17CB  07C4               	addwf	___ftadd@f2+1,f
  9021  17CC  0842               	movf	___ftadd@f1+2,w
  9022  17CD  1103               	clrz
  9023  17CE  1803               	skipnc
  9024  17CF  0A42               	incf	___ftadd@f1+2,w
  9025  17D0  1D03               	btfss	3,2
  9026  17D1  07C5               	addwf	___ftadd@f2+2,f
  9027  17D2  1FC5               	btfss	___ftadd@f2+2,7
  9028  17D3  2FE6               	goto	i1l2799
  9029  17D4  30FF               	movlw	255
  9030  17D5  06C3               	xorwf	___ftadd@f2,f
  9031  17D6  30FF               	movlw	255
  9032  17D7  06C4               	xorwf	___ftadd@f2+1,f
  9033  17D8  30FF               	movlw	255
  9034  17D9  06C5               	xorwf	___ftadd@f2+2,f
  9035  17DA  3001               	movlw	1
  9036  17DB  07C3               	addwf	___ftadd@f2,f
  9037  17DC  3000               	movlw	0
  9038  17DD  1803               	skipnc
  9039  17DE  3001               	movlw	1
  9040  17DF  07C4               	addwf	___ftadd@f2+1,f
  9041  17E0  3000               	movlw	0
  9042  17E1  1803               	skipnc
  9043  17E2  3001               	movlw	1
  9044  17E3  07C5               	addwf	___ftadd@f2+2,f
  9045  17E4  01CA               	clrf	___ftadd@sign
  9046  17E5  0ACA               	incf	___ftadd@sign,f
  9047  17E6                     i1l2799:	
  9048  17E6  0843               	movf	___ftadd@f2,w
  9049  17E7  00F0               	movwf	___ftpack@arg
  9050  17E8  0844               	movf	___ftadd@f2+1,w
  9051  17E9  00F1               	movwf	___ftpack@arg+1
  9052  17EA  0845               	movf	___ftadd@f2+2,w
  9053  17EB  00F2               	movwf	___ftpack@arg+2
  9054  17EC  084C               	movf	___ftadd@exp1,w
  9055  17ED  00C6               	movwf	??___ftadd
  9056  17EE  0846               	movf	??___ftadd,w
  9057  17EF  00F3               	movwf	___ftpack@exp
  9058  17F0  084A               	movf	___ftadd@sign,w
  9059  17F1  00C7               	movwf	??___ftadd+1
  9060  17F2  0847               	movf	??___ftadd+1,w
  9061  17F3  00F4               	movwf	___ftpack@sign
  9062  17F4  160A  118A  2353   	fcall	___ftpack
  9063  17F7  0870               	movf	?___ftpack,w
  9064  17F8  1283               	bcf	3,5	;RP0=0, select bank0
  9065  17F9  1303               	bcf	3,6	;RP1=0, select bank0
  9066  17FA  00C0               	movwf	?___ftadd
  9067  17FB  0871               	movf	?___ftpack+1,w
  9068  17FC  00C1               	movwf	?___ftadd+1
  9069  17FD  0872               	movf	?___ftpack+2,w
  9070  17FE  00C2               	movwf	?___ftadd+2
  9071  17FF  0008               	return
  9072  1800                     __end_of___ftadd:	
  9073                           
  9074                           	psect	text38
  9075  1054                     __ptext38:	
  9076 ;; *************** function ___lwtoft *****************
  9077 ;; Defined at:
  9078 ;;		line 28 in file "C:\Program Files (x86)\Microchip\xc8\v1.33\sources\common\lwtoft.c"
  9079 ;; Parameters:    Size  Location     Type
  9080 ;;  c               2    8[COMMON] unsigned int 
  9081 ;; Auto vars:     Size  Location     Type
  9082 ;;		None
  9083 ;; Return value:  Size  Location     Type
  9084 ;;                  3    8[COMMON] float 
  9085 ;; Registers used:
  9086 ;;		wreg, status,2, status,0, pclath, cstack
  9087 ;; Tracked objects:
  9088 ;;		On entry : 0/0
  9089 ;;		On exit  : 0/0
  9090 ;;		Unchanged: 0/0
  9091 ;; Data sizes:     COMMON   BANK0   BANK1   BANK3   BANK2
  9092 ;;      Params:         3       0       0       0       0
  9093 ;;      Locals:         0       0       0       0       0
  9094 ;;      Temps:          1       0       0       0       0
  9095 ;;      Totals:         4       0       0       0       0
  9096 ;;Total ram usage:        4 bytes
  9097 ;; Hardware stack levels used:    1
  9098 ;; Hardware stack levels required when called:    1
  9099 ;; This function calls:
  9100 ;;		___ftpack
  9101 ;; This function is called by:
  9102 ;;		_ISR
  9103 ;; This function uses a non-reentrant model
  9104 ;;
  9105                           
  9106                           
  9107                           ;psect for function ___lwtoft
  9108  1054                     ___lwtoft:	
  9109                           
  9110                           ;incstack = 0
  9111                           ; Regs used in ___lwtoft: [wreg+status,2+status,0+pclath+cstack]
  9112  1054  0878               	movf	___lwtoft@c,w
  9113  1055  00F0               	movwf	___ftpack@arg
  9114  1056  0879               	movf	___lwtoft@c+1,w
  9115  1057  00F1               	movwf	___ftpack@arg+1
  9116  1058  01F2               	clrf	___ftpack@arg+2
  9117  1059  308E               	movlw	142
  9118  105A  00FB               	movwf	??___lwtoft
  9119  105B  087B               	movf	??___lwtoft,w
  9120  105C  00F3               	movwf	___ftpack@exp
  9121  105D  01F4               	clrf	___ftpack@sign
  9122  105E  160A  118A  2353   	fcall	___ftpack
  9123  1061  0870               	movf	?___ftpack,w
  9124  1062  00F8               	movwf	?___lwtoft
  9125  1063  0871               	movf	?___ftpack+1,w
  9126  1064  00F9               	movwf	?___lwtoft+1
  9127  1065  0872               	movf	?___ftpack+2,w
  9128  1066  00FA               	movwf	?___lwtoft+2
  9129  1067  0008               	return
  9130  1068                     __end_of___lwtoft:	
  9131                           
  9132                           	psect	text39
  9133  1428                     __ptext39:	
  9134 ;; *************** function ___fttol *****************
  9135 ;; Defined at:
  9136 ;;		line 44 in file "C:\Program Files (x86)\Microchip\xc8\v1.33\sources\common\fttol.c"
  9137 ;; Parameters:    Size  Location     Type
  9138 ;;  f1              3   32[BANK0 ] float 
  9139 ;; Auto vars:     Size  Location     Type
  9140 ;;  lval            4   41[BANK0 ] unsigned long 
  9141 ;;  exp1            1   45[BANK0 ] unsigned char 
  9142 ;;  sign1           1   40[BANK0 ] unsigned char 
  9143 ;; Return value:  Size  Location     Type
  9144 ;;                  4   32[BANK0 ] long 
  9145 ;; Registers used:
  9146 ;;		wreg, status,2, status,0
  9147 ;; Tracked objects:
  9148 ;;		On entry : 0/0
  9149 ;;		On exit  : 0/0
  9150 ;;		Unchanged: 0/0
  9151 ;; Data sizes:     COMMON   BANK0   BANK1   BANK3   BANK2
  9152 ;;      Params:         0       4       0       0       0
  9153 ;;      Locals:         0       6       0       0       0
  9154 ;;      Temps:          0       4       0       0       0
  9155 ;;      Totals:         0      14       0       0       0
  9156 ;;Total ram usage:       14 bytes
  9157 ;; Hardware stack levels used:    1
  9158 ;; This function calls:
  9159 ;;		Nothing
  9160 ;; This function is called by:
  9161 ;;		_ISR
  9162 ;; This function uses a non-reentrant model
  9163 ;;
  9164                           
  9165                           
  9166                           ;psect for function ___fttol
  9167  1428                     ___fttol:	
  9168                           
  9169                           ;incstack = 0
  9170                           ; Regs used in ___fttol: [wreg+status,2+status,0]
  9171  1428  1283               	bcf	3,5	;RP0=0, select bank0
  9172  1429  1303               	bcf	3,6	;RP1=0, select bank0
  9173  142A  0840               	movf	___fttol@f1,w
  9174  142B  00C4               	movwf	??___fttol
  9175  142C  0841               	movf	___fttol@f1+1,w
  9176  142D  00C5               	movwf	??___fttol+1
  9177  142E  0842               	movf	___fttol@f1+2,w
  9178  142F  00C6               	movwf	??___fttol+2
  9179  1430  1003               	clrc
  9180  1431  0D45               	rlf	??___fttol+1,w
  9181  1432  0D46               	rlf	??___fttol+2,w
  9182  1433  00C7               	movwf	??___fttol+3
  9183  1434  0847               	movf	??___fttol+3,w
  9184  1435  00CD               	movwf	___fttol@exp1
  9185  1436  08CD               	movf	___fttol@exp1,f
  9186  1437  1D03               	skipz
  9187  1438  2C42               	goto	i1l3123
  9188  1439  3000               	movlw	0
  9189  143A  00C3               	movwf	?___fttol+3
  9190  143B  3000               	movlw	0
  9191  143C  00C2               	movwf	?___fttol+2
  9192  143D  3000               	movlw	0
  9193  143E  00C1               	movwf	?___fttol+1
  9194  143F  3000               	movlw	0
  9195  1440  00C0               	movwf	?___fttol
  9196  1441  0008               	return
  9197  1442                     i1l3123:	
  9198  1442  0840               	movf	___fttol@f1,w
  9199  1443  00C4               	movwf	??___fttol
  9200  1444  0841               	movf	___fttol@f1+1,w
  9201  1445  00C5               	movwf	??___fttol+1
  9202  1446  0842               	movf	___fttol@f1+2,w
  9203  1447  00C6               	movwf	??___fttol+2
  9204  1448  3017               	movlw	23
  9205  1449                     u392_25:	
  9206  1449  1003               	clrc
  9207  144A  0CC6               	rrf	??___fttol+2,f
  9208  144B  0CC5               	rrf	??___fttol+1,f
  9209  144C  0CC4               	rrf	??___fttol,f
  9210  144D  3EFF               	addlw	-1
  9211  144E  1D03               	skipz
  9212  144F  2C49               	goto	u392_25
  9213  1450  0844               	movf	??___fttol,w
  9214  1451  00C7               	movwf	??___fttol+3
  9215  1452  0847               	movf	??___fttol+3,w
  9216  1453  00C8               	movwf	___fttol@sign1
  9217  1454  17C1               	bsf	___fttol@f1+1,7
  9218  1455  30FF               	movlw	255
  9219  1456  05C0               	andwf	___fttol@f1,f
  9220  1457  30FF               	movlw	255
  9221  1458  05C1               	andwf	___fttol@f1+1,f
  9222  1459  3000               	movlw	0
  9223  145A  05C2               	andwf	___fttol@f1+2,f
  9224  145B  0840               	movf	___fttol@f1,w
  9225  145C  00C9               	movwf	___fttol@lval
  9226  145D  0841               	movf	___fttol@f1+1,w
  9227  145E  00CA               	movwf	___fttol@lval+1
  9228  145F  0842               	movf	___fttol@f1+2,w
  9229  1460  00CB               	movwf	___fttol@lval+2
  9230  1461  01CC               	clrf	___fttol@lval+3
  9231  1462  308E               	movlw	142
  9232  1463  02CD               	subwf	___fttol@exp1,f
  9233  1464  1FCD               	btfss	___fttol@exp1,7
  9234  1465  2C84               	goto	i1l3143
  9235  1466  084D               	movf	___fttol@exp1,w
  9236  1467  3A80               	xorlw	128
  9237  1468  3E8F               	addlw	143
  9238  1469  1803               	skipnc
  9239  146A  2C74               	goto	i1l3141
  9240  146B  3000               	movlw	0
  9241  146C  00C3               	movwf	?___fttol+3
  9242  146D  3000               	movlw	0
  9243  146E  00C2               	movwf	?___fttol+2
  9244  146F  3000               	movlw	0
  9245  1470  00C1               	movwf	?___fttol+1
  9246  1471  3000               	movlw	0
  9247  1472  00C0               	movwf	?___fttol
  9248  1473  0008               	return
  9249  1474                     i1l3141:	
  9250  1474  3001               	movlw	1
  9251  1475                     u395_25:	
  9252  1475  1003               	clrc
  9253  1476  0CCC               	rrf	___fttol@lval+3,f
  9254  1477  0CCB               	rrf	___fttol@lval+2,f
  9255  1478  0CCA               	rrf	___fttol@lval+1,f
  9256  1479  0CC9               	rrf	___fttol@lval,f
  9257  147A  3EFF               	addlw	-1
  9258  147B  1D03               	skipz
  9259  147C  2C75               	goto	u395_25
  9260  147D  3001               	movlw	1
  9261  147E  00C4               	movwf	??___fttol
  9262  147F  0844               	movf	??___fttol,w
  9263  1480  07CD               	addwf	___fttol@exp1,f
  9264  1481  1903               	btfsc	3,2
  9265  1482  2C9F               	goto	i1l3153
  9266  1483  2C74               	goto	i1l3141
  9267  1484                     i1l3143:	
  9268  1484  3018               	movlw	24
  9269  1485  024D               	subwf	___fttol@exp1,w
  9270  1486  1C03               	skipc
  9271  1487  2C9C               	goto	i1l3151
  9272  1488  3000               	movlw	0
  9273  1489  00C3               	movwf	?___fttol+3
  9274  148A  3000               	movlw	0
  9275  148B  00C2               	movwf	?___fttol+2
  9276  148C  3000               	movlw	0
  9277  148D  00C1               	movwf	?___fttol+1
  9278  148E  3000               	movlw	0
  9279  148F  00C0               	movwf	?___fttol
  9280  1490  0008               	return
  9281  1491                     i1l3149:	
  9282  1491  3001               	movlw	1
  9283  1492  00C4               	movwf	??___fttol
  9284  1493                     u398_25:	
  9285  1493  1003               	clrc
  9286  1494  0DC9               	rlf	___fttol@lval,f
  9287  1495  0DCA               	rlf	___fttol@lval+1,f
  9288  1496  0DCB               	rlf	___fttol@lval+2,f
  9289  1497  0DCC               	rlf	___fttol@lval+3,f
  9290  1498  0BC4               	decfsz	??___fttol,f
  9291  1499  2C93               	goto	u398_25
  9292  149A  3001               	movlw	1
  9293  149B  02CD               	subwf	___fttol@exp1,f
  9294  149C                     i1l3151:	
  9295  149C  08CD               	movf	___fttol@exp1,f
  9296  149D  1D03               	skipz
  9297  149E  2C91               	goto	i1l3149
  9298  149F                     i1l3153:	
  9299  149F  0848               	movf	___fttol@sign1,w
  9300  14A0  1903               	btfsc	3,2
  9301  14A1  2CAD               	goto	i1l3157
  9302  14A2  09C9               	comf	___fttol@lval,f
  9303  14A3  09CA               	comf	___fttol@lval+1,f
  9304  14A4  09CB               	comf	___fttol@lval+2,f
  9305  14A5  09CC               	comf	___fttol@lval+3,f
  9306  14A6  0AC9               	incf	___fttol@lval,f
  9307  14A7  1903               	skipnz
  9308  14A8  0ACA               	incf	___fttol@lval+1,f
  9309  14A9  1903               	skipnz
  9310  14AA  0ACB               	incf	___fttol@lval+2,f
  9311  14AB  1903               	skipnz
  9312  14AC  0ACC               	incf	___fttol@lval+3,f
  9313  14AD                     i1l3157:	
  9314  14AD  084C               	movf	___fttol@lval+3,w
  9315  14AE  00C3               	movwf	?___fttol+3
  9316  14AF  084B               	movf	___fttol@lval+2,w
  9317  14B0  00C2               	movwf	?___fttol+2
  9318  14B1  084A               	movf	___fttol@lval+1,w
  9319  14B2  00C1               	movwf	?___fttol+1
  9320  14B3  0849               	movf	___fttol@lval,w
  9321  14B4  00C0               	movwf	?___fttol
  9322  14B5  0008               	return
  9323  14B6                     __end_of___fttol:	
  9324                           
  9325                           	psect	text40
  9326  1545                     __ptext40:	
  9327 ;; *************** function ___ftmul *****************
  9328 ;; Defined at:
  9329 ;;		line 62 in file "C:\Program Files (x86)\Microchip\xc8\v1.33\sources\common\ftmul.c"
  9330 ;; Parameters:    Size  Location     Type
  9331 ;;  f1              3   16[BANK0 ] float 
  9332 ;;  f2              3   19[BANK0 ] float 
  9333 ;; Auto vars:     Size  Location     Type
  9334 ;;  f3_as_produc    3   27[BANK0 ] unsigned um
  9335 ;;  sign            1   31[BANK0 ] unsigned char 
  9336 ;;  cntr            1   30[BANK0 ] unsigned char 
  9337 ;;  exp             1   26[BANK0 ] unsigned char 
  9338 ;; Return value:  Size  Location     Type
  9339 ;;                  3   16[BANK0 ] float 
  9340 ;; Registers used:
  9341 ;;		wreg, status,2, status,0, pclath, cstack
  9342 ;; Tracked objects:
  9343 ;;		On entry : 0/0
  9344 ;;		On exit  : 0/0
  9345 ;;		Unchanged: 0/0
  9346 ;; Data sizes:     COMMON   BANK0   BANK1   BANK3   BANK2
  9347 ;;      Params:         0       6       0       0       0
  9348 ;;      Locals:         0       6       0       0       0
  9349 ;;      Temps:          0       4       0       0       0
  9350 ;;      Totals:         0      16       0       0       0
  9351 ;;Total ram usage:       16 bytes
  9352 ;; Hardware stack levels used:    1
  9353 ;; Hardware stack levels required when called:    1
  9354 ;; This function calls:
  9355 ;;		___ftpack
  9356 ;; This function is called by:
  9357 ;;		_ISR
  9358 ;; This function uses a non-reentrant model
  9359 ;;
  9360                           
  9361                           
  9362                           ;psect for function ___ftmul
  9363  1545                     ___ftmul:	
  9364                           
  9365                           ;incstack = 0
  9366                           ; Regs used in ___ftmul: [wreg+status,2+status,0+pclath+cstack]
  9367  1545  1283               	bcf	3,5	;RP0=0, select bank0
  9368  1546  1303               	bcf	3,6	;RP1=0, select bank0
  9369  1547  0830               	movf	___ftmul@f1,w
  9370  1548  00B6               	movwf	??___ftmul
  9371  1549  0831               	movf	___ftmul@f1+1,w
  9372  154A  00B7               	movwf	??___ftmul+1
  9373  154B  0832               	movf	___ftmul@f1+2,w
  9374  154C  00B8               	movwf	??___ftmul+2
  9375  154D  1003               	clrc
  9376  154E  0D37               	rlf	??___ftmul+1,w
  9377  154F  0D38               	rlf	??___ftmul+2,w
  9378  1550  00B9               	movwf	??___ftmul+3
  9379  1551  0839               	movf	??___ftmul+3,w
  9380  1552  00BA               	movwf	___ftmul@exp
  9381  1553  08BA               	movf	___ftmul@exp,f
  9382  1554  1D03               	skipz
  9383  1555  2D5D               	goto	i1l3073
  9384  1556  3000               	movlw	0
  9385  1557  00B0               	movwf	?___ftmul
  9386  1558  3000               	movlw	0
  9387  1559  00B1               	movwf	?___ftmul+1
  9388  155A  3000               	movlw	0
  9389  155B  00B2               	movwf	?___ftmul+2
  9390  155C  0008               	return
  9391  155D                     i1l3073:	
  9392  155D  0833               	movf	___ftmul@f2,w
  9393  155E  00B6               	movwf	??___ftmul
  9394  155F  0834               	movf	___ftmul@f2+1,w
  9395  1560  00B7               	movwf	??___ftmul+1
  9396  1561  0835               	movf	___ftmul@f2+2,w
  9397  1562  00B8               	movwf	??___ftmul+2
  9398  1563  1003               	clrc
  9399  1564  0D37               	rlf	??___ftmul+1,w
  9400  1565  0D38               	rlf	??___ftmul+2,w
  9401  1566  00B9               	movwf	??___ftmul+3
  9402  1567  0839               	movf	??___ftmul+3,w
  9403  1568  00BF               	movwf	___ftmul@sign
  9404  1569  08BF               	movf	___ftmul@sign,f
  9405  156A  1D03               	skipz
  9406  156B  2D73               	goto	i1l3079
  9407  156C  3000               	movlw	0
  9408  156D  00B0               	movwf	?___ftmul
  9409  156E  3000               	movlw	0
  9410  156F  00B1               	movwf	?___ftmul+1
  9411  1570  3000               	movlw	0
  9412  1571  00B2               	movwf	?___ftmul+2
  9413  1572  0008               	return
  9414  1573                     i1l3079:	
  9415  1573  083F               	movf	___ftmul@sign,w
  9416  1574  3E7B               	addlw	123
  9417  1575  00B6               	movwf	??___ftmul
  9418  1576  0836               	movf	??___ftmul,w
  9419  1577  07BA               	addwf	___ftmul@exp,f
  9420  1578  0830               	movf	___ftmul@f1,w
  9421  1579  00B6               	movwf	??___ftmul
  9422  157A  0831               	movf	___ftmul@f1+1,w
  9423  157B  00B7               	movwf	??___ftmul+1
  9424  157C  0832               	movf	___ftmul@f1+2,w
  9425  157D  00B8               	movwf	??___ftmul+2
  9426  157E  3010               	movlw	16
  9427  157F                     u379_25:	
  9428  157F  1003               	clrc
  9429  1580  0CB8               	rrf	??___ftmul+2,f
  9430  1581  0CB7               	rrf	??___ftmul+1,f
  9431  1582  0CB6               	rrf	??___ftmul,f
  9432  1583  3EFF               	addlw	-1
  9433  1584  1D03               	skipz
  9434  1585  2D7F               	goto	u379_25
  9435  1586  0836               	movf	??___ftmul,w
  9436  1587  00B9               	movwf	??___ftmul+3
  9437  1588  0839               	movf	??___ftmul+3,w
  9438  1589  00BF               	movwf	___ftmul@sign
  9439  158A  0833               	movf	___ftmul@f2,w
  9440  158B  00B6               	movwf	??___ftmul
  9441  158C  0834               	movf	___ftmul@f2+1,w
  9442  158D  00B7               	movwf	??___ftmul+1
  9443  158E  0835               	movf	___ftmul@f2+2,w
  9444  158F  00B8               	movwf	??___ftmul+2
  9445  1590  3010               	movlw	16
  9446  1591                     u380_25:	
  9447  1591  1003               	clrc
  9448  1592  0CB8               	rrf	??___ftmul+2,f
  9449  1593  0CB7               	rrf	??___ftmul+1,f
  9450  1594  0CB6               	rrf	??___ftmul,f
  9451  1595  3EFF               	addlw	-1
  9452  1596  1D03               	skipz
  9453  1597  2D91               	goto	u380_25
  9454  1598  0836               	movf	??___ftmul,w
  9455  1599  00B9               	movwf	??___ftmul+3
  9456  159A  0839               	movf	??___ftmul+3,w
  9457  159B  06BF               	xorwf	___ftmul@sign,f
  9458  159C  3080               	movlw	128
  9459  159D  00B6               	movwf	??___ftmul
  9460  159E  0836               	movf	??___ftmul,w
  9461  159F  05BF               	andwf	___ftmul@sign,f
  9462  15A0  17B1               	bsf	___ftmul@f1+1,7
  9463  15A1  17B4               	bsf	___ftmul@f2+1,7
  9464  15A2  30FF               	movlw	255
  9465  15A3  05B3               	andwf	___ftmul@f2,f
  9466  15A4  30FF               	movlw	255
  9467  15A5  05B4               	andwf	___ftmul@f2+1,f
  9468  15A6  3000               	movlw	0
  9469  15A7  05B5               	andwf	___ftmul@f2+2,f
  9470  15A8  3000               	movlw	0
  9471  15A9  00BB               	movwf	___ftmul@f3_as_product
  9472  15AA  3000               	movlw	0
  9473  15AB  00BC               	movwf	___ftmul@f3_as_product+1
  9474  15AC  3000               	movlw	0
  9475  15AD  00BD               	movwf	___ftmul@f3_as_product+2
  9476  15AE  3007               	movlw	7
  9477  15AF  00B6               	movwf	??___ftmul
  9478  15B0  0836               	movf	??___ftmul,w
  9479  15B1  00BE               	movwf	___ftmul@cntr
  9480  15B2                     i1l3091:	
  9481  15B2  1C30               	btfss	___ftmul@f1,0
  9482  15B3  2DC2               	goto	i1l3095
  9483  15B4  0833               	movf	___ftmul@f2,w
  9484  15B5  07BB               	addwf	___ftmul@f3_as_product,f
  9485  15B6  0834               	movf	___ftmul@f2+1,w
  9486  15B7  1103               	clrz
  9487  15B8  1803               	skipnc
  9488  15B9  0A34               	incf	___ftmul@f2+1,w
  9489  15BA  1D03               	btfss	3,2
  9490  15BB  07BC               	addwf	___ftmul@f3_as_product+1,f
  9491  15BC  0835               	movf	___ftmul@f2+2,w
  9492  15BD  1103               	clrz
  9493  15BE  1803               	skipnc
  9494  15BF  0A35               	incf	___ftmul@f2+2,w
  9495  15C0  1D03               	btfss	3,2
  9496  15C1  07BD               	addwf	___ftmul@f3_as_product+2,f
  9497  15C2                     i1l3095:	
  9498  15C2  3001               	movlw	1
  9499  15C3                     u383_25:	
  9500  15C3  1003               	clrc
  9501  15C4  0CB2               	rrf	___ftmul@f1+2,f
  9502  15C5  0CB1               	rrf	___ftmul@f1+1,f
  9503  15C6  0CB0               	rrf	___ftmul@f1,f
  9504  15C7  3EFF               	addlw	-1
  9505  15C8  1D03               	skipz
  9506  15C9  2DC3               	goto	u383_25
  9507  15CA  3001               	movlw	1
  9508  15CB                     u384_25:	
  9509  15CB  1003               	clrc
  9510  15CC  0DB3               	rlf	___ftmul@f2,f
  9511  15CD  0DB4               	rlf	___ftmul@f2+1,f
  9512  15CE  0DB5               	rlf	___ftmul@f2+2,f
  9513  15CF  3EFF               	addlw	-1
  9514  15D0  1D03               	skipz
  9515  15D1  2DCB               	goto	u384_25
  9516  15D2  3001               	movlw	1
  9517  15D3  02BE               	subwf	___ftmul@cntr,f
  9518  15D4  1D03               	btfss	3,2
  9519  15D5  2DB2               	goto	i1l3091
  9520  15D6  3009               	movlw	9
  9521  15D7  00B6               	movwf	??___ftmul
  9522  15D8  0836               	movf	??___ftmul,w
  9523  15D9  00BE               	movwf	___ftmul@cntr
  9524  15DA                     i1l3103:	
  9525  15DA  1C30               	btfss	___ftmul@f1,0
  9526  15DB  2DEA               	goto	i1l3107
  9527  15DC  0833               	movf	___ftmul@f2,w
  9528  15DD  07BB               	addwf	___ftmul@f3_as_product,f
  9529  15DE  0834               	movf	___ftmul@f2+1,w
  9530  15DF  1103               	clrz
  9531  15E0  1803               	skipnc
  9532  15E1  0A34               	incf	___ftmul@f2+1,w
  9533  15E2  1D03               	btfss	3,2
  9534  15E3  07BC               	addwf	___ftmul@f3_as_product+1,f
  9535  15E4  0835               	movf	___ftmul@f2+2,w
  9536  15E5  1103               	clrz
  9537  15E6  1803               	skipnc
  9538  15E7  0A35               	incf	___ftmul@f2+2,w
  9539  15E8  1D03               	btfss	3,2
  9540  15E9  07BD               	addwf	___ftmul@f3_as_product+2,f
  9541  15EA                     i1l3107:	
  9542  15EA  3001               	movlw	1
  9543  15EB                     u388_25:	
  9544  15EB  1003               	clrc
  9545  15EC  0CB2               	rrf	___ftmul@f1+2,f
  9546  15ED  0CB1               	rrf	___ftmul@f1+1,f
  9547  15EE  0CB0               	rrf	___ftmul@f1,f
  9548  15EF  3EFF               	addlw	-1
  9549  15F0  1D03               	skipz
  9550  15F1  2DEB               	goto	u388_25
  9551  15F2  3001               	movlw	1
  9552  15F3                     u389_25:	
  9553  15F3  1003               	clrc
  9554  15F4  0CBD               	rrf	___ftmul@f3_as_product+2,f
  9555  15F5  0CBC               	rrf	___ftmul@f3_as_product+1,f
  9556  15F6  0CBB               	rrf	___ftmul@f3_as_product,f
  9557  15F7  3EFF               	addlw	-1
  9558  15F8  1D03               	skipz
  9559  15F9  2DF3               	goto	u389_25
  9560  15FA  3001               	movlw	1
  9561  15FB  02BE               	subwf	___ftmul@cntr,f
  9562  15FC  1D03               	btfss	3,2
  9563  15FD  2DDA               	goto	i1l3103
  9564  15FE  083B               	movf	___ftmul@f3_as_product,w
  9565  15FF  00F0               	movwf	___ftpack@arg
  9566  1600  083C               	movf	___ftmul@f3_as_product+1,w
  9567  1601  00F1               	movwf	___ftpack@arg+1
  9568  1602  083D               	movf	___ftmul@f3_as_product+2,w
  9569  1603  00F2               	movwf	___ftpack@arg+2
  9570  1604  083A               	movf	___ftmul@exp,w
  9571  1605  00B6               	movwf	??___ftmul
  9572  1606  0836               	movf	??___ftmul,w
  9573  1607  00F3               	movwf	___ftpack@exp
  9574  1608  083F               	movf	___ftmul@sign,w
  9575  1609  00B7               	movwf	??___ftmul+1
  9576  160A  0837               	movf	??___ftmul+1,w
  9577  160B  00F4               	movwf	___ftpack@sign
  9578  160C  160A  118A  2353   	fcall	___ftpack
  9579  160F  0870               	movf	?___ftpack,w
  9580  1610  1283               	bcf	3,5	;RP0=0, select bank0
  9581  1611  1303               	bcf	3,6	;RP1=0, select bank0
  9582  1612  00B0               	movwf	?___ftmul
  9583  1613  0871               	movf	?___ftpack+1,w
  9584  1614  00B1               	movwf	?___ftmul+1
  9585  1615  0872               	movf	?___ftpack+2,w
  9586  1616  00B2               	movwf	?___ftmul+2
  9587  1617  0008               	return
  9588  1618                     __end_of___ftmul:	
  9589                           
  9590                           	psect	text41
  9591  1353                     __ptext41:	
  9592 ;; *************** function ___ftpack *****************
  9593 ;; Defined at:
  9594 ;;		line 62 in file "C:\Program Files (x86)\Microchip\xc8\v1.33\sources\common\float.c"
  9595 ;; Parameters:    Size  Location     Type
  9596 ;;  arg             3    0[COMMON] unsigned um
  9597 ;;  exp             1    3[COMMON] unsigned char 
  9598 ;;  sign            1    4[COMMON] unsigned char 
  9599 ;; Auto vars:     Size  Location     Type
  9600 ;;		None
  9601 ;; Return value:  Size  Location     Type
  9602 ;;                  3    0[COMMON] float 
  9603 ;; Registers used:
  9604 ;;		wreg, status,2, status,0
  9605 ;; Tracked objects:
  9606 ;;		On entry : 0/0
  9607 ;;		On exit  : 0/0
  9608 ;;		Unchanged: 0/0
  9609 ;; Data sizes:     COMMON   BANK0   BANK1   BANK3   BANK2
  9610 ;;      Params:         5       0       0       0       0
  9611 ;;      Locals:         0       0       0       0       0
  9612 ;;      Temps:          3       0       0       0       0
  9613 ;;      Totals:         8       0       0       0       0
  9614 ;;Total ram usage:        8 bytes
  9615 ;; Hardware stack levels used:    1
  9616 ;; This function calls:
  9617 ;;		Nothing
  9618 ;; This function is called by:
  9619 ;;		___ftadd
  9620 ;;		___ftdiv
  9621 ;;		___ftmul
  9622 ;;		___lwtoft
  9623 ;; This function uses a non-reentrant model
  9624 ;;
  9625                           
  9626                           
  9627                           ;psect for function ___ftpack
  9628  1353                     ___ftpack:	
  9629                           
  9630                           ;incstack = 0
  9631                           ; Regs used in ___ftpack: [wreg+status,2+status,0]
  9632  1353  0873               	movf	___ftpack@exp,w
  9633  1354  1903               	btfsc	3,2
  9634  1355  2B5B               	goto	i1l2323
  9635  1356  0872               	movf	___ftpack@arg+2,w
  9636  1357  0471               	iorwf	___ftpack@arg+1,w
  9637  1358  0470               	iorwf	___ftpack@arg,w
  9638  1359  1D03               	skipz
  9639  135A  2B6E               	goto	i1l2329
  9640  135B                     i1l2323:	
  9641  135B  3000               	movlw	0
  9642  135C  00F0               	movwf	?___ftpack
  9643  135D  3000               	movlw	0
  9644  135E  00F1               	movwf	?___ftpack+1
  9645  135F  3000               	movlw	0
  9646  1360  00F2               	movwf	?___ftpack+2
  9647  1361  0008               	return
  9648  1362                     i1l2327:	
  9649  1362  3001               	movlw	1
  9650  1363  00F5               	movwf	??___ftpack
  9651  1364  0875               	movf	??___ftpack,w
  9652  1365  07F3               	addwf	___ftpack@exp,f
  9653  1366  3001               	movlw	1
  9654  1367                     u242_25:	
  9655  1367  1003               	clrc
  9656  1368  0CF2               	rrf	___ftpack@arg+2,f
  9657  1369  0CF1               	rrf	___ftpack@arg+1,f
  9658  136A  0CF0               	rrf	___ftpack@arg,f
  9659  136B  3EFF               	addlw	-1
  9660  136C  1D03               	skipz
  9661  136D  2B67               	goto	u242_25
  9662  136E                     i1l2329:	
  9663  136E  30FE               	movlw	254
  9664  136F  0572               	andwf	___ftpack@arg+2,w
  9665  1370  1903               	btfsc	3,2
  9666  1371  2B89               	goto	i1l685
  9667  1372  2B62               	goto	i1l2327
  9668  1373                     i1l2331:	
  9669  1373  3001               	movlw	1
  9670  1374  00F5               	movwf	??___ftpack
  9671  1375  0875               	movf	??___ftpack,w
  9672  1376  07F3               	addwf	___ftpack@exp,f
  9673  1377  3001               	movlw	1
  9674  1378  07F0               	addwf	___ftpack@arg,f
  9675  1379  3000               	movlw	0
  9676  137A  1803               	skipnc
  9677  137B  3001               	movlw	1
  9678  137C  07F1               	addwf	___ftpack@arg+1,f
  9679  137D  3000               	movlw	0
  9680  137E  1803               	skipnc
  9681  137F  3001               	movlw	1
  9682  1380  07F2               	addwf	___ftpack@arg+2,f
  9683  1381  3001               	movlw	1
  9684  1382                     u244_25:	
  9685  1382  1003               	clrc
  9686  1383  0CF2               	rrf	___ftpack@arg+2,f
  9687  1384  0CF1               	rrf	___ftpack@arg+1,f
  9688  1385  0CF0               	rrf	___ftpack@arg,f
  9689  1386  3EFF               	addlw	-1
  9690  1387  1D03               	skipz
  9691  1388  2B82               	goto	u244_25
  9692  1389                     i1l685:	
  9693  1389  30FF               	movlw	255
  9694  138A  0572               	andwf	___ftpack@arg+2,w
  9695  138B  1903               	btfsc	3,2
  9696  138C  2B98               	goto	i1l2339
  9697  138D  2B73               	goto	i1l2331
  9698  138E                     i1l2337:	
  9699  138E  3001               	movlw	1
  9700  138F  02F3               	subwf	___ftpack@exp,f
  9701  1390  3001               	movlw	1
  9702  1391                     u246_25:	
  9703  1391  1003               	clrc
  9704  1392  0DF0               	rlf	___ftpack@arg,f
  9705  1393  0DF1               	rlf	___ftpack@arg+1,f
  9706  1394  0DF2               	rlf	___ftpack@arg+2,f
  9707  1395  3EFF               	addlw	-1
  9708  1396  1D03               	skipz
  9709  1397  2B91               	goto	u246_25
  9710  1398                     i1l2339:	
  9711  1398  1FF1               	btfss	___ftpack@arg+1,7
  9712  1399  2B8E               	goto	i1l2337
  9713  139A  1873               	btfsc	___ftpack@exp,0
  9714  139B  2BA2               	goto	i1l691
  9715  139C  30FF               	movlw	255
  9716  139D  05F0               	andwf	___ftpack@arg,f
  9717  139E  307F               	movlw	127
  9718  139F  05F1               	andwf	___ftpack@arg+1,f
  9719  13A0  30FF               	movlw	255
  9720  13A1  05F2               	andwf	___ftpack@arg+2,f
  9721  13A2                     i1l691:	
  9722  13A2  1003               	clrc
  9723  13A3  0CF3               	rrf	___ftpack@exp,f
  9724  13A4  0873               	movf	___ftpack@exp,w
  9725  13A5  00F5               	movwf	??___ftpack
  9726  13A6  01F6               	clrf	??___ftpack+1
  9727  13A7  01F7               	clrf	??___ftpack+2
  9728  13A8  3010               	movlw	16
  9729  13A9                     u249_25:	
  9730  13A9  1003               	clrc
  9731  13AA  0DF5               	rlf	??___ftpack,f
  9732  13AB  0DF6               	rlf	??___ftpack+1,f
  9733  13AC  0DF7               	rlf	??___ftpack+2,f
  9734  13AD  3EFF               	addlw	-1
  9735  13AE  1D03               	skipz
  9736  13AF  2BA9               	goto	u249_25
  9737  13B0  0875               	movf	??___ftpack,w
  9738  13B1  04F0               	iorwf	___ftpack@arg,f
  9739  13B2  0876               	movf	??___ftpack+1,w
  9740  13B3  04F1               	iorwf	___ftpack@arg+1,f
  9741  13B4  0877               	movf	??___ftpack+2,w
  9742  13B5  04F2               	iorwf	___ftpack@arg+2,f
  9743  13B6  0874               	movf	___ftpack@sign,w
  9744  13B7  1903               	btfsc	3,2
  9745  13B8  0008               	return
  9746  13B9  17F2               	bsf	___ftpack@arg+2,7
  9747  13BA  0008               	return
  9748  13BB                     __end_of___ftpack:	
  9749  0001                     
  9750                           	psect	functab
  9751  0100                     __pfunctab:	
  9752  0100                     __fptable:	
  9753  0100                     fptable:	
  9754  0100  00FF               	movwf	(btemp+1)& (0+127)
  9755  0101  3001               	movlw	high fptable
  9756  0102  008A               	movwf	10
  9757  0103  087F               	movf	(btemp+1)& (0+127),w
  9758  0104  0782               	addwf	2,f
  9759  0105                     fpbase:	
  9760  0105  2905               	goto	fpbase	; Call via a null pointer and you will get stuck here.
  9761  0106                     fp__putch:	
  9762  0106  120A  118A  28FF   	ljmp	_putch
  9763  0109                     __end_of__fptable:	
  9764  0109                     __i1fptable:	
  9765  0109                     i1fptable:	
  9766  0109  00FF               	movwf	(btemp+1)& (0+127)
  9767  010A  3001               	movlw	high i1fptable
  9768  010B  008A               	movwf	10
  9769  010C  087F               	movf	(btemp+1)& (0+127),w
  9770  010D  0782               	addwf	2,f
  9771  010E                     i1fpbase:	
  9772  010E  290E               	goto	i1fpbase	; Call via a null pointer and you will get stuck here.
  9773  010F                     fp_i1_putch:	
  9774  010F  120A  118A  2803   	ljmp	i1_putch
  9775  0112                     __end_of__i1fptable:	
  9776  007E                     btemp	set	126	;btemp
  9777  007E                     wtemp	set	126
  9778  007E                     wtemp0	set	126
  9779  0080                     wtemp1	set	128
  9780  0082                     wtemp2	set	130
  9781  0084                     wtemp3	set	132
  9782  0086                     wtemp4	set	134
  9783  0088                     wtemp5	set	136
  9784  007F                     wtemp6	set	127
  9785  007E                     ttemp	set	126
  9786  007E                     ttemp0	set	126
  9787  0081                     ttemp1	set	129
  9788  0084                     ttemp2	set	132
  9789  0087                     ttemp3	set	135
  9790  007F                     ttemp4	set	127
  9791  007E                     ltemp	set	126
  9792  007E                     ltemp0	set	126
  9793  0082                     ltemp1	set	130
  9794  0086                     ltemp2	set	134
  9795  0080                     ltemp3	set	128


Data Sizes:
    Strings     121
    Constant    10
    Data        3
    BSS         36
    Persistent  0
    Stack       0

Auto Spaces:
    Space          Size  Autos    Used
    COMMON           14     14      14
    BANK0            80     67      78
    BANK1            80     27      55
    BANK3            96     43      43
    BANK2            96      0       0

Pointer List with Targets:

    sprintf@f	PTR const unsigned char  size(1) Largest target is 5
		 -> STR_9(CODE[5]), 

    sprintf@ap	PTR void [1] size(1) Largest target is 2
		 -> ?_sprintf(BANK3[2]), ?_printf(COMMON[2]), 

    sprintf@wh	PTR unsigned char  size(1) Largest target is 10
		 -> display(BANK1[10]), 

    pb.func	PTR FTN(unsigned char ,)void  size(1) Largest target is 0
		 -> putch(), Absolute function(), 

    pb.ptr	PTR unsigned char  size(1) Largest target is 10
		 -> NULL(NULL[0]), display(BANK1[10]), 

    printf@f	PTR const unsigned char  size(1) Largest target is 2
		 -> STR_5(CODE[2]), STR_4(CODE[2]), STR_3(CODE[2]), STR_2(CODE[2]), 
		 -> STR_1(CODE[2]), 

    printf@ap	PTR void [1] size(1) Largest target is 2
		 -> ?_sprintf(BANK3[2]), ?_printf(COMMON[2]), 

    pb.func	PTR FTN(unsigned char ,)void  size(1) Largest target is 0
		 -> i1_putch(), putch(), Absolute function(), 

    pb.ptr	PTR unsigned char  size(1) Largest target is 10
		 -> NULL(NULL[0]), display(BANK1[10]), 

    _doprnt@ap	PTR PTR void  size(2) Largest target is 2
		 -> sprintf@ap(BANK3[1]), printf@ap(BANK0[1]), 

    _doprnt@f	PTR const unsigned char  size(1) Largest target is 5
		 -> STR_9(CODE[5]), STR_5(CODE[2]), STR_4(CODE[2]), STR_3(CODE[2]), 
		 -> STR_2(CODE[2]), STR_1(CODE[2]), 

    S1186__prbuf$func	PTR FTN(unsigned char ,)void  size(1) Largest target is 0
		 -> putch(), Absolute function(), 

    _doprnt@pb.func	PTR FTN(unsigned char ,)void  size(1) Largest target is 0
		 -> putch(), Absolute function(), 

    S1186__prbuf$ptr	PTR unsigned char  size(1) Largest target is 10
		 -> NULL(NULL[0]), display(BANK1[10]), 

    _doprnt@pb.ptr	PTR unsigned char  size(1) Largest target is 10
		 -> NULL(NULL[0]), display(BANK1[10]), 

    _doprnt@pb	PTR struct __prbuf size(2) Largest target is 3
		 -> sprintf@pb(BANK3[2]), printf@pb(BANK0[2]), 

    S1212$_cp	PTR const unsigned char  size(1) Largest target is 0

    _val._str._cp	PTR const unsigned char  size(1) Largest target is 0

    LCD_WriteString@Str	PTR const unsigned char  size(1) Largest target is 17
		 -> STR_8(CODE[17]), 

    USART_WriteString@str	PTR const unsigned char  size(2) Largest target is 40
		 -> STR_11(CODE[40]), STR_10(CODE[3]), display(BANK1[10]), STR_7(CODE[20]), 
		 -> STR_6(CODE[29]), 


Critical Paths under _main in COMMON

    None.

Critical Paths under _ISR in COMMON

    _ISR->i1_PWM_DutyCycle2
    i1__doprnt->i1___lwmod
    i1___lwmod->i1___lwdiv
    ___ftdiv->___lwtoft
    ___lwtoft->___ftpack
    ___fttol->___lwtoft
    ___ftmul->___lwtoft

Critical Paths under _main in BANK0

    None.

Critical Paths under _ISR in BANK0

    _ISR->_trapezoidal
    i1_PWM_DutyCycle2->___fttol
    _trapezoidal->___ftneg
    _printf->i1__doprnt
    ___ftneg->___ftadd
    ___ftadd->___ftmul
    ___fttol->___ftmul
    ___ftmul->___ftdiv

Critical Paths under _main in BANK1

    None.

Critical Paths under _ISR in BANK1

    None.

Critical Paths under _main in BANK3

    _main->_sprintf
    _sprintf->__doprnt
    __doprnt->___lwmod
    ___lwmod->___lwdiv
    _USART_WriteString->_USART_WriteChar
    _USART_Init->___aldiv
    _LCD_WriteString->_LCD_WriteData
    _LCD_Init->_LCD_WriteCmd

Critical Paths under _ISR in BANK3

    None.

Critical Paths under _main in BANK2

    None.

Critical Paths under _ISR in BANK2

    None.

Call Graph Tables:

 ---------------------------------------------------------------------------------
 (Depth) Function   	        Calls       Base Space   Used Autos Params    Refs
 ---------------------------------------------------------------------------------
 (0) _main                                                 3     3      0   10016
                                             40 BANK3      3     3      0
                           _ADC_Init
                         _LCD_Cursor
                           _LCD_Init
                    _LCD_WriteString
                     _PWM_DutyCycle1
                     _PWM_DutyCycle2
                           _PWM_Init
                        _TIMER0_Init
                         _TIMER0_Set
                         _USART_Init
                  _USART_WriteString
                            _sprintf
 ---------------------------------------------------------------------------------
 (1) _sprintf                                              8     5      3    8063
                                             32 BANK3      8     5      3
                            __doprnt
 ---------------------------------------------------------------------------------
 (2) __doprnt                                             17    12      5    6421
                                             15 BANK3     17    12      5
                   Absolute function *
                            ___lwdiv
                            ___lwmod
                             ___wmul
                            _isdigit
                              _putch *
 ---------------------------------------------------------------------------------
 (3) _putch                                                1     0      1     324
                                              1 BANK3      1     0      1
 ---------------------------------------------------------------------------------
 (3) _isdigit                                              2     2      0      99
                                              1 BANK3      2     2      0
 ---------------------------------------------------------------------------------
 (3) ___wmul                                               6     2      4     290
                                              1 BANK3      6     2      4
 ---------------------------------------------------------------------------------
 (3) ___lwmod                                              6     2      4     386
                                              9 BANK3      6     2      4
                            ___lwdiv (ARG)
 ---------------------------------------------------------------------------------
 (3) ___lwdiv                                              8     4      4     395
                                              1 BANK3      8     4      4
 ---------------------------------------------------------------------------------
 (8) Absolute function(Fake)                               1     0      1       0
                                              1 BANK3      1     0      1
 ---------------------------------------------------------------------------------
 (1) _USART_WriteString                                    2     0      2     481
                                              2 BANK3      2     0      2
                    _USART_WriteChar
 ---------------------------------------------------------------------------------
 (2) _USART_WriteChar                                      1     1      0      31
                                              1 BANK3      1     1      0
 ---------------------------------------------------------------------------------
 (1) _USART_Init                                           8     4      4     707
                                             16 BANK3      8     4      4
                            ___aldiv
 ---------------------------------------------------------------------------------
 (2) ___aldiv                                             15     7      8     599
                                              1 BANK3     15     7      8
 ---------------------------------------------------------------------------------
 (1) _TIMER0_Set                                           1     1      0      31
                                              1 BANK3      1     1      0
 ---------------------------------------------------------------------------------
 (1) _TIMER0_Init                                          0     0      0       0
 ---------------------------------------------------------------------------------
 (1) _PWM_Init                                             0     0      0       0
 ---------------------------------------------------------------------------------
 (1) _PWM_DutyCycle2                                       4     2      2     265
                                              1 BANK3      4     2      2
 ---------------------------------------------------------------------------------
 (1) _PWM_DutyCycle1                                       4     2      2     139
                                              1 BANK3      4     2      2
 ---------------------------------------------------------------------------------
 (1) _LCD_WriteString                                      2     2      0     129
                                              3 BANK3      2     2      0
                      _LCD_WriteData
 ---------------------------------------------------------------------------------
 (2) _LCD_WriteData                                        2     2      0      31
                                              1 BANK3      2     2      0
 ---------------------------------------------------------------------------------
 (1) _LCD_Init                                             2     2      0      31
                                              3 BANK3      2     2      0
                       _LCD_WriteCmd
 ---------------------------------------------------------------------------------
 (2) _LCD_WriteCmd                                         2     2      0      31
                                              1 BANK3      2     2      0
 ---------------------------------------------------------------------------------
 (1) _LCD_Cursor                                           3     2      1     170
                                              1 BANK3      3     2      1
 ---------------------------------------------------------------------------------
 (1) _ADC_Init                                             0     0      0       0
 ---------------------------------------------------------------------------------
 Estimated maximum stack depth 8
 ---------------------------------------------------------------------------------
 (Depth) Function   	        Calls       Base Space   Used Autos Params    Refs
 ---------------------------------------------------------------------------------
 (4) _ISR                                                 52    52      0   44850
                                             63 BANK0      4     4      0
                                              0 BANK1     27    27      0
                            ___ftadd
                            ___ftdiv
                             ___ftge
                            ___ftmul
                            ___ftneg
                            ___fttol
                           ___lwtoft
                        _trapezoidal
                   i1_PWM_DutyCycle2
                       i1_TIMER0_Set
 ---------------------------------------------------------------------------------
 (5) i1_TIMER0_Set                                         1     1      0      22
                                              0 COMMON     1     1      0
 ---------------------------------------------------------------------------------
 (5) i1_PWM_DutyCycle2                                     4     2      2     122
                                             12 COMMON     2     2      0
                                             46 BANK0      2     0      2
                            ___ftmul (ARG)
                            ___fttol (ARG)
 ---------------------------------------------------------------------------------
 (5) _trapezoidal                                         15     0     15   22789
                                             48 BANK0     15     0     15
                            ___ftadd
                            ___ftdiv
                             ___ftge
                            ___ftmul (ARG)
                            ___ftneg
                           ___lwtoft (ARG)
                             _printf
 ---------------------------------------------------------------------------------
 (6) _printf                                               5     5      0    6906
                                             17 BANK0      5     5      0
                          i1__doprnt
 ---------------------------------------------------------------------------------
 (7) i1__doprnt                                           17    12      5    5396
                                              0 BANK0     17    12      5
                   Absolute function *
                          i1___lwdiv
                          i1___lwmod
                           i1___wmul
                          i1_isdigit
                            i1_putch *
 ---------------------------------------------------------------------------------
 (8) i1_putch                                              1     0      1     156
                                              0 COMMON     1     0      1
 ---------------------------------------------------------------------------------
 (8) i1_isdigit                                            2     2      0      68
                                              0 COMMON     2     2      0
 ---------------------------------------------------------------------------------
 (8) i1___wmul                                             6     2      4     144
                                              0 COMMON     6     2      4
 ---------------------------------------------------------------------------------
 (8) i1___lwmod                                            6     2      4     211
                                              8 COMMON     6     2      4
                          i1___lwdiv (ARG)
 ---------------------------------------------------------------------------------
 (8) i1___lwdiv                                            8     4      4     214
                                              0 COMMON     8     4      4
 ---------------------------------------------------------------------------------
 (8) Absolute function(Fake)                               1     0      1       0
                                              1 BANK3      1     0      1
 ---------------------------------------------------------------------------------
 (6) ___ftneg                                              3     0      3    1069
                                             45 BANK0      3     0      3
                            ___ftadd (ARG)
                            ___ftdiv (ARG)
                            ___ftmul (ARG)
 ---------------------------------------------------------------------------------
 (6) ___ftge                                              12     6      6    2184
                                              0 COMMON    12     6      6
 ---------------------------------------------------------------------------------
 (6) ___ftdiv                                             16    10      6    2968
                                              0 BANK0     16    10      6
                           ___ftpack
                           ___lwtoft (ARG)
 ---------------------------------------------------------------------------------
 (6) ___ftadd                                             13     7      6    6062
                                             32 BANK0     13     7      6
                            ___ftdiv (ARG)
                            ___ftmul (ARG)
                           ___ftpack
 ---------------------------------------------------------------------------------
 (5) ___lwtoft                                             4     1      3    2326
                                              8 COMMON     4     1      3
                           ___ftpack
 ---------------------------------------------------------------------------------
 (5) ___fttol                                             14    10      4     508
                                             32 BANK0     14    10      4
                            ___ftdiv (ARG)
                            ___ftmul (ARG)
                           ___lwtoft (ARG)
 ---------------------------------------------------------------------------------
 (5) ___ftmul                                             16    10      6    3910
                                             16 BANK0     16    10      6
                            ___ftdiv (ARG)
                           ___ftpack
                           ___lwtoft (ARG)
 ---------------------------------------------------------------------------------
 (7) ___ftpack                                             8     3      5    2048
                                              0 COMMON     8     3      5
 ---------------------------------------------------------------------------------
 Estimated maximum stack depth 8
 ---------------------------------------------------------------------------------

 Call Graph Graphs:

 _main (ROOT)
   _ADC_Init
   _LCD_Cursor
   _LCD_Init
     _LCD_WriteCmd
   _LCD_WriteString
     _LCD_WriteData
   _PWM_DutyCycle1
   _PWM_DutyCycle2
   _PWM_Init
   _TIMER0_Init
   _TIMER0_Set
   _USART_Init
     ___aldiv
   _USART_WriteString
     _USART_WriteChar
   _sprintf
     __doprnt
       Absolute function(Fake) *
       ___lwdiv *
       ___lwmod *
         ___lwdiv (ARG)
       ___wmul *
       _isdigit *
       _putch *

 _ISR (ROOT)
   ___ftadd
     ___ftdiv (ARG)
       ___ftpack
       ___lwtoft (ARG)
         ___ftpack
     ___ftmul (ARG)
       ___ftdiv (ARG)
         ___ftpack
         ___lwtoft (ARG)
           ___ftpack
       ___ftpack (ARG)
       ___lwtoft (ARG)
         ___ftpack
     ___ftpack (ARG)
   ___ftdiv
     ___ftpack
     ___lwtoft (ARG)
       ___ftpack
   ___ftge
   ___ftmul
     ___ftdiv (ARG)
       ___ftpack
       ___lwtoft (ARG)
         ___ftpack
     ___ftpack (ARG)
     ___lwtoft (ARG)
       ___ftpack
   ___ftneg
     ___ftadd (ARG)
       ___ftdiv (ARG)
         ___ftpack
         ___lwtoft (ARG)
           ___ftpack
       ___ftmul (ARG)
         ___ftdiv (ARG)
           ___ftpack
           ___lwtoft (ARG)
             ___ftpack
         ___ftpack (ARG)
         ___lwtoft (ARG)
           ___ftpack
       ___ftpack (ARG)
     ___ftdiv (ARG)
       ___ftpack
       ___lwtoft (ARG)
         ___ftpack
     ___ftmul (ARG)
       ___ftdiv (ARG)
         ___ftpack
         ___lwtoft (ARG)
           ___ftpack
       ___ftpack (ARG)
       ___lwtoft (ARG)
         ___ftpack
   ___fttol
     ___ftdiv (ARG)
       ___ftpack
       ___lwtoft (ARG)
         ___ftpack
     ___ftmul (ARG)
       ___ftdiv (ARG)
         ___ftpack
         ___lwtoft (ARG)
           ___ftpack
       ___ftpack (ARG)
       ___lwtoft (ARG)
         ___ftpack
     ___lwtoft (ARG)
       ___ftpack
   ___lwtoft
     ___ftpack
   _trapezoidal
     ___ftadd
       ___ftdiv (ARG)
         ___ftpack
         ___lwtoft (ARG)
           ___ftpack
       ___ftmul (ARG)
         ___ftdiv (ARG)
           ___ftpack
           ___lwtoft (ARG)
             ___ftpack
         ___ftpack (ARG)
         ___lwtoft (ARG)
           ___ftpack
       ___ftpack (ARG)
     ___ftdiv
       ___ftpack
       ___lwtoft (ARG)
         ___ftpack
     ___ftge
     ___ftmul (ARG)
       ___ftdiv (ARG)
         ___ftpack
         ___lwtoft (ARG)
           ___ftpack
       ___ftpack (ARG)
       ___lwtoft (ARG)
         ___ftpack
     ___ftneg (ARG)
       ___ftadd (ARG)
         ___ftdiv (ARG)
           ___ftpack
           ___lwtoft (ARG)
             ___ftpack
         ___ftmul (ARG)
           ___ftdiv (ARG)
             ___ftpack
             ___lwtoft (ARG)
               ___ftpack
           ___ftpack (ARG)
           ___lwtoft (ARG)
             ___ftpack
         ___ftpack (ARG)
       ___ftdiv (ARG)
         ___ftpack
         ___lwtoft (ARG)
           ___ftpack
       ___ftmul (ARG)
         ___ftdiv (ARG)
           ___ftpack
           ___lwtoft (ARG)
             ___ftpack
         ___ftpack (ARG)
         ___lwtoft (ARG)
           ___ftpack
     ___lwtoft (ARG)
       ___ftpack
     _printf (ARG)
       i1__doprnt
         Absolute function(Fake) *
         i1___lwdiv *
         i1___lwmod *
           i1___lwdiv (ARG)
         i1___wmul *
         i1_isdigit *
         i1_putch *
   i1_PWM_DutyCycle2
     ___ftmul (ARG)
       ___ftdiv (ARG)
         ___ftpack
         ___lwtoft (ARG)
           ___ftpack
       ___ftpack (ARG)
       ___lwtoft (ARG)
         ___ftpack
     ___fttol (ARG)
       ___ftdiv (ARG)
         ___ftpack
         ___lwtoft (ARG)
           ___ftpack
       ___ftmul (ARG)
         ___ftdiv (ARG)
           ___ftpack
           ___lwtoft (ARG)
             ___ftpack
         ___ftpack (ARG)
         ___lwtoft (ARG)
           ___ftpack
       ___lwtoft (ARG)
         ___ftpack
   i1_TIMER0_Set

 Address spaces:
Name               Size   Autos  Total    Cost      Usage
BANK3               60     2B      2B       9       44.8%
BITBANK3            60      0       0       8        0.0%
SFR3                 0      0       0       4        0.0%
BITSFR3              0      0       0       4        0.0%
BANK2               60      0       0      11        0.0%
BITBANK2            60      0       0      10        0.0%
SFR2                 0      0       0       5        0.0%
BITSFR2              0      0       0       5        0.0%
BANK1               50     1B      37       7       68.8%
BITBANK1            50      0       0       6        0.0%
SFR1                 0      0       0       2        0.0%
BITSFR1              0      0       0       2        0.0%
BANK0               50     43      4E       5       97.5%
BITBANK0            50      0       0       4        0.0%
SFR0                 0      0       0       1        0.0%
BITSFR0              0      0       0       1        0.0%
COMMON               E      E       E       1      100.0%
BITCOMMON            E      0       0       0        0.0%
CODE                 0      0       0       0        0.0%
DATA                 0      0      BE      12        0.0%
ABS                  0      0      BE       3        0.0%
NULL                 0      0       0       0        0.0%
STACK                0      0       0       2        0.0%
EEDATA             100      0       0       0        0.0%


Microchip Technology PIC Macro Assembler V1.33 build 59893 
Symbol Table                                                                                   Tue Nov 30 21:48:50 2021

         ?i1_PWM_DutyCycle2 004E                           pc 0002                 ?_LCD_Cursor 0191  
   __size_of_PWM_DutyCycle1 0021     __size_of_PWM_DutyCycle2 0021                 __CFG_CP$OFF 0000  
               _SSPSTATbits 0094                          _p1 00BB                          _p2 00BE  
                        _p3 00C1                          fsr 0004         ___wmul@multiplicand 0193  
        ??i1_PWM_DutyCycle2 007C            i1___wmul@product 0074                ___ftadd@exp1 004C  
              ___ftadd@exp2 004B                 _trapezoidal 089D               _contagens_tm0 00C4  
              ___ftadd@sign 004A                         l143 1027                         l413 0E39  
                       l524 11C4                         l395 0D6F                         l579 14C8  
                       _PR2 0092                __CFG_CPD$OFF 0000                         _ISR 0112  
                       _rpm 00C8                         fsr0 0004  __size_of_USART_WriteString 0031  
                       indf 0000                __CFG_FOSC$HS 0000           ??_LCD_WriteString 0193  
               i1__doprnt@c 0030                 i1__doprnt@f 0022                __CFG_LVP$OFF 0000  
                      ?_ISR 0070                ___ftdiv@cntr 002A                ___ftdiv@sign 002F  
        LCD_WriteString@Str 0194                        l3401 12E4                        l3405 12EF  
                      l3423 1266                        l3417 124A                        l3419 1258  
                      l3427 1271                        l3373 11BC                        l5301 0F2C  
                      l5221 0D7F                        l5213 0D6B                        l3367 1040  
                      l5303 0F38                        l3393 12C0                        l5321 0FE3  
                      l5313 0F79                        l5225 0D91                        l5209 0D53  
                      l3395 12CE                        l5235 0DCF                        l5219 0D74  
                      l5325 0F7F                        l5309 0F62                        l5245 0E04  
                      l5237 0DE6                        l3743 14E9                        l3735 14D9  
                      l5327 0D15                        l3761 153C                        l3753 1521  
                      l3745 14F9                        l5265 0E58                        l5257 0E2B  
                      l5249 0E0A                        l5329 0FFB                        l5275 0E88  
                      l5291 0EEB                        l5267 0E5C                        l3941 10F0  
                      l3757 152E                        l5293 0EEF                        l5285 0ECB  
                      l3927 10DB                        l3919 11DD                        l5279 0E9F  
                      l5519 16B8                        l5297 0F15                        l5289 0EE2  
                      STR_1 0889                        STR_2 088B                        STR_3 088D  
                      STR_4 088F                        STR_5 0891                        STR_6 0842  
                      STR_7 085F                        STR_8 0873                        STR_9 0884  
                      u4205 11CC                        u4305 124D                        u4235 12C3  
                      u5045 1143                        u4325 125E                        u5055 07C0  
                      u4255 12CF                        u4335 1267                        u4265 12DB  
                      u4275 12E5                        u4195 11C5                        u5095 1122  
                      u7207 13C7                        u7217 13D7                        u7227 13E5  
                      u4915 14FB                        u7237 13F1                        u4925 1510  
                      u7247 13FD                        u4935 1522                        u7257 140B  
                      u7177 16B1                        _OERR 00C1                        u7267 1419  
                      u7187 16F0                        u7277 1425                        u7197 1090  
                      u7287 1079                        u4895 14ED                        u7297 10E7  
                      u6825 0E21                        u6865 0E48                        _TMR0 0001  
                      _TMR1 000E                        _main 1618                ___ftpack@arg 0070  
              ___ftpack@exp 0073                        btemp 007E            __end_of_ADC_Init 1054  
                      ltemp 007E                        start 0012                        ttemp 007E  
                      wtemp 007E             __end_ofi1_putch 0004               ?_LCD_WriteCmd 0070  
             _LCD_WriteData 107F                ___ftmul@cntr 003E                ___ftmul@sign 003F  
   __end_of_USART_WriteChar 1032                i1__doprnt@ap 0023                       ??_ISR 005F  
              i1__doprnt@pb 0020                ___fttol@exp1 004D                ___fttol@lval 0049  
               ?_TIMER0_Set 0070            __end_of_LCD_Init 1428             __end_of___aldiv 1545  
                     ?_main 0070                       _EEADR 010D             __end_of___ftadd 1800  
                     STR_10 085C                       STR_11 081A               __CFG_WDTE$OFF 0000  
           __end_of___ftdiv 00F4             __end_of___ftneg 089D             __end_of___ftmul 1618  
                     _T1CON 0010             __end_of___fttol 14B6             __end_of___lwdiv 12F6  
                     i1l413 0B50             __end_of___lwmod 1278                       i1l524 117B  
                     i1l714 179F                       i1l395 0A86                       i1l691 13A2  
                     i1l685 1389                       _RCREG 001A                       _TMR1H 000F  
                     _TMR1L 000E                       _SPBRG 0099                       _PORTA 0005  
                     _PORTB 0006                       _PORTC 0007                       _PORTD 0008  
                     _PORTE 0009             __end_of__doprnt 1000                       _TRISA 0085  
                     _TRISB 0086                       _TRISC 0087                       _TRISD 0088  
                     _TRISE 0089                       _TXREG 0019                  i1isdigit@c 0071  
             __CFG_PWRTE$ON 0000          i1___lwmod@dividend 007A             __end_of_dpowers 081A  
           __end_of_isdigit 1042               ___ftpack@sign 0074                       _putch 00FF  
                     fpbase 0105              __CFG_BOREN$OFF 0000         __size_of_LCD_Cursor 0020  
                     pclath 000A            __end_of_PWM_Init 11B8            __end_ofi1___wmul 1194  
                     ltemp0 007E                       ltemp1 0082                       ltemp2 0086  
                     ltemp3 0080                       ttemp0 007E                       ttemp1 0081  
                     ttemp2 0084                       ttemp3 0087                       ttemp4 007F  
                     status 0003         i1___wmul@multiplier 0070                       wtemp0 007E  
                     wtemp1 0080                       wtemp2 0082                       wtemp3 0084  
                     wtemp4 0086                       wtemp5 0088                       wtemp6 007F  
           __end_of_sprintf 1171          __size_ofi1___lwdiv 003E          __size_ofi1___lwmod 0034  
            ??_LCD_WriteCmd 0191          __size_ofi1__doprnt 02E9              ?_LCD_WriteData 0070  
               ?_USART_Init 01A0       i1TIMER0_Set@contagens 0070             __initialization 0015  
              __end_of_main 16F7          __size_ofi1_isdigit 000E                      ??_main 01B8  
             ___fttol@sign1 0048                ?_TIMER0_Init 0070                      _ADRESH 001E  
                    _ADRESL 009E                      _EEDATA 010C                      _CCPR1L 0015  
                    _CCPR2L 001B                      _EECON2 018D                      ?_putch 0191  
          __end_of___ftpack 13BB                      i1l3103 15DA                      i1l2225 1173  
                    i1l2331 1373                      i1l2323 135B                      i1l3107 15EA  
                    i1l3123 1442                      i1l2243 1022                      i1l3141 1474  
                    i1l2327 1362                      i1l3151 149C                      i1l3143 1484  
                    i1l2337 138E                      i1l2329 136E                      i1l3073 155D  
                    i1l3153 149F                      i1l2265 12A4                      i1l2257 1280  
                    i1l2281 1214                      i1l2339 1398                      i1l3091 15B2  
                    i1l2259 128E                      i1l2283 1222                      i1l2291 123B  
                    i1l3157 14AD                      i1l3149 1491                      i1l2269 12AF  
                    i1l3095 15C2                      i1l3079 1573                      i1l2287 1230  
                    i1l5103 0B1B                      i1l5123 0B6F                      i1l5115 0B42  
                    i1l5107 0B21                      i1l5133 0B9F                      i1l5125 0B73  
                    i1l2743 1727                      i1l2815 006A                      i1l5151 0C06  
                    i1l5143 0BE2                      i1l5071 0A82                      i1l2761 1750  
                    i1l2809 0054                      i1l5161 0C4F                      i1l5137 0BB6  
                    i1l2771 1776                      i1l2739 1720                      i1l5155 0C2C  
                    i1l5147 0BF9                      i1l5171 0C90                      i1l5083 0AA8  
                    i1l5067 0A6A                      i1l2781 179B                      i1l2773 177A  
                    i1l2749 1736                      i1l2837 00CE                      i1l2829 00AF  
                    i1l2853 1344                      i1l5149 0C02                      i1l5093 0AE6  
                    i1l5077 0A8B                      i1l5341 08BF                      i1l5405 0131  
                    i1l2767 1765                      i1l5183 0C96                      i1l5167 0C79  
                    i1l5159 0C43                      i1l5095 0AFD                      i1l5079 0A96  
                    i1l5351 0949                      i1l2785 17B1                      i1l2769 1771  
                    i1l2849 131D                      i1l5185 0A2C                      i1l5361 0980  
                    i1l2779 178F                      i1l5179 0CF8                      i1l5187 0D10  
                    i1l5371 0A0A                      i1l2789 17C3                      i1l5461 076B  
                    i1l2799 17E6                      i1l5457 0740                      i1l5465 07A5  
                    i1l5467 07A6                      u222_25 1283                      u231_25 1228  
                    u224_25 128F                      u232_25 1231                      u216_25 117C  
                    u225_25 129B                      u217_25 1183                      u401_25 10A7  
                    u242_25 1367                      u226_25 12A5                      u244_25 1382  
                    u340_25 177B                      u229_25 1217                      u246_25 1391  
                    u334_25 1751                      u343_25 1790                      u351_25 007C  
                    u360_21 1337                      u360_22 1338                      u360_23 133D  
                    u360_24 133E                      u352_25 008E                      u249_25 13A9  
                    u337_25 1766                      u353_25 00B0            __end_of___lwtoft 1068  
                    u354_25 00C1                      u355_25 00CF                      u380_25 1591  
                    u358_21 1310                      u358_22 1311                      u358_23 1316  
                    u358_24 1317         __size_of_TIMER0_Set 0008                      u383_25 15C3  
                    u384_25 15CB                      u392_25 1449                      u379_25 157F  
                    u395_25 1475                      u388_25 15EB                   ??i1_putch 0071  
                    u389_25 15F3                      u661_25 0B5F                      u398_25 1493  
                    u657_25 0B38                  __i1fptable 0109                      _SSPADD 0093  
                    _SSPBUF 0013            __end_of__fptable 0109            LCD_WriteCmd@Byte 0192  
                    ___ftge 12F6                   ??___aldiv 0199                      ___wmul 11B8  
                 ??___ftadd 0046              _PWM_DutyCycle1 110D              _PWM_DutyCycle2 112E  
          ?_USART_WriteChar 0070                   ??___ftdiv 0026                   ??___ftneg 007C  
                 ??___ftmul 0036                   ??___fttol 0044                   ??___lwdiv 0195  
                 ??___lwmod 019D                   ??__doprnt 01A4                trapezoidal@a 0053  
              trapezoidal@b 0056                trapezoidal@c 0059                trapezoidal@d 005C  
              trapezoidal@x 0050                __doprnt@_val 01A8                __doprnt@flag 01AC  
                    _printf 10B1                __doprnt@prec 01A7                      _pulsos 00C6  
                    _status 006A       ___ftmul@f3_as_product 003B                      fptable 0100  
         __end_ofi1___lwdiv 12B6                      fptotal 0001           __end_ofi1___lwmod 1242  
                 ??_isdigit 0191                   ?_ADC_Init 0070           __end_ofi1__doprnt 0D15  
                    saved_w 007E         __size_of_USART_Init 004B                      putch@c 0191  
                 ??_sprintf 01B3           __end_ofi1_isdigit 1024               ?i1_TIMER0_Set 0070  
   __end_of__initialization 0038                   ?_LCD_Init 0070                  ___ftadd@f1 0040  
                ___ftadd@f2 0043             ??_LCD_WriteData 0191                  ___ftge@ff1 0070  
                ___ftge@ff2 0073                  ___ftdiv@f1 0023                  ___ftdiv@f2 0020  
                ___ftdiv@f3 002B                  ___ftneg@f1 004D      __end_of_PWM_DutyCycle1 112E  
    __end_of_PWM_DutyCycle2 114F                  ___ftmul@f1 0030                  ___ftmul@f2 0033  
                ___fttol@f1 0040              __pcstackCOMMON 0070                __pidataBANK1 1FFD  
             LCD_Cursor@Col 0191               LCD_Cursor@Row 0193                ??_LCD_Cursor 0192  
           _LCD_WriteString 10ED               __end_of_putch 0100                ?_trapezoidal 0050  
                ___lwtoft@c 0078                   ?_PWM_Init 0070                   ?i1___wmul 0070  
            i1__doprnt@_val 0029              i1__doprnt@flag 002D              _OPTION_REGbits 0081  
            i1__doprnt@prec 0028                  ??_ADC_Init 0191        __end_of_LCD_WriteCmd 107F  
 __size_ofi1_PWM_DutyCycle2 001B                  __doprnt@ap 01A2                  __doprnt@pb 019F  
            ??i1_TIMER0_Set 0070                     ??_putch 0192                  __pbssBANK0 0063  
                __pbssBANK1 00BB          __end_of_LCD_Cursor 10ED                  ??_LCD_Init 0193  
           ?_PWM_DutyCycle1 0191             ?_PWM_DutyCycle2 0191                  __pmaintext 1618  
                   ?___ftge 0070                     ?___wmul 0191                  __pintentry 0004  
              ??_TIMER0_Set 0191                     _CCP1CON 0017                     _CCP2CON 001D  
                 ?___ftpack 0070                     ?_printf 0070                  ??_PWM_Init 0191  
                ??i1___wmul 0074                   ?___lwtoft 0078        __size_of_TIMER0_Init 000B  
                   _SSPCON2 0091                  __stringtab 0800                     i1_putch 0003  
                   i1fpbase 010E          __end_of_TIMER0_Set 100E     __end_of_LCD_WriteString 110D  
                 _ADCResult 0066                ??_USART_Init 01A4           LCD_WriteData@Byte 0192  
                   ___aldiv 14B6             __size_of___ftge 005D                     ___ftadd 16F7  
                   ___ftdiv 003C                     ___ftneg 0893             __size_of___wmul 0025  
                   ___ftmul 1545                     ___fttol 1428                     ___lwdiv 12B6  
                   ___lwmod 1242                     __doprnt 0D15                  ??___ftpack 0075  
                   __ptext1 114F                     __ptext2 0D15                     __ptext3 00FF  
                   __ptext4 1032                     __ptext5 11B8                     __ptext6 1242  
                   __ptext7 12B6                     __ptext8 11DD                     __ptext9 1024  
           __size_of_printf 001C                  ??___lwtoft 007B                     _display 00CA  
       __size_of__i1fptable 0009                __size_of_ISR 06A3                   _T1CONbits 0010  
                   _dpowers 0810           i1___lwdiv@divisor 0070                   _T2CONbits 0012  
                   _isdigit 1032           i1___lwdiv@counter 0077            ___aldiv@dividend 0195  
        __end_of_USART_Init 0800                     _sprintf 114F                     clrloop0 100F  
             __doprnt@width 01AD        end_of_initialization 0038                  fp_i1_putch 010F  
                 _RCSTAbits 0018                     printf@f 0032            ___aldiv@quotient 019C  
      __end_ofi1_TIMER0_Set 1006       i1___wmul@multiplicand 0072       __size_of_LCD_WriteCmd 0017  
                 _PORTBbits 0006                   _PORTEbits 0009        __size_of_trapezoidal 018F  
          i1_PWM_DutyCycle2 1096           __size_of_ADC_Init 0012                   i1___lwdiv 1278  
                 i1___lwmod 120E                   i1__doprnt 0A2C                _contador_rb6 0068  
       PWM_DutyCycle1@valor 0191         PWM_DutyCycle2@valor 0191                 _CCP1CONbits 0017  
               ___ftdiv@exp 002E                 _CCP2CONbits 001D                   _TXSTAbits 0098  
                 i1_isdigit 1016            ?_LCD_WriteString 0070           __size_of_LCD_Init 006D  
              _LCD_WriteCmd 1068                 ___ftmul@exp 003A              __end_of___ftge 1353  
            __end_of___wmul 11DD           i1___lwmod@divisor 0078           i1___lwmod@counter 007D  
            __end_of_printf 10CD    __size_of_USART_WriteChar 000E           __size_of_PWM_Init 0024  
       start_initialization 0015           __size_ofi1___wmul 0023                 __end_of_ISR 07B5  
                ?i1___lwdiv 0070                  ?i1___lwmod 0078                  ?i1__doprnt 0020  
          ??_PWM_DutyCycle1 0193            ??_PWM_DutyCycle2 0193             i1__doprnt@width 002E  
                ?i1_isdigit 0070       __end_of_LCD_WriteData 1096                    ??___ftge 0076  
                  ??___wmul 0195                 __pdataBANK1 00D4                    ??_printf 0031  
        __end_of__i1fptable 0112           __size_of___ftpack 0068                   ___latbits 0002  
         __size_of___lwtoft 0014               __pcstackBANK0 0020               __pcstackBANK1 00A0  
             __pcstackBANK3 0190         __end_of__stringdata 0893           __size_of__fptable 0009  
              _isdigit$1415 0191                    ?i1_putch 0070                   __doprnt@c 01AF  
                 __doprnt@f 01A1       __size_ofi1_TIMER0_Set 0006            ___lwdiv@dividend 0193  
       TIMER0_Set@contagens 0191                   __pfunctab 0100                    ?___aldiv 0191  
                  ?___ftadd 0040                    ?___ftdiv 0020                    ?___ftneg 004D  
                  ?___ftmul 0030                    ?___fttol 0040                    ?___lwdiv 0191  
                  ?___lwmod 0199                    ?__doprnt 019F                   __pstrings 0800  
             ??_TIMER0_Init 0191          USART_Init@BaudRate 01A0                    ?_isdigit 0070  
                  _ADC_Init 1042            ___lwdiv@quotient 0197                 ??i1___lwdiv 0074  
               ??i1___lwmod 007C                    ?_sprintf 01B0                 ??i1__doprnt 0025  
            __size_of_putch 0001                    _ISR$1740 00A6                    _ISR$1733 00B5  
                  _ISR$1741 00A9                    _ISR$1734 00AC                    _ISR$1735 00AF  
                  _ISR$1736 00B8           ??_USART_WriteChar 0191                    _ISR$1737 00A0  
                  _ISR$1738 00B2                    _ISR$1739 00A3              i1_isdigit$1415 0070  
              i1_TIMER0_Set 1000             ___aldiv@divisor 0191           interrupt_function 0004  
           ___aldiv@counter 019A                    _LCD_Init 13BB              ___wmul@product 0195  
               ??i1_isdigit 0070                   clear_ram0 100E                    _PIE1bits 008C  
                  _PIE2bits 008D                    _PIR1bits 000C                    _PIR2bits 000D  
                 _temp_lida 0063    __end_ofi1_PWM_DutyCycle2 10B1                   _tempo_rb6 006C  
                _ADCON0bits 001F                 __stringbase 080F                  _ADCON1bits 009F  
               __stringdata 081A                    _PWM_Init 1194           ___wmul@multiplier 0191  
                  i1___wmul 1171         __end_of_TIMER0_Init 00FF                    i1fptable 0109  
                  i1fptotal 0001                    i1putch@c 0070            __size_ofi1_putch 0001  
                _EECON1bits 018C            __size_of___aldiv 008F            __size_of___ftadd 0109  
          __size_of___ftdiv 00B8            __size_of___ftneg 000A            __size_of___ftmul 00D3  
          __size_of___fttol 008E            __size_of___lwdiv 0040            __size_of___lwmod 0036  
                  ___ftpack 1353               ??_trapezoidal 007E            __size_of__doprnt 02EB  
        __end_of__stringtab 0810                    ___lwtoft 1054                    __fptable 0100  
          __size_of_isdigit 0010             ___lwdiv@divisor 0191             ___lwdiv@counter 0196  
         _USART_WriteString 11DD                    __ptext10 07B5                    __ptext11 14B6  
                  __ptext20 1068                    __ptext12 1006                    __ptext21 10CD  
                  __ptext13 00F4                    __ptext30 1016                    __ptext22 1042  
                  __ptext14 1194                    __ptext31 1171                    __ptext23 0112  
                  __ptext15 112E                    __ptext40 1545                    __ptext32 120E  
                  __ptext24 1000                    __ptext16 110D                    __ptext41 1353  
                  __ptext33 1278                    __ptext25 1096                    __ptext17 10ED  
                  __ptext34 0893                    __ptext26 089D                    __ptext18 107F  
                  __ptext35 12F6                    __ptext27 10B1                    __ptext19 13BB  
                  __ptext36 003C                    __ptext28 0A2C                    __ptext37 16F7  
                  __ptext29 0003                    __ptext38 1054                    __ptext39 1428  
        ?_USART_WriteString 0192            __size_of_sprintf 0022          i1___lwdiv@dividend 0072  
             __size_of_main 00DF         USART_WriteChar@byte 0191         ??_USART_WriteString 0194  
                _LCD_Cursor 10CD                    fp__putch 0106    __size_of_LCD_WriteString 0020  
        i1___lwdiv@quotient 0075                 _TIMER0_Init 00F4                  _INTCONbits 000B  
 __end_of_USART_WriteString 120E         __end_of_trapezoidal 0A2C                    isdigit@c 0192  
                  intlevel1 0100                   sprintf@ap 01B5                   sprintf@pb 01B6  
                 sprintf@wh 01B4            ___lwmod@dividend 019B                   stringcode 080A  
                  printf@ap 0033                    printf@pb 0034        USART_WriteString@str 0192  
                _TIMER0_Set 1006                 _requiredRpm 00D4             _USART_WriteChar 1024  
                  sprintf@f 01B0             ___lwmod@divisor 0199             ___lwmod@counter 019E  
                  stringdir 080A                    stringtab 0800                ___aldiv@sign 019B  
    __size_of_LCD_WriteData 0017                 _SSPCON2bits 0091       i1PWM_DutyCycle2@valor 004E  
                _SSPCONbits 0014                  _USART_Init 07B5  
