

Microchip Technology PIC LITE Macro Assembler V1.33 build 59893 
                                                                                               Thu Nov 18 21:57:37 2021

Microchip Technology Omniscient Code Generator (Lite mode) build 59893
     1                           	processor	16F877A
     2                           	opt	pw 120
     3                           	opt	lm
     4                           	psect	strings,global,class=STRING,delta=2
     5                           	psect	cinit,global,class=CODE,merge=1,delta=2
     6                           	psect	bssBANK1,global,class=BANK1,space=1,delta=1
     7                           	psect	clrtext,global,class=CODE,delta=2
     8                           	psect	cstackBANK1,global,class=BANK1,space=1,delta=1
     9                           	psect	cstackCOMMON,global,class=COMMON,space=1,delta=1
    10                           	psect	cstackBANK0,global,class=BANK0,space=1,delta=1
    11                           	psect	maintext,global,class=CODE,split=1,delta=2
    12                           	psect	text1,local,class=CODE,merge=1,delta=2
    13                           	psect	text2,local,class=CODE,merge=1,delta=2
    14                           	psect	text3,local,class=CODE,merge=1,delta=2
    15                           	psect	text4,local,class=CODE,merge=1,delta=2
    16                           	psect	text5,local,class=CODE,merge=1,delta=2
    17                           	psect	text6,local,class=CODE,merge=1,delta=2
    18                           	psect	text7,local,class=CODE,merge=1,delta=2
    19                           	psect	text8,local,class=CODE,merge=1,delta=2
    20                           	psect	text9,local,class=CODE,merge=1,delta=2
    21                           	psect	text10,local,class=CODE,merge=1,delta=2
    22                           	psect	text11,local,class=CODE,merge=1,delta=2
    23                           	psect	text12,local,class=CODE,merge=1,delta=2
    24                           	psect	text13,local,class=CODE,merge=1,delta=2
    25                           	psect	text14,local,class=CODE,merge=1,delta=2
    26                           	psect	text15,local,class=CODE,merge=1,delta=2
    27                           	psect	text16,local,class=CODE,merge=1,delta=2
    28                           	psect	text17,local,class=CODE,merge=1,delta=2
    29                           	psect	text18,local,class=CODE,merge=1,delta=2
    30                           	psect	text19,local,class=CODE,merge=1,delta=2
    31                           	psect	text20,local,class=CODE,merge=1,delta=2
    32                           	psect	text21,local,class=CODE,merge=1,delta=2
    33                           	psect	text22,local,class=CODE,merge=1,delta=2
    34                           	psect	text23,local,class=CODE,merge=1,delta=2
    35                           	psect	text24,local,class=CODE,merge=1,delta=2
    36                           	psect	intentry,global,class=CODE,delta=2
    37                           	psect	text25,local,class=CODE,merge=1,delta=2
    38                           	psect	text26,local,class=CODE,merge=1,delta=2
    39                           	psect	text27,local,class=CODE,merge=1,delta=2
    40                           	psect	text28,local,class=CODE,merge=1,delta=2
    41                           	psect	text29,local,class=CODE,merge=1,delta=2
    42                           	psect	text30,local,class=CODE,merge=1,delta=2
    43                           	psect	text31,local,class=CODE,merge=1,delta=2
    44                           	psect	text32,local,class=CODE,merge=1,delta=2
    45                           	psect	text33,local,class=CODE,merge=1,delta=2
    46                           	psect	text34,local,class=CODE,merge=1,delta=2
    47                           	psect	text35,local,class=CODE,merge=1,delta=2
    48                           	psect	functab,global,reloc=256,class=CODE,delta=2
    49                           	dabs	1,0x7E,2
    50  0000                     	;# 
    51  0001                     	;# 
    52  0002                     	;# 
    53  0003                     	;# 
    54  0004                     	;# 
    55  0005                     	;# 
    56  0006                     	;# 
    57  0007                     	;# 
    58  0008                     	;# 
    59  0009                     	;# 
    60  000A                     	;# 
    61  000B                     	;# 
    62  000C                     	;# 
    63  000D                     	;# 
    64  000E                     	;# 
    65  000E                     	;# 
    66  000F                     	;# 
    67  0010                     	;# 
    68  0011                     	;# 
    69  0012                     	;# 
    70  0013                     	;# 
    71  0014                     	;# 
    72  0015                     	;# 
    73  0015                     	;# 
    74  0016                     	;# 
    75  0017                     	;# 
    76  0018                     	;# 
    77  0019                     	;# 
    78  001A                     	;# 
    79  001B                     	;# 
    80  001B                     	;# 
    81  001C                     	;# 
    82  001D                     	;# 
    83  001E                     	;# 
    84  001F                     	;# 
    85  0081                     	;# 
    86  0085                     	;# 
    87  0086                     	;# 
    88  0087                     	;# 
    89  0088                     	;# 
    90  0089                     	;# 
    91  008C                     	;# 
    92  008D                     	;# 
    93  008E                     	;# 
    94  0091                     	;# 
    95  0092                     	;# 
    96  0093                     	;# 
    97  0094                     	;# 
    98  0098                     	;# 
    99  0099                     	;# 
   100  009C                     	;# 
   101  009D                     	;# 
   102  009E                     	;# 
   103  009F                     	;# 
   104  010C                     	;# 
   105  010D                     	;# 
   106  010E                     	;# 
   107  010F                     	;# 
   108  018C                     	;# 
   109  018D                     	;# 
   110  0000                     	;# 
   111  0001                     	;# 
   112  0002                     	;# 
   113  0003                     	;# 
   114  0004                     	;# 
   115  0005                     	;# 
   116  0006                     	;# 
   117  0007                     	;# 
   118  0008                     	;# 
   119  0009                     	;# 
   120  000A                     	;# 
   121  000B                     	;# 
   122  000C                     	;# 
   123  000D                     	;# 
   124  000E                     	;# 
   125  000E                     	;# 
   126  000F                     	;# 
   127  0010                     	;# 
   128  0011                     	;# 
   129  0012                     	;# 
   130  0013                     	;# 
   131  0014                     	;# 
   132  0015                     	;# 
   133  0015                     	;# 
   134  0016                     	;# 
   135  0017                     	;# 
   136  0018                     	;# 
   137  0019                     	;# 
   138  001A                     	;# 
   139  001B                     	;# 
   140  001B                     	;# 
   141  001C                     	;# 
   142  001D                     	;# 
   143  001E                     	;# 
   144  001F                     	;# 
   145  0081                     	;# 
   146  0085                     	;# 
   147  0086                     	;# 
   148  0087                     	;# 
   149  0088                     	;# 
   150  0089                     	;# 
   151  008C                     	;# 
   152  008D                     	;# 
   153  008E                     	;# 
   154  0091                     	;# 
   155  0092                     	;# 
   156  0093                     	;# 
   157  0094                     	;# 
   158  0098                     	;# 
   159  0099                     	;# 
   160  009C                     	;# 
   161  009D                     	;# 
   162  009E                     	;# 
   163  009F                     	;# 
   164  010C                     	;# 
   165  010D                     	;# 
   166  010E                     	;# 
   167  010F                     	;# 
   168  018C                     	;# 
   169  018D                     	;# 
   170  0000                     	;# 
   171  0001                     	;# 
   172  0002                     	;# 
   173  0003                     	;# 
   174  0004                     	;# 
   175  0005                     	;# 
   176  0006                     	;# 
   177  0007                     	;# 
   178  0008                     	;# 
   179  0009                     	;# 
   180  000A                     	;# 
   181  000B                     	;# 
   182  000C                     	;# 
   183  000D                     	;# 
   184  000E                     	;# 
   185  000E                     	;# 
   186  000F                     	;# 
   187  0010                     	;# 
   188  0011                     	;# 
   189  0012                     	;# 
   190  0013                     	;# 
   191  0014                     	;# 
   192  0015                     	;# 
   193  0015                     	;# 
   194  0016                     	;# 
   195  0017                     	;# 
   196  0018                     	;# 
   197  0019                     	;# 
   198  001A                     	;# 
   199  001B                     	;# 
   200  001B                     	;# 
   201  001C                     	;# 
   202  001D                     	;# 
   203  001E                     	;# 
   204  001F                     	;# 
   205  0081                     	;# 
   206  0085                     	;# 
   207  0086                     	;# 
   208  0087                     	;# 
   209  0088                     	;# 
   210  0089                     	;# 
   211  008C                     	;# 
   212  008D                     	;# 
   213  008E                     	;# 
   214  0091                     	;# 
   215  0092                     	;# 
   216  0093                     	;# 
   217  0094                     	;# 
   218  0098                     	;# 
   219  0099                     	;# 
   220  009C                     	;# 
   221  009D                     	;# 
   222  009E                     	;# 
   223  009F                     	;# 
   224  010C                     	;# 
   225  010D                     	;# 
   226  010E                     	;# 
   227  010F                     	;# 
   228  018C                     	;# 
   229  018D                     	;# 
   230  0000                     	;# 
   231  0001                     	;# 
   232  0002                     	;# 
   233  0003                     	;# 
   234  0004                     	;# 
   235  0005                     	;# 
   236  0006                     	;# 
   237  0007                     	;# 
   238  0008                     	;# 
   239  0009                     	;# 
   240  000A                     	;# 
   241  000B                     	;# 
   242  000C                     	;# 
   243  000D                     	;# 
   244  000E                     	;# 
   245  000E                     	;# 
   246  000F                     	;# 
   247  0010                     	;# 
   248  0011                     	;# 
   249  0012                     	;# 
   250  0013                     	;# 
   251  0014                     	;# 
   252  0015                     	;# 
   253  0015                     	;# 
   254  0016                     	;# 
   255  0017                     	;# 
   256  0018                     	;# 
   257  0019                     	;# 
   258  001A                     	;# 
   259  001B                     	;# 
   260  001B                     	;# 
   261  001C                     	;# 
   262  001D                     	;# 
   263  001E                     	;# 
   264  001F                     	;# 
   265  0081                     	;# 
   266  0085                     	;# 
   267  0086                     	;# 
   268  0087                     	;# 
   269  0088                     	;# 
   270  0089                     	;# 
   271  008C                     	;# 
   272  008D                     	;# 
   273  008E                     	;# 
   274  0091                     	;# 
   275  0092                     	;# 
   276  0093                     	;# 
   277  0094                     	;# 
   278  0098                     	;# 
   279  0099                     	;# 
   280  009C                     	;# 
   281  009D                     	;# 
   282  009E                     	;# 
   283  009F                     	;# 
   284  010C                     	;# 
   285  010D                     	;# 
   286  010E                     	;# 
   287  010F                     	;# 
   288  018C                     	;# 
   289  018D                     	;# 
   290  0000                     	;# 
   291  0001                     	;# 
   292  0002                     	;# 
   293  0003                     	;# 
   294  0004                     	;# 
   295  0005                     	;# 
   296  0006                     	;# 
   297  0007                     	;# 
   298  0008                     	;# 
   299  0009                     	;# 
   300  000A                     	;# 
   301  000B                     	;# 
   302  000C                     	;# 
   303  000D                     	;# 
   304  000E                     	;# 
   305  000E                     	;# 
   306  000F                     	;# 
   307  0010                     	;# 
   308  0011                     	;# 
   309  0012                     	;# 
   310  0013                     	;# 
   311  0014                     	;# 
   312  0015                     	;# 
   313  0015                     	;# 
   314  0016                     	;# 
   315  0017                     	;# 
   316  0018                     	;# 
   317  0019                     	;# 
   318  001A                     	;# 
   319  001B                     	;# 
   320  001B                     	;# 
   321  001C                     	;# 
   322  001D                     	;# 
   323  001E                     	;# 
   324  001F                     	;# 
   325  0081                     	;# 
   326  0085                     	;# 
   327  0086                     	;# 
   328  0087                     	;# 
   329  0088                     	;# 
   330  0089                     	;# 
   331  008C                     	;# 
   332  008D                     	;# 
   333  008E                     	;# 
   334  0091                     	;# 
   335  0092                     	;# 
   336  0093                     	;# 
   337  0094                     	;# 
   338  0098                     	;# 
   339  0099                     	;# 
   340  009C                     	;# 
   341  009D                     	;# 
   342  009E                     	;# 
   343  009F                     	;# 
   344  010C                     	;# 
   345  010D                     	;# 
   346  010E                     	;# 
   347  010F                     	;# 
   348  018C                     	;# 
   349  018D                     	;# 
   350  0000                     	;# 
   351  0001                     	;# 
   352  0002                     	;# 
   353  0003                     	;# 
   354  0004                     	;# 
   355  0005                     	;# 
   356  0006                     	;# 
   357  0007                     	;# 
   358  0008                     	;# 
   359  0009                     	;# 
   360  000A                     	;# 
   361  000B                     	;# 
   362  000C                     	;# 
   363  000D                     	;# 
   364  000E                     	;# 
   365  000E                     	;# 
   366  000F                     	;# 
   367  0010                     	;# 
   368  0011                     	;# 
   369  0012                     	;# 
   370  0013                     	;# 
   371  0014                     	;# 
   372  0015                     	;# 
   373  0015                     	;# 
   374  0016                     	;# 
   375  0017                     	;# 
   376  0018                     	;# 
   377  0019                     	;# 
   378  001A                     	;# 
   379  001B                     	;# 
   380  001B                     	;# 
   381  001C                     	;# 
   382  001D                     	;# 
   383  001E                     	;# 
   384  001F                     	;# 
   385  0081                     	;# 
   386  0085                     	;# 
   387  0086                     	;# 
   388  0087                     	;# 
   389  0088                     	;# 
   390  0089                     	;# 
   391  008C                     	;# 
   392  008D                     	;# 
   393  008E                     	;# 
   394  0091                     	;# 
   395  0092                     	;# 
   396  0093                     	;# 
   397  0094                     	;# 
   398  0098                     	;# 
   399  0099                     	;# 
   400  009C                     	;# 
   401  009D                     	;# 
   402  009E                     	;# 
   403  009F                     	;# 
   404  010C                     	;# 
   405  010D                     	;# 
   406  010E                     	;# 
   407  010F                     	;# 
   408  018C                     	;# 
   409  018D                     	;# 
   410  0000                     	;# 
   411  0001                     	;# 
   412  0002                     	;# 
   413  0003                     	;# 
   414  0004                     	;# 
   415  0005                     	;# 
   416  0006                     	;# 
   417  0007                     	;# 
   418  0008                     	;# 
   419  0009                     	;# 
   420  000A                     	;# 
   421  000B                     	;# 
   422  000C                     	;# 
   423  000D                     	;# 
   424  000E                     	;# 
   425  000E                     	;# 
   426  000F                     	;# 
   427  0010                     	;# 
   428  0011                     	;# 
   429  0012                     	;# 
   430  0013                     	;# 
   431  0014                     	;# 
   432  0015                     	;# 
   433  0015                     	;# 
   434  0016                     	;# 
   435  0017                     	;# 
   436  0018                     	;# 
   437  0019                     	;# 
   438  001A                     	;# 
   439  001B                     	;# 
   440  001B                     	;# 
   441  001C                     	;# 
   442  001D                     	;# 
   443  001E                     	;# 
   444  001F                     	;# 
   445  0081                     	;# 
   446  0085                     	;# 
   447  0086                     	;# 
   448  0087                     	;# 
   449  0088                     	;# 
   450  0089                     	;# 
   451  008C                     	;# 
   452  008D                     	;# 
   453  008E                     	;# 
   454  0091                     	;# 
   455  0092                     	;# 
   456  0093                     	;# 
   457  0094                     	;# 
   458  0098                     	;# 
   459  0099                     	;# 
   460  009C                     	;# 
   461  009D                     	;# 
   462  009E                     	;# 
   463  009F                     	;# 
   464  010C                     	;# 
   465  010D                     	;# 
   466  010E                     	;# 
   467  010F                     	;# 
   468  018C                     	;# 
   469  018D                     	;# 
   470  0000                     	;# 
   471  0001                     	;# 
   472  0002                     	;# 
   473  0003                     	;# 
   474  0004                     	;# 
   475  0005                     	;# 
   476  0006                     	;# 
   477  0007                     	;# 
   478  0008                     	;# 
   479  0009                     	;# 
   480  000A                     	;# 
   481  000B                     	;# 
   482  000C                     	;# 
   483  000D                     	;# 
   484  000E                     	;# 
   485  000E                     	;# 
   486  000F                     	;# 
   487  0010                     	;# 
   488  0011                     	;# 
   489  0012                     	;# 
   490  0013                     	;# 
   491  0014                     	;# 
   492  0015                     	;# 
   493  0015                     	;# 
   494  0016                     	;# 
   495  0017                     	;# 
   496  0018                     	;# 
   497  0019                     	;# 
   498  001A                     	;# 
   499  001B                     	;# 
   500  001B                     	;# 
   501  001C                     	;# 
   502  001D                     	;# 
   503  001E                     	;# 
   504  001F                     	;# 
   505  0081                     	;# 
   506  0085                     	;# 
   507  0086                     	;# 
   508  0087                     	;# 
   509  0088                     	;# 
   510  0089                     	;# 
   511  008C                     	;# 
   512  008D                     	;# 
   513  008E                     	;# 
   514  0091                     	;# 
   515  0092                     	;# 
   516  0093                     	;# 
   517  0094                     	;# 
   518  0098                     	;# 
   519  0099                     	;# 
   520  009C                     	;# 
   521  009D                     	;# 
   522  009E                     	;# 
   523  009F                     	;# 
   524  010C                     	;# 
   525  010D                     	;# 
   526  010E                     	;# 
   527  010F                     	;# 
   528  018C                     	;# 
   529  018D                     	;# 
   530  0000                     	;# 
   531  0001                     	;# 
   532  0002                     	;# 
   533  0003                     	;# 
   534  0004                     	;# 
   535  0005                     	;# 
   536  0006                     	;# 
   537  0007                     	;# 
   538  0008                     	;# 
   539  0009                     	;# 
   540  000A                     	;# 
   541  000B                     	;# 
   542  000C                     	;# 
   543  000D                     	;# 
   544  000E                     	;# 
   545  000E                     	;# 
   546  000F                     	;# 
   547  0010                     	;# 
   548  0011                     	;# 
   549  0012                     	;# 
   550  0013                     	;# 
   551  0014                     	;# 
   552  0015                     	;# 
   553  0015                     	;# 
   554  0016                     	;# 
   555  0017                     	;# 
   556  0018                     	;# 
   557  0019                     	;# 
   558  001A                     	;# 
   559  001B                     	;# 
   560  001B                     	;# 
   561  001C                     	;# 
   562  001D                     	;# 
   563  001E                     	;# 
   564  001F                     	;# 
   565  0081                     	;# 
   566  0085                     	;# 
   567  0086                     	;# 
   568  0087                     	;# 
   569  0088                     	;# 
   570  0089                     	;# 
   571  008C                     	;# 
   572  008D                     	;# 
   573  008E                     	;# 
   574  0091                     	;# 
   575  0092                     	;# 
   576  0093                     	;# 
   577  0094                     	;# 
   578  0098                     	;# 
   579  0099                     	;# 
   580  009C                     	;# 
   581  009D                     	;# 
   582  009E                     	;# 
   583  009F                     	;# 
   584  010C                     	;# 
   585  010D                     	;# 
   586  010E                     	;# 
   587  010F                     	;# 
   588  018C                     	;# 
   589  018D                     	;# 
   590                           
   591                           	psect	strings
   592  0800                     __pstrings:	
   593  0800                     stringtab:	
   594  0800                     __stringtab:	
   595                           
   596                           ;	String table - string pointers are 1 byte each
   597  0800  1BFF               	btfsc	btemp+1,7
   598  0801  280A               	ljmp	stringcode
   599  0802  1383               	bcf	3,7
   600  0803  187F               	btfsc	btemp+1,0
   601  0804  1783               	bsf	3,7
   602  0805  0800               	movf	0,w
   603  0806  0A84               	incf	4,f
   604  0807  1903               	skipnz
   605  0808  0AFF               	incf	btemp+1,f
   606  0809  0008               	return
   607  080A                     stringcode:	
   608  080A                     stringdir:	
   609  080A  3008               	movlw	high stringdir
   610  080B  008A               	movwf	10
   611  080C  0804               	movf	4,w
   612  080D  0A84               	incf	4,f
   613  080E  0782               	addwf	2,f
   614  080F                     __stringbase:	
   615  080F  3400               	retlw	0
   616  0810                     __end_of__stringtab:	
   617  0810                     _dpowers:	
   618  0810  3401               	retlw	1
   619  0811  3400               	retlw	0
   620  0812  340A               	retlw	10
   621  0813  3400               	retlw	0
   622  0814  3464               	retlw	100
   623  0815  3400               	retlw	0
   624  0816  34E8               	retlw	232
   625  0817  3403               	retlw	3
   626  0818  3410               	retlw	16
   627  0819  3427               	retlw	39
   628  081A                     __end_of_dpowers:	
   629  000E                     _TMR1	set	14
   630  001F                     _ADCON0bits	set	31
   631  001E                     _ADRESH	set	30
   632  0017                     _CCP1CON	set	23
   633  0017                     _CCP1CONbits	set	23
   634  001D                     _CCP2CON	set	29
   635  001D                     _CCP2CONbits	set	29
   636  0015                     _CCPR1L	set	21
   637  001B                     _CCPR2L	set	27
   638  000B                     _INTCONbits	set	11
   639  000C                     _PIR1bits	set	12
   640  000D                     _PIR2bits	set	13
   641  0005                     _PORTA	set	5
   642  0006                     _PORTB	set	6
   643  0006                     _PORTBbits	set	6
   644  0007                     _PORTC	set	7
   645  0008                     _PORTD	set	8
   646  0009                     _PORTE	set	9
   647  0009                     _PORTEbits	set	9
   648  001A                     _RCREG	set	26
   649  0018                     _RCSTAbits	set	24
   650  0013                     _SSPBUF	set	19
   651  0014                     _SSPCONbits	set	20
   652  0010                     _T1CON	set	16
   653  0010                     _T1CONbits	set	16
   654  0012                     _T2CONbits	set	18
   655  0001                     _TMR0	set	1
   656  000F                     _TMR1H	set	15
   657  000E                     _TMR1L	set	14
   658  0019                     _TXREG	set	25
   659  00C1                     _OERR	set	193
   660  009F                     _ADCON1bits	set	159
   661  009E                     _ADRESL	set	158
   662  0081                     _OPTION_REGbits	set	129
   663  008C                     _PIE1bits	set	140
   664  008D                     _PIE2bits	set	141
   665  0092                     _PR2	set	146
   666  0099                     _SPBRG	set	153
   667  0093                     _SSPADD	set	147
   668  0091                     _SSPCON2	set	145
   669  0091                     _SSPCON2bits	set	145
   670  0094                     _SSPSTATbits	set	148
   671  0085                     _TRISA	set	133
   672  0086                     _TRISB	set	134
   673  0087                     _TRISC	set	135
   674  0088                     _TRISD	set	136
   675  0089                     _TRISE	set	137
   676  0098                     _TXSTAbits	set	152
   677  010D                     _EEADR	set	269
   678  010C                     _EEDATA	set	268
   679  018C                     _EECON1bits	set	396
   680  018D                     _EECON2	set	397
   681  081A                     __stringdata:	
   682  081A                     STR_12:	
   683  081A  340A               	retlw	10
   684  081B  340D               	retlw	13
   685  081C  3420               	retlw	32	;' '
   686  081D  342D               	retlw	45	;'-'
   687  081E  342D               	retlw	45	;'-'
   688  081F  342D               	retlw	45	;'-'
   689  0820  342D               	retlw	45	;'-'
   690  0821  342D               	retlw	45	;'-'
   691  0822  342D               	retlw	45	;'-'
   692  0823  342D               	retlw	45	;'-'
   693  0824  3420               	retlw	32	;' '
   694  0825  3445               	retlw	69	;'E'
   695  0826  3453               	retlw	83	;'S'
   696  0827  3454               	retlw	84	;'T'
   697  0828  344F               	retlw	79	;'O'
   698  0829  3455               	retlw	85	;'U'
   699  082A  3452               	retlw	82	;'R'
   700  082B  344F               	retlw	79	;'O'
   701  082C  3420               	retlw	32	;' '
   702  082D  3444               	retlw	68	;'D'
   703  082E  3445               	retlw	69	;'E'
   704  082F  3420               	retlw	32	;' '
   705  0830  3450               	retlw	80	;'P'
   706  0831  3449               	retlw	73	;'I'
   707  0832  344C               	retlw	76	;'L'
   708  0833  3448               	retlw	72	;'H'
   709  0834  3441               	retlw	65	;'A'
   710  0835  3420               	retlw	32	;' '
   711  0836  342D               	retlw	45	;'-'
   712  0837  342D               	retlw	45	;'-'
   713  0838  342D               	retlw	45	;'-'
   714  0839  342D               	retlw	45	;'-'
   715  083A  342D               	retlw	45	;'-'
   716  083B  342D               	retlw	45	;'-'
   717  083C  342D               	retlw	45	;'-'
   718  083D  3420               	retlw	32	;' '
   719  083E  340A               	retlw	10
   720  083F  340D               	retlw	13
   721  0840  3420               	retlw	32	;' '
   722  0841  3400               	retlw	0
   723  0842                     STR_6:	
   724  0842  3449               	retlw	73	;'I'
   725  0843  346E               	retlw	110	;'n'
   726  0844  3469               	retlw	105	;'i'
   727  0845  3463               	retlw	99	;'c'
   728  0846  3469               	retlw	105	;'i'
   729  0847  3461               	retlw	97	;'a'
   730  0848  346C               	retlw	108	;'l'
   731  0849  3469               	retlw	105	;'i'
   732  084A  347A               	retlw	122	;'z'
   733  084B  3461               	retlw	97	;'a'
   734  084C  346E               	retlw	110	;'n'
   735  084D  3464               	retlw	100	;'d'
   736  084E  346F               	retlw	111	;'o'
   737  084F  3420               	retlw	32	;' '
   738  0850  346F               	retlw	111	;'o'
   739  0851  3420               	retlw	32	;' '
   740  0852  3450               	retlw	80	;'P'
   741  0853  3449               	retlw	73	;'I'
   742  0854  3443               	retlw	67	;'C'
   743  0855  3431               	retlw	49	;'1'
   744  0856  3436               	retlw	54	;'6'
   745  0857  3446               	retlw	70	;'F'
   746  0858  3438               	retlw	56	;'8'
   747  0859  3437               	retlw	55	;'7'
   748  085A  3437               	retlw	55	;'7'
   749  085B  3441               	retlw	65	;'A'
   750  085C  340A               	retlw	10
   751  085D  340D               	retlw	13
   752  085E  3400               	retlw	0
   753  085F                     STR_7:	
   754  085F  3455               	retlw	85	;'U'
   755  0860  3453               	retlw	83	;'S'
   756  0861  3441               	retlw	65	;'A'
   757  0862  3452               	retlw	82	;'R'
   758  0863  3454               	retlw	84	;'T'
   759  0864  343A               	retlw	58	;':'
   760  0865  3420               	retlw	32	;' '
   761  0866  3431               	retlw	49	;'1'
   762  0867  3431               	retlw	49	;'1'
   763  0868  3435               	retlw	53	;'5'
   764  0869  342E               	retlw	46	;'.'
   765  086A  3432               	retlw	50	;'2'
   766  086B  3430               	retlw	48	;'0'
   767  086C  3430               	retlw	48	;'0'
   768  086D  3462               	retlw	98	;'b'
   769  086E  3470               	retlw	112	;'p'
   770  086F  3473               	retlw	115	;'s'
   771  0870  340A               	retlw	10
   772  0871  340D               	retlw	13
   773  0872  3400               	retlw	0
   774  0873                     STR_8:	
   775  0873  3449               	retlw	73	;'I'
   776  0874  346E               	retlw	110	;'n'
   777  0875  3469               	retlw	105	;'i'
   778  0876  3463               	retlw	99	;'c'
   779  0877  3469               	retlw	105	;'i'
   780  0878  3461               	retlw	97	;'a'
   781  0879  346C               	retlw	108	;'l'
   782  087A  3469               	retlw	105	;'i'
   783  087B  347A               	retlw	122	;'z'
   784  087C  3461               	retlw	97	;'a'
   785  087D  346E               	retlw	110	;'n'
   786  087E  3464               	retlw	100	;'d'
   787  087F  346F               	retlw	111	;'o'
   788  0880  342E               	retlw	46	;'.'
   789  0881  342E               	retlw	46	;'.'
   790  0882  342E               	retlw	46	;'.'
   791  0883  3400               	retlw	0
   792  0884                     STR_11:	
   793  0884  3452               	retlw	82	;'R'
   794  0885  3450               	retlw	80	;'P'
   795  0886  344D               	retlw	77	;'M'
   796  0887  343A               	retlw	58	;':'
   797  0888  3420               	retlw	32	;' '
   798  0889  3400               	retlw	0
   799  088A                     STR_9:	
   800  088A  3425               	retlw	37	;'%'
   801  088B  3430               	retlw	48	;'0'
   802  088C  3434               	retlw	52	;'4'
   803  088D  3464               	retlw	100	;'d'
   804  088E  3400               	retlw	0
   805  088F                     STR_1:	
   806  088F  3431               	retlw	49	;'1'
   807  0890  3400               	retlw	0
   808  0891                     STR_2:	
   809  0891  3432               	retlw	50	;'2'
   810  0892  3400               	retlw	0
   811  0893                     STR_3:	
   812  0893  3433               	retlw	51	;'3'
   813  0894  3400               	retlw	0
   814  0895                     STR_4:	
   815  0895  3434               	retlw	52	;'4'
   816  0896  3400               	retlw	0
   817  0897                     STR_5:	
   818  0897  3435               	retlw	53	;'5'
   819  0898  3400               	retlw	0
   820  0899                     __end_of__stringdata:	
   821                           
   822                           ; #config settings
   823  0000                     
   824                           	psect	cinit
   825  0015                     start_initialization:	
   826  0015                     __initialization:	
   827                           
   828                           ; Clear objects allocated to BANK1
   829  0015  1383               	bcf	3,7	;select IRP bank0
   830  0016  30CC               	movlw	low __pbssBANK1
   831  0017  0084               	movwf	4
   832  0018  30E7               	movlw	low (__pbssBANK1+27)
   833  0019  120A  158A  226F   	fcall	clear_ram0
   834  001C                     end_of_initialization:	
   835                           ;End of C runtime variable initialization code
   836                           
   837  001C                     __end_of__initialization:	
   838  001C  0183               	clrf	3
   839  001D  120A  118A  2DC7   	ljmp	_main	;jump to C main() function
   840                           
   841                           	psect	bssBANK1
   842  00CC                     __pbssBANK1:	
   843  00CC                     _temp_lida:	
   844  00CC                     	ds	3
   845  00CF                     _ADCResult:	
   846  00CF                     	ds	2
   847  00D1                     _contador_rb6:	
   848  00D1                     	ds	2
   849  00D3                     _contagens_tm0:	
   850  00D3                     	ds	2
   851  00D5                     _pulsos:	
   852  00D5                     	ds	2
   853  00D7                     _rpm:	
   854  00D7                     	ds	2
   855  00D9                     _status:	
   856  00D9                     	ds	2
   857  00DB                     _tempo_rb6:	
   858  00DB                     	ds	2
   859  00DD                     _display:	
   860  00DD                     	ds	10
   861                           
   862                           	psect	clrtext
   863  0A6F                     clear_ram0:	
   864                           ;	Called with FSR containing the base address, and
   865                           ;	W with the last address+1
   866                           
   867  0A6F  0064               	clrwdt	;clear the watchdog before getting into this loop
   868  0A70                     clrloop0:	
   869  0A70  0180               	clrf	0	;clear RAM location pointed to by FSR
   870  0A71  0A84               	incf	4,f	;increment pointer
   871  0A72  0604               	xorwf	4,w	;XOR with final address
   872  0A73  1903               	btfsc	3,2	;have we reached the end yet?
   873  0A74  3400               	retlw	0	;all done for this memory range, return
   874  0A75  0604               	xorwf	4,w	;XOR again to restore value
   875  0A76  2A70               	goto	clrloop0	;do the next byte
   876                           
   877                           	psect	cstackBANK1
   878  00A0                     __pcstackBANK1:	
   879  00A0                     _ISR$1731:	
   880                           
   881                           ; 3 bytes @ 0x0
   882  00A0                     	ds	3
   883  00A3                     ??_TIMER0_Set:	
   884  00A3                     ?_PWM_DutyCycle2:	
   885                           ; 0 bytes @ 0x3
   886                           
   887  00A3                     ??_TIMER0_Init:	
   888                           ; 0 bytes @ 0x3
   889                           
   890  00A3                     ??_ADC_Init:	
   891                           ; 0 bytes @ 0x3
   892                           
   893  00A3                     ??_PWM_Init:	
   894                           ; 0 bytes @ 0x3
   895                           
   896  00A3                     ?_LCD_Cursor:	
   897                           ; 0 bytes @ 0x3
   898                           
   899  00A3                     ?_PWM_DutyCycle1:	
   900                           ; 0 bytes @ 0x3
   901                           
   902  00A3                     ??_isdigit:	
   903                           ; 0 bytes @ 0x3
   904                           
   905  00A3                     ?_putch:	
   906                           ; 0 bytes @ 0x3
   907                           
   908  00A3                     ??_USART_WriteChar:	
   909                           ; 0 bytes @ 0x3
   910                           
   911  00A3                     ??_LCD_WriteCmd:	
   912                           ; 0 bytes @ 0x3
   913                           
   914  00A3                     ??_LCD_WriteData:	
   915                           ; 0 bytes @ 0x3
   916                           
   917  00A3                     ?___wmul:	
   918                           ; 0 bytes @ 0x3
   919                           
   920  00A3                     ?___lwdiv:	
   921                           ; 2 bytes @ 0x3
   922                           
   923  00A3                     ?___aldiv:	
   924                           ; 2 bytes @ 0x3
   925                           
   926  00A3                     USART_WriteChar@byte:	
   927                           ; 4 bytes @ 0x3
   928                           
   929  00A3                     TIMER0_Set@contagens:	
   930                           ; 1 bytes @ 0x3
   931                           
   932  00A3                     LCD_Cursor@Col:	
   933                           ; 1 bytes @ 0x3
   934                           
   935  00A3                     _isdigit$1416:	
   936                           ; 1 bytes @ 0x3
   937                           
   938  00A3                     putch@c:	
   939                           ; 1 bytes @ 0x3
   940                           
   941  00A3                     PWM_DutyCycle1@valor:	
   942                           ; 1 bytes @ 0x3
   943                           
   944  00A3                     PWM_DutyCycle2@valor:	
   945                           ; 2 bytes @ 0x3
   946                           
   947  00A3                     ___wmul@multiplier:	
   948                           ; 2 bytes @ 0x3
   949                           
   950  00A3                     ___lwdiv@divisor:	
   951                           ; 2 bytes @ 0x3
   952                           
   953  00A3                     ___aldiv@divisor:	
   954                           ; 2 bytes @ 0x3
   955                           
   956                           
   957                           ; 4 bytes @ 0x3
   958  00A3                     	ds	1
   959  00A4                     ?_USART_WriteString:	
   960  00A4                     ??_LCD_Cursor:	
   961                           ; 0 bytes @ 0x4
   962                           
   963  00A4                     ??_putch:	
   964                           ; 0 bytes @ 0x4
   965                           
   966  00A4                     LCD_WriteCmd@Byte:	
   967                           ; 0 bytes @ 0x4
   968                           
   969  00A4                     LCD_WriteData@Byte:	
   970                           ; 1 bytes @ 0x4
   971                           
   972  00A4                     isdigit@c:	
   973                           ; 1 bytes @ 0x4
   974                           
   975  00A4                     USART_WriteString@str:	
   976                           ; 1 bytes @ 0x4
   977                           
   978                           
   979                           ; 2 bytes @ 0x4
   980  00A4                     	ds	1
   981  00A5                     ??_PWM_DutyCycle2:	
   982  00A5                     ??_LCD_Init:	
   983                           ; 0 bytes @ 0x5
   984                           
   985  00A5                     ?_LCD_WriteString:	
   986                           ; 0 bytes @ 0x5
   987                           
   988  00A5                     ??_PWM_DutyCycle1:	
   989                           ; 0 bytes @ 0x5
   990                           
   991  00A5                     ??_LCD_Clear:	
   992                           ; 0 bytes @ 0x5
   993                           
   994  00A5                     LCD_Cursor@Row:	
   995                           ; 0 bytes @ 0x5
   996                           
   997  00A5                     LCD_WriteString@Str:	
   998                           ; 1 bytes @ 0x5
   999                           
  1000  00A5                     ___wmul@multiplicand:	
  1001                           ; 2 bytes @ 0x5
  1002                           
  1003  00A5                     ___lwdiv@dividend:	
  1004                           ; 2 bytes @ 0x5
  1005                           
  1006                           
  1007                           ; 2 bytes @ 0x5
  1008  00A5                     	ds	1
  1009  00A6                     ??_USART_WriteString:	
  1010                           
  1011                           ; 0 bytes @ 0x6
  1012  00A6                     	ds	1
  1013  00A7                     ??_LCD_WriteString:	
  1014  00A7                     ??___wmul:	
  1015                           ; 0 bytes @ 0x7
  1016                           
  1017  00A7                     ??___lwdiv:	
  1018                           ; 0 bytes @ 0x7
  1019                           
  1020  00A7                     ___wmul@product:	
  1021                           ; 0 bytes @ 0x7
  1022                           
  1023  00A7                     ___aldiv@dividend:	
  1024                           ; 2 bytes @ 0x7
  1025                           
  1026                           
  1027                           ; 4 bytes @ 0x7
  1028  00A7                     	ds	1
  1029  00A8                     ___lwdiv@quotient:	
  1030                           
  1031                           ; 2 bytes @ 0x8
  1032  00A8                     	ds	2
  1033  00AA                     ___lwdiv@counter:	
  1034                           
  1035                           ; 1 bytes @ 0xA
  1036  00AA                     	ds	1
  1037  00AB                     ??___aldiv:	
  1038  00AB                     ?___lwmod:	
  1039                           ; 0 bytes @ 0xB
  1040                           
  1041  00AB                     ___lwmod@divisor:	
  1042                           ; 2 bytes @ 0xB
  1043                           
  1044                           
  1045                           ; 2 bytes @ 0xB
  1046  00AB                     	ds	1
  1047  00AC                     ___aldiv@counter:	
  1048                           
  1049                           ; 1 bytes @ 0xC
  1050  00AC                     	ds	1
  1051  00AD                     ___aldiv@sign:	
  1052  00AD                     ___lwmod@dividend:	
  1053                           ; 1 bytes @ 0xD
  1054                           
  1055                           
  1056                           ; 2 bytes @ 0xD
  1057  00AD                     	ds	1
  1058  00AE                     ___aldiv@quotient:	
  1059                           
  1060                           ; 4 bytes @ 0xE
  1061  00AE                     	ds	1
  1062  00AF                     ??___lwmod:	
  1063                           
  1064                           ; 0 bytes @ 0xF
  1065  00AF                     	ds	1
  1066  00B0                     ___lwmod@counter:	
  1067                           
  1068                           ; 1 bytes @ 0x10
  1069  00B0                     	ds	1
  1070  00B1                     ?__doprnt:	
  1071  00B1                     __doprnt@f:	
  1072                           ; 2 bytes @ 0x11
  1073                           
  1074                           
  1075                           ; 1 bytes @ 0x11
  1076  00B1                     	ds	1
  1077  00B2                     ?_USART_Init:	
  1078  00B2                     __doprnt@ap:	
  1079                           ; 0 bytes @ 0x12
  1080                           
  1081  00B2                     USART_Init@BaudRate:	
  1082                           ; 1 bytes @ 0x12
  1083                           
  1084                           
  1085                           ; 4 bytes @ 0x12
  1086  00B2                     	ds	1
  1087  00B3                     ??__doprnt:	
  1088                           
  1089                           ; 0 bytes @ 0x13
  1090  00B3                     	ds	3
  1091  00B6                     ??_USART_Init:	
  1092  00B6                     __doprnt@prec:	
  1093                           ; 0 bytes @ 0x16
  1094                           
  1095                           
  1096                           ; 1 bytes @ 0x16
  1097  00B6                     	ds	1
  1098  00B7                     __doprnt@_val:	
  1099                           
  1100                           ; 4 bytes @ 0x17
  1101  00B7                     	ds	4
  1102  00BB                     __doprnt@flag:	
  1103                           
  1104                           ; 1 bytes @ 0x1B
  1105  00BB                     	ds	1
  1106  00BC                     __doprnt@width:	
  1107                           
  1108                           ; 2 bytes @ 0x1C
  1109  00BC                     	ds	2
  1110  00BE                     __doprnt@c:	
  1111                           
  1112                           ; 1 bytes @ 0x1E
  1113  00BE                     	ds	1
  1114  00BF                     __doprnt@pb:	
  1115                           
  1116                           ; 1 bytes @ 0x1F
  1117  00BF                     	ds	1
  1118  00C0                     ?_sprintf:	
  1119  00C0                     sprintf@f:	
  1120                           ; 2 bytes @ 0x20
  1121                           
  1122                           
  1123                           ; 1 bytes @ 0x20
  1124  00C0                     	ds	3
  1125  00C3                     ??_sprintf:	
  1126                           
  1127                           ; 0 bytes @ 0x23
  1128  00C3                     	ds	2
  1129  00C5                     sprintf@wh:	
  1130                           
  1131                           ; 1 bytes @ 0x25
  1132  00C5                     	ds	1
  1133  00C6                     sprintf@ap:	
  1134                           
  1135                           ; 1 bytes @ 0x26
  1136  00C6                     	ds	1
  1137  00C7                     sprintf@pb:	
  1138                           
  1139                           ; 2 bytes @ 0x27
  1140  00C7                     	ds	2
  1141  00C9                     ??_main:	
  1142                           
  1143                           ; 0 bytes @ 0x29
  1144  00C9                     	ds	3
  1145                           
  1146                           	psect	cstackCOMMON
  1147  0070                     __pcstackCOMMON:	
  1148  0070                     ?_TIMER0_Set:	
  1149  0070                     ?_TIMER0_Init:	
  1150                           ; 0 bytes @ 0x0
  1151                           
  1152  0070                     ?_ADC_Init:	
  1153                           ; 0 bytes @ 0x0
  1154                           
  1155  0070                     ?_PWM_Init:	
  1156                           ; 0 bytes @ 0x0
  1157                           
  1158  0070                     ?_LCD_Init:	
  1159                           ; 0 bytes @ 0x0
  1160                           
  1161  0070                     ?_LCD_Clear:	
  1162                           ; 0 bytes @ 0x0
  1163                           
  1164  0070                     ?_isdigit:	
  1165                           ; 0 bytes @ 0x0
  1166                           
  1167  0070                     ?_ISR:	
  1168                           ; 1 bit 
  1169                           
  1170  0070                     ?_main:	
  1171                           ; 0 bytes @ 0x0
  1172                           
  1173  0070                     ?_USART_WriteChar:	
  1174                           ; 0 bytes @ 0x0
  1175                           
  1176  0070                     ?_LCD_WriteCmd:	
  1177                           ; 0 bytes @ 0x0
  1178                           
  1179  0070                     ?_LCD_WriteData:	
  1180                           ; 0 bytes @ 0x0
  1181                           
  1182  0070                     ?___ftge:	
  1183                           ; 0 bytes @ 0x0
  1184                           
  1185  0070                     ?i1_TIMER0_Set:	
  1186                           ; 1 bit 
  1187                           
  1188  0070                     ??i1_TIMER0_Set:	
  1189                           ; 0 bytes @ 0x0
  1190                           
  1191  0070                     ?___ftpack:	
  1192                           ; 0 bytes @ 0x0
  1193                           
  1194  0070                     i1TIMER0_Set@contagens:	
  1195                           ; 3 bytes @ 0x0
  1196                           
  1197  0070                     ___ftpack@arg:	
  1198                           ; 1 bytes @ 0x0
  1199                           
  1200  0070                     ___ftge@ff1:	
  1201                           ; 3 bytes @ 0x0
  1202                           
  1203                           
  1204                           ; 3 bytes @ 0x0
  1205  0070                     	ds	3
  1206  0073                     ___ftpack@exp:	
  1207  0073                     ___ftge@ff2:	
  1208                           ; 1 bytes @ 0x3
  1209                           
  1210                           
  1211                           ; 3 bytes @ 0x3
  1212  0073                     	ds	1
  1213  0074                     ___ftpack@sign:	
  1214                           
  1215                           ; 1 bytes @ 0x4
  1216  0074                     	ds	1
  1217  0075                     ??___ftpack:	
  1218                           
  1219                           ; 0 bytes @ 0x5
  1220  0075                     	ds	1
  1221  0076                     ??___ftge:	
  1222                           
  1223                           ; 0 bytes @ 0x6
  1224  0076                     	ds	2
  1225  0078                     ?___lwtoft:	
  1226  0078                     ___lwtoft@c:	
  1227                           ; 3 bytes @ 0x8
  1228                           
  1229                           
  1230                           ; 2 bytes @ 0x8
  1231  0078                     	ds	3
  1232  007B                     ??___lwtoft:	
  1233                           
  1234                           ; 0 bytes @ 0xB
  1235  007B                     	ds	1
  1236  007C                     ??_triangular:	
  1237  007C                     ??___ftneg:	
  1238                           ; 0 bytes @ 0xC
  1239                           
  1240  007C                     ??i1_PWM_DutyCycle2:	
  1241                           ; 0 bytes @ 0xC
  1242                           
  1243                           
  1244                           ; 0 bytes @ 0xC
  1245  007C                     	ds	2
  1246                           
  1247                           	psect	cstackBANK0
  1248  0020                     __pcstackBANK0:	
  1249  0020                     ?___ftneg:	
  1250  0020                     ___ftneg@f1:	
  1251                           ; 3 bytes @ 0x0
  1252                           
  1253                           
  1254                           ; 3 bytes @ 0x0
  1255  0020                     	ds	3
  1256  0023                     ?___ftadd:	
  1257  0023                     ___ftadd@f1:	
  1258                           ; 3 bytes @ 0x3
  1259                           
  1260                           
  1261                           ; 3 bytes @ 0x3
  1262  0023                     	ds	3
  1263  0026                     ___ftadd@f2:	
  1264                           
  1265                           ; 3 bytes @ 0x6
  1266  0026                     	ds	3
  1267  0029                     ??___ftadd:	
  1268                           
  1269                           ; 0 bytes @ 0x9
  1270  0029                     	ds	4
  1271  002D                     ___ftadd@sign:	
  1272                           
  1273                           ; 1 bytes @ 0xD
  1274  002D                     	ds	1
  1275  002E                     ___ftadd@exp2:	
  1276                           
  1277                           ; 1 bytes @ 0xE
  1278  002E                     	ds	1
  1279  002F                     ___ftadd@exp1:	
  1280                           
  1281                           ; 1 bytes @ 0xF
  1282  002F                     	ds	1
  1283  0030                     ?___ftdiv:	
  1284  0030                     ___ftdiv@f2:	
  1285                           ; 3 bytes @ 0x10
  1286                           
  1287                           
  1288                           ; 3 bytes @ 0x10
  1289  0030                     	ds	3
  1290  0033                     ___ftdiv@f1:	
  1291                           
  1292                           ; 3 bytes @ 0x13
  1293  0033                     	ds	3
  1294  0036                     ??___ftdiv:	
  1295                           
  1296                           ; 0 bytes @ 0x16
  1297  0036                     	ds	4
  1298  003A                     ___ftdiv@cntr:	
  1299                           
  1300                           ; 1 bytes @ 0x1A
  1301  003A                     	ds	1
  1302  003B                     ___ftdiv@f3:	
  1303                           
  1304                           ; 3 bytes @ 0x1B
  1305  003B                     	ds	3
  1306  003E                     ___ftdiv@exp:	
  1307                           
  1308                           ; 1 bytes @ 0x1E
  1309  003E                     	ds	1
  1310  003F                     ___ftdiv@sign:	
  1311                           
  1312                           ; 1 bytes @ 0x1F
  1313  003F                     	ds	1
  1314  0040                     ?_triangular:	
  1315  0040                     triangular@x:	
  1316                           ; 3 bytes @ 0x20
  1317                           
  1318                           
  1319                           ; 3 bytes @ 0x20
  1320  0040                     	ds	3
  1321  0043                     triangular@a:	
  1322                           
  1323                           ; 3 bytes @ 0x23
  1324  0043                     	ds	3
  1325  0046                     triangular@b:	
  1326                           
  1327                           ; 3 bytes @ 0x26
  1328  0046                     	ds	3
  1329  0049                     triangular@c:	
  1330                           
  1331                           ; 3 bytes @ 0x29
  1332  0049                     	ds	3
  1333  004C                     ?___ftmul:	
  1334  004C                     ___ftmul@f1:	
  1335                           ; 3 bytes @ 0x2C
  1336                           
  1337                           
  1338                           ; 3 bytes @ 0x2C
  1339  004C                     	ds	3
  1340  004F                     ___ftmul@f2:	
  1341                           
  1342                           ; 3 bytes @ 0x2F
  1343  004F                     	ds	3
  1344  0052                     ??___ftmul:	
  1345                           
  1346                           ; 0 bytes @ 0x32
  1347  0052                     	ds	4
  1348  0056                     ___ftmul@exp:	
  1349                           
  1350                           ; 1 bytes @ 0x36
  1351  0056                     	ds	1
  1352  0057                     ___ftmul@f3_as_product:	
  1353                           
  1354                           ; 3 bytes @ 0x37
  1355  0057                     	ds	3
  1356  005A                     ___ftmul@cntr:	
  1357                           
  1358                           ; 1 bytes @ 0x3A
  1359  005A                     	ds	1
  1360  005B                     ___ftmul@sign:	
  1361                           
  1362                           ; 1 bytes @ 0x3B
  1363  005B                     	ds	1
  1364  005C                     ?___fttol:	
  1365  005C                     ___fttol@f1:	
  1366                           ; 4 bytes @ 0x3C
  1367                           
  1368                           
  1369                           ; 3 bytes @ 0x3C
  1370  005C                     	ds	4
  1371  0060                     ??___fttol:	
  1372                           
  1373                           ; 0 bytes @ 0x40
  1374  0060                     	ds	4
  1375  0064                     ___fttol@sign1:	
  1376                           
  1377                           ; 1 bytes @ 0x44
  1378  0064                     	ds	1
  1379  0065                     ___fttol@lval:	
  1380                           
  1381                           ; 4 bytes @ 0x45
  1382  0065                     	ds	4
  1383  0069                     ___fttol@exp1:	
  1384                           
  1385                           ; 1 bytes @ 0x49
  1386  0069                     	ds	1
  1387  006A                     ?i1_PWM_DutyCycle2:	
  1388  006A                     i1PWM_DutyCycle2@valor:	
  1389                           ; 0 bytes @ 0x4A
  1390                           
  1391                           
  1392                           ; 2 bytes @ 0x4A
  1393  006A                     	ds	2
  1394  006C                     ??_ISR:	
  1395                           
  1396                           ; 0 bytes @ 0x4C
  1397  006C                     	ds	4
  1398                           
  1399                           	psect	maintext
  1400  05C7                     __pmaintext:	
  1401 ;;
  1402 ;;Main: autosize = 0, tempsize = 3, incstack = 0, save=0
  1403 ;;
  1404 ;; *************** function _main *****************
  1405 ;; Defined at:
  1406 ;;		line 153 in file "C:\Users\332414\Documents\Fuzzy-IA2\Cdigo em C no MPLAB\main.c"
  1407 ;; Parameters:    Size  Location     Type
  1408 ;;		None
  1409 ;; Auto vars:     Size  Location     Type
  1410 ;;		None
  1411 ;; Return value:  Size  Location     Type
  1412 ;;		None               void
  1413 ;; Registers used:
  1414 ;;		wreg, fsr0l, fsr0h, status,2, status,0, btemp+1, pclath, cstack
  1415 ;; Tracked objects:
  1416 ;;		On entry : 17F/0
  1417 ;;		On exit  : 0/0
  1418 ;;		Unchanged: 0/0
  1419 ;; Data sizes:     COMMON   BANK0   BANK1   BANK3   BANK2
  1420 ;;      Params:         0       0       0       0       0
  1421 ;;      Locals:         0       0       0       0       0
  1422 ;;      Temps:          0       0       3       0       0
  1423 ;;      Totals:         0       0       3       0       0
  1424 ;;Total ram usage:        3 bytes
  1425 ;; Hardware stack levels required when called:    7
  1426 ;; This function calls:
  1427 ;;		_ADC_Init
  1428 ;;		_LCD_Clear
  1429 ;;		_LCD_Cursor
  1430 ;;		_LCD_Init
  1431 ;;		_LCD_WriteString
  1432 ;;		_PWM_DutyCycle1
  1433 ;;		_PWM_DutyCycle2
  1434 ;;		_PWM_Init
  1435 ;;		_TIMER0_Init
  1436 ;;		_TIMER0_Set
  1437 ;;		_USART_Init
  1438 ;;		_USART_WriteString
  1439 ;;		_sprintf
  1440 ;; This function is called by:
  1441 ;;		Startup code after reset
  1442 ;; This function uses a non-reentrant model
  1443 ;;
  1444                           
  1445                           
  1446                           ;psect for function _main
  1447  05C7                     _main:	
  1448                           
  1449                           ;main.c: 155: TRISA = 0b00000001;
  1450                           
  1451                           ;incstack = 0
  1452                           ; Regs used in _main: [wreg-fsr0h+status,2+status,0+btemp+1+pclath+cstack]
  1453  05C7  3001               	movlw	1
  1454  05C8  1683               	bsf	3,5	;RP0=1, select bank1
  1455  05C9  1303               	bcf	3,6	;RP1=0, select bank1
  1456  05CA  0085               	movwf	5	;volatile
  1457                           
  1458                           ;main.c: 156: PORTA = 0b00000001;
  1459  05CB  3001               	movlw	1
  1460  05CC  1283               	bcf	3,5	;RP0=0, select bank0
  1461  05CD  1303               	bcf	3,6	;RP1=0, select bank0
  1462  05CE  0085               	movwf	5	;volatile
  1463                           
  1464                           ;main.c: 157: TRISB = 0b00000000;
  1465  05CF  1683               	bsf	3,5	;RP0=1, select bank1
  1466  05D0  1303               	bcf	3,6	;RP1=0, select bank1
  1467  05D1  0186               	clrf	6	;volatile
  1468                           
  1469                           ;main.c: 158: PORTB = 0b00000000;
  1470  05D2  1283               	bcf	3,5	;RP0=0, select bank0
  1471  05D3  1303               	bcf	3,6	;RP1=0, select bank0
  1472  05D4  0186               	clrf	6	;volatile
  1473                           
  1474                           ;main.c: 159: TRISC = 0b10000001;
  1475  05D5  3081               	movlw	129
  1476  05D6  1683               	bsf	3,5	;RP0=1, select bank1
  1477  05D7  1303               	bcf	3,6	;RP1=0, select bank1
  1478  05D8  0087               	movwf	7	;volatile
  1479                           
  1480                           ;main.c: 160: PORTC = 0b11000000;
  1481  05D9  30C0               	movlw	192
  1482  05DA  1283               	bcf	3,5	;RP0=0, select bank0
  1483  05DB  1303               	bcf	3,6	;RP1=0, select bank0
  1484  05DC  0087               	movwf	7	;volatile
  1485                           
  1486                           ;main.c: 161: TRISD = 0b00000000;
  1487  05DD  1683               	bsf	3,5	;RP0=1, select bank1
  1488  05DE  1303               	bcf	3,6	;RP1=0, select bank1
  1489  05DF  0188               	clrf	8	;volatile
  1490                           
  1491                           ;main.c: 162: PORTD = 0b00000000;
  1492  05E0  1283               	bcf	3,5	;RP0=0, select bank0
  1493  05E1  1303               	bcf	3,6	;RP1=0, select bank0
  1494  05E2  0188               	clrf	8	;volatile
  1495                           
  1496                           ;main.c: 163: TRISE = 0b00000000;
  1497  05E3  1683               	bsf	3,5	;RP0=1, select bank1
  1498  05E4  1303               	bcf	3,6	;RP1=0, select bank1
  1499  05E5  0189               	clrf	9	;volatile
  1500                           
  1501                           ;main.c: 164: PORTE = 0b00000000;
  1502  05E6  1283               	bcf	3,5	;RP0=0, select bank0
  1503  05E7  1303               	bcf	3,6	;RP1=0, select bank0
  1504  05E8  0189               	clrf	9	;volatile
  1505                           
  1506                           ;main.c: 167: T1CON = 0x03;
  1507  05E9  3003               	movlw	3
  1508  05EA  0090               	movwf	16	;volatile
  1509                           
  1510                           ;main.c: 168: TMR1L = 0x00;
  1511  05EB  018E               	clrf	14	;volatile
  1512                           
  1513                           ;main.c: 169: TMR1H = 0x00;
  1514  05EC  018F               	clrf	15	;volatile
  1515                           
  1516                           ;main.c: 172: USART_Init(115200);
  1517  05ED  3000               	movlw	0
  1518  05EE  1683               	bsf	3,5	;RP0=1, select bank1
  1519  05EF  1303               	bcf	3,6	;RP1=0, select bank1
  1520  05F0  00B5               	movwf	(USART_Init@BaudRate+3)^(0+128)
  1521  05F1  3001               	movlw	1
  1522  05F2  00B4               	movwf	(USART_Init@BaudRate+2)^(0+128)
  1523  05F3  30C2               	movlw	194
  1524  05F4  00B3               	movwf	(USART_Init@BaudRate+1)^(0+128)
  1525  05F5  3000               	movlw	0
  1526  05F6  00B2               	movwf	USART_Init@BaudRate^(0+128)
  1527  05F7  120A  158A  24B2  120A  118A  	fcall	_USART_Init
  1528                           
  1529                           ;main.c: 173: TIMER0_Init();
  1530  05FC  120A  158A  2281  120A  118A  	fcall	_TIMER0_Init
  1531                           
  1532                           ;main.c: 174: ADC_Init();
  1533  0601  120A  158A  229C  120A  118A  	fcall	_ADC_Init
  1534                           
  1535                           ;main.c: 175: PWM_Init();
  1536  0606  120A  118A  27DC  120A  118A  	fcall	_PWM_Init
  1537                           
  1538                           ;main.c: 176: LCD_Init();
  1539  060B  120A  158A  25C0  120A  118A  	fcall	_LCD_Init
  1540                           
  1541                           ;main.c: 179: INTCONbits.PEIE = 1;
  1542  0610  170B               	bsf	11,6	;volatile
  1543                           
  1544                           ;main.c: 180: INTCONbits.GIE = 1;
  1545  0611  178B               	bsf	11,7	;volatile
  1546                           
  1547                           ;main.c: 183: USART_WriteString("Inicializando o PIC16F877A\n\r");
  1548  0612  3033               	movlw	low (STR_6-__stringbase)
  1549  0613  1683               	bsf	3,5	;RP0=1, select bank1
  1550  0614  1303               	bcf	3,6	;RP1=0, select bank1
  1551  0615  00A4               	movwf	USART_WriteString@str^(0+128)
  1552  0616  3080               	movlw	128
  1553  0617  00A5               	movwf	(USART_WriteString@str+1)^(0+128)
  1554  0618  120A  158A  240B  120A  118A  	fcall	_USART_WriteString
  1555                           
  1556                           ;main.c: 184: USART_WriteString("USART: 115.200bps\n\r");
  1557  061D  3050               	movlw	low (STR_7-__stringbase)
  1558  061E  1683               	bsf	3,5	;RP0=1, select bank1
  1559  061F  1303               	bcf	3,6	;RP1=0, select bank1
  1560  0620  00A4               	movwf	USART_WriteString@str^(0+128)
  1561  0621  3080               	movlw	128
  1562  0622  00A5               	movwf	(USART_WriteString@str+1)^(0+128)
  1563  0623  120A  158A  240B  120A  118A  	fcall	_USART_WriteString
  1564                           
  1565                           ;main.c: 187: LCD_Init();
  1566  0628  120A  158A  25C0  120A  118A  	fcall	_LCD_Init
  1567                           
  1568                           ;main.c: 188: LCD_Cursor(0,0);
  1569  062D  1683               	bsf	3,5	;RP0=1, select bank1
  1570  062E  1303               	bcf	3,6	;RP1=0, select bank1
  1571  062F  01A3               	clrf	LCD_Cursor@Col^(0+128)
  1572  0630  3000               	movlw	0
  1573  0631  120A  158A  232A  120A  118A  	fcall	_LCD_Cursor
  1574                           
  1575                           ;main.c: 189: LCD_WriteString("Inicializando...");
  1576  0636  3064               	movlw	low (STR_8-__stringbase)
  1577  0637  1683               	bsf	3,5	;RP0=1, select bank1
  1578  0638  1303               	bcf	3,6	;RP1=0, select bank1
  1579  0639  00A5               	movwf	LCD_WriteString@Str^(0+128)
  1580  063A  3080               	movlw	128
  1581  063B  00A6               	movwf	(LCD_WriteString@Str+1)^(0+128)
  1582  063C  120A  158A  23DA  120A  118A  	fcall	_LCD_WriteString
  1583                           
  1584                           ;main.c: 192: PWM_DutyCycle1(0);
  1585  0641  3000               	movlw	0
  1586  0642  1683               	bsf	3,5	;RP0=1, select bank1
  1587  0643  1303               	bcf	3,6	;RP1=0, select bank1
  1588  0644  00A3               	movwf	PWM_DutyCycle1@valor^(0+128)
  1589  0645  3000               	movlw	0
  1590  0646  00A4               	movwf	(PWM_DutyCycle1@valor^(0+128)+1)
  1591  0647  120A  158A  234A  120A  118A  	fcall	_PWM_DutyCycle1
  1592                           
  1593                           ;main.c: 193: PWM_DutyCycle2(0);
  1594  064C  3000               	movlw	0
  1595  064D  1683               	bsf	3,5	;RP0=1, select bank1
  1596  064E  1303               	bcf	3,6	;RP1=0, select bank1
  1597  064F  00A3               	movwf	PWM_DutyCycle2@valor^(0+128)
  1598  0650  3000               	movlw	0
  1599  0651  00A4               	movwf	(PWM_DutyCycle2@valor^(0+128)+1)
  1600  0652  120A  158A  236B  120A  118A  	fcall	_PWM_DutyCycle2
  1601                           
  1602                           ;main.c: 196: TIMER0_Set(238);
  1603  0657  30EE               	movlw	238
  1604  0658  120A  158A  2267  120A  118A  	fcall	_TIMER0_Set
  1605                           
  1606                           ;main.c: 199: _delay((unsigned long)((1000)*(18432000/4000.0)));
  1607  065D  3018               	movlw	24
  1608  065E  1683               	bsf	3,5	;RP0=1, select bank1
  1609  065F  1303               	bcf	3,6	;RP1=0, select bank1
  1610  0660  00CB               	movwf	(??_main^(0+128)+2)
  1611  0661  3061               	movlw	97
  1612  0662  00CA               	movwf	(??_main^(0+128)+1)
  1613  0663  306E               	movlw	110
  1614  0664  00C9               	movwf	??_main^(0+128)
  1615  0665                     u3267:	
  1616  0665  0BC9               	decfsz	??_main^(0+128),f
  1617  0666  2E65               	goto	u3267
  1618  0667  0BCA               	decfsz	(??_main^(0+128)+1),f
  1619  0668  2E65               	goto	u3267
  1620  0669  0BCB               	decfsz	(??_main^(0+128)+2),f
  1621  066A  2E65               	goto	u3267
  1622  066B  0000               	nop
  1623  066C                     l108:	
  1624                           ;main.c: 202: while(1)
  1625                           
  1626                           
  1627                           ;main.c: 203: {
  1628                           ;main.c: 205: sprintf(display,"%04d", rpm);
  1629  066C  307B               	movlw	(STR_9-__stringbase)& (0+255)
  1630  066D  1683               	bsf	3,5	;RP0=1, select bank1
  1631  066E  1303               	bcf	3,6	;RP1=0, select bank1
  1632  066F  00C9               	movwf	??_main^(0+128)
  1633  0670  0849               	movf	??_main^(0+128),w
  1634  0671  00C0               	movwf	sprintf@f^(0+128)
  1635  0672  0858               	movf	(_rpm+1)^(0+128),w
  1636  0673  01C2               	clrf	((?_sprintf+1)^(0+128)+1)
  1637  0674  07C2               	addwf	((?_sprintf+1)^(0+128)+1),f
  1638  0675  0857               	movf	_rpm^(0+128),w
  1639  0676  01C1               	clrf	(?_sprintf^(0+128)+1)
  1640  0677  07C1               	addwf	(?_sprintf^(0+128)+1),f
  1641  0678  30DD               	movlw	_display& (0+255)
  1642  0679  120A  158A  230B  120A  118A  	fcall	_sprintf
  1643                           
  1644                           ;main.c: 208: USART_WriteString(display);
  1645  067E  30DD               	movlw	_display& (0+255)
  1646  067F  1683               	bsf	3,5	;RP0=1, select bank1
  1647  0680  1303               	bcf	3,6	;RP1=0, select bank1
  1648  0681  00A4               	movwf	USART_WriteString@str^(0+128)
  1649  0682  3000               	movlw	0
  1650  0683  00A5               	movwf	(USART_WriteString@str+1)^(0+128)
  1651  0684  120A  158A  240B  120A  118A  	fcall	_USART_WriteString
  1652                           
  1653                           ;main.c: 209: USART_WriteString("\n\r");
  1654  0689  304D               	movlw	low ((STR_6+26)-__stringbase)
  1655  068A  1683               	bsf	3,5	;RP0=1, select bank1
  1656  068B  1303               	bcf	3,6	;RP1=0, select bank1
  1657  068C  00A4               	movwf	USART_WriteString@str^(0+128)
  1658  068D  3080               	movlw	128
  1659  068E  00A5               	movwf	(USART_WriteString@str+1)^(0+128)
  1660  068F  120A  158A  240B  120A  118A  	fcall	_USART_WriteString
  1661                           
  1662                           ;main.c: 212: LCD_Clear();
  1663  0694  120A  158A  23B1  120A  118A  	fcall	_LCD_Clear
  1664                           
  1665                           ;main.c: 213: LCD_Cursor(0,0);
  1666  0699  1683               	bsf	3,5	;RP0=1, select bank1
  1667  069A  1303               	bcf	3,6	;RP1=0, select bank1
  1668  069B  01A3               	clrf	LCD_Cursor@Col^(0+128)
  1669  069C  3000               	movlw	0
  1670  069D  120A  158A  232A  120A  118A  	fcall	_LCD_Cursor
  1671                           
  1672                           ;main.c: 214: LCD_WriteString("RPM: ");
  1673  06A2  3075               	movlw	low (STR_11-__stringbase)
  1674  06A3  1683               	bsf	3,5	;RP0=1, select bank1
  1675  06A4  1303               	bcf	3,6	;RP1=0, select bank1
  1676  06A5  00A5               	movwf	LCD_WriteString@Str^(0+128)
  1677  06A6  3080               	movlw	128
  1678  06A7  00A6               	movwf	(LCD_WriteString@Str+1)^(0+128)
  1679  06A8  120A  158A  23DA  120A  118A  	fcall	_LCD_WriteString
  1680                           
  1681                           ;main.c: 215: LCD_Cursor(0,6);
  1682  06AD  3006               	movlw	6
  1683  06AE  1683               	bsf	3,5	;RP0=1, select bank1
  1684  06AF  1303               	bcf	3,6	;RP1=0, select bank1
  1685  06B0  00C9               	movwf	??_main^(0+128)
  1686  06B1  0849               	movf	??_main^(0+128),w
  1687  06B2  00A3               	movwf	LCD_Cursor@Col^(0+128)
  1688  06B3  3000               	movlw	0
  1689  06B4  120A  158A  232A  120A  118A  	fcall	_LCD_Cursor
  1690                           
  1691                           ;main.c: 216: LCD_WriteString(display);
  1692  06B9  30DD               	movlw	_display& (0+255)
  1693  06BA  1683               	bsf	3,5	;RP0=1, select bank1
  1694  06BB  1303               	bcf	3,6	;RP1=0, select bank1
  1695  06BC  00A5               	movwf	LCD_WriteString@Str^(0+128)
  1696  06BD  3000               	movlw	0
  1697  06BE  00A6               	movwf	(LCD_WriteString@Str+1)^(0+128)
  1698  06BF  120A  158A  23DA  120A  118A  	fcall	_LCD_WriteString
  1699                           
  1700                           ;main.c: 218: _delay((unsigned long)((200)*(18432000/4000.0)));
  1701  06C4  3005               	movlw	5
  1702  06C5  1683               	bsf	3,5	;RP0=1, select bank1
  1703  06C6  1303               	bcf	3,6	;RP1=0, select bank1
  1704  06C7  00CB               	movwf	(??_main^(0+128)+2)
  1705  06C8  30AD               	movlw	173
  1706  06C9  00CA               	movwf	(??_main^(0+128)+1)
  1707  06CA  30E0               	movlw	224
  1708  06CB  00C9               	movwf	??_main^(0+128)
  1709  06CC                     u3277:	
  1710  06CC  0BC9               	decfsz	??_main^(0+128),f
  1711  06CD  2ECC               	goto	u3277
  1712  06CE  0BCA               	decfsz	(??_main^(0+128)+1),f
  1713  06CF  2ECC               	goto	u3277
  1714  06D0  0BCB               	decfsz	(??_main^(0+128)+2),f
  1715  06D1  2ECC               	goto	u3277
  1716  06D2  2E6C               	goto	l108
  1717  06D3                     __end_of_main:	
  1718                           
  1719                           	psect	text1
  1720  0B0B                     __ptext1:	
  1721 ;; *************** function _sprintf *****************
  1722 ;; Defined at:
  1723 ;;		line 13 in file "C:\Program Files (x86)\Microchip\xc8\v1.33\sources\common\sprintf.c"
  1724 ;; Parameters:    Size  Location     Type
  1725 ;;  wh              1    wreg     PTR unsigned char 
  1726 ;;		 -> display(10), 
  1727 ;;  f               1   32[BANK1 ] PTR const unsigned char 
  1728 ;;		 -> STR_9(5), 
  1729 ;; Auto vars:     Size  Location     Type
  1730 ;;  wh              1   37[BANK1 ] PTR unsigned char 
  1731 ;;		 -> display(10), 
  1732 ;;  pb              2   39[BANK1 ] struct __prbuf
  1733 ;;  ap              1   38[BANK1 ] PTR void [1]
  1734 ;;		 -> ?_sprintf(2), ?_printf(2), 
  1735 ;; Return value:  Size  Location     Type
  1736 ;;                  2   32[BANK1 ] int 
  1737 ;; Registers used:
  1738 ;;		wreg, fsr0l, fsr0h, status,2, status,0, btemp+1, pclath, cstack
  1739 ;; Tracked objects:
  1740 ;;		On entry : 0/0
  1741 ;;		On exit  : 0/0
  1742 ;;		Unchanged: 0/0
  1743 ;; Data sizes:     COMMON   BANK0   BANK1   BANK3   BANK2
  1744 ;;      Params:         0       0       3       0       0
  1745 ;;      Locals:         0       0       4       0       0
  1746 ;;      Temps:          0       0       2       0       0
  1747 ;;      Totals:         0       0       9       0       0
  1748 ;;Total ram usage:        9 bytes
  1749 ;; Hardware stack levels used:    1
  1750 ;; Hardware stack levels required when called:    6
  1751 ;; This function calls:
  1752 ;;		__doprnt
  1753 ;; This function is called by:
  1754 ;;		_main
  1755 ;; This function uses a non-reentrant model
  1756 ;;
  1757                           
  1758                           
  1759                           ;psect for function _sprintf
  1760  0B0B                     _sprintf:	
  1761                           
  1762                           ;incstack = 0
  1763                           ; Regs used in _sprintf: [wreg-fsr0h+status,2+status,0+btemp+1+pclath+cstack]
  1764                           ;sprintf@wh stored from wreg
  1765  0B0B  1683               	bsf	3,5	;RP0=1, select bank1
  1766  0B0C  1303               	bcf	3,6	;RP1=0, select bank1
  1767  0B0D  00C5               	movwf	sprintf@wh^(0+128)
  1768  0B0E  0845               	movf	sprintf@wh^(0+128),w
  1769  0B0F  00C3               	movwf	??_sprintf^(0+128)
  1770  0B10  0843               	movf	??_sprintf^(0+128),w
  1771  0B11  00C7               	movwf	sprintf@pb^(0+128)
  1772  0B12  01C8               	clrf	(sprintf@pb+1)^(0+128)
  1773  0B13  30C1               	movlw	(?_sprintf+1)& (0+255)
  1774  0B14  00C3               	movwf	??_sprintf^(0+128)
  1775  0B15  0843               	movf	??_sprintf^(0+128),w
  1776  0B16  00C6               	movwf	sprintf@ap^(0+128)
  1777  0B17  0840               	movf	sprintf@f^(0+128),w
  1778  0B18  00C3               	movwf	??_sprintf^(0+128)
  1779  0B19  0843               	movf	??_sprintf^(0+128),w
  1780  0B1A  00B1               	movwf	__doprnt@f^(0+128)
  1781  0B1B  30C6               	movlw	sprintf@ap& (0+255)
  1782  0B1C  00C4               	movwf	(??_sprintf+1)^(0+128)
  1783  0B1D  0844               	movf	(??_sprintf+1)^(0+128),w
  1784  0B1E  00B2               	movwf	__doprnt@ap^(0+128)
  1785  0B1F  30C7               	movlw	sprintf@pb& (0+255)
  1786  0B20  120A  118A  2109   	fcall	__doprnt
  1787  0B23  1683               	bsf	3,5	;RP0=1, select bank1
  1788  0B24  1303               	bcf	3,6	;RP1=0, select bank1
  1789  0B25  0847               	movf	sprintf@pb^(0+128),w
  1790  0B26  0084               	movwf	4
  1791  0B27  1383               	bcf	3,7	;select IRP bank0
  1792  0B28  0180               	clrf	0
  1793  0B29  0008               	return
  1794  0B2A                     __end_of_sprintf:	
  1795                           ;	Return value of _sprintf is never used
  1796                           
  1797                           
  1798                           	psect	text2
  1799  0109                     __ptext2:	
  1800 ;; *************** function __doprnt *****************
  1801 ;; Defined at:
  1802 ;;		line 458 in file "C:\Program Files (x86)\Microchip\xc8\v1.33\sources\common\doprnt.c"
  1803 ;; Parameters:    Size  Location     Type
  1804 ;;  pb              1    wreg     PTR struct __prbuf
  1805 ;;		 -> sprintf@pb(2), printf@pb(2), 
  1806 ;;  f               1   17[BANK1 ] PTR const unsigned char 
  1807 ;;		 -> STR_9(5), STR_5(2), STR_4(2), STR_3(2), 
  1808 ;;		 -> STR_2(2), STR_1(2), 
  1809 ;;  ap              1   18[BANK1 ] PTR PTR void 
  1810 ;;		 -> sprintf@ap(1), printf@ap(1), 
  1811 ;; Auto vars:     Size  Location     Type
  1812 ;;  pb              1   31[BANK1 ] PTR struct __prbuf
  1813 ;;		 -> sprintf@pb(2), printf@pb(2), 
  1814 ;;  _val            4   23[BANK1 ] struct .
  1815 ;;  width           2   28[BANK1 ] int 
  1816 ;;  c               1   30[BANK1 ] char 
  1817 ;;  flag            1   27[BANK1 ] unsigned char 
  1818 ;;  prec            1   22[BANK1 ] char 
  1819 ;; Return value:  Size  Location     Type
  1820 ;;                  2   17[BANK1 ] int 
  1821 ;; Registers used:
  1822 ;;		wreg, fsr0l, fsr0h, status,2, status,0, btemp+1, pclath, cstack
  1823 ;; Tracked objects:
  1824 ;;		On entry : 0/0
  1825 ;;		On exit  : 0/0
  1826 ;;		Unchanged: 0/0
  1827 ;; Data sizes:     COMMON   BANK0   BANK1   BANK3   BANK2
  1828 ;;      Params:         0       0       2       0       0
  1829 ;;      Locals:         0       0      10       0       0
  1830 ;;      Temps:          0       0       3       0       0
  1831 ;;      Totals:         0       0      15       0       0
  1832 ;;Total ram usage:       15 bytes
  1833 ;; Hardware stack levels used:    1
  1834 ;; Hardware stack levels required when called:    5
  1835 ;; This function calls:
  1836 ;;		Absolute function
  1837 ;;		___lwdiv
  1838 ;;		___lwmod
  1839 ;;		___wmul
  1840 ;;		_isdigit
  1841 ;;		_putch
  1842 ;; This function is called by:
  1843 ;;		_sprintf
  1844 ;; This function uses a non-reentrant model
  1845 ;;
  1846                           
  1847                           
  1848                           ;psect for function __doprnt
  1849  0109                     __doprnt:	
  1850                           
  1851                           ;incstack = 0
  1852                           ; Regs used in __doprnt: [wreg-fsr0h+status,2+status,0+btemp+1+pclath+cstack]
  1853                           ;__doprnt@pb stored from wreg
  1854  0109  1683               	bsf	3,5	;RP0=1, select bank1
  1855  010A  1303               	bcf	3,6	;RP1=0, select bank1
  1856  010B  00BF               	movwf	__doprnt@pb^(0+128)
  1857  010C                     l2203:	
  1858                           ;doprnt.c: 499: signed char c;
  1859                           ;doprnt.c: 501: int width;
  1860                           ;doprnt.c: 506: signed char prec;
  1861                           ;doprnt.c: 508: unsigned char flag;
  1862                           ;doprnt.c: 527: union {
  1863                           ;doprnt.c: 528: unsigned int _val;
  1864                           ;doprnt.c: 529: struct {
  1865                           ;doprnt.c: 530: const char * _cp;
  1866                           ;doprnt.c: 531: unsigned _len;
  1867                           ;doprnt.c: 532: } _str;
  1868                           ;doprnt.c: 533: } _val;
  1869                           ;doprnt.c: 545: while(c = *f++) {
  1870                           
  1871  010C  3001               	movlw	1
  1872  010D  1683               	bsf	3,5	;RP0=1, select bank1
  1873  010E  1303               	bcf	3,6	;RP1=0, select bank1
  1874  010F  07B1               	addwf	__doprnt@f^(0+128),f
  1875  0110  30FF               	movlw	-1
  1876  0111  0731               	addwf	__doprnt@f^(0+128),w
  1877  0112  0084               	movwf	4
  1878  0113  120A  158A  200A  120A  118A  	fcall	stringdir
  1879  0118  00B3               	movwf	??__doprnt^(0+128)
  1880  0119  0833               	movf	??__doprnt^(0+128),w
  1881  011A  00BE               	movwf	__doprnt@c^(0+128)
  1882  011B  08BE               	movf	__doprnt@c^(0+128),f
  1883  011C  1903               	btfsc	3,2
  1884  011D  2B57               	goto	l2205
  1885                           
  1886                           ;doprnt.c: 547: if(c != '%')
  1887  011E  083E               	movf	__doprnt@c^(0+128),w
  1888  011F  3A25               	xorlw	37
  1889  0120  1903               	skipnz
  1890  0121  2947               	goto	l2089
  1891                           
  1892                           ;doprnt.c: 549: {
  1893                           ;doprnt.c: 550: if(pb->func) (pb->func(c)); else ((*pb->ptr++ = c));
  1894  0122  0A3F               	incf	__doprnt@pb^(0+128),w
  1895  0123  0084               	movwf	4
  1896  0124  1383               	bcf	3,7	;select IRP bank0
  1897  0125  0880               	movf	0,f
  1898  0126  1903               	skipnz
  1899  0127  2935               	goto	l2085
  1900  0128  083E               	movf	__doprnt@c^(0+128),w
  1901  0129  00B3               	movwf	??__doprnt^(0+128)
  1902  012A  0833               	movf	??__doprnt^(0+128),w
  1903  012B  00A3               	movwf	putch@c^(0+128)
  1904  012C  0A3F               	incf	__doprnt@pb^(0+128),w
  1905  012D  0084               	movwf	4
  1906  012E  0800               	movf	0,w
  1907  012F  120A  118A  2100  120A  118A  	fcall	fptable
  1908  0134  290C               	goto	l2203
  1909  0135                     l2085:	
  1910  0135  1683               	bsf	3,5	;RP0=1, select bank1
  1911  0136  1303               	bcf	3,6	;RP1=0, select bank1
  1912  0137  083E               	movf	__doprnt@c^(0+128),w
  1913  0138  00B3               	movwf	??__doprnt^(0+128)
  1914  0139  083F               	movf	__doprnt@pb^(0+128),w
  1915  013A  0084               	movwf	4
  1916  013B  1383               	bcf	3,7	;select IRP bank0
  1917  013C  0800               	movf	0,w
  1918  013D  0084               	movwf	4
  1919  013E  0833               	movf	??__doprnt^(0+128),w
  1920  013F  0080               	movwf	0
  1921  0140  3001               	movlw	1
  1922  0141  00B3               	movwf	??__doprnt^(0+128)
  1923  0142  083F               	movf	__doprnt@pb^(0+128),w
  1924  0143  0084               	movwf	4
  1925  0144  0833               	movf	??__doprnt^(0+128),w
  1926  0145  0780               	addwf	0,f
  1927                           
  1928                           ;doprnt.c: 551: continue;
  1929  0146  290C               	goto	l2203
  1930  0147                     l2089:	
  1931                           
  1932                           ;doprnt.c: 552: }
  1933                           ;doprnt.c: 555: width = 0;
  1934  0147  01BC               	clrf	__doprnt@width^(0+128)
  1935  0148  01BD               	clrf	(__doprnt@width+1)^(0+128)
  1936                           
  1937                           ;doprnt.c: 557: flag = 0;
  1938  0149  01BB               	clrf	__doprnt@flag^(0+128)
  1939                           
  1940                           ;doprnt.c: 560: switch(*f) {
  1941                           
  1942                           ;doprnt.c: 559: for(;;) {
  1943  014A  2950               	goto	l2095
  1944  014B                     l385:	
  1945                           ;doprnt.c: 588: case '0':
  1946                           
  1947                           
  1948                           ;doprnt.c: 589: flag |= 0x04;
  1949  014B  153B               	bsf	__doprnt@flag^(0+128),2
  1950                           
  1951                           ;doprnt.c: 590: f++;
  1952  014C  3001               	movlw	1
  1953  014D  00B3               	movwf	??__doprnt^(0+128)
  1954  014E  0833               	movf	??__doprnt^(0+128),w
  1955  014F  07B1               	addwf	__doprnt@f^(0+128),f
  1956  0150                     l2095:	
  1957                           ;doprnt.c: 593: }
  1958                           
  1959                           ;doprnt.c: 591: continue;
  1960                           
  1961  0150  0831               	movf	__doprnt@f^(0+128),w
  1962  0151  0084               	movwf	4
  1963  0152  120A  158A  200A  120A  118A  	fcall	stringdir
  1964                           
  1965                           ; Switch size 1, requested type "space"
  1966                           ; Number of cases is 1, Range of values is 48 to 48
  1967                           ; switch strategies available:
  1968                           ; Name         Instructions Cycles
  1969                           ; simple_byte            4     3 (average)
  1970                           ; direct_byte           14    11 (fixed)
  1971                           ; jumptable            263     9 (fixed)
  1972                           ;	Chosen strategy is simple_byte
  1973  0157  3A30               	xorlw	48	; case 48
  1974  0158  1903               	skipnz
  1975  0159  294B               	goto	l385
  1976  015A  295B               	goto	l2097
  1977  015B                     l2097:	
  1978                           ;doprnt.c: 595: }
  1979                           
  1980                           ;doprnt.c: 594: break;
  1981                           
  1982                           
  1983                           ;doprnt.c: 606: if(isdigit((unsigned)*f)) {
  1984  015B  0831               	movf	__doprnt@f^(0+128),w
  1985  015C  0084               	movwf	4
  1986  015D  120A  158A  200A  120A  118A  	fcall	stringdir
  1987  0162  120A  158A  228C  120A  118A  	fcall	_isdigit
  1988  0167  1C03               	btfss	3,0
  1989  0168  29AB               	goto	l2111
  1990                           
  1991                           ;doprnt.c: 607: width = 0;
  1992  0169  1683               	bsf	3,5	;RP0=1, select bank1
  1993  016A  1303               	bcf	3,6	;RP1=0, select bank1
  1994  016B  01BC               	clrf	__doprnt@width^(0+128)
  1995  016C  01BD               	clrf	(__doprnt@width+1)^(0+128)
  1996  016D                     l2101:	
  1997                           ;doprnt.c: 608: do {
  1998                           
  1999                           
  2000                           ;doprnt.c: 609: width *= 10;
  2001  016D  300A               	movlw	10
  2002  016E  1683               	bsf	3,5	;RP0=1, select bank1
  2003  016F  1303               	bcf	3,6	;RP1=0, select bank1
  2004  0170  00A3               	movwf	___wmul@multiplier^(0+128)
  2005  0171  3000               	movlw	0
  2006  0172  00A4               	movwf	(___wmul@multiplier^(0+128)+1)
  2007  0173  083D               	movf	(__doprnt@width+1)^(0+128),w
  2008  0174  01A6               	clrf	(___wmul@multiplicand+1)^(0+128)
  2009  0175  07A6               	addwf	(___wmul@multiplicand+1)^(0+128),f
  2010  0176  083C               	movf	__doprnt@width^(0+128),w
  2011  0177  01A5               	clrf	___wmul@multiplicand^(0+128)
  2012  0178  07A5               	addwf	___wmul@multiplicand^(0+128),f
  2013  0179  120A  158A  238C  120A  118A  	fcall	___wmul
  2014  017E  1683               	bsf	3,5	;RP0=1, select bank1
  2015  017F  1303               	bcf	3,6	;RP1=0, select bank1
  2016  0180  0824               	movf	(?___wmul+1)^(0+128),w
  2017  0181  01BD               	clrf	(__doprnt@width+1)^(0+128)
  2018  0182  07BD               	addwf	(__doprnt@width+1)^(0+128),f
  2019  0183  0823               	movf	?___wmul^(0+128),w
  2020  0184  01BC               	clrf	__doprnt@width^(0+128)
  2021  0185  07BC               	addwf	__doprnt@width^(0+128),f
  2022                           
  2023                           ;doprnt.c: 610: width += *f++ - '0';
  2024  0186  0831               	movf	__doprnt@f^(0+128),w
  2025  0187  0084               	movwf	4
  2026  0188  120A  158A  200A  120A  118A  	fcall	stringdir
  2027  018D  3ED0               	addlw	208
  2028  018E  00B3               	movwf	??__doprnt^(0+128)
  2029  018F  30FF               	movlw	255
  2030  0190  1803               	skipnc
  2031  0191  3000               	movlw	0
  2032  0192  00B4               	movwf	(??__doprnt^(0+128)+1)
  2033  0193  0833               	movf	??__doprnt^(0+128),w
  2034  0194  07BC               	addwf	__doprnt@width^(0+128),f
  2035  0195  1803               	skipnc
  2036  0196  0ABD               	incf	(__doprnt@width+1)^(0+128),f
  2037  0197  0834               	movf	(??__doprnt+1)^(0+128),w
  2038  0198  07BD               	addwf	(__doprnt@width+1)^(0+128),f
  2039  0199  3001               	movlw	1
  2040  019A  00B3               	movwf	??__doprnt^(0+128)
  2041  019B  0833               	movf	??__doprnt^(0+128),w
  2042  019C  07B1               	addwf	__doprnt@f^(0+128),f
  2043                           
  2044                           ;doprnt.c: 611: } while(isdigit((unsigned)*f));
  2045  019D  0831               	movf	__doprnt@f^(0+128),w
  2046  019E  0084               	movwf	4
  2047  019F  120A  158A  200A  120A  118A  	fcall	stringdir
  2048  01A4  120A  158A  228C  120A  118A  	fcall	_isdigit
  2049  01A9  1803               	btfsc	3,0
  2050  01AA  296D               	goto	l2101
  2051  01AB                     l2111:	
  2052                           ;doprnt.c: 831: }
  2053                           
  2054                           ;doprnt.c: 822: continue;
  2055                           
  2056                           ;doprnt.c: 811: default:
  2057                           
  2058                           ;doprnt.c: 707: case 'i':
  2059                           ;doprnt.c: 708: break;
  2060                           
  2061                           ;doprnt.c: 706: case 'd':
  2062                           
  2063                           ;doprnt.c: 647: goto alldone;
  2064                           
  2065                           ;doprnt.c: 646: case 0:
  2066                           
  2067                           ;doprnt.c: 617: }
  2068                           ;doprnt.c: 644: switch(c = *f++) {
  2069                           
  2070  01AB  3001               	movlw	1
  2071  01AC  1683               	bsf	3,5	;RP0=1, select bank1
  2072  01AD  1303               	bcf	3,6	;RP1=0, select bank1
  2073  01AE  07B1               	addwf	__doprnt@f^(0+128),f
  2074  01AF  30FF               	movlw	-1
  2075  01B0  0731               	addwf	__doprnt@f^(0+128),w
  2076  01B1  0084               	movwf	4
  2077  01B2  120A  158A  200A  120A  118A  	fcall	stringdir
  2078  01B7  00BE               	movwf	__doprnt@c^(0+128)
  2079                           
  2080                           ; Switch size 1, requested type "space"
  2081                           ; Number of cases is 3, Range of values is 0 to 105
  2082                           ; switch strategies available:
  2083                           ; Name         Instructions Cycles
  2084                           ; simple_byte           10     6 (average)
  2085                           ; jumptable            260     6 (fixed)
  2086                           ;	Chosen strategy is simple_byte
  2087  01B8  3A00               	xorlw	0	; case 0
  2088  01B9  1903               	skipnz
  2089  01BA  2B57               	goto	l2205
  2090  01BB  3A64               	xorlw	100	; case 100
  2091  01BC  1903               	skipnz
  2092  01BD  29C2               	goto	l2113
  2093  01BE  3A0D               	xorlw	13	; case 105
  2094  01BF  1903               	skipnz
  2095  01C0  29C2               	goto	l2113
  2096  01C1  290C               	goto	l2203
  2097  01C2                     l2113:	
  2098                           
  2099                           ;doprnt.c: 1262: {
  2100                           ;doprnt.c: 1268: _val._val = (int)(*(int *)__va_arg((*(int **)ap), (int)0));
  2101  01C2  1683               	bsf	3,5	;RP0=1, select bank1
  2102  01C3  1303               	bcf	3,6	;RP1=0, select bank1
  2103  01C4  0832               	movf	__doprnt@ap^(0+128),w
  2104  01C5  0084               	movwf	4
  2105  01C6  1383               	bcf	3,7	;select IRP bank0
  2106  01C7  0800               	movf	0,w
  2107  01C8  00B3               	movwf	??__doprnt^(0+128)
  2108  01C9  3002               	movlw	2
  2109  01CA  0780               	addwf	0,f
  2110  01CB  0833               	movf	??__doprnt^(0+128),w
  2111  01CC  0084               	movwf	4
  2112  01CD  0800               	movf	0,w
  2113  01CE  00B7               	movwf	__doprnt@_val^(0+128)
  2114  01CF  0A84               	incf	4,f
  2115  01D0  0800               	movf	0,w
  2116  01D1  00B8               	movwf	(__doprnt@_val+1)^(0+128)
  2117                           
  2118                           ;doprnt.c: 1270: if((int)_val._val < 0) {
  2119  01D2  1FB8               	btfss	(__doprnt@_val+1)^(0+128),7
  2120  01D3  29DD               	goto	l2121
  2121                           
  2122                           ;doprnt.c: 1271: flag |= 0x03;
  2123  01D4  3003               	movlw	3
  2124  01D5  00B3               	movwf	??__doprnt^(0+128)
  2125  01D6  0833               	movf	??__doprnt^(0+128),w
  2126  01D7  04BB               	iorwf	__doprnt@flag^(0+128),f
  2127                           
  2128                           ;doprnt.c: 1272: _val._val = -_val._val;
  2129  01D8  09B7               	comf	__doprnt@_val^(0+128),f
  2130  01D9  09B8               	comf	(__doprnt@_val+1)^(0+128),f
  2131  01DA  0AB7               	incf	__doprnt@_val^(0+128),f
  2132  01DB  1903               	skipnz
  2133  01DC  0AB8               	incf	(__doprnt@_val+1)^(0+128),f
  2134  01DD                     l2121:	
  2135                           
  2136                           ;doprnt.c: 1273: }
  2137                           ;doprnt.c: 1275: }
  2138                           ;doprnt.c: 1314: for(c = 1 ; c != sizeof dpowers/sizeof dpowers[0] ; c++)
  2139  01DD  01BE               	clrf	__doprnt@c^(0+128)
  2140  01DE  0ABE               	incf	__doprnt@c^(0+128),f
  2141  01DF  083E               	movf	__doprnt@c^(0+128),w
  2142  01E0  3A05               	xorlw	5
  2143  01E1  1903               	btfsc	3,2
  2144  01E2  2A04               	goto	l2133
  2145  01E3                     l2125:	
  2146                           
  2147                           ;doprnt.c: 1315: if(_val._val < dpowers[c])
  2148  01E3  083E               	movf	__doprnt@c^(0+128),w
  2149  01E4  00B3               	movwf	??__doprnt^(0+128)
  2150  01E5  0733               	addwf	??__doprnt^(0+128),w
  2151  01E6  3E01               	addlw	low (_dpowers-__stringbase)
  2152  01E7  0084               	movwf	4
  2153  01E8  120A  158A  200A  120A  118A  	fcall	stringdir
  2154  01ED  00B4               	movwf	(??__doprnt+1)^(0+128)
  2155  01EE  120A  158A  200A  120A  118A  	fcall	stringdir
  2156  01F3  00B5               	movwf	((??__doprnt+1)^(0+128)+1)
  2157  01F4  0835               	movf	(??__doprnt+2)^(0+128),w
  2158  01F5  0238               	subwf	(__doprnt@_val+1)^(0+128),w
  2159  01F6  1D03               	skipz
  2160  01F7  29FA               	goto	u2075
  2161  01F8  0834               	movf	(??__doprnt+1)^(0+128),w
  2162  01F9  0237               	subwf	__doprnt@_val^(0+128),w
  2163  01FA                     u2075:	
  2164  01FA  1C03               	btfss	3,0
  2165  01FB  2A04               	goto	l2133
  2166                           
  2167                           ;doprnt.c: 1316: break;
  2168  01FC  3001               	movlw	1
  2169  01FD  00B3               	movwf	??__doprnt^(0+128)
  2170  01FE  0833               	movf	??__doprnt^(0+128),w
  2171  01FF  07BE               	addwf	__doprnt@c^(0+128),f
  2172  0200  083E               	movf	__doprnt@c^(0+128),w
  2173  0201  3A05               	xorlw	5
  2174  0202  1D03               	skipz
  2175  0203  29E3               	goto	l2125
  2176  0204                     l2133:	
  2177                           
  2178                           ;doprnt.c: 1354: if(width && flag & 0x03)
  2179  0204  083D               	movf	(__doprnt@width+1)^(0+128),w
  2180  0205  043C               	iorwf	__doprnt@width^(0+128),w
  2181  0206  1903               	skipnz
  2182  0207  2A12               	goto	l403
  2183  0208  083B               	movf	__doprnt@flag^(0+128),w
  2184  0209  3903               	andlw	3
  2185  020A  1903               	btfsc	3,2
  2186  020B  2A12               	goto	l403
  2187                           
  2188                           ;doprnt.c: 1355: width--;
  2189  020C  30FF               	movlw	255
  2190  020D  07BC               	addwf	__doprnt@width^(0+128),f
  2191  020E  1803               	skipnc
  2192  020F  0ABD               	incf	(__doprnt@width+1)^(0+128),f
  2193  0210  30FF               	movlw	255
  2194  0211  07BD               	addwf	(__doprnt@width+1)^(0+128),f
  2195  0212                     l403:	
  2196                           
  2197                           ;doprnt.c: 1390: if(width > c)
  2198  0212  083E               	movf	__doprnt@c^(0+128),w
  2199  0213  00B3               	movwf	??__doprnt^(0+128)
  2200  0214  01B4               	clrf	(??__doprnt^(0+128)+1)
  2201  0215  1BB3               	btfsc	??__doprnt^(0+128),7
  2202  0216  03B4               	decf	(??__doprnt^(0+128)+1),f
  2203  0217  0834               	movf	(??__doprnt+1)^(0+128),w
  2204  0218  3A80               	xorlw	128
  2205  0219  00B5               	movwf	(??__doprnt+2)^(0+128)
  2206  021A  083D               	movf	(__doprnt@width+1)^(0+128),w
  2207  021B  3A80               	xorlw	128
  2208  021C  0235               	subwf	(??__doprnt+2)^(0+128),w
  2209  021D  1D03               	skipz
  2210  021E  2A21               	goto	u2115
  2211  021F  083C               	movf	__doprnt@width^(0+128),w
  2212  0220  0233               	subwf	??__doprnt^(0+128),w
  2213  0221                     u2115:	
  2214  0221  1803               	skipnc
  2215  0222  2A31               	goto	l2141
  2216                           
  2217                           ;doprnt.c: 1391: width -= c;
  2218  0223  1683               	bsf	3,5	;RP0=1, select bank1
  2219  0224  1303               	bcf	3,6	;RP1=0, select bank1
  2220  0225  083E               	movf	__doprnt@c^(0+128),w
  2221  0226  00B3               	movwf	??__doprnt^(0+128)
  2222  0227  01B4               	clrf	(??__doprnt^(0+128)+1)
  2223  0228  1BB3               	btfsc	??__doprnt^(0+128),7
  2224  0229  03B4               	decf	(??__doprnt^(0+128)+1),f
  2225  022A  0833               	movf	??__doprnt^(0+128),w
  2226  022B  02BC               	subwf	__doprnt@width^(0+128),f
  2227  022C  0834               	movf	(??__doprnt+1)^(0+128),w
  2228  022D  1C03               	skipc
  2229  022E  03BD               	decf	(__doprnt@width+1)^(0+128),f
  2230  022F  02BD               	subwf	(__doprnt@width+1)^(0+128),f
  2231  0230  2A35               	goto	l2143
  2232  0231                     l2141:	
  2233                           
  2234                           ;doprnt.c: 1392: else
  2235                           ;doprnt.c: 1393: width = 0;
  2236  0231  1683               	bsf	3,5	;RP0=1, select bank1
  2237  0232  1303               	bcf	3,6	;RP1=0, select bank1
  2238  0233  01BC               	clrf	__doprnt@width^(0+128)
  2239  0234  01BD               	clrf	(__doprnt@width+1)^(0+128)
  2240  0235                     l2143:	
  2241                           
  2242                           ;doprnt.c: 1396: if(flag & 0x04) {
  2243  0235  1D3B               	btfss	__doprnt@flag^(0+128),2
  2244  0236  2A92               	goto	l2167
  2245                           
  2246                           ;doprnt.c: 1401: if(flag & 0x03)
  2247  0237  083B               	movf	__doprnt@flag^(0+128),w
  2248  0238  3903               	andlw	3
  2249  0239  1903               	btfsc	3,2
  2250  023A  2A5F               	goto	l2155
  2251                           
  2252                           ;doprnt.c: 1402: if(pb->func) (pb->func('-')); else ((*pb->ptr++ = '-'));
  2253  023B  0A3F               	incf	__doprnt@pb^(0+128),w
  2254  023C  0084               	movwf	4
  2255  023D  1383               	bcf	3,7	;select IRP bank0
  2256  023E  0880               	movf	0,f
  2257  023F  1903               	skipnz
  2258  0240  2A4E               	goto	l2151
  2259  0241  302D               	movlw	45
  2260  0242  00B3               	movwf	??__doprnt^(0+128)
  2261  0243  0833               	movf	??__doprnt^(0+128),w
  2262  0244  00A3               	movwf	putch@c^(0+128)
  2263  0245  0A3F               	incf	__doprnt@pb^(0+128),w
  2264  0246  0084               	movwf	4
  2265  0247  0800               	movf	0,w
  2266  0248  120A  118A  2100  120A  118A  	fcall	fptable
  2267  024D  2A5F               	goto	l2155
  2268  024E                     l2151:	
  2269  024E  302D               	movlw	45
  2270  024F  1683               	bsf	3,5	;RP0=1, select bank1
  2271  0250  1303               	bcf	3,6	;RP1=0, select bank1
  2272  0251  00B3               	movwf	??__doprnt^(0+128)
  2273  0252  083F               	movf	__doprnt@pb^(0+128),w
  2274  0253  0084               	movwf	4
  2275  0254  1383               	bcf	3,7	;select IRP bank0
  2276  0255  0800               	movf	0,w
  2277  0256  0084               	movwf	4
  2278  0257  0833               	movf	??__doprnt^(0+128),w
  2279  0258  0080               	movwf	0
  2280  0259  3001               	movlw	1
  2281  025A  00B3               	movwf	??__doprnt^(0+128)
  2282  025B  083F               	movf	__doprnt@pb^(0+128),w
  2283  025C  0084               	movwf	4
  2284  025D  0833               	movf	??__doprnt^(0+128),w
  2285  025E  0780               	addwf	0,f
  2286  025F                     l2155:	
  2287                           
  2288                           ;doprnt.c: 1424: if(width)
  2289  025F  1683               	bsf	3,5	;RP0=1, select bank1
  2290  0260  1303               	bcf	3,6	;RP1=0, select bank1
  2291  0261                     L2:	
  2292  0261  083D               	movf	(__doprnt@width+1)^(0+128),w
  2293  0262  043C               	iorwf	__doprnt@width^(0+128),w
  2294  0263  1903               	skipnz
  2295  0264  2AEE               	goto	l2189
  2296                           
  2297                           ;doprnt.c: 1426: if(pb->func) (pb->func('0')); else ((*pb->ptr++ = '0'));
  2298                           
  2299                           ;doprnt.c: 1425: do
  2300  0265  0A3F               	incf	__doprnt@pb^(0+128),w
  2301  0266  0084               	movwf	4
  2302  0267  1383               	bcf	3,7	;select IRP bank0
  2303  0268  0880               	movf	0,f
  2304  0269  1903               	skipnz
  2305  026A  2A78               	goto	l2161
  2306  026B  3030               	movlw	48
  2307  026C  00B3               	movwf	??__doprnt^(0+128)
  2308  026D  0833               	movf	??__doprnt^(0+128),w
  2309  026E  00A3               	movwf	putch@c^(0+128)
  2310  026F  0A3F               	incf	__doprnt@pb^(0+128),w
  2311  0270  0084               	movwf	4
  2312  0271  0800               	movf	0,w
  2313  0272  120A  118A  2100  120A  118A  	fcall	fptable
  2314  0277  2A89               	goto	l2165
  2315  0278                     l2161:	
  2316  0278  3030               	movlw	48
  2317  0279  1683               	bsf	3,5	;RP0=1, select bank1
  2318  027A  1303               	bcf	3,6	;RP1=0, select bank1
  2319  027B  00B3               	movwf	??__doprnt^(0+128)
  2320  027C  083F               	movf	__doprnt@pb^(0+128),w
  2321  027D  0084               	movwf	4
  2322  027E  1383               	bcf	3,7	;select IRP bank0
  2323  027F  0800               	movf	0,w
  2324  0280  0084               	movwf	4
  2325  0281  0833               	movf	??__doprnt^(0+128),w
  2326  0282  0080               	movwf	0
  2327  0283  3001               	movlw	1
  2328  0284  00B3               	movwf	??__doprnt^(0+128)
  2329  0285  083F               	movf	__doprnt@pb^(0+128),w
  2330  0286  0084               	movwf	4
  2331  0287  0833               	movf	??__doprnt^(0+128),w
  2332  0288  0780               	addwf	0,f
  2333  0289                     l2165:	
  2334                           
  2335                           ;doprnt.c: 1427: while(--width);
  2336  0289  30FF               	movlw	255
  2337  028A  1683               	bsf	3,5	;RP0=1, select bank1
  2338  028B  1303               	bcf	3,6	;RP1=0, select bank1
  2339  028C  07BC               	addwf	__doprnt@width^(0+128),f
  2340  028D  1803               	skipnc
  2341  028E  0ABD               	incf	(__doprnt@width+1)^(0+128),f
  2342  028F  30FF               	movlw	255
  2343  0290  07BD               	addwf	(__doprnt@width+1)^(0+128),f
  2344  0291  2A61               	goto	L2
  2345  0292                     l2167:	
  2346                           ;doprnt.c: 1429: } else
  2347                           
  2348                           
  2349                           ;doprnt.c: 1431: {
  2350                           ;doprnt.c: 1433: if(width
  2351                           ;doprnt.c: 1437: )
  2352  0292  083D               	movf	(__doprnt@width+1)^(0+128),w
  2353  0293  043C               	iorwf	__doprnt@width^(0+128),w
  2354  0294  1903               	skipnz
  2355  0295  2AC6               	goto	l2179
  2356  0296                     l2169:	
  2357                           ;doprnt.c: 1438: do
  2358                           
  2359                           
  2360                           ;doprnt.c: 1439: if(pb->func) (pb->func(' ')); else ((*pb->ptr++ = ' '));
  2361  0296  0A3F               	incf	__doprnt@pb^(0+128),w
  2362  0297  0084               	movwf	4
  2363  0298  1383               	bcf	3,7	;select IRP bank0
  2364  0299  0880               	movf	0,f
  2365  029A  1903               	skipnz
  2366  029B  2AA9               	goto	l2173
  2367  029C  3020               	movlw	32
  2368  029D  00B3               	movwf	??__doprnt^(0+128)
  2369  029E  0833               	movf	??__doprnt^(0+128),w
  2370  029F  00A3               	movwf	putch@c^(0+128)
  2371  02A0  0A3F               	incf	__doprnt@pb^(0+128),w
  2372  02A1  0084               	movwf	4
  2373  02A2  0800               	movf	0,w
  2374  02A3  120A  118A  2100  120A  118A  	fcall	fptable
  2375  02A8  2ABA               	goto	l2177
  2376  02A9                     l2173:	
  2377  02A9  3020               	movlw	32
  2378  02AA  1683               	bsf	3,5	;RP0=1, select bank1
  2379  02AB  1303               	bcf	3,6	;RP1=0, select bank1
  2380  02AC  00B3               	movwf	??__doprnt^(0+128)
  2381  02AD  083F               	movf	__doprnt@pb^(0+128),w
  2382  02AE  0084               	movwf	4
  2383  02AF  1383               	bcf	3,7	;select IRP bank0
  2384  02B0  0800               	movf	0,w
  2385  02B1  0084               	movwf	4
  2386  02B2  0833               	movf	??__doprnt^(0+128),w
  2387  02B3  0080               	movwf	0
  2388  02B4  3001               	movlw	1
  2389  02B5  00B3               	movwf	??__doprnt^(0+128)
  2390  02B6  083F               	movf	__doprnt@pb^(0+128),w
  2391  02B7  0084               	movwf	4
  2392  02B8  0833               	movf	??__doprnt^(0+128),w
  2393  02B9  0780               	addwf	0,f
  2394  02BA                     l2177:	
  2395                           
  2396                           ;doprnt.c: 1440: while(--width);
  2397  02BA  30FF               	movlw	255
  2398  02BB  1683               	bsf	3,5	;RP0=1, select bank1
  2399  02BC  1303               	bcf	3,6	;RP1=0, select bank1
  2400  02BD  07BC               	addwf	__doprnt@width^(0+128),f
  2401  02BE  1803               	skipnc
  2402  02BF  0ABD               	incf	(__doprnt@width+1)^(0+128),f
  2403  02C0  30FF               	movlw	255
  2404  02C1  07BD               	addwf	(__doprnt@width+1)^(0+128),f
  2405  02C2  083D               	movf	(__doprnt@width+1)^(0+128),w
  2406  02C3  043C               	iorwf	__doprnt@width^(0+128),w
  2407  02C4  1D03               	skipz
  2408  02C5  2A96               	goto	l2169
  2409  02C6                     l2179:	
  2410                           
  2411                           ;doprnt.c: 1447: if(flag & 0x03)
  2412  02C6  083B               	movf	__doprnt@flag^(0+128),w
  2413  02C7  3903               	andlw	3
  2414  02C8  1903               	btfsc	3,2
  2415  02C9  2AEE               	goto	l2189
  2416                           
  2417                           ;doprnt.c: 1448: if(pb->func) (pb->func('-')); else ((*pb->ptr++ = '-'));
  2418  02CA  0A3F               	incf	__doprnt@pb^(0+128),w
  2419  02CB  0084               	movwf	4
  2420  02CC  1383               	bcf	3,7	;select IRP bank0
  2421  02CD  0880               	movf	0,f
  2422  02CE  1903               	skipnz
  2423  02CF  2ADD               	goto	l2185
  2424  02D0  302D               	movlw	45
  2425  02D1  00B3               	movwf	??__doprnt^(0+128)
  2426  02D2  0833               	movf	??__doprnt^(0+128),w
  2427  02D3  00A3               	movwf	putch@c^(0+128)
  2428  02D4  0A3F               	incf	__doprnt@pb^(0+128),w
  2429  02D5  0084               	movwf	4
  2430  02D6  0800               	movf	0,w
  2431  02D7  120A  118A  2100  120A  118A  	fcall	fptable
  2432  02DC  2AEE               	goto	l2189
  2433  02DD                     l2185:	
  2434  02DD  302D               	movlw	45
  2435  02DE  1683               	bsf	3,5	;RP0=1, select bank1
  2436  02DF  1303               	bcf	3,6	;RP1=0, select bank1
  2437  02E0  00B3               	movwf	??__doprnt^(0+128)
  2438  02E1  083F               	movf	__doprnt@pb^(0+128),w
  2439  02E2  0084               	movwf	4
  2440  02E3  1383               	bcf	3,7	;select IRP bank0
  2441  02E4  0800               	movf	0,w
  2442  02E5  0084               	movwf	4
  2443  02E6  0833               	movf	??__doprnt^(0+128),w
  2444  02E7  0080               	movwf	0
  2445  02E8  3001               	movlw	1
  2446  02E9  00B3               	movwf	??__doprnt^(0+128)
  2447  02EA  083F               	movf	__doprnt@pb^(0+128),w
  2448  02EB  0084               	movwf	4
  2449  02EC  0833               	movf	??__doprnt^(0+128),w
  2450  02ED  0780               	addwf	0,f
  2451  02EE                     l2189:	
  2452                           
  2453                           ;doprnt.c: 1478: }
  2454                           ;doprnt.c: 1481: prec = c;
  2455  02EE  1683               	bsf	3,5	;RP0=1, select bank1
  2456  02EF  1303               	bcf	3,6	;RP1=0, select bank1
  2457  02F0  083E               	movf	__doprnt@c^(0+128),w
  2458  02F1  00B3               	movwf	??__doprnt^(0+128)
  2459  02F2  0833               	movf	??__doprnt^(0+128),w
  2460  02F3  00B6               	movwf	__doprnt@prec^(0+128)
  2461  02F4                     l2201:	
  2462                           ;doprnt.c: 1483: while(prec--) {
  2463                           
  2464  02F4  30FF               	movlw	-1
  2465  02F5  1683               	bsf	3,5	;RP0=1, select bank1
  2466  02F6  1303               	bcf	3,6	;RP1=0, select bank1
  2467  02F7  00B3               	movwf	??__doprnt^(0+128)
  2468  02F8  0833               	movf	??__doprnt^(0+128),w
  2469  02F9  07B6               	addwf	__doprnt@prec^(0+128),f
  2470  02FA  0836               	movf	__doprnt@prec^(0+128),w
  2471  02FB  3AFF               	xorlw	-1
  2472  02FC  1903               	btfsc	3,2
  2473  02FD  290C               	goto	l2203
  2474                           
  2475                           ;doprnt.c: 1487: {
  2476                           ;doprnt.c: 1498: c = (_val._val / dpowers[prec]) % 10 + '0';
  2477  02FE  300A               	movlw	10
  2478  02FF  00AB               	movwf	___lwmod@divisor^(0+128)
  2479  0300  3000               	movlw	0
  2480  0301  00AC               	movwf	(___lwmod@divisor^(0+128)+1)
  2481  0302  0836               	movf	__doprnt@prec^(0+128),w
  2482  0303  00B3               	movwf	??__doprnt^(0+128)
  2483  0304  0733               	addwf	??__doprnt^(0+128),w
  2484  0305  3E01               	addlw	low (_dpowers-__stringbase)
  2485  0306  0084               	movwf	4
  2486  0307  120A  158A  200A  120A  118A  	fcall	stringdir
  2487  030C  00A3               	movwf	___lwdiv@divisor^(0+128)
  2488  030D  120A  158A  200A  120A  118A  	fcall	stringdir
  2489  0312  00A4               	movwf	(___lwdiv@divisor+1)^(0+128)
  2490  0313  0838               	movf	(__doprnt@_val+1)^(0+128),w
  2491  0314  01A6               	clrf	(___lwdiv@dividend+1)^(0+128)
  2492  0315  07A6               	addwf	(___lwdiv@dividend+1)^(0+128),f
  2493  0316  0837               	movf	__doprnt@_val^(0+128),w
  2494  0317  01A5               	clrf	___lwdiv@dividend^(0+128)
  2495  0318  07A5               	addwf	___lwdiv@dividend^(0+128),f
  2496  0319  120A  158A  2472  120A  118A  	fcall	___lwdiv
  2497  031E  1683               	bsf	3,5	;RP0=1, select bank1
  2498  031F  1303               	bcf	3,6	;RP1=0, select bank1
  2499  0320  0824               	movf	(?___lwdiv+1)^(0+128),w
  2500  0321  01AE               	clrf	(___lwmod@dividend+1)^(0+128)
  2501  0322  07AE               	addwf	(___lwmod@dividend+1)^(0+128),f
  2502  0323  0823               	movf	?___lwdiv^(0+128),w
  2503  0324  01AD               	clrf	___lwmod@dividend^(0+128)
  2504  0325  07AD               	addwf	___lwmod@dividend^(0+128),f
  2505  0326  120A  158A  243C  120A  118A  	fcall	___lwmod
  2506  032B  1683               	bsf	3,5	;RP0=1, select bank1
  2507  032C  1303               	bcf	3,6	;RP1=0, select bank1
  2508  032D  082B               	movf	?___lwmod^(0+128),w
  2509  032E  3E30               	addlw	48
  2510  032F  00B4               	movwf	(??__doprnt+1)^(0+128)
  2511  0330  0834               	movf	(??__doprnt+1)^(0+128),w
  2512  0331  00BE               	movwf	__doprnt@c^(0+128)
  2513                           
  2514                           ;doprnt.c: 1532: }
  2515                           ;doprnt.c: 1533: if(pb->func) (pb->func(c)); else ((*pb->ptr++ = c));
  2516  0332  0A3F               	incf	__doprnt@pb^(0+128),w
  2517  0333  0084               	movwf	4
  2518  0334  1383               	bcf	3,7	;select IRP bank0
  2519  0335  0880               	movf	0,f
  2520  0336  1903               	skipnz
  2521  0337  2B45               	goto	l2197
  2522  0338  083E               	movf	__doprnt@c^(0+128),w
  2523  0339  00B3               	movwf	??__doprnt^(0+128)
  2524  033A  0833               	movf	??__doprnt^(0+128),w
  2525  033B  00A3               	movwf	putch@c^(0+128)
  2526  033C  0A3F               	incf	__doprnt@pb^(0+128),w
  2527  033D  0084               	movwf	4
  2528  033E  0800               	movf	0,w
  2529  033F  120A  118A  2100  120A  118A  	fcall	fptable
  2530  0344  2AF4               	goto	l2201
  2531  0345                     l2197:	
  2532  0345  1683               	bsf	3,5	;RP0=1, select bank1
  2533  0346  1303               	bcf	3,6	;RP1=0, select bank1
  2534  0347  083E               	movf	__doprnt@c^(0+128),w
  2535  0348  00B3               	movwf	??__doprnt^(0+128)
  2536  0349  083F               	movf	__doprnt@pb^(0+128),w
  2537  034A  0084               	movwf	4
  2538  034B  1383               	bcf	3,7	;select IRP bank0
  2539  034C  0800               	movf	0,w
  2540  034D  0084               	movwf	4
  2541  034E  0833               	movf	??__doprnt^(0+128),w
  2542  034F  0080               	movwf	0
  2543  0350  3001               	movlw	1
  2544  0351  00B3               	movwf	??__doprnt^(0+128)
  2545  0352  083F               	movf	__doprnt@pb^(0+128),w
  2546  0353  0084               	movwf	4
  2547  0354  0833               	movf	??__doprnt^(0+128),w
  2548  0355  0780               	addwf	0,f
  2549  0356  2AF4               	goto	l2201
  2550  0357                     l2205:	
  2551                           ;doprnt.c: 1534: }
  2552                           ;doprnt.c: 1542: }
  2553                           ;doprnt.c: 1544: alldone:
  2554                           
  2555                           
  2556                           ;doprnt.c: 1549: return 0;
  2557  0357  1683               	bsf	3,5	;RP0=1, select bank1
  2558  0358  1303               	bcf	3,6	;RP1=0, select bank1
  2559  0359  01B1               	clrf	?__doprnt^(0+128)
  2560  035A  01B2               	clrf	(?__doprnt+1)^(0+128)
  2561  035B  0008               	return
  2562  035C                     __end_of__doprnt:	
  2563                           
  2564                           	psect	text3
  2565  0003                     __ptext3:	
  2566 ;; *************** function _putch *****************
  2567 ;; Defined at:
  2568 ;;		line 7 in file "C:\Program Files (x86)\Microchip\xc8\v1.33\sources\common\putch.c"
  2569 ;; Parameters:    Size  Location     Type
  2570 ;;  c               1    3[BANK1 ] unsigned char 
  2571 ;; Auto vars:     Size  Location     Type
  2572 ;;		None
  2573 ;; Return value:  Size  Location     Type
  2574 ;;		None               void
  2575 ;; Registers used:
  2576 ;;		None
  2577 ;; Tracked objects:
  2578 ;;		On entry : 0/0
  2579 ;;		On exit  : 0/0
  2580 ;;		Unchanged: 0/0
  2581 ;; Data sizes:     COMMON   BANK0   BANK1   BANK3   BANK2
  2582 ;;      Params:         0       0       1       0       0
  2583 ;;      Locals:         0       0       0       0       0
  2584 ;;      Temps:          0       0       0       0       0
  2585 ;;      Totals:         0       0       1       0       0
  2586 ;;Total ram usage:        1 bytes
  2587 ;; Hardware stack levels used:    1
  2588 ;; Hardware stack levels required when called:    4
  2589 ;; This function calls:
  2590 ;;		Nothing
  2591 ;; This function is called by:
  2592 ;;		__doprnt
  2593 ;; This function uses a non-reentrant model
  2594 ;;
  2595                           
  2596                           
  2597                           ;psect for function _putch
  2598  0003                     _putch:	
  2599                           
  2600                           ;incstack = 0
  2601                           ; Regs used in _putch: []
  2602  0003  0008               	return
  2603  0004                     __end_of_putch:	
  2604                           
  2605                           	psect	text4
  2606  0A8C                     __ptext4:	
  2607 ;; *************** function _isdigit *****************
  2608 ;; Defined at:
  2609 ;;		line 8 in file "C:\Program Files (x86)\Microchip\xc8\v1.33\sources\common\isdigit.c"
  2610 ;; Parameters:    Size  Location     Type
  2611 ;;  c               1    wreg     unsigned char 
  2612 ;; Auto vars:     Size  Location     Type
  2613 ;;  c               1    4[BANK1 ] unsigned char 
  2614 ;; Return value:  Size  Location     Type
  2615 ;;		None               void
  2616 ;; Registers used:
  2617 ;;		wreg, status,2, status,0
  2618 ;; Tracked objects:
  2619 ;;		On entry : 0/0
  2620 ;;		On exit  : 0/0
  2621 ;;		Unchanged: 0/0
  2622 ;; Data sizes:     COMMON   BANK0   BANK1   BANK3   BANK2
  2623 ;;      Params:         0       0       0       0       0
  2624 ;;      Locals:         0       0       2       0       0
  2625 ;;      Temps:          0       0       0       0       0
  2626 ;;      Totals:         0       0       2       0       0
  2627 ;;Total ram usage:        2 bytes
  2628 ;; Hardware stack levels used:    1
  2629 ;; Hardware stack levels required when called:    4
  2630 ;; This function calls:
  2631 ;;		Nothing
  2632 ;; This function is called by:
  2633 ;;		__doprnt
  2634 ;; This function uses a non-reentrant model
  2635 ;;
  2636                           
  2637                           
  2638                           ;psect for function _isdigit
  2639  0A8C                     _isdigit:	
  2640                           
  2641                           ;incstack = 0
  2642                           ; Regs used in _isdigit: [wreg+status,2+status,0]
  2643                           ;isdigit@c stored from wreg
  2644  0A8C  1683               	bsf	3,5	;RP0=1, select bank1
  2645  0A8D  1303               	bcf	3,6	;RP1=0, select bank1
  2646  0A8E  00A4               	movwf	isdigit@c^(0+128)
  2647  0A8F  01A3               	clrf	_isdigit$1416^(0+128)
  2648  0A90  303A               	movlw	58
  2649  0A91  0224               	subwf	isdigit@c^(0+128),w
  2650  0A92  1803               	skipnc
  2651  0A93  2A9A               	goto	l1963
  2652  0A94  3030               	movlw	48
  2653  0A95  0224               	subwf	isdigit@c^(0+128),w
  2654  0A96  1C03               	skipc
  2655  0A97  2A9A               	goto	l1963
  2656  0A98  01A3               	clrf	_isdigit$1416^(0+128)
  2657  0A99  0AA3               	incf	_isdigit$1416^(0+128),f
  2658  0A9A                     l1963:	
  2659  0A9A  0C23               	rrf	_isdigit$1416^(0+128),w
  2660  0A9B  0008               	return
  2661  0A9C                     __end_of_isdigit:	
  2662                           
  2663                           	psect	text5
  2664  0B8C                     __ptext5:	
  2665 ;; *************** function ___wmul *****************
  2666 ;; Defined at:
  2667 ;;		line 15 in file "C:\Program Files (x86)\Microchip\xc8\v1.33\sources\common\Umul16.c"
  2668 ;; Parameters:    Size  Location     Type
  2669 ;;  multiplier      2    3[BANK1 ] unsigned int 
  2670 ;;  multiplicand    2    5[BANK1 ] unsigned int 
  2671 ;; Auto vars:     Size  Location     Type
  2672 ;;  product         2    7[BANK1 ] unsigned int 
  2673 ;; Return value:  Size  Location     Type
  2674 ;;                  2    3[BANK1 ] unsigned int 
  2675 ;; Registers used:
  2676 ;;		wreg, status,2, status,0
  2677 ;; Tracked objects:
  2678 ;;		On entry : 0/0
  2679 ;;		On exit  : 0/0
  2680 ;;		Unchanged: 0/0
  2681 ;; Data sizes:     COMMON   BANK0   BANK1   BANK3   BANK2
  2682 ;;      Params:         0       0       4       0       0
  2683 ;;      Locals:         0       0       2       0       0
  2684 ;;      Temps:          0       0       0       0       0
  2685 ;;      Totals:         0       0       6       0       0
  2686 ;;Total ram usage:        6 bytes
  2687 ;; Hardware stack levels used:    1
  2688 ;; Hardware stack levels required when called:    4
  2689 ;; This function calls:
  2690 ;;		Nothing
  2691 ;; This function is called by:
  2692 ;;		__doprnt
  2693 ;; This function uses a non-reentrant model
  2694 ;;
  2695                           
  2696                           
  2697                           ;psect for function ___wmul
  2698  0B8C                     ___wmul:	
  2699                           
  2700                           ;incstack = 0
  2701                           ; Regs used in ___wmul: [wreg+status,2+status,0]
  2702  0B8C  1683               	bsf	3,5	;RP0=1, select bank1
  2703  0B8D  1303               	bcf	3,6	;RP1=0, select bank1
  2704  0B8E  01A7               	clrf	___wmul@product^(0+128)
  2705  0B8F  01A8               	clrf	(___wmul@product+1)^(0+128)
  2706  0B90                     l1969:	
  2707  0B90  1C23               	btfss	___wmul@multiplier^(0+128),0
  2708  0B91  2B98               	goto	l514
  2709  0B92  0825               	movf	___wmul@multiplicand^(0+128),w
  2710  0B93  07A7               	addwf	___wmul@product^(0+128),f
  2711  0B94  1803               	skipnc
  2712  0B95  0AA8               	incf	(___wmul@product+1)^(0+128),f
  2713  0B96  0826               	movf	(___wmul@multiplicand+1)^(0+128),w
  2714  0B97  07A8               	addwf	(___wmul@product+1)^(0+128),f
  2715  0B98                     l514:	
  2716  0B98  3001               	movlw	1
  2717  0B99                     u1735:	
  2718  0B99  1003               	clrc
  2719  0B9A  0DA5               	rlf	___wmul@multiplicand^(0+128),f
  2720  0B9B  0DA6               	rlf	(___wmul@multiplicand+1)^(0+128),f
  2721  0B9C  3EFF               	addlw	-1
  2722  0B9D  1D03               	skipz
  2723  0B9E  2B99               	goto	u1735
  2724  0B9F  3001               	movlw	1
  2725  0BA0                     u1745:	
  2726  0BA0  1003               	clrc
  2727  0BA1  0CA4               	rrf	(___wmul@multiplier+1)^(0+128),f
  2728  0BA2  0CA3               	rrf	___wmul@multiplier^(0+128),f
  2729  0BA3  3EFF               	addlw	-1
  2730  0BA4  1D03               	skipz
  2731  0BA5  2BA0               	goto	u1745
  2732  0BA6  0824               	movf	(___wmul@multiplier+1)^(0+128),w
  2733  0BA7  0423               	iorwf	___wmul@multiplier^(0+128),w
  2734  0BA8  1D03               	skipz
  2735  0BA9  2B90               	goto	l1969
  2736  0BAA  0828               	movf	(___wmul@product+1)^(0+128),w
  2737  0BAB  01A4               	clrf	(?___wmul+1)^(0+128)
  2738  0BAC  07A4               	addwf	(?___wmul+1)^(0+128),f
  2739  0BAD  0827               	movf	___wmul@product^(0+128),w
  2740  0BAE  01A3               	clrf	?___wmul^(0+128)
  2741  0BAF  07A3               	addwf	?___wmul^(0+128),f
  2742  0BB0  0008               	return
  2743  0BB1                     __end_of___wmul:	
  2744                           
  2745                           	psect	text6
  2746  0C3C                     __ptext6:	
  2747 ;; *************** function ___lwmod *****************
  2748 ;; Defined at:
  2749 ;;		line 6 in file "C:\Program Files (x86)\Microchip\xc8\v1.33\sources\common\lwmod.c"
  2750 ;; Parameters:    Size  Location     Type
  2751 ;;  divisor         2   11[BANK1 ] unsigned int 
  2752 ;;  dividend        2   13[BANK1 ] unsigned int 
  2753 ;; Auto vars:     Size  Location     Type
  2754 ;;  counter         1   16[BANK1 ] unsigned char 
  2755 ;; Return value:  Size  Location     Type
  2756 ;;                  2   11[BANK1 ] unsigned int 
  2757 ;; Registers used:
  2758 ;;		wreg, status,2, status,0
  2759 ;; Tracked objects:
  2760 ;;		On entry : 0/0
  2761 ;;		On exit  : 0/0
  2762 ;;		Unchanged: 0/0
  2763 ;; Data sizes:     COMMON   BANK0   BANK1   BANK3   BANK2
  2764 ;;      Params:         0       0       4       0       0
  2765 ;;      Locals:         0       0       1       0       0
  2766 ;;      Temps:          0       0       1       0       0
  2767 ;;      Totals:         0       0       6       0       0
  2768 ;;Total ram usage:        6 bytes
  2769 ;; Hardware stack levels used:    1
  2770 ;; Hardware stack levels required when called:    4
  2771 ;; This function calls:
  2772 ;;		Nothing
  2773 ;; This function is called by:
  2774 ;;		__doprnt
  2775 ;; This function uses a non-reentrant model
  2776 ;;
  2777                           
  2778                           
  2779                           ;psect for function ___lwmod
  2780  0C3C                     ___lwmod:	
  2781                           
  2782                           ;incstack = 0
  2783                           ; Regs used in ___lwmod: [wreg+status,2+status,0]
  2784  0C3C  1683               	bsf	3,5	;RP0=1, select bank1
  2785  0C3D  1303               	bcf	3,6	;RP1=0, select bank1
  2786  0C3E  082C               	movf	(___lwmod@divisor+1)^(0+128),w
  2787  0C3F  042B               	iorwf	___lwmod@divisor^(0+128),w
  2788  0C40  1903               	skipnz
  2789  0C41  2C6B               	goto	l2053
  2790  0C42  01B0               	clrf	___lwmod@counter^(0+128)
  2791  0C43  0AB0               	incf	___lwmod@counter^(0+128),f
  2792  0C44                     l2043:	
  2793  0C44  1BAC               	btfsc	(___lwmod@divisor+1)^(0+128),7
  2794  0C45  2C52               	goto	l2045
  2795  0C46  3001               	movlw	1
  2796  0C47                     u1955:	
  2797  0C47  1003               	clrc
  2798  0C48  0DAB               	rlf	___lwmod@divisor^(0+128),f
  2799  0C49  0DAC               	rlf	(___lwmod@divisor+1)^(0+128),f
  2800  0C4A  3EFF               	addlw	-1
  2801  0C4B  1D03               	skipz
  2802  0C4C  2C47               	goto	u1955
  2803  0C4D  3001               	movlw	1
  2804  0C4E  00AF               	movwf	??___lwmod^(0+128)
  2805  0C4F  082F               	movf	??___lwmod^(0+128),w
  2806  0C50  07B0               	addwf	___lwmod@counter^(0+128),f
  2807  0C51  2C44               	goto	l2043
  2808  0C52                     l2045:	
  2809  0C52  082C               	movf	(___lwmod@divisor+1)^(0+128),w
  2810  0C53  022E               	subwf	(___lwmod@dividend+1)^(0+128),w
  2811  0C54  1D03               	skipz
  2812  0C55  2C58               	goto	u1975
  2813  0C56  082B               	movf	___lwmod@divisor^(0+128),w
  2814  0C57  022D               	subwf	___lwmod@dividend^(0+128),w
  2815  0C58                     u1975:	
  2816  0C58  1C03               	skipc
  2817  0C59  2C60               	goto	l2049
  2818  0C5A  082B               	movf	___lwmod@divisor^(0+128),w
  2819  0C5B  02AD               	subwf	___lwmod@dividend^(0+128),f
  2820  0C5C  082C               	movf	(___lwmod@divisor+1)^(0+128),w
  2821  0C5D  1C03               	skipc
  2822  0C5E  03AE               	decf	(___lwmod@dividend+1)^(0+128),f
  2823  0C5F  02AE               	subwf	(___lwmod@dividend+1)^(0+128),f
  2824  0C60                     l2049:	
  2825  0C60  3001               	movlw	1
  2826  0C61                     u1985:	
  2827  0C61  1003               	clrc
  2828  0C62  0CAC               	rrf	(___lwmod@divisor+1)^(0+128),f
  2829  0C63  0CAB               	rrf	___lwmod@divisor^(0+128),f
  2830  0C64  3EFF               	addlw	-1
  2831  0C65  1D03               	skipz
  2832  0C66  2C61               	goto	u1985
  2833  0C67  3001               	movlw	1
  2834  0C68  02B0               	subwf	___lwmod@counter^(0+128),f
  2835  0C69  1D03               	btfss	3,2
  2836  0C6A  2C52               	goto	l2045
  2837  0C6B                     l2053:	
  2838  0C6B  082E               	movf	(___lwmod@dividend+1)^(0+128),w
  2839  0C6C  01AC               	clrf	(?___lwmod+1)^(0+128)
  2840  0C6D  07AC               	addwf	(?___lwmod+1)^(0+128),f
  2841  0C6E  082D               	movf	___lwmod@dividend^(0+128),w
  2842  0C6F  01AB               	clrf	?___lwmod^(0+128)
  2843  0C70  07AB               	addwf	?___lwmod^(0+128),f
  2844  0C71  0008               	return
  2845  0C72                     __end_of___lwmod:	
  2846                           
  2847                           	psect	text7
  2848  0C72                     __ptext7:	
  2849 ;; *************** function ___lwdiv *****************
  2850 ;; Defined at:
  2851 ;;		line 6 in file "C:\Program Files (x86)\Microchip\xc8\v1.33\sources\common\lwdiv.c"
  2852 ;; Parameters:    Size  Location     Type
  2853 ;;  divisor         2    3[BANK1 ] unsigned int 
  2854 ;;  dividend        2    5[BANK1 ] unsigned int 
  2855 ;; Auto vars:     Size  Location     Type
  2856 ;;  quotient        2    8[BANK1 ] unsigned int 
  2857 ;;  counter         1   10[BANK1 ] unsigned char 
  2858 ;; Return value:  Size  Location     Type
  2859 ;;                  2    3[BANK1 ] unsigned int 
  2860 ;; Registers used:
  2861 ;;		wreg, status,2, status,0
  2862 ;; Tracked objects:
  2863 ;;		On entry : 0/0
  2864 ;;		On exit  : 0/0
  2865 ;;		Unchanged: 0/0
  2866 ;; Data sizes:     COMMON   BANK0   BANK1   BANK3   BANK2
  2867 ;;      Params:         0       0       4       0       0
  2868 ;;      Locals:         0       0       3       0       0
  2869 ;;      Temps:          0       0       1       0       0
  2870 ;;      Totals:         0       0       8       0       0
  2871 ;;Total ram usage:        8 bytes
  2872 ;; Hardware stack levels used:    1
  2873 ;; Hardware stack levels required when called:    4
  2874 ;; This function calls:
  2875 ;;		Nothing
  2876 ;; This function is called by:
  2877 ;;		__doprnt
  2878 ;; This function uses a non-reentrant model
  2879 ;;
  2880                           
  2881                           
  2882                           ;psect for function ___lwdiv
  2883  0C72                     ___lwdiv:	
  2884                           
  2885                           ;incstack = 0
  2886                           ; Regs used in ___lwdiv: [wreg+status,2+status,0]
  2887  0C72  1683               	bsf	3,5	;RP0=1, select bank1
  2888  0C73  1303               	bcf	3,6	;RP1=0, select bank1
  2889  0C74  01A8               	clrf	___lwdiv@quotient^(0+128)
  2890  0C75  01A9               	clrf	(___lwdiv@quotient+1)^(0+128)
  2891  0C76  0824               	movf	(___lwdiv@divisor+1)^(0+128),w
  2892  0C77  0423               	iorwf	___lwdiv@divisor^(0+128),w
  2893  0C78  1903               	skipnz
  2894  0C79  2CAB               	goto	l2031
  2895  0C7A  01AA               	clrf	___lwdiv@counter^(0+128)
  2896  0C7B  0AAA               	incf	___lwdiv@counter^(0+128),f
  2897  0C7C                     l2019:	
  2898  0C7C  1BA4               	btfsc	(___lwdiv@divisor+1)^(0+128),7
  2899  0C7D  2C8A               	goto	l2021
  2900  0C7E  3001               	movlw	1
  2901  0C7F                     u1885:	
  2902  0C7F  1003               	clrc
  2903  0C80  0DA3               	rlf	___lwdiv@divisor^(0+128),f
  2904  0C81  0DA4               	rlf	(___lwdiv@divisor+1)^(0+128),f
  2905  0C82  3EFF               	addlw	-1
  2906  0C83  1D03               	skipz
  2907  0C84  2C7F               	goto	u1885
  2908  0C85  3001               	movlw	1
  2909  0C86  00A7               	movwf	??___lwdiv^(0+128)
  2910  0C87  0827               	movf	??___lwdiv^(0+128),w
  2911  0C88  07AA               	addwf	___lwdiv@counter^(0+128),f
  2912  0C89  2C7C               	goto	l2019
  2913  0C8A                     l2021:	
  2914  0C8A  3001               	movlw	1
  2915  0C8B                     u1905:	
  2916  0C8B  1003               	clrc
  2917  0C8C  0DA8               	rlf	___lwdiv@quotient^(0+128),f
  2918  0C8D  0DA9               	rlf	(___lwdiv@quotient+1)^(0+128),f
  2919  0C8E  3EFF               	addlw	-1
  2920  0C8F  1D03               	skipz
  2921  0C90  2C8B               	goto	u1905
  2922  0C91  0824               	movf	(___lwdiv@divisor+1)^(0+128),w
  2923  0C92  0226               	subwf	(___lwdiv@dividend+1)^(0+128),w
  2924  0C93  1D03               	skipz
  2925  0C94  2C97               	goto	u1915
  2926  0C95  0823               	movf	___lwdiv@divisor^(0+128),w
  2927  0C96  0225               	subwf	___lwdiv@dividend^(0+128),w
  2928  0C97                     u1915:	
  2929  0C97  1C03               	skipc
  2930  0C98  2CA0               	goto	l2027
  2931  0C99  0823               	movf	___lwdiv@divisor^(0+128),w
  2932  0C9A  02A5               	subwf	___lwdiv@dividend^(0+128),f
  2933  0C9B  0824               	movf	(___lwdiv@divisor+1)^(0+128),w
  2934  0C9C  1C03               	skipc
  2935  0C9D  03A6               	decf	(___lwdiv@dividend+1)^(0+128),f
  2936  0C9E  02A6               	subwf	(___lwdiv@dividend+1)^(0+128),f
  2937  0C9F  1428               	bsf	___lwdiv@quotient^(0+128),0
  2938  0CA0                     l2027:	
  2939  0CA0  3001               	movlw	1
  2940  0CA1                     u1925:	
  2941  0CA1  1003               	clrc
  2942  0CA2  0CA4               	rrf	(___lwdiv@divisor+1)^(0+128),f
  2943  0CA3  0CA3               	rrf	___lwdiv@divisor^(0+128),f
  2944  0CA4  3EFF               	addlw	-1
  2945  0CA5  1D03               	skipz
  2946  0CA6  2CA1               	goto	u1925
  2947  0CA7  3001               	movlw	1
  2948  0CA8  02AA               	subwf	___lwdiv@counter^(0+128),f
  2949  0CA9  1D03               	btfss	3,2
  2950  0CAA  2C8A               	goto	l2021
  2951  0CAB                     l2031:	
  2952  0CAB  0829               	movf	(___lwdiv@quotient+1)^(0+128),w
  2953  0CAC  01A4               	clrf	(?___lwdiv+1)^(0+128)
  2954  0CAD  07A4               	addwf	(?___lwdiv+1)^(0+128),f
  2955  0CAE  0828               	movf	___lwdiv@quotient^(0+128),w
  2956  0CAF  01A3               	clrf	?___lwdiv^(0+128)
  2957  0CB0  07A3               	addwf	?___lwdiv^(0+128),f
  2958  0CB1  0008               	return
  2959  0CB2                     __end_of___lwdiv:	
  2960                           
  2961                           	psect	text8
  2962  0C0B                     __ptext8:	
  2963 ;; *************** function _USART_WriteString *****************
  2964 ;; Defined at:
  2965 ;;		line 52 in file "C:\Users\332414\Documents\Fuzzy-IA2\Cdigo em C no MPLAB\usart.c"
  2966 ;; Parameters:    Size  Location     Type
  2967 ;;  str             2    4[BANK1 ] PTR const unsigned char 
  2968 ;;		 -> STR_12(40), STR_10(3), display(10), STR_7(20), 
  2969 ;;		 -> STR_6(29), 
  2970 ;; Auto vars:     Size  Location     Type
  2971 ;;		None
  2972 ;; Return value:  Size  Location     Type
  2973 ;;		None               void
  2974 ;; Registers used:
  2975 ;;		wreg, fsr0l, fsr0h, status,2, status,0, btemp+1, pclath, cstack
  2976 ;; Tracked objects:
  2977 ;;		On entry : 0/0
  2978 ;;		On exit  : 0/0
  2979 ;;		Unchanged: 0/0
  2980 ;; Data sizes:     COMMON   BANK0   BANK1   BANK3   BANK2
  2981 ;;      Params:         0       0       2       0       0
  2982 ;;      Locals:         0       0       0       0       0
  2983 ;;      Temps:          0       0       0       0       0
  2984 ;;      Totals:         0       0       2       0       0
  2985 ;;Total ram usage:        2 bytes
  2986 ;; Hardware stack levels used:    1
  2987 ;; Hardware stack levels required when called:    5
  2988 ;; This function calls:
  2989 ;;		_USART_WriteChar
  2990 ;; This function is called by:
  2991 ;;		_main
  2992 ;;		_USART_ReceiveChar
  2993 ;; This function uses a non-reentrant model
  2994 ;;
  2995                           
  2996                           
  2997                           ;psect for function _USART_WriteString
  2998  0C0B                     _USART_WriteString:	
  2999  0C0B                     l2527:	
  3000                           ;usart.c: 54: while(*str != '\0')
  3001                           
  3002                           ;incstack = 0
  3003                           ; Regs used in _USART_WriteString: [wreg-fsr0h+status,2+status,0+btemp+1+pclath+cstack]
  3004                           
  3005  0C0B  1683               	bsf	3,5	;RP0=1, select bank1
  3006  0C0C  1303               	bcf	3,6	;RP1=0, select bank1
  3007  0C0D  0825               	movf	(USART_WriteString@str+1)^(0+128),w
  3008  0C0E  1283               	bcf	3,5	;RP0=0, select bank0
  3009  0C0F  1303               	bcf	3,6	;RP1=0, select bank0
  3010  0C10  00FF               	movwf	127
  3011  0C11  1683               	bsf	3,5	;RP0=1, select bank1
  3012  0C12  1303               	bcf	3,6	;RP1=0, select bank1
  3013  0C13  0824               	movf	USART_WriteString@str^(0+128),w
  3014  0C14  0084               	movwf	4
  3015  0C15  1283               	bcf	3,5	;RP0=0, select bank0
  3016  0C16  1303               	bcf	3,6	;RP1=0, select bank0
  3017  0C17  120A  158A  2000  120A  158A  	fcall	stringtab
  3018  0C1C  3800               	iorlw	0
  3019  0C1D  1903               	btfsc	3,2
  3020  0C1E  0008               	return
  3021                           
  3022                           ;usart.c: 55: {
  3023                           ;usart.c: 56: USART_WriteChar(*str);
  3024  0C1F  1683               	bsf	3,5	;RP0=1, select bank1
  3025  0C20  1303               	bcf	3,6	;RP1=0, select bank1
  3026  0C21  0825               	movf	(USART_WriteString@str+1)^(0+128),w
  3027  0C22  1283               	bcf	3,5	;RP0=0, select bank0
  3028  0C23  1303               	bcf	3,6	;RP1=0, select bank0
  3029  0C24  00FF               	movwf	127
  3030  0C25  1683               	bsf	3,5	;RP0=1, select bank1
  3031  0C26  1303               	bcf	3,6	;RP1=0, select bank1
  3032  0C27  0824               	movf	USART_WriteString@str^(0+128),w
  3033  0C28  0084               	movwf	4
  3034  0C29  1283               	bcf	3,5	;RP0=0, select bank0
  3035  0C2A  1303               	bcf	3,6	;RP1=0, select bank0
  3036  0C2B  120A  158A  2000  120A  158A  	fcall	stringtab
  3037  0C30  120A  118A  20F3  120A  158A  	fcall	_USART_WriteChar
  3038                           
  3039                           ;usart.c: 57: str++;
  3040  0C35  3001               	movlw	1
  3041  0C36  1683               	bsf	3,5	;RP0=1, select bank1
  3042  0C37  1303               	bcf	3,6	;RP1=0, select bank1
  3043  0C38  07A4               	addwf	USART_WriteString@str^(0+128),f
  3044  0C39  1803               	skipnc
  3045  0C3A  0AA5               	incf	(USART_WriteString@str+1)^(0+128),f
  3046  0C3B  2C0B               	goto	l2527
  3047  0C3C                     __end_of_USART_WriteString:	
  3048                           
  3049                           	psect	text9
  3050  00F3                     __ptext9:	
  3051 ;; *************** function _USART_WriteChar *****************
  3052 ;; Defined at:
  3053 ;;		line 44 in file "C:\Users\332414\Documents\Fuzzy-IA2\Cdigo em C no MPLAB\usart.c"
  3054 ;; Parameters:    Size  Location     Type
  3055 ;;  byte            1    wreg     unsigned char 
  3056 ;; Auto vars:     Size  Location     Type
  3057 ;;  byte            1    3[BANK1 ] unsigned char 
  3058 ;; Return value:  Size  Location     Type
  3059 ;;		None               void
  3060 ;; Registers used:
  3061 ;;		wreg
  3062 ;; Tracked objects:
  3063 ;;		On entry : 0/0
  3064 ;;		On exit  : 0/0
  3065 ;;		Unchanged: 0/0
  3066 ;; Data sizes:     COMMON   BANK0   BANK1   BANK3   BANK2
  3067 ;;      Params:         0       0       0       0       0
  3068 ;;      Locals:         0       0       1       0       0
  3069 ;;      Temps:          0       0       0       0       0
  3070 ;;      Totals:         0       0       1       0       0
  3071 ;;Total ram usage:        1 bytes
  3072 ;; Hardware stack levels used:    1
  3073 ;; Hardware stack levels required when called:    4
  3074 ;; This function calls:
  3075 ;;		Nothing
  3076 ;; This function is called by:
  3077 ;;		_USART_WriteString
  3078 ;; This function uses a non-reentrant model
  3079 ;;
  3080                           
  3081                           
  3082                           ;psect for function _USART_WriteChar
  3083  00F3                     _USART_WriteChar:	
  3084                           
  3085                           ;incstack = 0
  3086                           ; Regs used in _USART_WriteChar: [wreg]
  3087                           ;USART_WriteChar@byte stored from wreg
  3088  00F3  1683               	bsf	3,5	;RP0=1, select bank1
  3089  00F4  1303               	bcf	3,6	;RP1=0, select bank1
  3090  00F5  00A3               	movwf	USART_WriteChar@byte^(0+128)
  3091  00F6                     l133:	
  3092                           ;usart.c: 46: while(!PIR1bits.TXIF);
  3093                           
  3094  00F6  1283               	bcf	3,5	;RP0=0, select bank0
  3095  00F7  1E0C               	btfss	12,4	;volatile
  3096  00F8  28F6               	goto	l133
  3097                           
  3098                           ;usart.c: 47: TXREG = byte;
  3099  00F9  1683               	bsf	3,5	;RP0=1, select bank1
  3100  00FA  1303               	bcf	3,6	;RP1=0, select bank1
  3101  00FB  0823               	movf	USART_WriteChar@byte^(0+128),w
  3102  00FC  1283               	bcf	3,5	;RP0=0, select bank0
  3103  00FD  1303               	bcf	3,6	;RP1=0, select bank0
  3104  00FE  0099               	movwf	25	;volatile
  3105  00FF  0008               	return
  3106  0100                     __end_of_USART_WriteChar:	
  3107                           
  3108                           	psect	text10
  3109  0CB2                     __ptext10:	
  3110 ;; *************** function _USART_Init *****************
  3111 ;; Defined at:
  3112 ;;		line 6 in file "C:\Users\332414\Documents\Fuzzy-IA2\Cdigo em C no MPLAB\usart.c"
  3113 ;; Parameters:    Size  Location     Type
  3114 ;;  BaudRate        4   18[BANK1 ] long 
  3115 ;; Auto vars:     Size  Location     Type
  3116 ;;		None
  3117 ;; Return value:  Size  Location     Type
  3118 ;;		None               void
  3119 ;; Registers used:
  3120 ;;		wreg, status,2, status,0, pclath, cstack
  3121 ;; Tracked objects:
  3122 ;;		On entry : 0/0
  3123 ;;		On exit  : 0/0
  3124 ;;		Unchanged: 0/0
  3125 ;; Data sizes:     COMMON   BANK0   BANK1   BANK3   BANK2
  3126 ;;      Params:         0       0       4       0       0
  3127 ;;      Locals:         0       0       0       0       0
  3128 ;;      Temps:          0       0       4       0       0
  3129 ;;      Totals:         0       0       8       0       0
  3130 ;;Total ram usage:        8 bytes
  3131 ;; Hardware stack levels used:    1
  3132 ;; Hardware stack levels required when called:    5
  3133 ;; This function calls:
  3134 ;;		___aldiv
  3135 ;; This function is called by:
  3136 ;;		_main
  3137 ;; This function uses a non-reentrant model
  3138 ;;
  3139                           
  3140                           
  3141                           ;psect for function _USART_Init
  3142  0CB2                     _USART_Init:	
  3143                           
  3144                           ;usart.c: 13: SPBRG = (unsigned char)(18432000 / (16 * BaudRate)) - 1;
  3145                           
  3146                           ;incstack = 0
  3147                           ; Regs used in _USART_Init: [wreg+status,2+status,0+pclath+cstack]
  3148  0CB2  1683               	bsf	3,5	;RP0=1, select bank1
  3149  0CB3  1303               	bcf	3,6	;RP1=0, select bank1
  3150  0CB4  0832               	movf	USART_Init@BaudRate^(0+128),w
  3151  0CB5  00B6               	movwf	??_USART_Init^(0+128)
  3152  0CB6  0833               	movf	(USART_Init@BaudRate+1)^(0+128),w
  3153  0CB7  00B7               	movwf	(??_USART_Init^(0+128)+1)
  3154  0CB8  0834               	movf	(USART_Init@BaudRate+2)^(0+128),w
  3155  0CB9  00B8               	movwf	(??_USART_Init^(0+128)+2)
  3156  0CBA  0835               	movf	(USART_Init@BaudRate+3)^(0+128),w
  3157  0CBB  00B9               	movwf	(??_USART_Init^(0+128)+3)
  3158  0CBC  3004               	movlw	4
  3159  0CBD                     u2815:	
  3160  0CBD  1003               	clrc
  3161  0CBE  0DB6               	rlf	??_USART_Init^(0+128),f
  3162  0CBF  0DB7               	rlf	(??_USART_Init^(0+128)+1),f
  3163  0CC0  0DB8               	rlf	(??_USART_Init^(0+128)+2),f
  3164  0CC1  0DB9               	rlf	(??_USART_Init^(0+128)+3),f
  3165  0CC2  3EFF               	addlw	-1
  3166  0CC3  1D03               	skipz
  3167  0CC4  2CBD               	goto	u2815
  3168  0CC5  0839               	movf	(??_USART_Init+3)^(0+128),w
  3169  0CC6  00A6               	movwf	(___aldiv@divisor+3)^(0+128)
  3170  0CC7  0838               	movf	(??_USART_Init+2)^(0+128),w
  3171  0CC8  00A5               	movwf	(___aldiv@divisor+2)^(0+128)
  3172  0CC9  0837               	movf	(??_USART_Init+1)^(0+128),w
  3173  0CCA  00A4               	movwf	(___aldiv@divisor+1)^(0+128)
  3174  0CCB  0836               	movf	??_USART_Init^(0+128),w
  3175  0CCC  00A3               	movwf	___aldiv@divisor^(0+128)
  3176  0CCD  3001               	movlw	1
  3177  0CCE  00AA               	movwf	(___aldiv@dividend+3)^(0+128)
  3178  0CCF  3019               	movlw	25
  3179  0CD0  00A9               	movwf	(___aldiv@dividend+2)^(0+128)
  3180  0CD1  3040               	movlw	64
  3181  0CD2  00A8               	movwf	(___aldiv@dividend+1)^(0+128)
  3182  0CD3  3000               	movlw	0
  3183  0CD4  00A7               	movwf	___aldiv@dividend^(0+128)
  3184  0CD5  120A  158A  26B9   	fcall	___aldiv
  3185  0CD8  1683               	bsf	3,5	;RP0=1, select bank1
  3186  0CD9  1303               	bcf	3,6	;RP1=0, select bank1
  3187  0CDA  0823               	movf	?___aldiv^(0+128),w
  3188  0CDB  3EFF               	addlw	255
  3189  0CDC  0099               	movwf	25	;volatile
  3190                           
  3191                           ;usart.c: 16: TXSTAbits.CSRC = 0;
  3192  0CDD  1398               	bcf	24,7	;volatile
  3193                           
  3194                           ;usart.c: 17: TXSTAbits.TX9 = 0;
  3195  0CDE  1318               	bcf	24,6	;volatile
  3196                           
  3197                           ;usart.c: 18: TXSTAbits.TXEN = 1;
  3198  0CDF  1698               	bsf	24,5	;volatile
  3199                           
  3200                           ;usart.c: 19: TXSTAbits.SYNC = 0;
  3201  0CE0  1218               	bcf	24,4	;volatile
  3202                           
  3203                           ;usart.c: 21: TXSTAbits.BRGH = 1;
  3204  0CE1  1518               	bsf	24,2	;volatile
  3205                           
  3206                           ;usart.c: 22: TXSTAbits.TRMT = 1;
  3207  0CE2  1498               	bsf	24,1	;volatile
  3208                           
  3209                           ;usart.c: 23: TXSTAbits.TX9D = 0;
  3210  0CE3  1018               	bcf	24,0	;volatile
  3211                           
  3212                           ;usart.c: 26: RCSTAbits.SPEN = 1;
  3213  0CE4  1283               	bcf	3,5	;RP0=0, select bank0
  3214  0CE5  1303               	bcf	3,6	;RP1=0, select bank0
  3215  0CE6  1798               	bsf	24,7	;volatile
  3216                           
  3217                           ;usart.c: 27: RCSTAbits.RX9 = 0;
  3218  0CE7  1318               	bcf	24,6	;volatile
  3219                           
  3220                           ;usart.c: 28: RCSTAbits.SREN = 0;
  3221  0CE8  1298               	bcf	24,5	;volatile
  3222                           
  3223                           ;usart.c: 29: RCSTAbits.CREN = 1;
  3224  0CE9  1618               	bsf	24,4	;volatile
  3225                           
  3226                           ;usart.c: 30: RCSTAbits.ADDEN = 0;
  3227  0CEA  1198               	bcf	24,3	;volatile
  3228                           
  3229                           ;usart.c: 31: RCSTAbits.FERR = 0;
  3230  0CEB  1118               	bcf	24,2	;volatile
  3231                           
  3232                           ;usart.c: 32: RCSTAbits.OERR = 0;
  3233  0CEC  1098               	bcf	24,1	;volatile
  3234                           
  3235                           ;usart.c: 33: RCSTAbits.RX9D = 0;
  3236  0CED  1018               	bcf	24,0	;volatile
  3237                           
  3238                           ;usart.c: 36: PIE1bits.TXIE = 0;
  3239  0CEE  1683               	bsf	3,5	;RP0=1, select bank1
  3240  0CEF  1303               	bcf	3,6	;RP1=0, select bank1
  3241  0CF0  120C               	bcf	12,4	;volatile
  3242                           
  3243                           ;usart.c: 37: PIR1bits.TXIF = 0;
  3244  0CF1  1283               	bcf	3,5	;RP0=0, select bank0
  3245  0CF2  1303               	bcf	3,6	;RP1=0, select bank0
  3246  0CF3  120C               	bcf	12,4	;volatile
  3247                           
  3248                           ;usart.c: 38: PIE1bits.RCIE = 1;
  3249  0CF4  1683               	bsf	3,5	;RP0=1, select bank1
  3250  0CF5  1303               	bcf	3,6	;RP1=0, select bank1
  3251  0CF6  168C               	bsf	12,5	;volatile
  3252                           
  3253                           ;usart.c: 39: PIR1bits.RCIF = 0;
  3254  0CF7  1283               	bcf	3,5	;RP0=0, select bank0
  3255  0CF8  1303               	bcf	3,6	;RP1=0, select bank0
  3256  0CF9  128C               	bcf	12,5	;volatile
  3257  0CFA  0008               	return
  3258  0CFB                     __end_of_USART_Init:	
  3259                           
  3260                           	psect	text11
  3261  0EB9                     __ptext11:	
  3262 ;; *************** function ___aldiv *****************
  3263 ;; Defined at:
  3264 ;;		line 6 in file "C:\Program Files (x86)\Microchip\xc8\v1.33\sources\common\aldiv.c"
  3265 ;; Parameters:    Size  Location     Type
  3266 ;;  divisor         4    3[BANK1 ] long 
  3267 ;;  dividend        4    7[BANK1 ] long 
  3268 ;; Auto vars:     Size  Location     Type
  3269 ;;  quotient        4   14[BANK1 ] long 
  3270 ;;  sign            1   13[BANK1 ] unsigned char 
  3271 ;;  counter         1   12[BANK1 ] unsigned char 
  3272 ;; Return value:  Size  Location     Type
  3273 ;;                  4    3[BANK1 ] long 
  3274 ;; Registers used:
  3275 ;;		wreg, status,2, status,0
  3276 ;; Tracked objects:
  3277 ;;		On entry : 0/0
  3278 ;;		On exit  : 0/0
  3279 ;;		Unchanged: 0/0
  3280 ;; Data sizes:     COMMON   BANK0   BANK1   BANK3   BANK2
  3281 ;;      Params:         0       0       8       0       0
  3282 ;;      Locals:         0       0       6       0       0
  3283 ;;      Temps:          0       0       1       0       0
  3284 ;;      Totals:         0       0      15       0       0
  3285 ;;Total ram usage:       15 bytes
  3286 ;; Hardware stack levels used:    1
  3287 ;; Hardware stack levels required when called:    4
  3288 ;; This function calls:
  3289 ;;		Nothing
  3290 ;; This function is called by:
  3291 ;;		_USART_Init
  3292 ;; This function uses a non-reentrant model
  3293 ;;
  3294                           
  3295                           
  3296                           ;psect for function ___aldiv
  3297  0EB9                     ___aldiv:	
  3298                           
  3299                           ;incstack = 0
  3300                           ; Regs used in ___aldiv: [wreg+status,2+status,0]
  3301  0EB9  1683               	bsf	3,5	;RP0=1, select bank1
  3302  0EBA  1303               	bcf	3,6	;RP1=0, select bank1
  3303  0EBB  01AD               	clrf	___aldiv@sign^(0+128)
  3304  0EBC  1FA6               	btfss	(___aldiv@divisor+3)^(0+128),7
  3305  0EBD  2ECB               	goto	l569
  3306  0EBE  09A3               	comf	___aldiv@divisor^(0+128),f
  3307  0EBF  09A4               	comf	(___aldiv@divisor+1)^(0+128),f
  3308  0EC0  09A5               	comf	(___aldiv@divisor+2)^(0+128),f
  3309  0EC1  09A6               	comf	(___aldiv@divisor+3)^(0+128),f
  3310  0EC2  0AA3               	incf	___aldiv@divisor^(0+128),f
  3311  0EC3  1903               	skipnz
  3312  0EC4  0AA4               	incf	(___aldiv@divisor+1)^(0+128),f
  3313  0EC5  1903               	skipnz
  3314  0EC6  0AA5               	incf	(___aldiv@divisor+2)^(0+128),f
  3315  0EC7  1903               	skipnz
  3316  0EC8  0AA6               	incf	(___aldiv@divisor+3)^(0+128),f
  3317  0EC9  01AD               	clrf	___aldiv@sign^(0+128)
  3318  0ECA  0AAD               	incf	___aldiv@sign^(0+128),f
  3319  0ECB                     l569:	
  3320  0ECB  1FAA               	btfss	(___aldiv@dividend+3)^(0+128),7
  3321  0ECC  2EDC               	goto	l2219
  3322  0ECD  09A7               	comf	___aldiv@dividend^(0+128),f
  3323  0ECE  09A8               	comf	(___aldiv@dividend+1)^(0+128),f
  3324  0ECF  09A9               	comf	(___aldiv@dividend+2)^(0+128),f
  3325  0ED0  09AA               	comf	(___aldiv@dividend+3)^(0+128),f
  3326  0ED1  0AA7               	incf	___aldiv@dividend^(0+128),f
  3327  0ED2  1903               	skipnz
  3328  0ED3  0AA8               	incf	(___aldiv@dividend+1)^(0+128),f
  3329  0ED4  1903               	skipnz
  3330  0ED5  0AA9               	incf	(___aldiv@dividend+2)^(0+128),f
  3331  0ED6  1903               	skipnz
  3332  0ED7  0AAA               	incf	(___aldiv@dividend+3)^(0+128),f
  3333  0ED8  3001               	movlw	1
  3334  0ED9  00AB               	movwf	??___aldiv^(0+128)
  3335  0EDA  082B               	movf	??___aldiv^(0+128),w
  3336  0EDB  06AD               	xorwf	___aldiv@sign^(0+128),f
  3337  0EDC                     l2219:	
  3338  0EDC  3000               	movlw	0
  3339  0EDD  00B1               	movwf	(___aldiv@quotient+3)^(0+128)
  3340  0EDE  3000               	movlw	0
  3341  0EDF  00B0               	movwf	(___aldiv@quotient+2)^(0+128)
  3342  0EE0  3000               	movlw	0
  3343  0EE1  00AF               	movwf	(___aldiv@quotient+1)^(0+128)
  3344  0EE2  3000               	movlw	0
  3345  0EE3  00AE               	movwf	___aldiv@quotient^(0+128)
  3346  0EE4  0826               	movf	(___aldiv@divisor+3)^(0+128),w
  3347  0EE5  0425               	iorwf	(___aldiv@divisor+2)^(0+128),w
  3348  0EE6  0424               	iorwf	(___aldiv@divisor+1)^(0+128),w
  3349  0EE7  0423               	iorwf	___aldiv@divisor^(0+128),w
  3350  0EE8  1903               	skipnz
  3351  0EE9  2F31               	goto	l2241
  3352  0EEA  01AC               	clrf	___aldiv@counter^(0+128)
  3353  0EEB  0AAC               	incf	___aldiv@counter^(0+128),f
  3354  0EEC                     l2227:	
  3355  0EEC  1BA6               	btfsc	(___aldiv@divisor+3)^(0+128),7
  3356  0EED  2EFC               	goto	l2229
  3357  0EEE  3001               	movlw	1
  3358  0EEF  00AB               	movwf	??___aldiv^(0+128)
  3359  0EF0                     u2295:	
  3360  0EF0  1003               	clrc
  3361  0EF1  0DA3               	rlf	___aldiv@divisor^(0+128),f
  3362  0EF2  0DA4               	rlf	(___aldiv@divisor+1)^(0+128),f
  3363  0EF3  0DA5               	rlf	(___aldiv@divisor+2)^(0+128),f
  3364  0EF4  0DA6               	rlf	(___aldiv@divisor+3)^(0+128),f
  3365  0EF5  0BAB               	decfsz	??___aldiv^(0+128),f
  3366  0EF6  2EF0               	goto	u2295
  3367  0EF7  3001               	movlw	1
  3368  0EF8  00AB               	movwf	??___aldiv^(0+128)
  3369  0EF9  082B               	movf	??___aldiv^(0+128),w
  3370  0EFA  07AC               	addwf	___aldiv@counter^(0+128),f
  3371  0EFB  2EEC               	goto	l2227
  3372  0EFC                     l2229:	
  3373  0EFC  3001               	movlw	1
  3374  0EFD  00AB               	movwf	??___aldiv^(0+128)
  3375  0EFE                     u2315:	
  3376  0EFE  1003               	clrc
  3377  0EFF  0DAE               	rlf	___aldiv@quotient^(0+128),f
  3378  0F00  0DAF               	rlf	(___aldiv@quotient+1)^(0+128),f
  3379  0F01  0DB0               	rlf	(___aldiv@quotient+2)^(0+128),f
  3380  0F02  0DB1               	rlf	(___aldiv@quotient+3)^(0+128),f
  3381  0F03  0BAB               	decfsz	??___aldiv^(0+128),f
  3382  0F04  2EFE               	goto	u2315
  3383  0F05  0826               	movf	(___aldiv@divisor+3)^(0+128),w
  3384  0F06  022A               	subwf	(___aldiv@dividend+3)^(0+128),w
  3385  0F07  1D03               	skipz
  3386  0F08  2F13               	goto	u2325
  3387  0F09  0825               	movf	(___aldiv@divisor+2)^(0+128),w
  3388  0F0A  0229               	subwf	(___aldiv@dividend+2)^(0+128),w
  3389  0F0B  1D03               	skipz
  3390  0F0C  2F13               	goto	u2325
  3391  0F0D  0824               	movf	(___aldiv@divisor+1)^(0+128),w
  3392  0F0E  0228               	subwf	(___aldiv@dividend+1)^(0+128),w
  3393  0F0F  1D03               	skipz
  3394  0F10  2F13               	goto	u2325
  3395  0F11  0823               	movf	___aldiv@divisor^(0+128),w
  3396  0F12  0227               	subwf	___aldiv@dividend^(0+128),w
  3397  0F13                     u2325:	
  3398  0F13  1C03               	skipc
  3399  0F14  2F24               	goto	l2237
  3400  0F15  0823               	movf	___aldiv@divisor^(0+128),w
  3401  0F16  02A7               	subwf	___aldiv@dividend^(0+128),f
  3402  0F17  0824               	movf	(___aldiv@divisor+1)^(0+128),w
  3403  0F18  1C03               	skipc
  3404  0F19  0F24               	incfsz	(___aldiv@divisor+1)^(0+128),w
  3405  0F1A  02A8               	subwf	(___aldiv@dividend+1)^(0+128),f
  3406  0F1B  0825               	movf	(___aldiv@divisor+2)^(0+128),w
  3407  0F1C  1C03               	skipc
  3408  0F1D  0F25               	incfsz	(___aldiv@divisor+2)^(0+128),w
  3409  0F1E  02A9               	subwf	(___aldiv@dividend+2)^(0+128),f
  3410  0F1F  0826               	movf	(___aldiv@divisor+3)^(0+128),w
  3411  0F20  1C03               	skipc
  3412  0F21  0F26               	incfsz	(___aldiv@divisor+3)^(0+128),w
  3413  0F22  02AA               	subwf	(___aldiv@dividend+3)^(0+128),f
  3414  0F23  142E               	bsf	___aldiv@quotient^(0+128),0
  3415  0F24                     l2237:	
  3416  0F24  3001               	movlw	1
  3417  0F25                     u2335:	
  3418  0F25  1003               	clrc
  3419  0F26  0CA6               	rrf	(___aldiv@divisor+3)^(0+128),f
  3420  0F27  0CA5               	rrf	(___aldiv@divisor+2)^(0+128),f
  3421  0F28  0CA4               	rrf	(___aldiv@divisor+1)^(0+128),f
  3422  0F29  0CA3               	rrf	___aldiv@divisor^(0+128),f
  3423  0F2A  3EFF               	addlw	-1
  3424  0F2B  1D03               	skipz
  3425  0F2C  2F25               	goto	u2335
  3426  0F2D  3001               	movlw	1
  3427  0F2E  02AC               	subwf	___aldiv@counter^(0+128),f
  3428  0F2F  1D03               	btfss	3,2
  3429  0F30  2EFC               	goto	l2229
  3430  0F31                     l2241:	
  3431  0F31  082D               	movf	___aldiv@sign^(0+128),w
  3432  0F32  1903               	btfsc	3,2
  3433  0F33  2F3F               	goto	l2245
  3434  0F34  09AE               	comf	___aldiv@quotient^(0+128),f
  3435  0F35  09AF               	comf	(___aldiv@quotient+1)^(0+128),f
  3436  0F36  09B0               	comf	(___aldiv@quotient+2)^(0+128),f
  3437  0F37  09B1               	comf	(___aldiv@quotient+3)^(0+128),f
  3438  0F38  0AAE               	incf	___aldiv@quotient^(0+128),f
  3439  0F39  1903               	skipnz
  3440  0F3A  0AAF               	incf	(___aldiv@quotient+1)^(0+128),f
  3441  0F3B  1903               	skipnz
  3442  0F3C  0AB0               	incf	(___aldiv@quotient+2)^(0+128),f
  3443  0F3D  1903               	skipnz
  3444  0F3E  0AB1               	incf	(___aldiv@quotient+3)^(0+128),f
  3445  0F3F                     l2245:	
  3446  0F3F  0831               	movf	(___aldiv@quotient+3)^(0+128),w
  3447  0F40  00A6               	movwf	(?___aldiv+3)^(0+128)
  3448  0F41  0830               	movf	(___aldiv@quotient+2)^(0+128),w
  3449  0F42  00A5               	movwf	(?___aldiv+2)^(0+128)
  3450  0F43  082F               	movf	(___aldiv@quotient+1)^(0+128),w
  3451  0F44  00A4               	movwf	(?___aldiv+1)^(0+128)
  3452  0F45  082E               	movf	___aldiv@quotient^(0+128),w
  3453  0F46  00A3               	movwf	?___aldiv^(0+128)
  3454  0F47  0008               	return
  3455  0F48                     __end_of___aldiv:	
  3456                           
  3457                           	psect	text12
  3458  0A67                     __ptext12:	
  3459 ;; *************** function _TIMER0_Set *****************
  3460 ;; Defined at:
  3461 ;;		line 20 in file "C:\Users\332414\Documents\Fuzzy-IA2\Cdigo em C no MPLAB\timers.c"
  3462 ;; Parameters:    Size  Location     Type
  3463 ;;  contagens       1    wreg     unsigned char 
  3464 ;; Auto vars:     Size  Location     Type
  3465 ;;  contagens       1    3[BANK1 ] unsigned char 
  3466 ;; Return value:  Size  Location     Type
  3467 ;;		None               void
  3468 ;; Registers used:
  3469 ;;		wreg
  3470 ;; Tracked objects:
  3471 ;;		On entry : 0/0
  3472 ;;		On exit  : 0/0
  3473 ;;		Unchanged: 0/0
  3474 ;; Data sizes:     COMMON   BANK0   BANK1   BANK3   BANK2
  3475 ;;      Params:         0       0       0       0       0
  3476 ;;      Locals:         0       0       1       0       0
  3477 ;;      Temps:          0       0       0       0       0
  3478 ;;      Totals:         0       0       1       0       0
  3479 ;;Total ram usage:        1 bytes
  3480 ;; Hardware stack levels used:    1
  3481 ;; Hardware stack levels required when called:    4
  3482 ;; This function calls:
  3483 ;;		Nothing
  3484 ;; This function is called by:
  3485 ;;		_main
  3486 ;; This function uses a non-reentrant model
  3487 ;;
  3488                           
  3489                           
  3490                           ;psect for function _TIMER0_Set
  3491  0A67                     _TIMER0_Set:	
  3492                           
  3493                           ;incstack = 0
  3494                           ; Regs used in _TIMER0_Set: [wreg]
  3495                           ;TIMER0_Set@contagens stored from wreg
  3496  0A67  1683               	bsf	3,5	;RP0=1, select bank1
  3497  0A68  1303               	bcf	3,6	;RP1=0, select bank1
  3498  0A69  00A3               	movwf	TIMER0_Set@contagens^(0+128)
  3499                           
  3500                           ;timers.c: 22: TMR0 = contagens;
  3501  0A6A  0823               	movf	TIMER0_Set@contagens^(0+128),w
  3502  0A6B  1283               	bcf	3,5	;RP0=0, select bank0
  3503  0A6C  1303               	bcf	3,6	;RP1=0, select bank0
  3504  0A6D  0081               	movwf	1	;volatile
  3505  0A6E  0008               	return
  3506  0A6F                     __end_of_TIMER0_Set:	
  3507                           
  3508                           	psect	text13
  3509  0A81                     __ptext13:	
  3510 ;; *************** function _TIMER0_Init *****************
  3511 ;; Defined at:
  3512 ;;		line 6 in file "C:\Users\332414\Documents\Fuzzy-IA2\Cdigo em C no MPLAB\timers.c"
  3513 ;; Parameters:    Size  Location     Type
  3514 ;;		None
  3515 ;; Auto vars:     Size  Location     Type
  3516 ;;		None
  3517 ;; Return value:  Size  Location     Type
  3518 ;;		None               void
  3519 ;; Registers used:
  3520 ;;		None
  3521 ;; Tracked objects:
  3522 ;;		On entry : 0/0
  3523 ;;		On exit  : 0/0
  3524 ;;		Unchanged: 0/0
  3525 ;; Data sizes:     COMMON   BANK0   BANK1   BANK3   BANK2
  3526 ;;      Params:         0       0       0       0       0
  3527 ;;      Locals:         0       0       0       0       0
  3528 ;;      Temps:          0       0       0       0       0
  3529 ;;      Totals:         0       0       0       0       0
  3530 ;;Total ram usage:        0 bytes
  3531 ;; Hardware stack levels used:    1
  3532 ;; Hardware stack levels required when called:    4
  3533 ;; This function calls:
  3534 ;;		Nothing
  3535 ;; This function is called by:
  3536 ;;		_main
  3537 ;; This function uses a non-reentrant model
  3538 ;;
  3539                           
  3540                           
  3541                           ;psect for function _TIMER0_Init
  3542  0A81                     _TIMER0_Init:	
  3543                           
  3544                           ;timers.c: 8: OPTION_REGbits.T0CS = 0;
  3545                           
  3546                           ;incstack = 0
  3547                           ; Regs used in _TIMER0_Init: []
  3548  0A81  1683               	bsf	3,5	;RP0=1, select bank1
  3549  0A82  1303               	bcf	3,6	;RP1=0, select bank1
  3550  0A83  1281               	bcf	1,5	;volatile
  3551                           
  3552                           ;timers.c: 9: OPTION_REGbits.T0SE = 0;
  3553  0A84  1201               	bcf	1,4	;volatile
  3554                           
  3555                           ;timers.c: 10: OPTION_REGbits.PSA = 0;
  3556  0A85  1181               	bcf	1,3	;volatile
  3557                           
  3558                           ;timers.c: 11: OPTION_REGbits.PS2 = 1;
  3559  0A86  1501               	bsf	1,2	;volatile
  3560                           
  3561                           ;timers.c: 12: OPTION_REGbits.PS1 = 1;
  3562  0A87  1481               	bsf	1,1	;volatile
  3563                           
  3564                           ;timers.c: 13: OPTION_REGbits.PS0 = 1;
  3565  0A88  1401               	bsf	1,0	;volatile
  3566                           
  3567                           ;timers.c: 14: INTCONbits.TMR0IF = 0;
  3568  0A89  110B               	bcf	11,2	;volatile
  3569                           
  3570                           ;timers.c: 15: INTCONbits.TMR0IE = 1;
  3571  0A8A  168B               	bsf	11,5	;volatile
  3572  0A8B  0008               	return
  3573  0A8C                     __end_of_TIMER0_Init:	
  3574                           
  3575                           	psect	text14
  3576  07DC                     __ptext14:	
  3577 ;; *************** function _PWM_Init *****************
  3578 ;; Defined at:
  3579 ;;		line 5 in file "C:\Users\332414\Documents\Fuzzy-IA2\Cdigo em C no MPLAB\pwm.c"
  3580 ;; Parameters:    Size  Location     Type
  3581 ;;		None
  3582 ;; Auto vars:     Size  Location     Type
  3583 ;;		None
  3584 ;; Return value:  Size  Location     Type
  3585 ;;		None               void
  3586 ;; Registers used:
  3587 ;;		wreg
  3588 ;; Tracked objects:
  3589 ;;		On entry : 0/0
  3590 ;;		On exit  : 0/0
  3591 ;;		Unchanged: 0/0
  3592 ;; Data sizes:     COMMON   BANK0   BANK1   BANK3   BANK2
  3593 ;;      Params:         0       0       0       0       0
  3594 ;;      Locals:         0       0       0       0       0
  3595 ;;      Temps:          0       0       0       0       0
  3596 ;;      Totals:         0       0       0       0       0
  3597 ;;Total ram usage:        0 bytes
  3598 ;; Hardware stack levels used:    1
  3599 ;; Hardware stack levels required when called:    4
  3600 ;; This function calls:
  3601 ;;		Nothing
  3602 ;; This function is called by:
  3603 ;;		_main
  3604 ;; This function uses a non-reentrant model
  3605 ;;
  3606                           
  3607                           
  3608                           ;psect for function _PWM_Init
  3609  07DC                     _PWM_Init:	
  3610                           
  3611                           ;pwm.c: 14: T2CONbits.T2CKPS1 = 1;
  3612                           
  3613                           ;incstack = 0
  3614                           ; Regs used in _PWM_Init: [wreg]
  3615  07DC  1283               	bcf	3,5	;RP0=0, select bank0
  3616  07DD  1303               	bcf	3,6	;RP1=0, select bank0
  3617  07DE  1492               	bsf	18,1	;volatile
  3618                           
  3619                           ;pwm.c: 15: T2CONbits.T2CKPS0 = 0;
  3620  07DF  1012               	bcf	18,0	;volatile
  3621                           
  3622                           ;pwm.c: 18: T2CONbits.TOUTPS3 = 0;
  3623  07E0  1312               	bcf	18,6	;volatile
  3624                           
  3625                           ;pwm.c: 19: T2CONbits.TOUTPS2 = 0;
  3626  07E1  1292               	bcf	18,5	;volatile
  3627                           
  3628                           ;pwm.c: 20: T2CONbits.TOUTPS1 = 0;
  3629  07E2  1212               	bcf	18,4	;volatile
  3630                           
  3631                           ;pwm.c: 21: T2CONbits.TOUTPS0 = 0;
  3632  07E3  1192               	bcf	18,3	;volatile
  3633                           
  3634                           ;pwm.c: 24: T2CONbits.TMR2ON = 1;
  3635  07E4  1512               	bsf	18,2	;volatile
  3636                           
  3637                           ;pwm.c: 27: PR2 = 255;
  3638  07E5  30FF               	movlw	255
  3639  07E6  1683               	bsf	3,5	;RP0=1, select bank1
  3640  07E7  1303               	bcf	3,6	;RP1=0, select bank1
  3641  07E8  0092               	movwf	18	;volatile
  3642                           
  3643                           ;pwm.c: 43: CCP1CONbits.CCP1M3 = 1;
  3644  07E9  1283               	bcf	3,5	;RP0=0, select bank0
  3645  07EA  1303               	bcf	3,6	;RP1=0, select bank0
  3646  07EB  1597               	bsf	23,3	;volatile
  3647                           
  3648                           ;pwm.c: 44: CCP1CONbits.CCP1M2 = 1;
  3649  07EC  1517               	bsf	23,2	;volatile
  3650                           
  3651                           ;pwm.c: 45: CCP1CONbits.CCP1M1 = 1;
  3652  07ED  1497               	bsf	23,1	;volatile
  3653                           
  3654                           ;pwm.c: 46: CCP1CONbits.CCP1M0 = 1;
  3655  07EE  1417               	bsf	23,0	;volatile
  3656                           
  3657                           ;pwm.c: 49: PIE1bits.CCP1IE = 1;
  3658  07EF  1683               	bsf	3,5	;RP0=1, select bank1
  3659  07F0  1303               	bcf	3,6	;RP1=0, select bank1
  3660  07F1  150C               	bsf	12,2	;volatile
  3661                           
  3662                           ;pwm.c: 50: PIR1bits.CCP1IF = 0;
  3663  07F2  1283               	bcf	3,5	;RP0=0, select bank0
  3664  07F3  1303               	bcf	3,6	;RP1=0, select bank0
  3665  07F4  110C               	bcf	12,2	;volatile
  3666                           
  3667                           ;pwm.c: 53: CCP2CONbits.CCP2M3 = 1;
  3668  07F5  159D               	bsf	29,3	;volatile
  3669                           
  3670                           ;pwm.c: 54: CCP2CONbits.CCP2M2 = 1;
  3671  07F6  151D               	bsf	29,2	;volatile
  3672                           
  3673                           ;pwm.c: 55: CCP2CONbits.CCP2M1 = 1;
  3674  07F7  149D               	bsf	29,1	;volatile
  3675                           
  3676                           ;pwm.c: 56: CCP2CONbits.CCP2M0 = 1;
  3677  07F8  141D               	bsf	29,0	;volatile
  3678                           
  3679                           ;pwm.c: 59: PIE2bits.CCP2IE = 1;
  3680  07F9  1683               	bsf	3,5	;RP0=1, select bank1
  3681  07FA  1303               	bcf	3,6	;RP1=0, select bank1
  3682  07FB  140D               	bsf	13,0	;volatile
  3683                           
  3684                           ;pwm.c: 60: PIR2bits.CCP2IF = 0;
  3685  07FC  1283               	bcf	3,5	;RP0=0, select bank0
  3686  07FD  1303               	bcf	3,6	;RP1=0, select bank0
  3687  07FE  100D               	bcf	13,0	;volatile
  3688  07FF  0008               	return
  3689  0800                     __end_of_PWM_Init:	
  3690                           
  3691                           	psect	text15
  3692  0B6B                     __ptext15:	
  3693 ;; *************** function _PWM_DutyCycle2 *****************
  3694 ;; Defined at:
  3695 ;;		line 96 in file "C:\Users\332414\Documents\Fuzzy-IA2\Cdigo em C no MPLAB\pwm.c"
  3696 ;; Parameters:    Size  Location     Type
  3697 ;;  valor           2    3[BANK1 ] int 
  3698 ;; Auto vars:     Size  Location     Type
  3699 ;;		None
  3700 ;; Return value:  Size  Location     Type
  3701 ;;		None               void
  3702 ;; Registers used:
  3703 ;;		wreg, status,2, status,0
  3704 ;; Tracked objects:
  3705 ;;		On entry : 0/0
  3706 ;;		On exit  : 0/0
  3707 ;;		Unchanged: 0/0
  3708 ;; Data sizes:     COMMON   BANK0   BANK1   BANK3   BANK2
  3709 ;;      Params:         0       0       2       0       0
  3710 ;;      Locals:         0       0       0       0       0
  3711 ;;      Temps:          0       0       2       0       0
  3712 ;;      Totals:         0       0       4       0       0
  3713 ;;Total ram usage:        4 bytes
  3714 ;; Hardware stack levels used:    1
  3715 ;; Hardware stack levels required when called:    4
  3716 ;; This function calls:
  3717 ;;		Nothing
  3718 ;; This function is called by:
  3719 ;;		_main
  3720 ;; This function uses a non-reentrant model
  3721 ;;
  3722                           
  3723                           
  3724                           ;psect for function _PWM_DutyCycle2
  3725  0B6B                     _PWM_DutyCycle2:	
  3726                           
  3727                           ;pwm.c: 98: CCPR2L = valor >> 2;
  3728                           
  3729                           ;incstack = 0
  3730                           ; Regs used in _PWM_DutyCycle2: [wreg+status,2+status,0]
  3731  0B6B  1683               	bsf	3,5	;RP0=1, select bank1
  3732  0B6C  1303               	bcf	3,6	;RP1=0, select bank1
  3733  0B6D  0824               	movf	(PWM_DutyCycle2@valor+1)^(0+128),w
  3734  0B6E  00A6               	movwf	(??_PWM_DutyCycle2^(0+128)+1)
  3735  0B6F  0823               	movf	PWM_DutyCycle2@valor^(0+128),w
  3736  0B70  00A5               	movwf	??_PWM_DutyCycle2^(0+128)
  3737  0B71  0D26               	rlf	(??_PWM_DutyCycle2^(0+128)+1),w
  3738  0B72  0CA6               	rrf	(??_PWM_DutyCycle2^(0+128)+1),f
  3739  0B73  0CA5               	rrf	??_PWM_DutyCycle2^(0+128),f
  3740  0B74  0D26               	rlf	(??_PWM_DutyCycle2^(0+128)+1),w
  3741  0B75  0CA6               	rrf	(??_PWM_DutyCycle2^(0+128)+1),f
  3742  0B76  0CA5               	rrf	??_PWM_DutyCycle2^(0+128),f
  3743  0B77  0825               	movf	??_PWM_DutyCycle2^(0+128),w
  3744  0B78  1283               	bcf	3,5	;RP0=0, select bank0
  3745  0B79  1303               	bcf	3,6	;RP1=0, select bank0
  3746  0B7A  009B               	movwf	27	;volatile
  3747                           
  3748                           ;pwm.c: 99: CCP2CON = (valor << 4)|0X0C;
  3749  0B7B  1683               	bsf	3,5	;RP0=1, select bank1
  3750  0B7C  1303               	bcf	3,6	;RP1=0, select bank1
  3751  0B7D  0823               	movf	PWM_DutyCycle2@valor^(0+128),w
  3752  0B7E  00A5               	movwf	??_PWM_DutyCycle2^(0+128)
  3753  0B7F  3003               	movlw	3
  3754  0B80                     u2805:	
  3755  0B80  1003               	clrc
  3756  0B81  0DA5               	rlf	??_PWM_DutyCycle2^(0+128),f
  3757  0B82  3EFF               	addlw	-1
  3758  0B83  1D03               	skipz
  3759  0B84  2B80               	goto	u2805
  3760  0B85  1003               	clrc
  3761  0B86  0D25               	rlf	??_PWM_DutyCycle2^(0+128),w
  3762  0B87  380C               	iorlw	12
  3763  0B88  1283               	bcf	3,5	;RP0=0, select bank0
  3764  0B89  1303               	bcf	3,6	;RP1=0, select bank0
  3765  0B8A  009D               	movwf	29	;volatile
  3766  0B8B  0008               	return
  3767  0B8C                     __end_of_PWM_DutyCycle2:	
  3768                           
  3769                           	psect	text16
  3770  0B4A                     __ptext16:	
  3771 ;; *************** function _PWM_DutyCycle1 *****************
  3772 ;; Defined at:
  3773 ;;		line 64 in file "C:\Users\332414\Documents\Fuzzy-IA2\Cdigo em C no MPLAB\pwm.c"
  3774 ;; Parameters:    Size  Location     Type
  3775 ;;  valor           2    3[BANK1 ] int 
  3776 ;; Auto vars:     Size  Location     Type
  3777 ;;		None
  3778 ;; Return value:  Size  Location     Type
  3779 ;;		None               void
  3780 ;; Registers used:
  3781 ;;		wreg, status,2, status,0
  3782 ;; Tracked objects:
  3783 ;;		On entry : 0/0
  3784 ;;		On exit  : 0/0
  3785 ;;		Unchanged: 0/0
  3786 ;; Data sizes:     COMMON   BANK0   BANK1   BANK3   BANK2
  3787 ;;      Params:         0       0       2       0       0
  3788 ;;      Locals:         0       0       0       0       0
  3789 ;;      Temps:          0       0       2       0       0
  3790 ;;      Totals:         0       0       4       0       0
  3791 ;;Total ram usage:        4 bytes
  3792 ;; Hardware stack levels used:    1
  3793 ;; Hardware stack levels required when called:    4
  3794 ;; This function calls:
  3795 ;;		Nothing
  3796 ;; This function is called by:
  3797 ;;		_main
  3798 ;; This function uses a non-reentrant model
  3799 ;;
  3800                           
  3801                           
  3802                           ;psect for function _PWM_DutyCycle1
  3803  0B4A                     _PWM_DutyCycle1:	
  3804                           
  3805                           ;pwm.c: 91: CCPR1L = valor >> 2;
  3806                           
  3807                           ;incstack = 0
  3808                           ; Regs used in _PWM_DutyCycle1: [wreg+status,2+status,0]
  3809  0B4A  1683               	bsf	3,5	;RP0=1, select bank1
  3810  0B4B  1303               	bcf	3,6	;RP1=0, select bank1
  3811  0B4C  0824               	movf	(PWM_DutyCycle1@valor+1)^(0+128),w
  3812  0B4D  00A6               	movwf	(??_PWM_DutyCycle1^(0+128)+1)
  3813  0B4E  0823               	movf	PWM_DutyCycle1@valor^(0+128),w
  3814  0B4F  00A5               	movwf	??_PWM_DutyCycle1^(0+128)
  3815  0B50  0D26               	rlf	(??_PWM_DutyCycle1^(0+128)+1),w
  3816  0B51  0CA6               	rrf	(??_PWM_DutyCycle1^(0+128)+1),f
  3817  0B52  0CA5               	rrf	??_PWM_DutyCycle1^(0+128),f
  3818  0B53  0D26               	rlf	(??_PWM_DutyCycle1^(0+128)+1),w
  3819  0B54  0CA6               	rrf	(??_PWM_DutyCycle1^(0+128)+1),f
  3820  0B55  0CA5               	rrf	??_PWM_DutyCycle1^(0+128),f
  3821  0B56  0825               	movf	??_PWM_DutyCycle1^(0+128),w
  3822  0B57  1283               	bcf	3,5	;RP0=0, select bank0
  3823  0B58  1303               	bcf	3,6	;RP1=0, select bank0
  3824  0B59  0095               	movwf	21	;volatile
  3825                           
  3826                           ;pwm.c: 92: CCP1CON = (valor << 4)|0X0C;
  3827  0B5A  1683               	bsf	3,5	;RP0=1, select bank1
  3828  0B5B  1303               	bcf	3,6	;RP1=0, select bank1
  3829  0B5C  0823               	movf	PWM_DutyCycle1@valor^(0+128),w
  3830  0B5D  00A5               	movwf	??_PWM_DutyCycle1^(0+128)
  3831  0B5E  3003               	movlw	3
  3832  0B5F                     u2855:	
  3833  0B5F  1003               	clrc
  3834  0B60  0DA5               	rlf	??_PWM_DutyCycle1^(0+128),f
  3835  0B61  3EFF               	addlw	-1
  3836  0B62  1D03               	skipz
  3837  0B63  2B5F               	goto	u2855
  3838  0B64  1003               	clrc
  3839  0B65  0D25               	rlf	??_PWM_DutyCycle1^(0+128),w
  3840  0B66  380C               	iorlw	12
  3841  0B67  1283               	bcf	3,5	;RP0=0, select bank0
  3842  0B68  1303               	bcf	3,6	;RP1=0, select bank0
  3843  0B69  0097               	movwf	23	;volatile
  3844  0B6A  0008               	return
  3845  0B6B                     __end_of_PWM_DutyCycle1:	
  3846                           
  3847                           	psect	text17
  3848  0BDA                     __ptext17:	
  3849 ;; *************** function _LCD_WriteString *****************
  3850 ;; Defined at:
  3851 ;;		line 61 in file "C:\Users\332414\Documents\Fuzzy-IA2\Cdigo em C no MPLAB\lcd.c"
  3852 ;; Parameters:    Size  Location     Type
  3853 ;;  Str             2    5[BANK1 ] PTR const unsigned char 
  3854 ;;		 -> STR_11(6), display(10), STR_8(17), 
  3855 ;; Auto vars:     Size  Location     Type
  3856 ;;		None
  3857 ;; Return value:  Size  Location     Type
  3858 ;;		None               void
  3859 ;; Registers used:
  3860 ;;		wreg, fsr0l, fsr0h, status,2, status,0, btemp+1, pclath, cstack
  3861 ;; Tracked objects:
  3862 ;;		On entry : 0/0
  3863 ;;		On exit  : 0/0
  3864 ;;		Unchanged: 0/0
  3865 ;; Data sizes:     COMMON   BANK0   BANK1   BANK3   BANK2
  3866 ;;      Params:         0       0       2       0       0
  3867 ;;      Locals:         0       0       0       0       0
  3868 ;;      Temps:          0       0       0       0       0
  3869 ;;      Totals:         0       0       2       0       0
  3870 ;;Total ram usage:        2 bytes
  3871 ;; Hardware stack levels used:    1
  3872 ;; Hardware stack levels required when called:    5
  3873 ;; This function calls:
  3874 ;;		_LCD_WriteData
  3875 ;; This function is called by:
  3876 ;;		_main
  3877 ;; This function uses a non-reentrant model
  3878 ;;
  3879                           
  3880                           
  3881                           ;psect for function _LCD_WriteString
  3882  0BDA                     _LCD_WriteString:	
  3883  0BDA                     l2549:	
  3884                           ;lcd.c: 63: while(*Str != '\0')
  3885                           
  3886                           ;incstack = 0
  3887                           ; Regs used in _LCD_WriteString: [wreg-fsr0h+status,2+status,0+btemp+1+pclath+cstack]
  3888                           
  3889  0BDA  1683               	bsf	3,5	;RP0=1, select bank1
  3890  0BDB  1303               	bcf	3,6	;RP1=0, select bank1
  3891  0BDC  0826               	movf	(LCD_WriteString@Str+1)^(0+128),w
  3892  0BDD  1283               	bcf	3,5	;RP0=0, select bank0
  3893  0BDE  1303               	bcf	3,6	;RP1=0, select bank0
  3894  0BDF  00FF               	movwf	127
  3895  0BE0  1683               	bsf	3,5	;RP0=1, select bank1
  3896  0BE1  1303               	bcf	3,6	;RP1=0, select bank1
  3897  0BE2  0825               	movf	LCD_WriteString@Str^(0+128),w
  3898  0BE3  0084               	movwf	4
  3899  0BE4  1283               	bcf	3,5	;RP0=0, select bank0
  3900  0BE5  1303               	bcf	3,6	;RP1=0, select bank0
  3901  0BE6  120A  158A  2000  120A  158A  	fcall	stringtab
  3902  0BEB  3800               	iorlw	0
  3903  0BEC  1903               	btfsc	3,2
  3904  0BED  0008               	return
  3905                           
  3906                           ;lcd.c: 64: {
  3907                           ;lcd.c: 65: LCD_WriteData(*Str);
  3908  0BEE  1683               	bsf	3,5	;RP0=1, select bank1
  3909  0BEF  1303               	bcf	3,6	;RP1=0, select bank1
  3910  0BF0  0826               	movf	(LCD_WriteString@Str+1)^(0+128),w
  3911  0BF1  1283               	bcf	3,5	;RP0=0, select bank0
  3912  0BF2  1303               	bcf	3,6	;RP1=0, select bank0
  3913  0BF3  00FF               	movwf	127
  3914  0BF4  1683               	bsf	3,5	;RP0=1, select bank1
  3915  0BF5  1303               	bcf	3,6	;RP1=0, select bank1
  3916  0BF6  0825               	movf	LCD_WriteString@Str^(0+128),w
  3917  0BF7  0084               	movwf	4
  3918  0BF8  1283               	bcf	3,5	;RP0=0, select bank0
  3919  0BF9  1303               	bcf	3,6	;RP1=0, select bank0
  3920  0BFA  120A  158A  2000  120A  158A  	fcall	stringtab
  3921  0BFF  120A  158A  22D9  120A  158A  	fcall	_LCD_WriteData
  3922                           
  3923                           ;lcd.c: 66: Str++;
  3924  0C04  3001               	movlw	1
  3925  0C05  1683               	bsf	3,5	;RP0=1, select bank1
  3926  0C06  1303               	bcf	3,6	;RP1=0, select bank1
  3927  0C07  07A5               	addwf	LCD_WriteString@Str^(0+128),f
  3928  0C08  1803               	skipnc
  3929  0C09  0AA6               	incf	(LCD_WriteString@Str+1)^(0+128),f
  3930  0C0A  2BDA               	goto	l2549
  3931  0C0B                     __end_of_LCD_WriteString:	
  3932                           
  3933                           	psect	text18
  3934  0AD9                     __ptext18:	
  3935 ;; *************** function _LCD_WriteData *****************
  3936 ;; Defined at:
  3937 ;;		line 47 in file "C:\Users\332414\Documents\Fuzzy-IA2\Cdigo em C no MPLAB\lcd.c"
  3938 ;; Parameters:    Size  Location     Type
  3939 ;;  Byte            1    wreg     unsigned char 
  3940 ;; Auto vars:     Size  Location     Type
  3941 ;;  Byte            1    4[BANK1 ] unsigned char 
  3942 ;; Return value:  Size  Location     Type
  3943 ;;		None               void
  3944 ;; Registers used:
  3945 ;;		wreg
  3946 ;; Tracked objects:
  3947 ;;		On entry : 0/0
  3948 ;;		On exit  : 0/0
  3949 ;;		Unchanged: 0/0
  3950 ;; Data sizes:     COMMON   BANK0   BANK1   BANK3   BANK2
  3951 ;;      Params:         0       0       0       0       0
  3952 ;;      Locals:         0       0       1       0       0
  3953 ;;      Temps:          0       0       1       0       0
  3954 ;;      Totals:         0       0       2       0       0
  3955 ;;Total ram usage:        2 bytes
  3956 ;; Hardware stack levels used:    1
  3957 ;; Hardware stack levels required when called:    4
  3958 ;; This function calls:
  3959 ;;		Nothing
  3960 ;; This function is called by:
  3961 ;;		_LCD_WriteString
  3962 ;; This function uses a non-reentrant model
  3963 ;;
  3964                           
  3965                           
  3966                           ;psect for function _LCD_WriteData
  3967  0AD9                     _LCD_WriteData:	
  3968                           
  3969                           ;incstack = 0
  3970                           ; Regs used in _LCD_WriteData: [wreg]
  3971                           ;LCD_WriteData@Byte stored from wreg
  3972  0AD9  1683               	bsf	3,5	;RP0=1, select bank1
  3973  0ADA  1303               	bcf	3,6	;RP1=0, select bank1
  3974  0ADB  00A4               	movwf	LCD_WriteData@Byte^(0+128)
  3975                           
  3976                           ;lcd.c: 49: PORTEbits.RE0 = 1;
  3977  0ADC  1283               	bcf	3,5	;RP0=0, select bank0
  3978  0ADD  1303               	bcf	3,6	;RP1=0, select bank0
  3979  0ADE  1409               	bsf	9,0	;volatile
  3980                           
  3981                           ;lcd.c: 51: PORTD = Byte;
  3982  0ADF  1683               	bsf	3,5	;RP0=1, select bank1
  3983  0AE0  1303               	bcf	3,6	;RP1=0, select bank1
  3984  0AE1  0824               	movf	LCD_WriteData@Byte^(0+128),w
  3985  0AE2  1283               	bcf	3,5	;RP0=0, select bank0
  3986  0AE3  1303               	bcf	3,6	;RP1=0, select bank0
  3987  0AE4  0088               	movwf	8	;volatile
  3988                           
  3989                           ;lcd.c: 53: PORTEbits.RE1 = 1;
  3990  0AE5  1489               	bsf	9,1	;volatile
  3991                           
  3992                           ;lcd.c: 55: _delay((unsigned long)((40)*(18432000/4000000.0)));
  3993  0AE6  303D               	movlw	61
  3994  0AE7  1683               	bsf	3,5	;RP0=1, select bank1
  3995  0AE8  1303               	bcf	3,6	;RP1=0, select bank1
  3996  0AE9  00A3               	movwf	??_LCD_WriteData^(0+128)
  3997  0AEA                     u3287:	
  3998  0AEA  0BA3               	decfsz	??_LCD_WriteData^(0+128),f
  3999  0AEB  2AEA               	goto	u3287
  4000                           
  4001                           ;lcd.c: 57: PORTEbits.RE1 = 0;
  4002  0AEC  1283               	bcf	3,5	;RP0=0, select bank0
  4003  0AED  1303               	bcf	3,6	;RP1=0, select bank0
  4004  0AEE  1089               	bcf	9,1	;volatile
  4005  0AEF  0008               	return
  4006  0AF0                     __end_of_LCD_WriteData:	
  4007                           
  4008                           	psect	text19
  4009  0DC0                     __ptext19:	
  4010 ;; *************** function _LCD_Init *****************
  4011 ;; Defined at:
  4012 ;;		line 87 in file "C:\Users\332414\Documents\Fuzzy-IA2\Cdigo em C no MPLAB\lcd.c"
  4013 ;; Parameters:    Size  Location     Type
  4014 ;;		None
  4015 ;; Auto vars:     Size  Location     Type
  4016 ;;		None
  4017 ;; Return value:  Size  Location     Type
  4018 ;;		None               void
  4019 ;; Registers used:
  4020 ;;		wreg, status,2, status,0, pclath, cstack
  4021 ;; Tracked objects:
  4022 ;;		On entry : 0/0
  4023 ;;		On exit  : 0/0
  4024 ;;		Unchanged: 0/0
  4025 ;; Data sizes:     COMMON   BANK0   BANK1   BANK3   BANK2
  4026 ;;      Params:         0       0       0       0       0
  4027 ;;      Locals:         0       0       0       0       0
  4028 ;;      Temps:          0       0       2       0       0
  4029 ;;      Totals:         0       0       2       0       0
  4030 ;;Total ram usage:        2 bytes
  4031 ;; Hardware stack levels used:    1
  4032 ;; Hardware stack levels required when called:    5
  4033 ;; This function calls:
  4034 ;;		_LCD_WriteCmd
  4035 ;; This function is called by:
  4036 ;;		_main
  4037 ;; This function uses a non-reentrant model
  4038 ;;
  4039                           
  4040                           
  4041                           ;psect for function _LCD_Init
  4042  0DC0                     _LCD_Init:	
  4043                           
  4044                           ;lcd.c: 90: ADCON1bits.PCFG3 = 0;
  4045                           
  4046                           ;incstack = 0
  4047                           ; Regs used in _LCD_Init: [wreg+status,2+status,0+pclath+cstack]
  4048  0DC0  1683               	bsf	3,5	;RP0=1, select bank1
  4049  0DC1  1303               	bcf	3,6	;RP1=0, select bank1
  4050  0DC2  119F               	bcf	31,3	;volatile
  4051                           
  4052                           ;lcd.c: 91: ADCON1bits.PCFG2 = 1;
  4053  0DC3  151F               	bsf	31,2	;volatile
  4054                           
  4055                           ;lcd.c: 92: ADCON1bits.PCFG1 = 0;
  4056  0DC4  109F               	bcf	31,1	;volatile
  4057                           
  4058                           ;lcd.c: 93: ADCON1bits.PCFG0 = 0;
  4059  0DC5  101F               	bcf	31,0	;volatile
  4060                           
  4061                           ;lcd.c: 95: _delay((unsigned long)((15)*(18432000/4000.0)));
  4062  0DC6  305A               	movlw	90
  4063  0DC7  00A6               	movwf	(??_LCD_Init^(0+128)+1)
  4064  0DC8  30C3               	movlw	195
  4065  0DC9  00A5               	movwf	??_LCD_Init^(0+128)
  4066  0DCA                     u3297:	
  4067  0DCA  0BA5               	decfsz	??_LCD_Init^(0+128),f
  4068  0DCB  2DCA               	goto	u3297
  4069  0DCC  0BA6               	decfsz	(??_LCD_Init^(0+128)+1),f
  4070  0DCD  2DCA               	goto	u3297
  4071                           
  4072                           ;lcd.c: 97: LCD_WriteCmd(0x30);
  4073  0DCE  3030               	movlw	48
  4074  0DCF  120A  158A  22C2  120A  158A  	fcall	_LCD_WriteCmd
  4075                           
  4076                           ;lcd.c: 98: _delay((unsigned long)((4)*(18432000/4000.0)));
  4077  0DD4  3018               	movlw	24
  4078  0DD5  1683               	bsf	3,5	;RP0=1, select bank1
  4079  0DD6  1303               	bcf	3,6	;RP1=0, select bank1
  4080  0DD7  00A6               	movwf	(??_LCD_Init^(0+128)+1)
  4081  0DD8  30EF               	movlw	239
  4082  0DD9  00A5               	movwf	??_LCD_Init^(0+128)
  4083  0DDA                     u3307:	
  4084  0DDA  0BA5               	decfsz	??_LCD_Init^(0+128),f
  4085  0DDB  2DDA               	goto	u3307
  4086  0DDC  0BA6               	decfsz	(??_LCD_Init^(0+128)+1),f
  4087  0DDD  2DDA               	goto	u3307
  4088                           
  4089                           ;lcd.c: 100: LCD_WriteCmd(0x30);
  4090  0DDE  3030               	movlw	48
  4091  0DDF  120A  158A  22C2  120A  158A  	fcall	_LCD_WriteCmd
  4092                           
  4093                           ;lcd.c: 101: _delay((unsigned long)((100)*(18432000/4000000.0)));
  4094  0DE4  3099               	movlw	153
  4095  0DE5  1683               	bsf	3,5	;RP0=1, select bank1
  4096  0DE6  1303               	bcf	3,6	;RP1=0, select bank1
  4097  0DE7  00A5               	movwf	??_LCD_Init^(0+128)
  4098  0DE8                     u3317:	
  4099  0DE8  0BA5               	decfsz	??_LCD_Init^(0+128),f
  4100  0DE9  2DE8               	goto	u3317
  4101                           
  4102                           ;lcd.c: 103: LCD_WriteCmd(0x30);
  4103  0DEA  3030               	movlw	48
  4104  0DEB  120A  158A  22C2  120A  158A  	fcall	_LCD_WriteCmd
  4105                           
  4106                           ;lcd.c: 104: _delay((unsigned long)((40)*(18432000/4000000.0)));
  4107  0DF0  303D               	movlw	61
  4108  0DF1  1683               	bsf	3,5	;RP0=1, select bank1
  4109  0DF2  1303               	bcf	3,6	;RP1=0, select bank1
  4110  0DF3  00A5               	movwf	??_LCD_Init^(0+128)
  4111  0DF4                     u3327:	
  4112  0DF4  0BA5               	decfsz	??_LCD_Init^(0+128),f
  4113  0DF5  2DF4               	goto	u3327
  4114                           
  4115                           ;lcd.c: 106: LCD_WriteCmd(0x38);
  4116  0DF6  3038               	movlw	56
  4117  0DF7  120A  158A  22C2  120A  158A  	fcall	_LCD_WriteCmd
  4118                           
  4119                           ;lcd.c: 107: _delay((unsigned long)((40)*(18432000/4000000.0)));
  4120  0DFC  303D               	movlw	61
  4121  0DFD  1683               	bsf	3,5	;RP0=1, select bank1
  4122  0DFE  1303               	bcf	3,6	;RP1=0, select bank1
  4123  0DFF  00A5               	movwf	??_LCD_Init^(0+128)
  4124  0E00                     u3337:	
  4125  0E00  0BA5               	decfsz	??_LCD_Init^(0+128),f
  4126  0E01  2E00               	goto	u3337
  4127                           
  4128                           ;lcd.c: 109: LCD_WriteCmd(0x01);
  4129  0E02  3001               	movlw	1
  4130  0E03  120A  158A  22C2  120A  158A  	fcall	_LCD_WriteCmd
  4131                           
  4132                           ;lcd.c: 110: _delay((unsigned long)((2)*(18432000/4000.0)));
  4133  0E08  300C               	movlw	12
  4134  0E09  1683               	bsf	3,5	;RP0=1, select bank1
  4135  0E0A  1303               	bcf	3,6	;RP1=0, select bank1
  4136  0E0B  00A6               	movwf	(??_LCD_Init^(0+128)+1)
  4137  0E0C  30F7               	movlw	247
  4138  0E0D  00A5               	movwf	??_LCD_Init^(0+128)
  4139  0E0E                     u3347:	
  4140  0E0E  0BA5               	decfsz	??_LCD_Init^(0+128),f
  4141  0E0F  2E0E               	goto	u3347
  4142  0E10  0BA6               	decfsz	(??_LCD_Init^(0+128)+1),f
  4143  0E11  2E0E               	goto	u3347
  4144                           
  4145                           ;lcd.c: 112: LCD_WriteCmd(0x0C);
  4146  0E12  300C               	movlw	12
  4147  0E13  120A  158A  22C2  120A  158A  	fcall	_LCD_WriteCmd
  4148                           
  4149                           ;lcd.c: 113: _delay((unsigned long)((40)*(18432000/4000000.0)));
  4150  0E18  303D               	movlw	61
  4151  0E19  1683               	bsf	3,5	;RP0=1, select bank1
  4152  0E1A  1303               	bcf	3,6	;RP1=0, select bank1
  4153  0E1B  00A5               	movwf	??_LCD_Init^(0+128)
  4154  0E1C                     u3357:	
  4155  0E1C  0BA5               	decfsz	??_LCD_Init^(0+128),f
  4156  0E1D  2E1C               	goto	u3357
  4157                           
  4158                           ;lcd.c: 115: LCD_WriteCmd(0x06);
  4159  0E1E  3006               	movlw	6
  4160  0E1F  120A  158A  22C2  120A  158A  	fcall	_LCD_WriteCmd
  4161                           
  4162                           ;lcd.c: 116: _delay((unsigned long)((40)*(18432000/4000000.0)));
  4163  0E24  303D               	movlw	61
  4164  0E25  1683               	bsf	3,5	;RP0=1, select bank1
  4165  0E26  1303               	bcf	3,6	;RP1=0, select bank1
  4166  0E27  00A5               	movwf	??_LCD_Init^(0+128)
  4167  0E28                     u3367:	
  4168  0E28  0BA5               	decfsz	??_LCD_Init^(0+128),f
  4169  0E29  2E28               	goto	u3367
  4170  0E2A  0008               	return
  4171  0E2B                     __end_of_LCD_Init:	
  4172                           
  4173                           	psect	text20
  4174  0B2A                     __ptext20:	
  4175 ;; *************** function _LCD_Cursor *****************
  4176 ;; Defined at:
  4177 ;;		line 10 in file "C:\Users\332414\Documents\Fuzzy-IA2\Cdigo em C no MPLAB\lcd.c"
  4178 ;; Parameters:    Size  Location     Type
  4179 ;;  Row             1    wreg     unsigned char 
  4180 ;;  Col             1    3[BANK1 ] unsigned char 
  4181 ;; Auto vars:     Size  Location     Type
  4182 ;;  Row             1    5[BANK1 ] unsigned char 
  4183 ;; Return value:  Size  Location     Type
  4184 ;;		None               void
  4185 ;; Registers used:
  4186 ;;		wreg, status,2, status,0
  4187 ;; Tracked objects:
  4188 ;;		On entry : 0/0
  4189 ;;		On exit  : 0/0
  4190 ;;		Unchanged: 0/0
  4191 ;; Data sizes:     COMMON   BANK0   BANK1   BANK3   BANK2
  4192 ;;      Params:         0       0       1       0       0
  4193 ;;      Locals:         0       0       1       0       0
  4194 ;;      Temps:          0       0       1       0       0
  4195 ;;      Totals:         0       0       3       0       0
  4196 ;;Total ram usage:        3 bytes
  4197 ;; Hardware stack levels used:    1
  4198 ;; Hardware stack levels required when called:    4
  4199 ;; This function calls:
  4200 ;;		Nothing
  4201 ;; This function is called by:
  4202 ;;		_main
  4203 ;; This function uses a non-reentrant model
  4204 ;;
  4205                           
  4206                           
  4207                           ;psect for function _LCD_Cursor
  4208  0B2A                     _LCD_Cursor:	
  4209                           
  4210                           ;incstack = 0
  4211                           ; Regs used in _LCD_Cursor: [wreg+status,2+status,0]
  4212                           ;LCD_Cursor@Row stored from wreg
  4213  0B2A  1683               	bsf	3,5	;RP0=1, select bank1
  4214  0B2B  1303               	bcf	3,6	;RP1=0, select bank1
  4215  0B2C  00A5               	movwf	LCD_Cursor@Row^(0+128)
  4216                           
  4217                           ;lcd.c: 12: PORTEbits.RE0 = 0;
  4218  0B2D  1283               	bcf	3,5	;RP0=0, select bank0
  4219  0B2E  1303               	bcf	3,6	;RP1=0, select bank0
  4220  0B2F  1009               	bcf	9,0	;volatile
  4221                           
  4222                           ;lcd.c: 14: if (Row == 0)
  4223  0B30  1683               	bsf	3,5	;RP0=1, select bank1
  4224  0B31  1303               	bcf	3,6	;RP1=0, select bank1
  4225  0B32  08A5               	movf	LCD_Cursor@Row^(0+128),f
  4226  0B33  1D03               	skipz
  4227  0B34  2B38               	goto	l2535
  4228                           
  4229                           ;lcd.c: 15: {
  4230                           ;lcd.c: 16: PORTD = 0x80 + Col;
  4231  0B35  0823               	movf	LCD_Cursor@Col^(0+128),w
  4232  0B36  3E80               	addlw	128
  4233  0B37  2B3C               	goto	L3
  4234  0B38                     l2535:	
  4235                           ;lcd.c: 17: }
  4236                           
  4237                           
  4238                           ;lcd.c: 18: else
  4239                           ;lcd.c: 19: {
  4240                           ;lcd.c: 20: PORTD = 0xC0 + Col;
  4241  0B38  1683               	bsf	3,5	;RP0=1, select bank1
  4242  0B39  1303               	bcf	3,6	;RP1=0, select bank1
  4243  0B3A  0823               	movf	LCD_Cursor@Col^(0+128),w
  4244  0B3B  3EC0               	addlw	192
  4245  0B3C                     L3:	
  4246  0B3C  1283               	bcf	3,5	;RP0=0, select bank0
  4247  0B3D  1303               	bcf	3,6	;RP1=0, select bank0
  4248  0B3E  0088               	movwf	8	;volatile
  4249                           
  4250                           ;lcd.c: 21: }
  4251                           ;lcd.c: 24: PORTEbits.RE1 = 1;
  4252  0B3F  1489               	bsf	9,1	;volatile
  4253                           
  4254                           ;lcd.c: 26: _delay((unsigned long)((40)*(18432000/4000000.0)));
  4255  0B40  303D               	movlw	61
  4256  0B41  1683               	bsf	3,5	;RP0=1, select bank1
  4257  0B42  1303               	bcf	3,6	;RP1=0, select bank1
  4258  0B43  00A4               	movwf	??_LCD_Cursor^(0+128)
  4259  0B44                     u3377:	
  4260  0B44  0BA4               	decfsz	??_LCD_Cursor^(0+128),f
  4261  0B45  2B44               	goto	u3377
  4262                           
  4263                           ;lcd.c: 28: PORTEbits.RE1 = 0;
  4264  0B46  1283               	bcf	3,5	;RP0=0, select bank0
  4265  0B47  1303               	bcf	3,6	;RP1=0, select bank0
  4266  0B48  1089               	bcf	9,1	;volatile
  4267  0B49  0008               	return
  4268  0B4A                     __end_of_LCD_Cursor:	
  4269                           
  4270                           	psect	text21
  4271  0BB1                     __ptext21:	
  4272 ;; *************** function _LCD_Clear *****************
  4273 ;; Defined at:
  4274 ;;		line 71 in file "C:\Users\332414\Documents\Fuzzy-IA2\Cdigo em C no MPLAB\lcd.c"
  4275 ;; Parameters:    Size  Location     Type
  4276 ;;		None
  4277 ;; Auto vars:     Size  Location     Type
  4278 ;;		None
  4279 ;; Return value:  Size  Location     Type
  4280 ;;		None               void
  4281 ;; Registers used:
  4282 ;;		wreg, status,2, status,0, pclath, cstack
  4283 ;; Tracked objects:
  4284 ;;		On entry : 0/0
  4285 ;;		On exit  : 0/0
  4286 ;;		Unchanged: 0/0
  4287 ;; Data sizes:     COMMON   BANK0   BANK1   BANK3   BANK2
  4288 ;;      Params:         0       0       0       0       0
  4289 ;;      Locals:         0       0       0       0       0
  4290 ;;      Temps:          0       0       2       0       0
  4291 ;;      Totals:         0       0       2       0       0
  4292 ;;Total ram usage:        2 bytes
  4293 ;; Hardware stack levels used:    1
  4294 ;; Hardware stack levels required when called:    5
  4295 ;; This function calls:
  4296 ;;		_LCD_WriteCmd
  4297 ;; This function is called by:
  4298 ;;		_main
  4299 ;; This function uses a non-reentrant model
  4300 ;;
  4301                           
  4302                           
  4303                           ;psect for function _LCD_Clear
  4304  0BB1                     _LCD_Clear:	
  4305                           
  4306                           ;lcd.c: 73: LCD_WriteCmd(0x01);
  4307                           
  4308                           ;incstack = 0
  4309                           ; Regs used in _LCD_Clear: [wreg+status,2+status,0+pclath+cstack]
  4310  0BB1  3001               	movlw	1
  4311  0BB2  120A  158A  22C2  120A  158A  	fcall	_LCD_WriteCmd
  4312                           
  4313                           ;lcd.c: 75: _delay((unsigned long)((2)*(18432000/4000.0)));
  4314  0BB7  300C               	movlw	12
  4315  0BB8  1683               	bsf	3,5	;RP0=1, select bank1
  4316  0BB9  1303               	bcf	3,6	;RP1=0, select bank1
  4317  0BBA  00A6               	movwf	(??_LCD_Clear^(0+128)+1)
  4318  0BBB  30F7               	movlw	247
  4319  0BBC  00A5               	movwf	??_LCD_Clear^(0+128)
  4320  0BBD                     u3387:	
  4321  0BBD  0BA5               	decfsz	??_LCD_Clear^(0+128),f
  4322  0BBE  2BBD               	goto	u3387
  4323  0BBF  0BA6               	decfsz	(??_LCD_Clear^(0+128)+1),f
  4324  0BC0  2BBD               	goto	u3387
  4325                           
  4326                           ;lcd.c: 77: LCD_WriteCmd(0x0C);
  4327  0BC1  300C               	movlw	12
  4328  0BC2  120A  158A  22C2  120A  158A  	fcall	_LCD_WriteCmd
  4329                           
  4330                           ;lcd.c: 79: _delay((unsigned long)((40)*(18432000/4000000.0)));
  4331  0BC7  303D               	movlw	61
  4332  0BC8  1683               	bsf	3,5	;RP0=1, select bank1
  4333  0BC9  1303               	bcf	3,6	;RP1=0, select bank1
  4334  0BCA  00A5               	movwf	??_LCD_Clear^(0+128)
  4335  0BCB                     u3397:	
  4336  0BCB  0BA5               	decfsz	??_LCD_Clear^(0+128),f
  4337  0BCC  2BCB               	goto	u3397
  4338                           
  4339                           ;lcd.c: 81: LCD_WriteCmd(0x06);
  4340  0BCD  3006               	movlw	6
  4341  0BCE  120A  158A  22C2  120A  158A  	fcall	_LCD_WriteCmd
  4342                           
  4343                           ;lcd.c: 83: _delay((unsigned long)((40)*(18432000/4000000.0)));
  4344  0BD3  303D               	movlw	61
  4345  0BD4  1683               	bsf	3,5	;RP0=1, select bank1
  4346  0BD5  1303               	bcf	3,6	;RP1=0, select bank1
  4347  0BD6  00A5               	movwf	??_LCD_Clear^(0+128)
  4348  0BD7                     u3407:	
  4349  0BD7  0BA5               	decfsz	??_LCD_Clear^(0+128),f
  4350  0BD8  2BD7               	goto	u3407
  4351  0BD9  0008               	return
  4352  0BDA                     __end_of_LCD_Clear:	
  4353                           
  4354                           	psect	text22
  4355  0AC2                     __ptext22:	
  4356 ;; *************** function _LCD_WriteCmd *****************
  4357 ;; Defined at:
  4358 ;;		line 32 in file "C:\Users\332414\Documents\Fuzzy-IA2\Cdigo em C no MPLAB\lcd.c"
  4359 ;; Parameters:    Size  Location     Type
  4360 ;;  Byte            1    wreg     unsigned char 
  4361 ;; Auto vars:     Size  Location     Type
  4362 ;;  Byte            1    4[BANK1 ] unsigned char 
  4363 ;; Return value:  Size  Location     Type
  4364 ;;		None               void
  4365 ;; Registers used:
  4366 ;;		wreg
  4367 ;; Tracked objects:
  4368 ;;		On entry : 0/0
  4369 ;;		On exit  : 0/0
  4370 ;;		Unchanged: 0/0
  4371 ;; Data sizes:     COMMON   BANK0   BANK1   BANK3   BANK2
  4372 ;;      Params:         0       0       0       0       0
  4373 ;;      Locals:         0       0       1       0       0
  4374 ;;      Temps:          0       0       1       0       0
  4375 ;;      Totals:         0       0       2       0       0
  4376 ;;Total ram usage:        2 bytes
  4377 ;; Hardware stack levels used:    1
  4378 ;; Hardware stack levels required when called:    4
  4379 ;; This function calls:
  4380 ;;		Nothing
  4381 ;; This function is called by:
  4382 ;;		_LCD_Clear
  4383 ;;		_LCD_Init
  4384 ;; This function uses a non-reentrant model
  4385 ;;
  4386                           
  4387                           
  4388                           ;psect for function _LCD_WriteCmd
  4389  0AC2                     _LCD_WriteCmd:	
  4390                           
  4391                           ;incstack = 0
  4392                           ; Regs used in _LCD_WriteCmd: [wreg]
  4393                           ;LCD_WriteCmd@Byte stored from wreg
  4394  0AC2  1683               	bsf	3,5	;RP0=1, select bank1
  4395  0AC3  1303               	bcf	3,6	;RP1=0, select bank1
  4396  0AC4  00A4               	movwf	LCD_WriteCmd@Byte^(0+128)
  4397                           
  4398                           ;lcd.c: 34: PORTEbits.RE0 = 0;
  4399  0AC5  1283               	bcf	3,5	;RP0=0, select bank0
  4400  0AC6  1303               	bcf	3,6	;RP1=0, select bank0
  4401  0AC7  1009               	bcf	9,0	;volatile
  4402                           
  4403                           ;lcd.c: 36: PORTD = Byte;
  4404  0AC8  1683               	bsf	3,5	;RP0=1, select bank1
  4405  0AC9  1303               	bcf	3,6	;RP1=0, select bank1
  4406  0ACA  0824               	movf	LCD_WriteCmd@Byte^(0+128),w
  4407  0ACB  1283               	bcf	3,5	;RP0=0, select bank0
  4408  0ACC  1303               	bcf	3,6	;RP1=0, select bank0
  4409  0ACD  0088               	movwf	8	;volatile
  4410                           
  4411                           ;lcd.c: 39: PORTEbits.RE1 = 1;
  4412  0ACE  1489               	bsf	9,1	;volatile
  4413                           
  4414                           ;lcd.c: 41: _delay((unsigned long)((40)*(18432000/4000000.0)));
  4415  0ACF  303D               	movlw	61
  4416  0AD0  1683               	bsf	3,5	;RP0=1, select bank1
  4417  0AD1  1303               	bcf	3,6	;RP1=0, select bank1
  4418  0AD2  00A3               	movwf	??_LCD_WriteCmd^(0+128)
  4419  0AD3                     u3417:	
  4420  0AD3  0BA3               	decfsz	??_LCD_WriteCmd^(0+128),f
  4421  0AD4  2AD3               	goto	u3417
  4422                           
  4423                           ;lcd.c: 43: PORTEbits.RE1 = 0;
  4424  0AD5  1283               	bcf	3,5	;RP0=0, select bank0
  4425  0AD6  1303               	bcf	3,6	;RP1=0, select bank0
  4426  0AD7  1089               	bcf	9,1	;volatile
  4427  0AD8  0008               	return
  4428  0AD9                     __end_of_LCD_WriteCmd:	
  4429                           
  4430                           	psect	text23
  4431  0A9C                     __ptext23:	
  4432 ;; *************** function _ADC_Init *****************
  4433 ;; Defined at:
  4434 ;;		line 6 in file "C:\Users\332414\Documents\Fuzzy-IA2\Cdigo em C no MPLAB\adc.c"
  4435 ;; Parameters:    Size  Location     Type
  4436 ;;		None
  4437 ;; Auto vars:     Size  Location     Type
  4438 ;;		None
  4439 ;; Return value:  Size  Location     Type
  4440 ;;		None               void
  4441 ;; Registers used:
  4442 ;;		None
  4443 ;; Tracked objects:
  4444 ;;		On entry : 0/0
  4445 ;;		On exit  : 0/0
  4446 ;;		Unchanged: 0/0
  4447 ;; Data sizes:     COMMON   BANK0   BANK1   BANK3   BANK2
  4448 ;;      Params:         0       0       0       0       0
  4449 ;;      Locals:         0       0       0       0       0
  4450 ;;      Temps:          0       0       0       0       0
  4451 ;;      Totals:         0       0       0       0       0
  4452 ;;Total ram usage:        0 bytes
  4453 ;; Hardware stack levels used:    1
  4454 ;; Hardware stack levels required when called:    4
  4455 ;; This function calls:
  4456 ;;		Nothing
  4457 ;; This function is called by:
  4458 ;;		_main
  4459 ;; This function uses a non-reentrant model
  4460 ;;
  4461                           
  4462                           
  4463                           ;psect for function _ADC_Init
  4464  0A9C                     _ADC_Init:	
  4465                           
  4466                           ;adc.c: 9: ADCON1bits.ADFM = 1;
  4467                           
  4468                           ;incstack = 0
  4469                           ; Regs used in _ADC_Init: []
  4470  0A9C  1683               	bsf	3,5	;RP0=1, select bank1
  4471  0A9D  1303               	bcf	3,6	;RP1=0, select bank1
  4472  0A9E  179F               	bsf	31,7	;volatile
  4473                           
  4474                           ;adc.c: 32: ADCON1bits.PCFG3 = 1;
  4475  0A9F  159F               	bsf	31,3	;volatile
  4476                           
  4477                           ;adc.c: 33: ADCON1bits.PCFG2 = 1;
  4478  0AA0  151F               	bsf	31,2	;volatile
  4479                           
  4480                           ;adc.c: 34: ADCON1bits.PCFG1 = 1;
  4481  0AA1  149F               	bsf	31,1	;volatile
  4482                           
  4483                           ;adc.c: 35: ADCON1bits.PCFG0 = 0;
  4484  0AA2  101F               	bcf	31,0	;volatile
  4485                           
  4486                           ;adc.c: 38: ADCON0bits.ADCS1 = 1;
  4487  0AA3  1283               	bcf	3,5	;RP0=0, select bank0
  4488  0AA4  1303               	bcf	3,6	;RP1=0, select bank0
  4489  0AA5  179F               	bsf	31,7	;volatile
  4490                           
  4491                           ;adc.c: 39: ADCON0bits.ADCS0 = 0;
  4492  0AA6  131F               	bcf	31,6	;volatile
  4493                           
  4494                           ;adc.c: 42: PIE1bits.ADIE = 0;
  4495  0AA7  1683               	bsf	3,5	;RP0=1, select bank1
  4496  0AA8  1303               	bcf	3,6	;RP1=0, select bank1
  4497  0AA9  130C               	bcf	12,6	;volatile
  4498                           
  4499                           ;adc.c: 43: PIR1bits.ADIF = 0;
  4500  0AAA  1283               	bcf	3,5	;RP0=0, select bank0
  4501  0AAB  1303               	bcf	3,6	;RP1=0, select bank0
  4502  0AAC  130C               	bcf	12,6	;volatile
  4503  0AAD  0008               	return
  4504  0AAE                     __end_of_ADC_Init:	
  4505                           
  4506                           	psect	text24
  4507  04A0                     __ptext24:	
  4508 ;; *************** function _ISR *****************
  4509 ;; Defined at:
  4510 ;;		line 74 in file "C:\Users\332414\Documents\Fuzzy-IA2\Cdigo em C no MPLAB\main.c"
  4511 ;; Parameters:    Size  Location     Type
  4512 ;;		None
  4513 ;; Auto vars:     Size  Location     Type
  4514 ;;		None
  4515 ;; Return value:  Size  Location     Type
  4516 ;;		None               void
  4517 ;; Registers used:
  4518 ;;		wreg, status,2, status,0, pclath, cstack
  4519 ;; Tracked objects:
  4520 ;;		On entry : 0/0
  4521 ;;		On exit  : 0/0
  4522 ;;		Unchanged: 0/0
  4523 ;; Data sizes:     COMMON   BANK0   BANK1   BANK3   BANK2
  4524 ;;      Params:         0       0       0       0       0
  4525 ;;      Locals:         0       0       3       0       0
  4526 ;;      Temps:          0       4       0       0       0
  4527 ;;      Totals:         0       4       3       0       0
  4528 ;;Total ram usage:        7 bytes
  4529 ;; Hardware stack levels used:    1
  4530 ;; Hardware stack levels required when called:    3
  4531 ;; This function calls:
  4532 ;;		___ftadd
  4533 ;;		___ftdiv
  4534 ;;		___ftmul
  4535 ;;		___ftneg
  4536 ;;		___fttol
  4537 ;;		___lwtoft
  4538 ;;		_triangular
  4539 ;;		i1_PWM_DutyCycle2
  4540 ;;		i1_TIMER0_Set
  4541 ;; This function is called by:
  4542 ;;		Interrupt level 1
  4543 ;; This function uses a non-reentrant model
  4544 ;;
  4545                           
  4546                           
  4547                           ;psect for function _ISR
  4548  04A0                     _ISR:	
  4549                           
  4550                           ;main.c: 77: if (PIR1bits.RCIF)
  4551  04A0  1A8C               	btfsc	12,5	;volatile
  4552                           
  4553                           ;main.c: 78: {
  4554                           ;main.c: 82: PIR1bits.RCIF = 0;
  4555  04A1  128C               	bcf	12,5	;volatile
  4556                           
  4557                           ;main.c: 83: }
  4558                           ;main.c: 86: if (PIR1bits.ADIF)
  4559  04A2  1B0C               	btfsc	12,6	;volatile
  4560                           
  4561                           ;main.c: 87: {
  4562                           ;main.c: 91: PIR1bits.ADIF = 0;
  4563  04A3  130C               	bcf	12,6	;volatile
  4564                           
  4565                           ;main.c: 92: }
  4566                           ;main.c: 96: if (INTCONbits.T0IF)
  4567  04A4  1D0B               	btfss	11,2	;volatile
  4568  04A5  2DB8               	goto	i1l2753
  4569                           
  4570                           ;main.c: 97: {
  4571                           ;main.c: 99: TIMER0_Set(238);
  4572  04A6  30EE               	movlw	238
  4573  04A7  120A  158A  2261  120A  118A  	fcall	i1_TIMER0_Set
  4574                           
  4575                           ;main.c: 102: if (contagens_tm0 < 499)
  4576  04AC  3001               	movlw	1
  4577  04AD  1683               	bsf	3,5	;RP0=1, select bank1
  4578  04AE  1303               	bcf	3,6	;RP1=0, select bank1
  4579  04AF  0254               	subwf	(_contagens_tm0+1)^(0+128),w
  4580  04B0  30F3               	movlw	243
  4581  04B1  1903               	skipnz
  4582  04B2  0253               	subwf	_contagens_tm0^(0+128),w
  4583  04B3  1803               	skipnc
  4584  04B4  2CBF               	goto	i1l2735
  4585                           
  4586                           ;main.c: 103: {
  4587                           ;main.c: 105: contagens_tm0++;
  4588  04B5  3001               	movlw	1
  4589  04B6  07D3               	addwf	_contagens_tm0^(0+128),f
  4590  04B7  1803               	skipnc
  4591  04B8  0AD4               	incf	(_contagens_tm0+1)^(0+128),f
  4592  04B9  3000               	movlw	0
  4593  04BA  07D4               	addwf	(_contagens_tm0+1)^(0+128),f
  4594                           
  4595                           ;main.c: 108: PORTBbits.RB6 = 1;
  4596  04BB  1283               	bcf	3,5	;RP0=0, select bank0
  4597  04BC  1303               	bcf	3,6	;RP1=0, select bank0
  4598  04BD  1706               	bsf	6,6	;volatile
  4599                           
  4600                           ;main.c: 109: }
  4601  04BE  2DB7               	goto	i1l2751
  4602  04BF                     i1l2735:	
  4603                           
  4604                           ;main.c: 110: else
  4605                           ;main.c: 111: {
  4606                           ;main.c: 113: contagens_tm0 = 0;
  4607  04BF  1683               	bsf	3,5	;RP0=1, select bank1
  4608  04C0  1303               	bcf	3,6	;RP1=0, select bank1
  4609  04C1  01D3               	clrf	_contagens_tm0^(0+128)
  4610  04C2  01D4               	clrf	(_contagens_tm0+1)^(0+128)
  4611                           
  4612                           ;main.c: 116: pulsos = (TMR1H << 8) + TMR1L;
  4613  04C3  1283               	bcf	3,5	;RP0=0, select bank0
  4614  04C4  1303               	bcf	3,6	;RP1=0, select bank0
  4615  04C5  080F               	movf	15,w	;volatile
  4616  04C6  1683               	bsf	3,5	;RP0=1, select bank1
  4617  04C7  1303               	bcf	3,6	;RP1=0, select bank1
  4618  04C8  01D6               	clrf	(_pulsos+1)^(0+128)
  4619  04C9  07D6               	addwf	(_pulsos+1)^(0+128),f
  4620  04CA  1283               	bcf	3,5	;RP0=0, select bank0
  4621  04CB  1303               	bcf	3,6	;RP1=0, select bank0
  4622  04CC  080E               	movf	14,w	;volatile
  4623  04CD  1683               	bsf	3,5	;RP0=1, select bank1
  4624  04CE  1303               	bcf	3,6	;RP1=0, select bank1
  4625  04CF  01D5               	clrf	_pulsos^(0+128)
  4626  04D0  07D5               	addwf	_pulsos^(0+128),f
  4627                           
  4628                           ;main.c: 117: rpm = ((pulsos / 7.0) * 120);
  4629  04D1  0856               	movf	(_pulsos+1)^(0+128),w
  4630  04D2  01F9               	clrf	___lwtoft@c+1
  4631  04D3  07F9               	addwf	___lwtoft@c+1,f
  4632  04D4  0855               	movf	_pulsos^(0+128),w
  4633  04D5  01F8               	clrf	___lwtoft@c
  4634  04D6  07F8               	addwf	___lwtoft@c,f
  4635  04D7  120A  158A  22AE  120A  118A  	fcall	___lwtoft
  4636  04DC  0878               	movf	?___lwtoft,w
  4637  04DD  1283               	bcf	3,5	;RP0=0, select bank0
  4638  04DE  1303               	bcf	3,6	;RP1=0, select bank0
  4639  04DF  00B3               	movwf	___ftdiv@f1
  4640  04E0  0879               	movf	?___lwtoft+1,w
  4641  04E1  00B4               	movwf	___ftdiv@f1+1
  4642  04E2  087A               	movf	?___lwtoft+2,w
  4643  04E3  00B5               	movwf	___ftdiv@f1+2
  4644  04E4  3000               	movlw	0
  4645  04E5  00B0               	movwf	___ftdiv@f2
  4646  04E6  30E0               	movlw	224
  4647  04E7  00B1               	movwf	___ftdiv@f2+1
  4648  04E8  3040               	movlw	64
  4649  04E9  00B2               	movwf	___ftdiv@f2+2
  4650  04EA  120A  158A  2748  120A  118A  	fcall	___ftdiv
  4651  04EF  1283               	bcf	3,5	;RP0=0, select bank0
  4652  04F0  1303               	bcf	3,6	;RP1=0, select bank0
  4653  04F1  0830               	movf	?___ftdiv,w
  4654  04F2  00CF               	movwf	___ftmul@f2
  4655  04F3  0831               	movf	?___ftdiv+1,w
  4656  04F4  00D0               	movwf	___ftmul@f2+1
  4657  04F5  0832               	movf	?___ftdiv+2,w
  4658  04F6  00D1               	movwf	___ftmul@f2+2
  4659  04F7  3000               	movlw	0
  4660  04F8  00CC               	movwf	___ftmul@f1
  4661  04F9  30F0               	movlw	240
  4662  04FA  00CD               	movwf	___ftmul@f1+1
  4663  04FB  3042               	movlw	66
  4664  04FC  00CE               	movwf	___ftmul@f1+2
  4665  04FD  120A  118A  2020  120A  118A  	fcall	___ftmul
  4666  0502  1283               	bcf	3,5	;RP0=0, select bank0
  4667  0503  1303               	bcf	3,6	;RP1=0, select bank0
  4668  0504  084C               	movf	?___ftmul,w
  4669  0505  00DC               	movwf	___fttol@f1
  4670  0506  084D               	movf	?___ftmul+1,w
  4671  0507  00DD               	movwf	___fttol@f1+1
  4672  0508  084E               	movf	?___ftmul+2,w
  4673  0509  00DE               	movwf	___fttol@f1+2
  4674  050A  120A  158A  262B  120A  118A  	fcall	___fttol
  4675  050F  1283               	bcf	3,5	;RP0=0, select bank0
  4676  0510  1303               	bcf	3,6	;RP1=0, select bank0
  4677  0511  085D               	movf	?___fttol+1,w
  4678  0512  1683               	bsf	3,5	;RP0=1, select bank1
  4679  0513  1303               	bcf	3,6	;RP1=0, select bank1
  4680  0514  01D8               	clrf	(_rpm+1)^(0+128)
  4681  0515  07D8               	addwf	(_rpm+1)^(0+128),f
  4682  0516  1283               	bcf	3,5	;RP0=0, select bank0
  4683  0517  1303               	bcf	3,6	;RP1=0, select bank0
  4684  0518  085C               	movf	?___fttol,w
  4685  0519  1683               	bsf	3,5	;RP0=1, select bank1
  4686  051A  1303               	bcf	3,6	;RP1=0, select bank1
  4687  051B  01D7               	clrf	_rpm^(0+128)
  4688  051C  07D7               	addwf	_rpm^(0+128),f
  4689                           
  4690                           ;main.c: 120: TMR1L = 0x00;
  4691  051D  1283               	bcf	3,5	;RP0=0, select bank0
  4692  051E  1303               	bcf	3,6	;RP1=0, select bank0
  4693  051F  018E               	clrf	14	;volatile
  4694                           
  4695                           ;main.c: 121: TMR1H = 0x00;
  4696  0520  018F               	clrf	15	;volatile
  4697                           
  4698                           ;main.c: 123: PWM_DutyCycle2((int)(1023 * (1-triangular((float)rpm, 4900.0f, 5000.0f, 51
      +                          00.0f))));
  4699  0521  3060               	movlw	96
  4700  0522  00C9               	movwf	triangular@c
  4701  0523  309F               	movlw	159
  4702  0524  00CA               	movwf	triangular@c+1
  4703  0525  3045               	movlw	69
  4704  0526  00CB               	movwf	triangular@c+2
  4705  0527  3040               	movlw	64
  4706  0528  00C6               	movwf	triangular@b
  4707  0529  309C               	movlw	156
  4708  052A  00C7               	movwf	triangular@b+1
  4709  052B  3045               	movlw	69
  4710  052C  00C8               	movwf	triangular@b+2
  4711  052D  3020               	movlw	32
  4712  052E  00C3               	movwf	triangular@a
  4713  052F  3099               	movlw	153
  4714  0530  00C4               	movwf	triangular@a+1
  4715  0531  3045               	movlw	69
  4716  0532  00C5               	movwf	triangular@a+2
  4717  0533  1683               	bsf	3,5	;RP0=1, select bank1
  4718  0534  1303               	bcf	3,6	;RP1=0, select bank1
  4719  0535  0858               	movf	(_rpm+1)^(0+128),w
  4720  0536  01F9               	clrf	___lwtoft@c+1
  4721  0537  07F9               	addwf	___lwtoft@c+1,f
  4722  0538  0857               	movf	_rpm^(0+128),w
  4723  0539  01F8               	clrf	___lwtoft@c
  4724  053A  07F8               	addwf	___lwtoft@c,f
  4725  053B  120A  158A  22AE  120A  118A  	fcall	___lwtoft
  4726  0540  0878               	movf	?___lwtoft,w
  4727  0541  1283               	bcf	3,5	;RP0=0, select bank0
  4728  0542  1303               	bcf	3,6	;RP1=0, select bank0
  4729  0543  00C0               	movwf	triangular@x
  4730  0544  0879               	movf	?___lwtoft+1,w
  4731  0545  00C1               	movwf	triangular@x+1
  4732  0546  087A               	movf	?___lwtoft+2,w
  4733  0547  00C2               	movwf	triangular@x+2
  4734  0548  120A  118A  235C  120A  118A  	fcall	_triangular
  4735  054D  1283               	bcf	3,5	;RP0=0, select bank0
  4736  054E  1303               	bcf	3,6	;RP1=0, select bank0
  4737  054F  0840               	movf	?_triangular,w
  4738  0550  1683               	bsf	3,5	;RP0=1, select bank1
  4739  0551  1303               	bcf	3,6	;RP1=0, select bank1
  4740  0552  00A0               	movwf	_ISR$1731^(0+128)
  4741  0553  1283               	bcf	3,5	;RP0=0, select bank0
  4742  0554  1303               	bcf	3,6	;RP1=0, select bank0
  4743  0555  0841               	movf	?_triangular+1,w
  4744  0556  1683               	bsf	3,5	;RP0=1, select bank1
  4745  0557  1303               	bcf	3,6	;RP1=0, select bank1
  4746  0558  00A1               	movwf	(_ISR$1731+1)^(0+128)
  4747  0559  1283               	bcf	3,5	;RP0=0, select bank0
  4748  055A  1303               	bcf	3,6	;RP1=0, select bank0
  4749  055B  0842               	movf	?_triangular+2,w
  4750  055C  1683               	bsf	3,5	;RP0=1, select bank1
  4751  055D  1303               	bcf	3,6	;RP1=0, select bank1
  4752  055E  00A2               	movwf	(_ISR$1731+2)^(0+128)
  4753                           
  4754                           ;main.c: 123: PWM_DutyCycle2((int)(1023 * (1-triangular((float)rpm, 4900.0f, 5000.0f, 51
      +                          00.0f))));
  4755  055F  0820               	movf	_ISR$1731^(0+128),w
  4756  0560  1283               	bcf	3,5	;RP0=0, select bank0
  4757  0561  1303               	bcf	3,6	;RP1=0, select bank0
  4758  0562  00A0               	movwf	___ftneg@f1
  4759  0563  1683               	bsf	3,5	;RP0=1, select bank1
  4760  0564  1303               	bcf	3,6	;RP1=0, select bank1
  4761  0565  0821               	movf	(_ISR$1731+1)^(0+128),w
  4762  0566  1283               	bcf	3,5	;RP0=0, select bank0
  4763  0567  1303               	bcf	3,6	;RP1=0, select bank0
  4764  0568  00A1               	movwf	___ftneg@f1+1
  4765  0569  1683               	bsf	3,5	;RP0=1, select bank1
  4766  056A  1303               	bcf	3,6	;RP1=0, select bank1
  4767  056B  0822               	movf	(_ISR$1731+2)^(0+128),w
  4768  056C  1283               	bcf	3,5	;RP0=0, select bank0
  4769  056D  1303               	bcf	3,6	;RP1=0, select bank0
  4770  056E  00A2               	movwf	___ftneg@f1+2
  4771  056F  120A  158A  2277  120A  118A  	fcall	___ftneg
  4772  0574  1283               	bcf	3,5	;RP0=0, select bank0
  4773  0575  1303               	bcf	3,6	;RP1=0, select bank0
  4774  0576  0820               	movf	?___ftneg,w
  4775  0577  00A6               	movwf	___ftadd@f2
  4776  0578  0821               	movf	?___ftneg+1,w
  4777  0579  00A7               	movwf	___ftadd@f2+1
  4778  057A  0822               	movf	?___ftneg+2,w
  4779  057B  00A8               	movwf	___ftadd@f2+2
  4780  057C  3000               	movlw	0
  4781  057D  00A3               	movwf	___ftadd@f1
  4782  057E  3080               	movlw	128
  4783  057F  00A4               	movwf	___ftadd@f1+1
  4784  0580  303F               	movlw	63
  4785  0581  00A5               	movwf	___ftadd@f1+2
  4786  0582  120A  118A  26D3  120A  118A  	fcall	___ftadd
  4787  0587  1283               	bcf	3,5	;RP0=0, select bank0
  4788  0588  1303               	bcf	3,6	;RP1=0, select bank0
  4789  0589  0823               	movf	?___ftadd,w
  4790  058A  00CF               	movwf	___ftmul@f2
  4791  058B  0824               	movf	?___ftadd+1,w
  4792  058C  00D0               	movwf	___ftmul@f2+1
  4793  058D  0825               	movf	?___ftadd+2,w
  4794  058E  00D1               	movwf	___ftmul@f2+2
  4795  058F  30C0               	movlw	192
  4796  0590  00CC               	movwf	___ftmul@f1
  4797  0591  307F               	movlw	127
  4798  0592  00CD               	movwf	___ftmul@f1+1
  4799  0593  3044               	movlw	68
  4800  0594  00CE               	movwf	___ftmul@f1+2
  4801  0595  120A  118A  2020  120A  118A  	fcall	___ftmul
  4802  059A  1283               	bcf	3,5	;RP0=0, select bank0
  4803  059B  1303               	bcf	3,6	;RP1=0, select bank0
  4804  059C  084C               	movf	?___ftmul,w
  4805  059D  00DC               	movwf	___fttol@f1
  4806  059E  084D               	movf	?___ftmul+1,w
  4807  059F  00DD               	movwf	___fttol@f1+1
  4808  05A0  084E               	movf	?___ftmul+2,w
  4809  05A1  00DE               	movwf	___fttol@f1+2
  4810  05A2  120A  158A  262B  120A  118A  	fcall	___fttol
  4811  05A7  1283               	bcf	3,5	;RP0=0, select bank0
  4812  05A8  1303               	bcf	3,6	;RP1=0, select bank0
  4813  05A9  085D               	movf	?___fttol+1,w
  4814  05AA  01EB               	clrf	i1PWM_DutyCycle2@valor+1
  4815  05AB  07EB               	addwf	i1PWM_DutyCycle2@valor+1,f
  4816  05AC  085C               	movf	?___fttol,w
  4817  05AD  01EA               	clrf	i1PWM_DutyCycle2@valor
  4818  05AE  07EA               	addwf	i1PWM_DutyCycle2@valor,f
  4819  05AF  120A  158A  22F0  120A  118A  	fcall	i1_PWM_DutyCycle2
  4820                           
  4821                           ;main.c: 126: PORTBbits.RB6 = 0;
  4822  05B4  1283               	bcf	3,5	;RP0=0, select bank0
  4823  05B5  1303               	bcf	3,6	;RP1=0, select bank0
  4824  05B6  1306               	bcf	6,6	;volatile
  4825  05B7                     i1l2751:	
  4826                           
  4827                           ;main.c: 127: }
  4828                           ;main.c: 130: INTCONbits.T0IF = 0;
  4829  05B7  110B               	bcf	11,2	;volatile
  4830  05B8                     i1l2753:	
  4831                           
  4832                           ;main.c: 131: }
  4833                           ;main.c: 134: if (PIR1bits.TMR1IF)
  4834  05B8  180C               	btfsc	12,0	;volatile
  4835                           
  4836                           ;main.c: 135: {
  4837                           ;main.c: 139: PIR1bits.TMR1IF = 0;
  4838  05B9  100C               	bcf	12,0	;volatile
  4839                           
  4840                           ;main.c: 140: }
  4841                           ;main.c: 143: if (PIR1bits.SSPIF)
  4842  05BA  198C               	btfsc	12,3	;volatile
  4843                           
  4844                           ;main.c: 144: {
  4845                           ;main.c: 148: PIR1bits.SSPIF = 0;
  4846  05BB  118C               	bcf	12,3	;volatile
  4847  05BC  086F               	movf	??_ISR+3,w
  4848  05BD  00FF               	movwf	127
  4849  05BE  086E               	movf	??_ISR+2,w
  4850  05BF  008A               	movwf	10
  4851  05C0  086D               	movf	??_ISR+1,w
  4852  05C1  0084               	movwf	4
  4853  05C2  0E6C               	swapf	??_ISR^0,w
  4854  05C3  0083               	movwf	3
  4855  05C4  0EFE               	swapf	126,f
  4856  05C5  0E7E               	swapf	126,w
  4857  05C6  0009               	retfie
  4858  05C7                     __end_of_ISR:	
  4859                           
  4860                           	psect	intentry
  4861  0004                     __pintentry:	
  4862                           ;incstack = 0
  4863                           ; Regs used in _ISR: [wreg+status,2+status,0+pclath+cstack]
  4864                           
  4865  0004                     interrupt_function:	
  4866  007E                     saved_w	set	btemp
  4867  0004  00FE               	movwf	btemp
  4868  0005  0E03               	swapf	3,w
  4869  0006  1283               	bcf	3,5	;RP0=0, select bank0
  4870  0007  1303               	bcf	3,6	;RP1=0, select bank0
  4871  0008  00EC               	movwf	??_ISR
  4872  0009  0804               	movf	4,w
  4873  000A  00ED               	movwf	??_ISR+1
  4874  000B  080A               	movf	10,w
  4875  000C  00EE               	movwf	??_ISR+2
  4876  000D  087F               	movf	btemp+1,w
  4877  000E  00EF               	movwf	??_ISR+3
  4878  000F  120A  118A  2CA0   	ljmp	_ISR
  4879                           
  4880                           	psect	text25
  4881  0A61                     __ptext25:	
  4882 ;; *************** function i1_TIMER0_Set *****************
  4883 ;; Defined at:
  4884 ;;		line 20 in file "C:\Users\332414\Documents\Fuzzy-IA2\Cdigo em C no MPLAB\timers.c"
  4885 ;; Parameters:    Size  Location     Type
  4886 ;;  contagens       1    wreg     unsigned char 
  4887 ;; Auto vars:     Size  Location     Type
  4888 ;;  contagens       1    0[COMMON] unsigned char 
  4889 ;; Return value:  Size  Location     Type
  4890 ;;		None               void
  4891 ;; Registers used:
  4892 ;;		wreg
  4893 ;; Tracked objects:
  4894 ;;		On entry : 0/0
  4895 ;;		On exit  : 0/0
  4896 ;;		Unchanged: 0/0
  4897 ;; Data sizes:     COMMON   BANK0   BANK1   BANK3   BANK2
  4898 ;;      Params:         0       0       0       0       0
  4899 ;;      Locals:         1       0       0       0       0
  4900 ;;      Temps:          0       0       0       0       0
  4901 ;;      Totals:         1       0       0       0       0
  4902 ;;Total ram usage:        1 bytes
  4903 ;; Hardware stack levels used:    1
  4904 ;; This function calls:
  4905 ;;		Nothing
  4906 ;; This function is called by:
  4907 ;;		_ISR
  4908 ;; This function uses a non-reentrant model
  4909 ;;
  4910                           
  4911                           
  4912                           ;psect for function i1_TIMER0_Set
  4913  0A61                     i1_TIMER0_Set:	
  4914                           
  4915                           ;incstack = 0
  4916                           ; Regs used in i1_TIMER0_Set: [wreg]
  4917                           ;i1TIMER0_Set@contagens stored from wreg
  4918  0A61  00F0               	movwf	i1TIMER0_Set@contagens
  4919                           
  4920                           ;timers.c: 22: TMR0 = contagens;
  4921  0A62  0870               	movf	i1TIMER0_Set@contagens,w
  4922  0A63  1283               	bcf	3,5	;RP0=0, select bank0
  4923  0A64  1303               	bcf	3,6	;RP1=0, select bank0
  4924  0A65  0081               	movwf	1	;volatile
  4925  0A66  0008               	return
  4926  0A67                     __end_ofi1_TIMER0_Set:	
  4927                           
  4928                           	psect	text26
  4929  0AF0                     __ptext26:	
  4930 ;; *************** function i1_PWM_DutyCycle2 *****************
  4931 ;; Defined at:
  4932 ;;		line 96 in file "C:\Users\332414\Documents\Fuzzy-IA2\Cdigo em C no MPLAB\pwm.c"
  4933 ;; Parameters:    Size  Location     Type
  4934 ;;  valor           2   74[BANK0 ] int 
  4935 ;; Auto vars:     Size  Location     Type
  4936 ;;		None
  4937 ;; Return value:  Size  Location     Type
  4938 ;;		None               void
  4939 ;; Registers used:
  4940 ;;		wreg, status,2, status,0
  4941 ;; Tracked objects:
  4942 ;;		On entry : 0/0
  4943 ;;		On exit  : 0/0
  4944 ;;		Unchanged: 0/0
  4945 ;; Data sizes:     COMMON   BANK0   BANK1   BANK3   BANK2
  4946 ;;      Params:         0       2       0       0       0
  4947 ;;      Locals:         0       0       0       0       0
  4948 ;;      Temps:          2       0       0       0       0
  4949 ;;      Totals:         2       2       0       0       0
  4950 ;;Total ram usage:        4 bytes
  4951 ;; Hardware stack levels used:    1
  4952 ;; This function calls:
  4953 ;;		Nothing
  4954 ;; This function is called by:
  4955 ;;		_ISR
  4956 ;; This function uses a non-reentrant model
  4957 ;;
  4958                           
  4959                           
  4960                           ;psect for function i1_PWM_DutyCycle2
  4961  0AF0                     i1_PWM_DutyCycle2:	
  4962                           
  4963                           ;pwm.c: 98: CCPR2L = valor >> 2;
  4964                           
  4965                           ;incstack = 0
  4966                           ; Regs used in i1_PWM_DutyCycle2: [wreg+status,2+status,0]
  4967  0AF0  1283               	bcf	3,5	;RP0=0, select bank0
  4968  0AF1  1303               	bcf	3,6	;RP1=0, select bank0
  4969  0AF2  086B               	movf	i1PWM_DutyCycle2@valor+1,w
  4970  0AF3  00FD               	movwf	??i1_PWM_DutyCycle2+1
  4971  0AF4  086A               	movf	i1PWM_DutyCycle2@valor,w
  4972  0AF5  00FC               	movwf	??i1_PWM_DutyCycle2
  4973  0AF6  0D7D               	rlf	??i1_PWM_DutyCycle2+1,w
  4974  0AF7  0CFD               	rrf	??i1_PWM_DutyCycle2+1,f
  4975  0AF8  0CFC               	rrf	??i1_PWM_DutyCycle2,f
  4976  0AF9  0D7D               	rlf	??i1_PWM_DutyCycle2+1,w
  4977  0AFA  0CFD               	rrf	??i1_PWM_DutyCycle2+1,f
  4978  0AFB  0CFC               	rrf	??i1_PWM_DutyCycle2,f
  4979  0AFC  087C               	movf	??i1_PWM_DutyCycle2,w
  4980  0AFD  009B               	movwf	27	;volatile
  4981                           
  4982                           ;pwm.c: 99: CCP2CON = (valor << 4)|0X0C;
  4983  0AFE  086A               	movf	i1PWM_DutyCycle2@valor,w
  4984  0AFF  00FC               	movwf	??i1_PWM_DutyCycle2
  4985  0B00  3003               	movlw	3
  4986  0B01                     u310_25:	
  4987  0B01  1003               	clrc
  4988  0B02  0DFC               	rlf	??i1_PWM_DutyCycle2,f
  4989  0B03  3EFF               	addlw	-1
  4990  0B04  1D03               	skipz
  4991  0B05  2B01               	goto	u310_25
  4992  0B06  1003               	clrc
  4993  0B07  0D7C               	rlf	??i1_PWM_DutyCycle2,w
  4994  0B08  380C               	iorlw	12
  4995  0B09  009D               	movwf	29	;volatile
  4996  0B0A  0008               	return
  4997  0B0B                     __end_ofi1_PWM_DutyCycle2:	
  4998                           
  4999                           	psect	text27
  5000  035C                     __ptext27:	
  5001 ;; *************** function _triangular *****************
  5002 ;; Defined at:
  5003 ;;		line 56 in file "C:\Users\332414\Documents\Fuzzy-IA2\Cdigo em C no MPLAB\main.c"
  5004 ;; Parameters:    Size  Location     Type
  5005 ;;  x               3   32[BANK0 ] float 
  5006 ;;  a               3   35[BANK0 ] float 
  5007 ;;  b               3   38[BANK0 ] float 
  5008 ;;  c               3   41[BANK0 ] float 
  5009 ;; Auto vars:     Size  Location     Type
  5010 ;;		None
  5011 ;; Return value:  Size  Location     Type
  5012 ;;                  3   32[BANK0 ] float 
  5013 ;; Registers used:
  5014 ;;		wreg, status,2, status,0, pclath, cstack
  5015 ;; Tracked objects:
  5016 ;;		On entry : 0/0
  5017 ;;		On exit  : 0/0
  5018 ;;		Unchanged: 0/0
  5019 ;; Data sizes:     COMMON   BANK0   BANK1   BANK3   BANK2
  5020 ;;      Params:         0      12       0       0       0
  5021 ;;      Locals:         0       0       0       0       0
  5022 ;;      Temps:          0       0       0       0       0
  5023 ;;      Totals:         0      12       0       0       0
  5024 ;;Total ram usage:       12 bytes
  5025 ;; Hardware stack levels used:    1
  5026 ;; Hardware stack levels required when called:    2
  5027 ;; This function calls:
  5028 ;;		___ftadd
  5029 ;;		___ftdiv
  5030 ;;		___ftge
  5031 ;;		___ftneg
  5032 ;; This function is called by:
  5033 ;;		_ISR
  5034 ;; This function uses a non-reentrant model
  5035 ;;
  5036                           
  5037                           
  5038                           ;psect for function _triangular
  5039  035C                     _triangular:	
  5040                           
  5041                           ;main.c: 57: if (x <= a){
  5042                           
  5043                           ;incstack = 0
  5044                           ; Regs used in _triangular: [wreg+status,2+status,0+pclath+cstack]
  5045  035C  1283               	bcf	3,5	;RP0=0, select bank0
  5046  035D  1303               	bcf	3,6	;RP1=0, select bank0
  5047  035E  0843               	movf	triangular@a,w
  5048  035F  00F0               	movwf	___ftge@ff1
  5049  0360  0844               	movf	triangular@a+1,w
  5050  0361  00F1               	movwf	___ftge@ff1+1
  5051  0362  0845               	movf	triangular@a+2,w
  5052  0363  00F2               	movwf	___ftge@ff1+2
  5053  0364  0840               	movf	triangular@x,w
  5054  0365  00F3               	movwf	___ftge@ff2
  5055  0366  0841               	movf	triangular@x+1,w
  5056  0367  00F4               	movwf	___ftge@ff2+1
  5057  0368  0842               	movf	triangular@x+2,w
  5058  0369  00F5               	movwf	___ftge@ff2+2
  5059  036A  120A  158A  24FB  120A  118A  	fcall	___ftge
  5060  036F  1C03               	btfss	3,0
  5061  0370  2B7A               	goto	i1l2397
  5062                           
  5063                           ;main.c: 58: return 0.0f;
  5064  0371  3000               	movlw	0
  5065  0372  1283               	bcf	3,5	;RP0=0, select bank0
  5066  0373  1303               	bcf	3,6	;RP1=0, select bank0
  5067  0374  00C0               	movwf	?_triangular
  5068  0375  3000               	movlw	0
  5069  0376  00C1               	movwf	?_triangular+1
  5070  0377  3000               	movlw	0
  5071  0378  00C2               	movwf	?_triangular+2
  5072  0379  0008               	return
  5073  037A                     i1l2397:	
  5074                           
  5075                           ;main.c: 59: }
  5076                           ;main.c: 60: if ((a < x) && (x <= b)){
  5077  037A  1283               	bcf	3,5	;RP0=0, select bank0
  5078  037B  1303               	bcf	3,6	;RP1=0, select bank0
  5079  037C  0843               	movf	triangular@a,w
  5080  037D  00F0               	movwf	___ftge@ff1
  5081  037E  0844               	movf	triangular@a+1,w
  5082  037F  00F1               	movwf	___ftge@ff1+1
  5083  0380  0845               	movf	triangular@a+2,w
  5084  0381  00F2               	movwf	___ftge@ff1+2
  5085  0382  0840               	movf	triangular@x,w
  5086  0383  00F3               	movwf	___ftge@ff2
  5087  0384  0841               	movf	triangular@x+1,w
  5088  0385  00F4               	movwf	___ftge@ff2+1
  5089  0386  0842               	movf	triangular@x+2,w
  5090  0387  00F5               	movwf	___ftge@ff2+2
  5091  0388  120A  158A  24FB  120A  118A  	fcall	___ftge
  5092  038D  1803               	btfsc	3,0
  5093  038E  2BFE               	goto	i1l2405
  5094  038F  1283               	bcf	3,5	;RP0=0, select bank0
  5095  0390  1303               	bcf	3,6	;RP1=0, select bank0
  5096  0391  0846               	movf	triangular@b,w
  5097  0392  00F0               	movwf	___ftge@ff1
  5098  0393  0847               	movf	triangular@b+1,w
  5099  0394  00F1               	movwf	___ftge@ff1+1
  5100  0395  0848               	movf	triangular@b+2,w
  5101  0396  00F2               	movwf	___ftge@ff1+2
  5102  0397  0840               	movf	triangular@x,w
  5103  0398  00F3               	movwf	___ftge@ff2
  5104  0399  0841               	movf	triangular@x+1,w
  5105  039A  00F4               	movwf	___ftge@ff2+1
  5106  039B  0842               	movf	triangular@x+2,w
  5107  039C  00F5               	movwf	___ftge@ff2+2
  5108  039D  120A  158A  24FB  120A  118A  	fcall	___ftge
  5109  03A2  1C03               	btfss	3,0
  5110  03A3  2BFE               	goto	i1l2405
  5111                           
  5112                           ;main.c: 61: return ((x - a) / (b - a));
  5113  03A4  1283               	bcf	3,5	;RP0=0, select bank0
  5114  03A5  1303               	bcf	3,6	;RP1=0, select bank0
  5115  03A6  0846               	movf	triangular@b,w
  5116  03A7  00A3               	movwf	___ftadd@f1
  5117  03A8  0847               	movf	triangular@b+1,w
  5118  03A9  00A4               	movwf	___ftadd@f1+1
  5119  03AA  0848               	movf	triangular@b+2,w
  5120  03AB  00A5               	movwf	___ftadd@f1+2
  5121  03AC  0843               	movf	triangular@a,w
  5122  03AD  00A0               	movwf	___ftneg@f1
  5123  03AE  0844               	movf	triangular@a+1,w
  5124  03AF  00A1               	movwf	___ftneg@f1+1
  5125  03B0  0845               	movf	triangular@a+2,w
  5126  03B1  00A2               	movwf	___ftneg@f1+2
  5127  03B2  120A  158A  2277  120A  118A  	fcall	___ftneg
  5128  03B7  1283               	bcf	3,5	;RP0=0, select bank0
  5129  03B8  1303               	bcf	3,6	;RP1=0, select bank0
  5130  03B9  0820               	movf	?___ftneg,w
  5131  03BA  00A6               	movwf	___ftadd@f2
  5132  03BB  0821               	movf	?___ftneg+1,w
  5133  03BC  00A7               	movwf	___ftadd@f2+1
  5134  03BD  0822               	movf	?___ftneg+2,w
  5135  03BE  00A8               	movwf	___ftadd@f2+2
  5136  03BF  120A  118A  26D3  120A  118A  	fcall	___ftadd
  5137  03C4  1283               	bcf	3,5	;RP0=0, select bank0
  5138  03C5  1303               	bcf	3,6	;RP1=0, select bank0
  5139  03C6  0823               	movf	?___ftadd,w
  5140  03C7  00B0               	movwf	___ftdiv@f2
  5141  03C8  0824               	movf	?___ftadd+1,w
  5142  03C9  00B1               	movwf	___ftdiv@f2+1
  5143  03CA  0825               	movf	?___ftadd+2,w
  5144  03CB  00B2               	movwf	___ftdiv@f2+2
  5145  03CC  0840               	movf	triangular@x,w
  5146  03CD  00A3               	movwf	___ftadd@f1
  5147  03CE  0841               	movf	triangular@x+1,w
  5148  03CF  00A4               	movwf	___ftadd@f1+1
  5149  03D0  0842               	movf	triangular@x+2,w
  5150  03D1  00A5               	movwf	___ftadd@f1+2
  5151  03D2  0843               	movf	triangular@a,w
  5152  03D3  00A0               	movwf	___ftneg@f1
  5153  03D4  0844               	movf	triangular@a+1,w
  5154  03D5  00A1               	movwf	___ftneg@f1+1
  5155  03D6  0845               	movf	triangular@a+2,w
  5156  03D7  00A2               	movwf	___ftneg@f1+2
  5157  03D8  120A  158A  2277  120A  118A  	fcall	___ftneg
  5158  03DD  1283               	bcf	3,5	;RP0=0, select bank0
  5159  03DE  1303               	bcf	3,6	;RP1=0, select bank0
  5160  03DF  0820               	movf	?___ftneg,w
  5161  03E0  00A6               	movwf	___ftadd@f2
  5162  03E1  0821               	movf	?___ftneg+1,w
  5163  03E2  00A7               	movwf	___ftadd@f2+1
  5164  03E3  0822               	movf	?___ftneg+2,w
  5165  03E4  00A8               	movwf	___ftadd@f2+2
  5166  03E5  120A  118A  26D3  120A  118A  	fcall	___ftadd
  5167  03EA  1283               	bcf	3,5	;RP0=0, select bank0
  5168  03EB  1303               	bcf	3,6	;RP1=0, select bank0
  5169  03EC  0823               	movf	?___ftadd,w
  5170  03ED  00B3               	movwf	___ftdiv@f1
  5171  03EE  0824               	movf	?___ftadd+1,w
  5172  03EF  00B4               	movwf	___ftdiv@f1+1
  5173  03F0  0825               	movf	?___ftadd+2,w
  5174  03F1  00B5               	movwf	___ftdiv@f1+2
  5175  03F2  120A  158A  2748   	fcall	___ftdiv
  5176  03F5  1283               	bcf	3,5	;RP0=0, select bank0
  5177  03F6  1303               	bcf	3,6	;RP1=0, select bank0
  5178  03F7  0830               	movf	?___ftdiv,w
  5179  03F8  00C0               	movwf	?_triangular
  5180  03F9  0831               	movf	?___ftdiv+1,w
  5181  03FA  00C1               	movwf	?_triangular+1
  5182  03FB  0832               	movf	?___ftdiv+2,w
  5183  03FC  00C2               	movwf	?_triangular+2
  5184  03FD  0008               	return
  5185  03FE                     i1l2405:	
  5186                           
  5187                           ;main.c: 62: }
  5188                           ;main.c: 63: if ((b < x) && (x <= c)){
  5189  03FE  1283               	bcf	3,5	;RP0=0, select bank0
  5190  03FF  1303               	bcf	3,6	;RP1=0, select bank0
  5191  0400  0846               	movf	triangular@b,w
  5192  0401  00F0               	movwf	___ftge@ff1
  5193  0402  0847               	movf	triangular@b+1,w
  5194  0403  00F1               	movwf	___ftge@ff1+1
  5195  0404  0848               	movf	triangular@b+2,w
  5196  0405  00F2               	movwf	___ftge@ff1+2
  5197  0406  0840               	movf	triangular@x,w
  5198  0407  00F3               	movwf	___ftge@ff2
  5199  0408  0841               	movf	triangular@x+1,w
  5200  0409  00F4               	movwf	___ftge@ff2+1
  5201  040A  0842               	movf	triangular@x+2,w
  5202  040B  00F5               	movwf	___ftge@ff2+2
  5203  040C  120A  158A  24FB  120A  118A  	fcall	___ftge
  5204  0411  1803               	btfsc	3,0
  5205  0412  2C82               	goto	i1l2413
  5206  0413  1283               	bcf	3,5	;RP0=0, select bank0
  5207  0414  1303               	bcf	3,6	;RP1=0, select bank0
  5208  0415  0849               	movf	triangular@c,w
  5209  0416  00F0               	movwf	___ftge@ff1
  5210  0417  084A               	movf	triangular@c+1,w
  5211  0418  00F1               	movwf	___ftge@ff1+1
  5212  0419  084B               	movf	triangular@c+2,w
  5213  041A  00F2               	movwf	___ftge@ff1+2
  5214  041B  0840               	movf	triangular@x,w
  5215  041C  00F3               	movwf	___ftge@ff2
  5216  041D  0841               	movf	triangular@x+1,w
  5217  041E  00F4               	movwf	___ftge@ff2+1
  5218  041F  0842               	movf	triangular@x+2,w
  5219  0420  00F5               	movwf	___ftge@ff2+2
  5220  0421  120A  158A  24FB  120A  118A  	fcall	___ftge
  5221  0426  1C03               	btfss	3,0
  5222  0427  2C82               	goto	i1l2413
  5223                           
  5224                           ;main.c: 64: return ((x - c) / (b - c));
  5225  0428  1283               	bcf	3,5	;RP0=0, select bank0
  5226  0429  1303               	bcf	3,6	;RP1=0, select bank0
  5227  042A  0846               	movf	triangular@b,w
  5228  042B  00A3               	movwf	___ftadd@f1
  5229  042C  0847               	movf	triangular@b+1,w
  5230  042D  00A4               	movwf	___ftadd@f1+1
  5231  042E  0848               	movf	triangular@b+2,w
  5232  042F  00A5               	movwf	___ftadd@f1+2
  5233  0430  0849               	movf	triangular@c,w
  5234  0431  00A0               	movwf	___ftneg@f1
  5235  0432  084A               	movf	triangular@c+1,w
  5236  0433  00A1               	movwf	___ftneg@f1+1
  5237  0434  084B               	movf	triangular@c+2,w
  5238  0435  00A2               	movwf	___ftneg@f1+2
  5239  0436  120A  158A  2277  120A  118A  	fcall	___ftneg
  5240  043B  1283               	bcf	3,5	;RP0=0, select bank0
  5241  043C  1303               	bcf	3,6	;RP1=0, select bank0
  5242  043D  0820               	movf	?___ftneg,w
  5243  043E  00A6               	movwf	___ftadd@f2
  5244  043F  0821               	movf	?___ftneg+1,w
  5245  0440  00A7               	movwf	___ftadd@f2+1
  5246  0441  0822               	movf	?___ftneg+2,w
  5247  0442  00A8               	movwf	___ftadd@f2+2
  5248  0443  120A  118A  26D3  120A  118A  	fcall	___ftadd
  5249  0448  1283               	bcf	3,5	;RP0=0, select bank0
  5250  0449  1303               	bcf	3,6	;RP1=0, select bank0
  5251  044A  0823               	movf	?___ftadd,w
  5252  044B  00B0               	movwf	___ftdiv@f2
  5253  044C  0824               	movf	?___ftadd+1,w
  5254  044D  00B1               	movwf	___ftdiv@f2+1
  5255  044E  0825               	movf	?___ftadd+2,w
  5256  044F  00B2               	movwf	___ftdiv@f2+2
  5257  0450  0840               	movf	triangular@x,w
  5258  0451  00A3               	movwf	___ftadd@f1
  5259  0452  0841               	movf	triangular@x+1,w
  5260  0453  00A4               	movwf	___ftadd@f1+1
  5261  0454  0842               	movf	triangular@x+2,w
  5262  0455  00A5               	movwf	___ftadd@f1+2
  5263  0456  0849               	movf	triangular@c,w
  5264  0457  00A0               	movwf	___ftneg@f1
  5265  0458  084A               	movf	triangular@c+1,w
  5266  0459  00A1               	movwf	___ftneg@f1+1
  5267  045A  084B               	movf	triangular@c+2,w
  5268  045B  00A2               	movwf	___ftneg@f1+2
  5269  045C  120A  158A  2277  120A  118A  	fcall	___ftneg
  5270  0461  1283               	bcf	3,5	;RP0=0, select bank0
  5271  0462  1303               	bcf	3,6	;RP1=0, select bank0
  5272  0463  0820               	movf	?___ftneg,w
  5273  0464  00A6               	movwf	___ftadd@f2
  5274  0465  0821               	movf	?___ftneg+1,w
  5275  0466  00A7               	movwf	___ftadd@f2+1
  5276  0467  0822               	movf	?___ftneg+2,w
  5277  0468  00A8               	movwf	___ftadd@f2+2
  5278  0469  120A  118A  26D3  120A  118A  	fcall	___ftadd
  5279  046E  1283               	bcf	3,5	;RP0=0, select bank0
  5280  046F  1303               	bcf	3,6	;RP1=0, select bank0
  5281  0470  0823               	movf	?___ftadd,w
  5282  0471  00B3               	movwf	___ftdiv@f1
  5283  0472  0824               	movf	?___ftadd+1,w
  5284  0473  00B4               	movwf	___ftdiv@f1+1
  5285  0474  0825               	movf	?___ftadd+2,w
  5286  0475  00B5               	movwf	___ftdiv@f1+2
  5287  0476  120A  158A  2748   	fcall	___ftdiv
  5288  0479  1283               	bcf	3,5	;RP0=0, select bank0
  5289  047A  1303               	bcf	3,6	;RP1=0, select bank0
  5290  047B  0830               	movf	?___ftdiv,w
  5291  047C  00C0               	movwf	?_triangular
  5292  047D  0831               	movf	?___ftdiv+1,w
  5293  047E  00C1               	movwf	?_triangular+1
  5294  047F  0832               	movf	?___ftdiv+2,w
  5295  0480  00C2               	movwf	?_triangular+2
  5296  0481  0008               	return
  5297  0482                     i1l2413:	
  5298                           
  5299                           ;main.c: 65: }
  5300                           ;main.c: 66: if (x > c){
  5301  0482  1283               	bcf	3,5	;RP0=0, select bank0
  5302  0483  1303               	bcf	3,6	;RP1=0, select bank0
  5303  0484  0849               	movf	triangular@c,w
  5304  0485  00F0               	movwf	___ftge@ff1
  5305  0486  084A               	movf	triangular@c+1,w
  5306  0487  00F1               	movwf	___ftge@ff1+1
  5307  0488  084B               	movf	triangular@c+2,w
  5308  0489  00F2               	movwf	___ftge@ff1+2
  5309  048A  0840               	movf	triangular@x,w
  5310  048B  00F3               	movwf	___ftge@ff2
  5311  048C  0841               	movf	triangular@x+1,w
  5312  048D  00F4               	movwf	___ftge@ff2+1
  5313  048E  0842               	movf	triangular@x+2,w
  5314  048F  00F5               	movwf	___ftge@ff2+2
  5315  0490  120A  158A  24FB  120A  118A  	fcall	___ftge
  5316  0495  1803               	btfsc	3,0
  5317  0496  0008               	return
  5318                           
  5319                           ;main.c: 67: return 0.0f;
  5320  0497  3000               	movlw	0
  5321  0498  1283               	bcf	3,5	;RP0=0, select bank0
  5322  0499  1303               	bcf	3,6	;RP1=0, select bank0
  5323  049A  00C0               	movwf	?_triangular
  5324  049B  3000               	movlw	0
  5325  049C  00C1               	movwf	?_triangular+1
  5326  049D  3000               	movlw	0
  5327  049E  00C2               	movwf	?_triangular+2
  5328  049F  0008               	return
  5329  04A0                     __end_of_triangular:	
  5330                           
  5331                           	psect	text28
  5332  0A77                     __ptext28:	
  5333 ;; *************** function ___ftneg *****************
  5334 ;; Defined at:
  5335 ;;		line 15 in file "C:\Program Files (x86)\Microchip\xc8\v1.33\sources\common\ftneg.c"
  5336 ;; Parameters:    Size  Location     Type
  5337 ;;  f1              3    0[BANK0 ] float 
  5338 ;; Auto vars:     Size  Location     Type
  5339 ;;		None
  5340 ;; Return value:  Size  Location     Type
  5341 ;;                  3    0[BANK0 ] float 
  5342 ;; Registers used:
  5343 ;;		wreg
  5344 ;; Tracked objects:
  5345 ;;		On entry : 0/0
  5346 ;;		On exit  : 0/0
  5347 ;;		Unchanged: 0/0
  5348 ;; Data sizes:     COMMON   BANK0   BANK1   BANK3   BANK2
  5349 ;;      Params:         0       3       0       0       0
  5350 ;;      Locals:         0       0       0       0       0
  5351 ;;      Temps:          0       0       0       0       0
  5352 ;;      Totals:         0       3       0       0       0
  5353 ;;Total ram usage:        3 bytes
  5354 ;; Hardware stack levels used:    1
  5355 ;; This function calls:
  5356 ;;		Nothing
  5357 ;; This function is called by:
  5358 ;;		_triangular
  5359 ;;		_ISR
  5360 ;;		_trapezoidal
  5361 ;; This function uses a non-reentrant model
  5362 ;;
  5363                           
  5364                           
  5365                           ;psect for function ___ftneg
  5366  0A77                     ___ftneg:	
  5367                           
  5368                           ;incstack = 0
  5369                           ; Regs used in ___ftneg: [wreg]
  5370  0A77  1283               	bcf	3,5	;RP0=0, select bank0
  5371  0A78  1303               	bcf	3,6	;RP1=0, select bank0
  5372  0A79  0822               	movf	___ftneg@f1+2,w
  5373  0A7A  0421               	iorwf	___ftneg@f1+1,w
  5374  0A7B  0420               	iorwf	___ftneg@f1,w
  5375  0A7C  1903               	skipnz
  5376  0A7D  0008               	return
  5377  0A7E  3080               	movlw	128
  5378  0A7F  06A2               	xorwf	___ftneg@f1+2,f
  5379  0A80  0008               	return
  5380  0A81                     __end_of___ftneg:	
  5381                           
  5382                           	psect	text29
  5383  0CFB                     __ptext29:	
  5384 ;; *************** function ___ftge *****************
  5385 ;; Defined at:
  5386 ;;		line 4 in file "C:\Program Files (x86)\Microchip\xc8\v1.33\sources\common\ftge.c"
  5387 ;; Parameters:    Size  Location     Type
  5388 ;;  ff1             3    0[COMMON] float 
  5389 ;;  ff2             3    3[COMMON] float 
  5390 ;; Auto vars:     Size  Location     Type
  5391 ;;		None
  5392 ;; Return value:  Size  Location     Type
  5393 ;;		None               void
  5394 ;; Registers used:
  5395 ;;		wreg, status,2, status,0
  5396 ;; Tracked objects:
  5397 ;;		On entry : 0/0
  5398 ;;		On exit  : 0/0
  5399 ;;		Unchanged: 0/0
  5400 ;; Data sizes:     COMMON   BANK0   BANK1   BANK3   BANK2
  5401 ;;      Params:         6       0       0       0       0
  5402 ;;      Locals:         0       0       0       0       0
  5403 ;;      Temps:          6       0       0       0       0
  5404 ;;      Totals:        12       0       0       0       0
  5405 ;;Total ram usage:       12 bytes
  5406 ;; Hardware stack levels used:    1
  5407 ;; This function calls:
  5408 ;;		Nothing
  5409 ;; This function is called by:
  5410 ;;		_triangular
  5411 ;;		_trapezoidal
  5412 ;; This function uses a non-reentrant model
  5413 ;;
  5414                           
  5415                           
  5416                           ;psect for function ___ftge
  5417  0CFB                     ___ftge:	
  5418                           
  5419                           ;incstack = 0
  5420                           ; Regs used in ___ftge: [wreg+status,2+status,0]
  5421  0CFB  1FF2               	btfss	___ftge@ff1+2,7
  5422  0CFC  2D22               	goto	i1l2367
  5423  0CFD  3000               	movlw	0
  5424  0CFE  00F6               	movwf	??___ftge
  5425  0CFF  3000               	movlw	0
  5426  0D00  00F7               	movwf	??___ftge+1
  5427  0D01  3080               	movlw	128
  5428  0D02  00F8               	movwf	??___ftge+2
  5429  0D03  0970               	comf	___ftge@ff1,w
  5430  0D04  00F9               	movwf	??___ftge+3
  5431  0D05  0971               	comf	___ftge@ff1+1,w
  5432  0D06  00FA               	movwf	??___ftge+4
  5433  0D07  0972               	comf	___ftge@ff1+2,w
  5434  0D08  00FB               	movwf	??___ftge+5
  5435  0D09  0AF9               	incf	??___ftge+3,f
  5436  0D0A  1903               	skipnz
  5437  0D0B  0AFA               	incf	??___ftge+4,f
  5438  0D0C  1903               	skipnz
  5439  0D0D  0AFB               	incf	??___ftge+5,f
  5440  0D0E  0879               	movf	??___ftge+3,w
  5441  0D0F  07F6               	addwf	??___ftge,f
  5442  0D10  087A               	movf	??___ftge+4,w
  5443  0D11  1803               	skipnc
  5444  0D12  0F7A               	incfsz	??___ftge+4,w
  5445  0D13  2D15               	goto	u269_21
  5446  0D14  2D16               	goto	u269_22
  5447  0D15                     u269_21:	
  5448  0D15  07F7               	addwf	??___ftge+1,f
  5449  0D16                     u269_22:	
  5450  0D16  087B               	movf	??___ftge+5,w
  5451  0D17  1803               	skipnc
  5452  0D18  0F7B               	incfsz	??___ftge+5,w
  5453  0D19  2D1B               	goto	u269_23
  5454  0D1A  2D1C               	goto	u269_24
  5455  0D1B                     u269_23:	
  5456  0D1B  07F8               	addwf	??___ftge+2,f
  5457  0D1C                     u269_24:	
  5458  0D1C  0876               	movf	??___ftge,w
  5459  0D1D  00F0               	movwf	___ftge@ff1
  5460  0D1E  0877               	movf	??___ftge+1,w
  5461  0D1F  00F1               	movwf	___ftge@ff1+1
  5462  0D20  0878               	movf	??___ftge+2,w
  5463  0D21  00F2               	movwf	___ftge@ff1+2
  5464  0D22                     i1l2367:	
  5465  0D22  1FF5               	btfss	___ftge@ff2+2,7
  5466  0D23  2D49               	goto	i1l2371
  5467  0D24  3000               	movlw	0
  5468  0D25  00F6               	movwf	??___ftge
  5469  0D26  3000               	movlw	0
  5470  0D27  00F7               	movwf	??___ftge+1
  5471  0D28  3080               	movlw	128
  5472  0D29  00F8               	movwf	??___ftge+2
  5473  0D2A  0973               	comf	___ftge@ff2,w
  5474  0D2B  00F9               	movwf	??___ftge+3
  5475  0D2C  0974               	comf	___ftge@ff2+1,w
  5476  0D2D  00FA               	movwf	??___ftge+4
  5477  0D2E  0975               	comf	___ftge@ff2+2,w
  5478  0D2F  00FB               	movwf	??___ftge+5
  5479  0D30  0AF9               	incf	??___ftge+3,f
  5480  0D31  1903               	skipnz
  5481  0D32  0AFA               	incf	??___ftge+4,f
  5482  0D33  1903               	skipnz
  5483  0D34  0AFB               	incf	??___ftge+5,f
  5484  0D35  0879               	movf	??___ftge+3,w
  5485  0D36  07F6               	addwf	??___ftge,f
  5486  0D37  087A               	movf	??___ftge+4,w
  5487  0D38  1803               	skipnc
  5488  0D39  0F7A               	incfsz	??___ftge+4,w
  5489  0D3A  2D3C               	goto	u271_21
  5490  0D3B  2D3D               	goto	u271_22
  5491  0D3C                     u271_21:	
  5492  0D3C  07F7               	addwf	??___ftge+1,f
  5493  0D3D                     u271_22:	
  5494  0D3D  087B               	movf	??___ftge+5,w
  5495  0D3E  1803               	skipnc
  5496  0D3F  0F7B               	incfsz	??___ftge+5,w
  5497  0D40  2D42               	goto	u271_23
  5498  0D41  2D43               	goto	u271_24
  5499  0D42                     u271_23:	
  5500  0D42  07F8               	addwf	??___ftge+2,f
  5501  0D43                     u271_24:	
  5502  0D43  0876               	movf	??___ftge,w
  5503  0D44  00F3               	movwf	___ftge@ff2
  5504  0D45  0877               	movf	??___ftge+1,w
  5505  0D46  00F4               	movwf	___ftge@ff2+1
  5506  0D47  0878               	movf	??___ftge+2,w
  5507  0D48  00F5               	movwf	___ftge@ff2+2
  5508  0D49                     i1l2371:	
  5509  0D49  3080               	movlw	128
  5510  0D4A  06F2               	xorwf	___ftge@ff1+2,f
  5511  0D4B  3080               	movlw	128
  5512  0D4C  06F5               	xorwf	___ftge@ff2+2,f
  5513  0D4D  0875               	movf	___ftge@ff2+2,w
  5514  0D4E  0272               	subwf	___ftge@ff1+2,w
  5515  0D4F  1D03               	skipz
  5516  0D50  0008               	return
  5517  0D51  0874               	movf	___ftge@ff2+1,w
  5518  0D52  0271               	subwf	___ftge@ff1+1,w
  5519  0D53  1D03               	skipz
  5520  0D54  0008               	return
  5521  0D55  0873               	movf	___ftge@ff2,w
  5522  0D56  0270               	subwf	___ftge@ff1,w
  5523  0D57  0008               	return
  5524  0D58                     __end_of___ftge:	
  5525                           
  5526                           	psect	text30
  5527  0F48                     __ptext30:	
  5528 ;; *************** function ___ftdiv *****************
  5529 ;; Defined at:
  5530 ;;		line 49 in file "C:\Program Files (x86)\Microchip\xc8\v1.33\sources\pic\ftdiv.c"
  5531 ;; Parameters:    Size  Location     Type
  5532 ;;  f2              3   16[BANK0 ] float 
  5533 ;;  f1              3   19[BANK0 ] float 
  5534 ;; Auto vars:     Size  Location     Type
  5535 ;;  f3              3   27[BANK0 ] float 
  5536 ;;  sign            1   31[BANK0 ] unsigned char 
  5537 ;;  exp             1   30[BANK0 ] unsigned char 
  5538 ;;  cntr            1   26[BANK0 ] unsigned char 
  5539 ;; Return value:  Size  Location     Type
  5540 ;;                  3   16[BANK0 ] float 
  5541 ;; Registers used:
  5542 ;;		wreg, status,2, status,0, pclath, cstack
  5543 ;; Tracked objects:
  5544 ;;		On entry : 0/0
  5545 ;;		On exit  : 0/0
  5546 ;;		Unchanged: 0/0
  5547 ;; Data sizes:     COMMON   BANK0   BANK1   BANK3   BANK2
  5548 ;;      Params:         0       6       0       0       0
  5549 ;;      Locals:         0       6       0       0       0
  5550 ;;      Temps:          0       4       0       0       0
  5551 ;;      Totals:         0      16       0       0       0
  5552 ;;Total ram usage:       16 bytes
  5553 ;; Hardware stack levels used:    1
  5554 ;; Hardware stack levels required when called:    1
  5555 ;; This function calls:
  5556 ;;		___ftpack
  5557 ;; This function is called by:
  5558 ;;		_triangular
  5559 ;;		_ISR
  5560 ;;		_trapezoidal
  5561 ;; This function uses a non-reentrant model
  5562 ;;
  5563                           
  5564                           
  5565                           ;psect for function ___ftdiv
  5566  0F48                     ___ftdiv:	
  5567                           
  5568                           ;incstack = 0
  5569                           ; Regs used in ___ftdiv: [wreg+status,2+status,0+pclath+cstack]
  5570  0F48  1283               	bcf	3,5	;RP0=0, select bank0
  5571  0F49  1303               	bcf	3,6	;RP1=0, select bank0
  5572  0F4A  0833               	movf	___ftdiv@f1,w
  5573  0F4B  00B6               	movwf	??___ftdiv
  5574  0F4C  0834               	movf	___ftdiv@f1+1,w
  5575  0F4D  00B7               	movwf	??___ftdiv+1
  5576  0F4E  0835               	movf	___ftdiv@f1+2,w
  5577  0F4F  00B8               	movwf	??___ftdiv+2
  5578  0F50  1003               	clrc
  5579  0F51  0D37               	rlf	??___ftdiv+1,w
  5580  0F52  0D38               	rlf	??___ftdiv+2,w
  5581  0F53  00B9               	movwf	??___ftdiv+3
  5582  0F54  0839               	movf	??___ftdiv+3,w
  5583  0F55  00BE               	movwf	___ftdiv@exp
  5584  0F56  08BE               	movf	___ftdiv@exp,f
  5585  0F57  1D03               	skipz
  5586  0F58  2F60               	goto	i1l2327
  5587  0F59  3000               	movlw	0
  5588  0F5A  00B0               	movwf	?___ftdiv
  5589  0F5B  3000               	movlw	0
  5590  0F5C  00B1               	movwf	?___ftdiv+1
  5591  0F5D  3000               	movlw	0
  5592  0F5E  00B2               	movwf	?___ftdiv+2
  5593  0F5F  0008               	return
  5594  0F60                     i1l2327:	
  5595  0F60  0830               	movf	___ftdiv@f2,w
  5596  0F61  00B6               	movwf	??___ftdiv
  5597  0F62  0831               	movf	___ftdiv@f2+1,w
  5598  0F63  00B7               	movwf	??___ftdiv+1
  5599  0F64  0832               	movf	___ftdiv@f2+2,w
  5600  0F65  00B8               	movwf	??___ftdiv+2
  5601  0F66  1003               	clrc
  5602  0F67  0D37               	rlf	??___ftdiv+1,w
  5603  0F68  0D38               	rlf	??___ftdiv+2,w
  5604  0F69  00B9               	movwf	??___ftdiv+3
  5605  0F6A  0839               	movf	??___ftdiv+3,w
  5606  0F6B  00BF               	movwf	___ftdiv@sign
  5607  0F6C  08BF               	movf	___ftdiv@sign,f
  5608  0F6D  1D03               	skipz
  5609  0F6E  2F76               	goto	i1l2333
  5610  0F6F  3000               	movlw	0
  5611  0F70  00B0               	movwf	?___ftdiv
  5612  0F71  3000               	movlw	0
  5613  0F72  00B1               	movwf	?___ftdiv+1
  5614  0F73  3000               	movlw	0
  5615  0F74  00B2               	movwf	?___ftdiv+2
  5616  0F75  0008               	return
  5617  0F76                     i1l2333:	
  5618  0F76  3000               	movlw	0
  5619  0F77  00BB               	movwf	___ftdiv@f3
  5620  0F78  3000               	movlw	0
  5621  0F79  00BC               	movwf	___ftdiv@f3+1
  5622  0F7A  3000               	movlw	0
  5623  0F7B  00BD               	movwf	___ftdiv@f3+2
  5624  0F7C  3089               	movlw	137
  5625  0F7D  073F               	addwf	___ftdiv@sign,w
  5626  0F7E  00B6               	movwf	??___ftdiv
  5627  0F7F  0836               	movf	??___ftdiv,w
  5628  0F80  02BE               	subwf	___ftdiv@exp,f
  5629  0F81  0833               	movf	___ftdiv@f1,w
  5630  0F82  00B6               	movwf	??___ftdiv
  5631  0F83  0834               	movf	___ftdiv@f1+1,w
  5632  0F84  00B7               	movwf	??___ftdiv+1
  5633  0F85  0835               	movf	___ftdiv@f1+2,w
  5634  0F86  00B8               	movwf	??___ftdiv+2
  5635  0F87  3010               	movlw	16
  5636  0F88                     u262_25:	
  5637  0F88  1003               	clrc
  5638  0F89  0CB8               	rrf	??___ftdiv+2,f
  5639  0F8A  0CB7               	rrf	??___ftdiv+1,f
  5640  0F8B  0CB6               	rrf	??___ftdiv,f
  5641  0F8C  3EFF               	addlw	-1
  5642  0F8D  1D03               	skipz
  5643  0F8E  2F88               	goto	u262_25
  5644  0F8F  0836               	movf	??___ftdiv,w
  5645  0F90  00B9               	movwf	??___ftdiv+3
  5646  0F91  0839               	movf	??___ftdiv+3,w
  5647  0F92  00BF               	movwf	___ftdiv@sign
  5648  0F93  0830               	movf	___ftdiv@f2,w
  5649  0F94  00B6               	movwf	??___ftdiv
  5650  0F95  0831               	movf	___ftdiv@f2+1,w
  5651  0F96  00B7               	movwf	??___ftdiv+1
  5652  0F97  0832               	movf	___ftdiv@f2+2,w
  5653  0F98  00B8               	movwf	??___ftdiv+2
  5654  0F99  3010               	movlw	16
  5655  0F9A                     u263_25:	
  5656  0F9A  1003               	clrc
  5657  0F9B  0CB8               	rrf	??___ftdiv+2,f
  5658  0F9C  0CB7               	rrf	??___ftdiv+1,f
  5659  0F9D  0CB6               	rrf	??___ftdiv,f
  5660  0F9E  3EFF               	addlw	-1
  5661  0F9F  1D03               	skipz
  5662  0FA0  2F9A               	goto	u263_25
  5663  0FA1  0836               	movf	??___ftdiv,w
  5664  0FA2  00B9               	movwf	??___ftdiv+3
  5665  0FA3  0839               	movf	??___ftdiv+3,w
  5666  0FA4  06BF               	xorwf	___ftdiv@sign,f
  5667  0FA5  3080               	movlw	128
  5668  0FA6  00B6               	movwf	??___ftdiv
  5669  0FA7  0836               	movf	??___ftdiv,w
  5670  0FA8  05BF               	andwf	___ftdiv@sign,f
  5671  0FA9  17B4               	bsf	___ftdiv@f1+1,7
  5672  0FAA  30FF               	movlw	255
  5673  0FAB  05B3               	andwf	___ftdiv@f1,f
  5674  0FAC  30FF               	movlw	255
  5675  0FAD  05B4               	andwf	___ftdiv@f1+1,f
  5676  0FAE  3000               	movlw	0
  5677  0FAF  05B5               	andwf	___ftdiv@f1+2,f
  5678  0FB0  17B1               	bsf	___ftdiv@f2+1,7
  5679  0FB1  30FF               	movlw	255
  5680  0FB2  05B0               	andwf	___ftdiv@f2,f
  5681  0FB3  30FF               	movlw	255
  5682  0FB4  05B1               	andwf	___ftdiv@f2+1,f
  5683  0FB5  3000               	movlw	0
  5684  0FB6  05B2               	andwf	___ftdiv@f2+2,f
  5685  0FB7  3018               	movlw	24
  5686  0FB8  00B6               	movwf	??___ftdiv
  5687  0FB9  0836               	movf	??___ftdiv,w
  5688  0FBA  00BA               	movwf	___ftdiv@cntr
  5689  0FBB                     i1l2347:	
  5690  0FBB  3001               	movlw	1
  5691  0FBC                     u264_25:	
  5692  0FBC  1003               	clrc
  5693  0FBD  0DBB               	rlf	___ftdiv@f3,f
  5694  0FBE  0DBC               	rlf	___ftdiv@f3+1,f
  5695  0FBF  0DBD               	rlf	___ftdiv@f3+2,f
  5696  0FC0  3EFF               	addlw	-1
  5697  0FC1  1D03               	skipz
  5698  0FC2  2FBC               	goto	u264_25
  5699  0FC3  0832               	movf	___ftdiv@f2+2,w
  5700  0FC4  0235               	subwf	___ftdiv@f1+2,w
  5701  0FC5  1D03               	skipz
  5702  0FC6  2FCD               	goto	u265_25
  5703  0FC7  0831               	movf	___ftdiv@f2+1,w
  5704  0FC8  0234               	subwf	___ftdiv@f1+1,w
  5705  0FC9  1D03               	skipz
  5706  0FCA  2FCD               	goto	u265_25
  5707  0FCB  0830               	movf	___ftdiv@f2,w
  5708  0FCC  0233               	subwf	___ftdiv@f1,w
  5709  0FCD                     u265_25:	
  5710  0FCD  1C03               	skipc
  5711  0FCE  2FDA               	goto	i1l2355
  5712  0FCF  0830               	movf	___ftdiv@f2,w
  5713  0FD0  02B3               	subwf	___ftdiv@f1,f
  5714  0FD1  0831               	movf	___ftdiv@f2+1,w
  5715  0FD2  1C03               	skipc
  5716  0FD3  0F31               	incfsz	___ftdiv@f2+1,w
  5717  0FD4  02B4               	subwf	___ftdiv@f1+1,f
  5718  0FD5  0832               	movf	___ftdiv@f2+2,w
  5719  0FD6  1C03               	skipc
  5720  0FD7  0A32               	incf	___ftdiv@f2+2,w
  5721  0FD8  02B5               	subwf	___ftdiv@f1+2,f
  5722  0FD9  143B               	bsf	___ftdiv@f3,0
  5723  0FDA                     i1l2355:	
  5724  0FDA  3001               	movlw	1
  5725  0FDB                     u266_25:	
  5726  0FDB  1003               	clrc
  5727  0FDC  0DB3               	rlf	___ftdiv@f1,f
  5728  0FDD  0DB4               	rlf	___ftdiv@f1+1,f
  5729  0FDE  0DB5               	rlf	___ftdiv@f1+2,f
  5730  0FDF  3EFF               	addlw	-1
  5731  0FE0  1D03               	skipz
  5732  0FE1  2FDB               	goto	u266_25
  5733  0FE2  3001               	movlw	1
  5734  0FE3  02BA               	subwf	___ftdiv@cntr,f
  5735  0FE4  1D03               	btfss	3,2
  5736  0FE5  2FBB               	goto	i1l2347
  5737  0FE6  083B               	movf	___ftdiv@f3,w
  5738  0FE7  00F0               	movwf	___ftpack@arg
  5739  0FE8  083C               	movf	___ftdiv@f3+1,w
  5740  0FE9  00F1               	movwf	___ftpack@arg+1
  5741  0FEA  083D               	movf	___ftdiv@f3+2,w
  5742  0FEB  00F2               	movwf	___ftpack@arg+2
  5743  0FEC  083E               	movf	___ftdiv@exp,w
  5744  0FED  00B6               	movwf	??___ftdiv
  5745  0FEE  0836               	movf	??___ftdiv,w
  5746  0FEF  00F3               	movwf	___ftpack@exp
  5747  0FF0  083F               	movf	___ftdiv@sign,w
  5748  0FF1  00B7               	movwf	??___ftdiv+1
  5749  0FF2  0837               	movf	??___ftdiv+1,w
  5750  0FF3  00F4               	movwf	___ftpack@sign
  5751  0FF4  120A  158A  2558   	fcall	___ftpack
  5752  0FF7  0870               	movf	?___ftpack,w
  5753  0FF8  1283               	bcf	3,5	;RP0=0, select bank0
  5754  0FF9  1303               	bcf	3,6	;RP1=0, select bank0
  5755  0FFA  00B0               	movwf	?___ftdiv
  5756  0FFB  0871               	movf	?___ftpack+1,w
  5757  0FFC  00B1               	movwf	?___ftdiv+1
  5758  0FFD  0872               	movf	?___ftpack+2,w
  5759  0FFE  00B2               	movwf	?___ftdiv+2
  5760  0FFF  0008               	return
  5761  1000                     __end_of___ftdiv:	
  5762                           
  5763                           	psect	text31
  5764  06D3                     __ptext31:	
  5765 ;; *************** function ___ftadd *****************
  5766 ;; Defined at:
  5767 ;;		line 86 in file "C:\Program Files (x86)\Microchip\xc8\v1.33\sources\common\ftadd.c"
  5768 ;; Parameters:    Size  Location     Type
  5769 ;;  f1              3    3[BANK0 ] float 
  5770 ;;  f2              3    6[BANK0 ] float 
  5771 ;; Auto vars:     Size  Location     Type
  5772 ;;  exp1            1   15[BANK0 ] unsigned char 
  5773 ;;  exp2            1   14[BANK0 ] unsigned char 
  5774 ;;  sign            1   13[BANK0 ] unsigned char 
  5775 ;; Return value:  Size  Location     Type
  5776 ;;                  3    3[BANK0 ] float 
  5777 ;; Registers used:
  5778 ;;		wreg, status,2, status,0, pclath, cstack
  5779 ;; Tracked objects:
  5780 ;;		On entry : 0/0
  5781 ;;		On exit  : 0/0
  5782 ;;		Unchanged: 0/0
  5783 ;; Data sizes:     COMMON   BANK0   BANK1   BANK3   BANK2
  5784 ;;      Params:         0       6       0       0       0
  5785 ;;      Locals:         0       3       0       0       0
  5786 ;;      Temps:          0       4       0       0       0
  5787 ;;      Totals:         0      13       0       0       0
  5788 ;;Total ram usage:       13 bytes
  5789 ;; Hardware stack levels used:    1
  5790 ;; Hardware stack levels required when called:    1
  5791 ;; This function calls:
  5792 ;;		___ftpack
  5793 ;; This function is called by:
  5794 ;;		_triangular
  5795 ;;		_ISR
  5796 ;;		_trapezoidal
  5797 ;; This function uses a non-reentrant model
  5798 ;;
  5799                           
  5800                           
  5801                           ;psect for function ___ftadd
  5802  06D3                     ___ftadd:	
  5803                           
  5804                           ;incstack = 0
  5805                           ; Regs used in ___ftadd: [wreg+status,2+status,0+pclath+cstack]
  5806  06D3  1283               	bcf	3,5	;RP0=0, select bank0
  5807  06D4  1303               	bcf	3,6	;RP1=0, select bank0
  5808  06D5  0823               	movf	___ftadd@f1,w
  5809  06D6  00A9               	movwf	??___ftadd
  5810  06D7  0824               	movf	___ftadd@f1+1,w
  5811  06D8  00AA               	movwf	??___ftadd+1
  5812  06D9  0825               	movf	___ftadd@f1+2,w
  5813  06DA  00AB               	movwf	??___ftadd+2
  5814  06DB  1003               	clrc
  5815  06DC  0D2A               	rlf	??___ftadd+1,w
  5816  06DD  0D2B               	rlf	??___ftadd+2,w
  5817  06DE  00AC               	movwf	??___ftadd+3
  5818  06DF  082C               	movf	??___ftadd+3,w
  5819  06E0  00AF               	movwf	___ftadd@exp1
  5820  06E1  0826               	movf	___ftadd@f2,w
  5821  06E2  00A9               	movwf	??___ftadd
  5822  06E3  0827               	movf	___ftadd@f2+1,w
  5823  06E4  00AA               	movwf	??___ftadd+1
  5824  06E5  0828               	movf	___ftadd@f2+2,w
  5825  06E6  00AB               	movwf	??___ftadd+2
  5826  06E7  1003               	clrc
  5827  06E8  0D2A               	rlf	??___ftadd+1,w
  5828  06E9  0D2B               	rlf	??___ftadd+2,w
  5829  06EA  00AC               	movwf	??___ftadd+3
  5830  06EB  082C               	movf	??___ftadd+3,w
  5831  06EC  00AE               	movwf	___ftadd@exp2
  5832  06ED  082F               	movf	___ftadd@exp1,w
  5833  06EE  1903               	btfsc	3,2
  5834  06EF  2EFC               	goto	i1l2257
  5835  06F0  082E               	movf	___ftadd@exp2,w
  5836  06F1  022F               	subwf	___ftadd@exp1,w
  5837  06F2  1803               	skipnc
  5838  06F3  2F03               	goto	i1l2261
  5839  06F4  032F               	decf	___ftadd@exp1,w
  5840  06F5  3AFF               	xorlw	255
  5841  06F6  072E               	addwf	___ftadd@exp2,w
  5842  06F7  00A9               	movwf	??___ftadd
  5843  06F8  3019               	movlw	25
  5844  06F9  0229               	subwf	??___ftadd,w
  5845  06FA  1C03               	skipc
  5846  06FB  2F03               	goto	i1l2261
  5847  06FC                     i1l2257:	
  5848  06FC  0826               	movf	___ftadd@f2,w
  5849  06FD  00A3               	movwf	?___ftadd
  5850  06FE  0827               	movf	___ftadd@f2+1,w
  5851  06FF  00A4               	movwf	?___ftadd+1
  5852  0700  0828               	movf	___ftadd@f2+2,w
  5853  0701  00A5               	movwf	?___ftadd+2
  5854  0702  0008               	return
  5855  0703                     i1l2261:	
  5856  0703  082E               	movf	___ftadd@exp2,w
  5857  0704  1903               	btfsc	3,2
  5858  0705  0008               	return
  5859  0706  082F               	movf	___ftadd@exp1,w
  5860  0707  022E               	subwf	___ftadd@exp2,w
  5861  0708  1803               	skipnc
  5862  0709  2F12               	goto	i1l2267
  5863  070A  032E               	decf	___ftadd@exp2,w
  5864  070B  3AFF               	xorlw	255
  5865  070C  072F               	addwf	___ftadd@exp1,w
  5866  070D  00A9               	movwf	??___ftadd
  5867  070E  3019               	movlw	25
  5868  070F  0229               	subwf	??___ftadd,w
  5869  0710  1803               	btfsc	3,0
  5870  0711  0008               	return
  5871  0712                     i1l2267:	
  5872  0712  3006               	movlw	6
  5873  0713  00A9               	movwf	??___ftadd
  5874  0714  0829               	movf	??___ftadd,w
  5875  0715  00AD               	movwf	___ftadd@sign
  5876  0716  1BA5               	btfsc	___ftadd@f1+2,7
  5877  0717  17AD               	bsf	___ftadd@sign,7
  5878  0718  1BA8               	btfsc	___ftadd@f2+2,7
  5879  0719  172D               	bsf	___ftadd@sign,6
  5880  071A  17A4               	bsf	___ftadd@f1+1,7
  5881  071B  30FF               	movlw	255
  5882  071C  05A3               	andwf	___ftadd@f1,f
  5883  071D  30FF               	movlw	255
  5884  071E  05A4               	andwf	___ftadd@f1+1,f
  5885  071F  3000               	movlw	0
  5886  0720  05A5               	andwf	___ftadd@f1+2,f
  5887  0721  17A7               	bsf	___ftadd@f2+1,7
  5888  0722  30FF               	movlw	255
  5889  0723  05A6               	andwf	___ftadd@f2,f
  5890  0724  30FF               	movlw	255
  5891  0725  05A7               	andwf	___ftadd@f2+1,f
  5892  0726  3000               	movlw	0
  5893  0727  05A8               	andwf	___ftadd@f2+2,f
  5894  0728  082E               	movf	___ftadd@exp2,w
  5895  0729  022F               	subwf	___ftadd@exp1,w
  5896  072A  1803               	skipnc
  5897  072B  2F52               	goto	i1l2289
  5898  072C                     i1l2279:	
  5899  072C  3001               	movlw	1
  5900  072D                     u245_25:	
  5901  072D  1003               	clrc
  5902  072E  0DA6               	rlf	___ftadd@f2,f
  5903  072F  0DA7               	rlf	___ftadd@f2+1,f
  5904  0730  0DA8               	rlf	___ftadd@f2+2,f
  5905  0731  3EFF               	addlw	-1
  5906  0732  1D03               	skipz
  5907  0733  2F2D               	goto	u245_25
  5908  0734  3001               	movlw	1
  5909  0735  02AE               	subwf	___ftadd@exp2,f
  5910  0736  082E               	movf	___ftadd@exp2,w
  5911  0737  062F               	xorwf	___ftadd@exp1,w
  5912  0738  1903               	skipnz
  5913  0739  2F4D               	goto	i1l2287
  5914  073A  3001               	movlw	1
  5915  073B  02AD               	subwf	___ftadd@sign,f
  5916  073C  082D               	movf	___ftadd@sign,w
  5917  073D  3907               	andlw	7
  5918  073E  1903               	btfsc	3,2
  5919  073F  2F4D               	goto	i1l2287
  5920  0740  2F2C               	goto	i1l2279
  5921  0741                     i1l2285:	
  5922  0741  3001               	movlw	1
  5923  0742                     u248_25:	
  5924  0742  1003               	clrc
  5925  0743  0CA5               	rrf	___ftadd@f1+2,f
  5926  0744  0CA4               	rrf	___ftadd@f1+1,f
  5927  0745  0CA3               	rrf	___ftadd@f1,f
  5928  0746  3EFF               	addlw	-1
  5929  0747  1D03               	skipz
  5930  0748  2F42               	goto	u248_25
  5931  0749  3001               	movlw	1
  5932  074A  00A9               	movwf	??___ftadd
  5933  074B  0829               	movf	??___ftadd,w
  5934  074C  07AF               	addwf	___ftadd@exp1,f
  5935  074D                     i1l2287:	
  5936  074D  082F               	movf	___ftadd@exp1,w
  5937  074E  062E               	xorwf	___ftadd@exp2,w
  5938  074F  1903               	btfsc	3,2
  5939  0750  2F7B               	goto	i1l704
  5940  0751  2F41               	goto	i1l2285
  5941  0752                     i1l2289:	
  5942  0752  082F               	movf	___ftadd@exp1,w
  5943  0753  022E               	subwf	___ftadd@exp2,w
  5944  0754  1803               	skipnc
  5945  0755  2F7B               	goto	i1l704
  5946  0756                     i1l2291:	
  5947  0756  3001               	movlw	1
  5948  0757                     u251_25:	
  5949  0757  1003               	clrc
  5950  0758  0DA3               	rlf	___ftadd@f1,f
  5951  0759  0DA4               	rlf	___ftadd@f1+1,f
  5952  075A  0DA5               	rlf	___ftadd@f1+2,f
  5953  075B  3EFF               	addlw	-1
  5954  075C  1D03               	skipz
  5955  075D  2F57               	goto	u251_25
  5956  075E  3001               	movlw	1
  5957  075F  02AF               	subwf	___ftadd@exp1,f
  5958  0760  082E               	movf	___ftadd@exp2,w
  5959  0761  062F               	xorwf	___ftadd@exp1,w
  5960  0762  1903               	skipnz
  5961  0763  2F77               	goto	i1l2299
  5962  0764  3001               	movlw	1
  5963  0765  02AD               	subwf	___ftadd@sign,f
  5964  0766  082D               	movf	___ftadd@sign,w
  5965  0767  3907               	andlw	7
  5966  0768  1903               	btfsc	3,2
  5967  0769  2F77               	goto	i1l2299
  5968  076A  2F56               	goto	i1l2291
  5969  076B                     i1l2297:	
  5970  076B  3001               	movlw	1
  5971  076C                     u254_25:	
  5972  076C  1003               	clrc
  5973  076D  0CA8               	rrf	___ftadd@f2+2,f
  5974  076E  0CA7               	rrf	___ftadd@f2+1,f
  5975  076F  0CA6               	rrf	___ftadd@f2,f
  5976  0770  3EFF               	addlw	-1
  5977  0771  1D03               	skipz
  5978  0772  2F6C               	goto	u254_25
  5979  0773  3001               	movlw	1
  5980  0774  00A9               	movwf	??___ftadd
  5981  0775  0829               	movf	??___ftadd,w
  5982  0776  07AE               	addwf	___ftadd@exp2,f
  5983  0777                     i1l2299:	
  5984  0777  082F               	movf	___ftadd@exp1,w
  5985  0778  062E               	xorwf	___ftadd@exp2,w
  5986  0779  1D03               	skipz
  5987  077A  2F6B               	goto	i1l2297
  5988  077B                     i1l704:	
  5989  077B  1FAD               	btfss	___ftadd@sign,7
  5990  077C  2F8D               	goto	i1l2303
  5991  077D  30FF               	movlw	255
  5992  077E  06A3               	xorwf	___ftadd@f1,f
  5993  077F  30FF               	movlw	255
  5994  0780  06A4               	xorwf	___ftadd@f1+1,f
  5995  0781  30FF               	movlw	255
  5996  0782  06A5               	xorwf	___ftadd@f1+2,f
  5997  0783  3001               	movlw	1
  5998  0784  07A3               	addwf	___ftadd@f1,f
  5999  0785  3000               	movlw	0
  6000  0786  1803               	skipnc
  6001  0787  3001               	movlw	1
  6002  0788  07A4               	addwf	___ftadd@f1+1,f
  6003  0789  3000               	movlw	0
  6004  078A  1803               	skipnc
  6005  078B  3001               	movlw	1
  6006  078C  07A5               	addwf	___ftadd@f1+2,f
  6007  078D                     i1l2303:	
  6008  078D  1F2D               	btfss	___ftadd@sign,6
  6009  078E  2F9F               	goto	i1l2307
  6010  078F  30FF               	movlw	255
  6011  0790  06A6               	xorwf	___ftadd@f2,f
  6012  0791  30FF               	movlw	255
  6013  0792  06A7               	xorwf	___ftadd@f2+1,f
  6014  0793  30FF               	movlw	255
  6015  0794  06A8               	xorwf	___ftadd@f2+2,f
  6016  0795  3001               	movlw	1
  6017  0796  07A6               	addwf	___ftadd@f2,f
  6018  0797  3000               	movlw	0
  6019  0798  1803               	skipnc
  6020  0799  3001               	movlw	1
  6021  079A  07A7               	addwf	___ftadd@f2+1,f
  6022  079B  3000               	movlw	0
  6023  079C  1803               	skipnc
  6024  079D  3001               	movlw	1
  6025  079E  07A8               	addwf	___ftadd@f2+2,f
  6026  079F                     i1l2307:	
  6027  079F  01AD               	clrf	___ftadd@sign
  6028  07A0  0823               	movf	___ftadd@f1,w
  6029  07A1  07A6               	addwf	___ftadd@f2,f
  6030  07A2  0824               	movf	___ftadd@f1+1,w
  6031  07A3  1103               	clrz
  6032  07A4  1803               	skipnc
  6033  07A5  0A24               	incf	___ftadd@f1+1,w
  6034  07A6  1D03               	btfss	3,2
  6035  07A7  07A7               	addwf	___ftadd@f2+1,f
  6036  07A8  0825               	movf	___ftadd@f1+2,w
  6037  07A9  1103               	clrz
  6038  07AA  1803               	skipnc
  6039  07AB  0A25               	incf	___ftadd@f1+2,w
  6040  07AC  1D03               	btfss	3,2
  6041  07AD  07A8               	addwf	___ftadd@f2+2,f
  6042  07AE  1FA8               	btfss	___ftadd@f2+2,7
  6043  07AF  2FC2               	goto	i1l2317
  6044  07B0  30FF               	movlw	255
  6045  07B1  06A6               	xorwf	___ftadd@f2,f
  6046  07B2  30FF               	movlw	255
  6047  07B3  06A7               	xorwf	___ftadd@f2+1,f
  6048  07B4  30FF               	movlw	255
  6049  07B5  06A8               	xorwf	___ftadd@f2+2,f
  6050  07B6  3001               	movlw	1
  6051  07B7  07A6               	addwf	___ftadd@f2,f
  6052  07B8  3000               	movlw	0
  6053  07B9  1803               	skipnc
  6054  07BA  3001               	movlw	1
  6055  07BB  07A7               	addwf	___ftadd@f2+1,f
  6056  07BC  3000               	movlw	0
  6057  07BD  1803               	skipnc
  6058  07BE  3001               	movlw	1
  6059  07BF  07A8               	addwf	___ftadd@f2+2,f
  6060  07C0  01AD               	clrf	___ftadd@sign
  6061  07C1  0AAD               	incf	___ftadd@sign,f
  6062  07C2                     i1l2317:	
  6063  07C2  0826               	movf	___ftadd@f2,w
  6064  07C3  00F0               	movwf	___ftpack@arg
  6065  07C4  0827               	movf	___ftadd@f2+1,w
  6066  07C5  00F1               	movwf	___ftpack@arg+1
  6067  07C6  0828               	movf	___ftadd@f2+2,w
  6068  07C7  00F2               	movwf	___ftpack@arg+2
  6069  07C8  082F               	movf	___ftadd@exp1,w
  6070  07C9  00A9               	movwf	??___ftadd
  6071  07CA  0829               	movf	??___ftadd,w
  6072  07CB  00F3               	movwf	___ftpack@exp
  6073  07CC  082D               	movf	___ftadd@sign,w
  6074  07CD  00AA               	movwf	??___ftadd+1
  6075  07CE  082A               	movf	??___ftadd+1,w
  6076  07CF  00F4               	movwf	___ftpack@sign
  6077  07D0  120A  158A  2558   	fcall	___ftpack
  6078  07D3  0870               	movf	?___ftpack,w
  6079  07D4  1283               	bcf	3,5	;RP0=0, select bank0
  6080  07D5  1303               	bcf	3,6	;RP1=0, select bank0
  6081  07D6  00A3               	movwf	?___ftadd
  6082  07D7  0871               	movf	?___ftpack+1,w
  6083  07D8  00A4               	movwf	?___ftadd+1
  6084  07D9  0872               	movf	?___ftpack+2,w
  6085  07DA  00A5               	movwf	?___ftadd+2
  6086  07DB  0008               	return
  6087  07DC                     __end_of___ftadd:	
  6088                           
  6089                           	psect	text32
  6090  0AAE                     __ptext32:	
  6091 ;; *************** function ___lwtoft *****************
  6092 ;; Defined at:
  6093 ;;		line 28 in file "C:\Program Files (x86)\Microchip\xc8\v1.33\sources\common\lwtoft.c"
  6094 ;; Parameters:    Size  Location     Type
  6095 ;;  c               2    8[COMMON] unsigned int 
  6096 ;; Auto vars:     Size  Location     Type
  6097 ;;		None
  6098 ;; Return value:  Size  Location     Type
  6099 ;;                  3    8[COMMON] float 
  6100 ;; Registers used:
  6101 ;;		wreg, status,2, status,0, pclath, cstack
  6102 ;; Tracked objects:
  6103 ;;		On entry : 0/0
  6104 ;;		On exit  : 0/0
  6105 ;;		Unchanged: 0/0
  6106 ;; Data sizes:     COMMON   BANK0   BANK1   BANK3   BANK2
  6107 ;;      Params:         3       0       0       0       0
  6108 ;;      Locals:         0       0       0       0       0
  6109 ;;      Temps:          1       0       0       0       0
  6110 ;;      Totals:         4       0       0       0       0
  6111 ;;Total ram usage:        4 bytes
  6112 ;; Hardware stack levels used:    1
  6113 ;; Hardware stack levels required when called:    1
  6114 ;; This function calls:
  6115 ;;		___ftpack
  6116 ;; This function is called by:
  6117 ;;		_ISR
  6118 ;; This function uses a non-reentrant model
  6119 ;;
  6120                           
  6121                           
  6122                           ;psect for function ___lwtoft
  6123  0AAE                     ___lwtoft:	
  6124                           
  6125                           ;incstack = 0
  6126                           ; Regs used in ___lwtoft: [wreg+status,2+status,0+pclath+cstack]
  6127  0AAE  0878               	movf	___lwtoft@c,w
  6128  0AAF  00F0               	movwf	___ftpack@arg
  6129  0AB0  0879               	movf	___lwtoft@c+1,w
  6130  0AB1  00F1               	movwf	___ftpack@arg+1
  6131  0AB2  01F2               	clrf	___ftpack@arg+2
  6132  0AB3  308E               	movlw	142
  6133  0AB4  00FB               	movwf	??___lwtoft
  6134  0AB5  087B               	movf	??___lwtoft,w
  6135  0AB6  00F3               	movwf	___ftpack@exp
  6136  0AB7  01F4               	clrf	___ftpack@sign
  6137  0AB8  120A  158A  2558   	fcall	___ftpack
  6138  0ABB  0870               	movf	?___ftpack,w
  6139  0ABC  00F8               	movwf	?___lwtoft
  6140  0ABD  0871               	movf	?___ftpack+1,w
  6141  0ABE  00F9               	movwf	?___lwtoft+1
  6142  0ABF  0872               	movf	?___ftpack+2,w
  6143  0AC0  00FA               	movwf	?___lwtoft+2
  6144  0AC1  0008               	return
  6145  0AC2                     __end_of___lwtoft:	
  6146                           
  6147                           	psect	text33
  6148  0E2B                     __ptext33:	
  6149 ;; *************** function ___fttol *****************
  6150 ;; Defined at:
  6151 ;;		line 44 in file "C:\Program Files (x86)\Microchip\xc8\v1.33\sources\common\fttol.c"
  6152 ;; Parameters:    Size  Location     Type
  6153 ;;  f1              3   60[BANK0 ] float 
  6154 ;; Auto vars:     Size  Location     Type
  6155 ;;  lval            4   69[BANK0 ] unsigned long 
  6156 ;;  exp1            1   73[BANK0 ] unsigned char 
  6157 ;;  sign1           1   68[BANK0 ] unsigned char 
  6158 ;; Return value:  Size  Location     Type
  6159 ;;                  4   60[BANK0 ] long 
  6160 ;; Registers used:
  6161 ;;		wreg, status,2, status,0
  6162 ;; Tracked objects:
  6163 ;;		On entry : 0/0
  6164 ;;		On exit  : 0/0
  6165 ;;		Unchanged: 0/0
  6166 ;; Data sizes:     COMMON   BANK0   BANK1   BANK3   BANK2
  6167 ;;      Params:         0       4       0       0       0
  6168 ;;      Locals:         0       6       0       0       0
  6169 ;;      Temps:          0       4       0       0       0
  6170 ;;      Totals:         0      14       0       0       0
  6171 ;;Total ram usage:       14 bytes
  6172 ;; Hardware stack levels used:    1
  6173 ;; This function calls:
  6174 ;;		Nothing
  6175 ;; This function is called by:
  6176 ;;		_ISR
  6177 ;; This function uses a non-reentrant model
  6178 ;;
  6179                           
  6180                           
  6181                           ;psect for function ___fttol
  6182  0E2B                     ___fttol:	
  6183                           
  6184                           ;incstack = 0
  6185                           ; Regs used in ___fttol: [wreg+status,2+status,0]
  6186  0E2B  1283               	bcf	3,5	;RP0=0, select bank0
  6187  0E2C  1303               	bcf	3,6	;RP1=0, select bank0
  6188  0E2D  085C               	movf	___fttol@f1,w
  6189  0E2E  00E0               	movwf	??___fttol
  6190  0E2F  085D               	movf	___fttol@f1+1,w
  6191  0E30  00E1               	movwf	??___fttol+1
  6192  0E31  085E               	movf	___fttol@f1+2,w
  6193  0E32  00E2               	movwf	??___fttol+2
  6194  0E33  1003               	clrc
  6195  0E34  0D61               	rlf	??___fttol+1,w
  6196  0E35  0D62               	rlf	??___fttol+2,w
  6197  0E36  00E3               	movwf	??___fttol+3
  6198  0E37  0863               	movf	??___fttol+3,w
  6199  0E38  00E9               	movwf	___fttol@exp1
  6200  0E39  08E9               	movf	___fttol@exp1,f
  6201  0E3A  1D03               	skipz
  6202  0E3B  2E45               	goto	i1l2633
  6203  0E3C  3000               	movlw	0
  6204  0E3D  00DF               	movwf	?___fttol+3
  6205  0E3E  3000               	movlw	0
  6206  0E3F  00DE               	movwf	?___fttol+2
  6207  0E40  3000               	movlw	0
  6208  0E41  00DD               	movwf	?___fttol+1
  6209  0E42  3000               	movlw	0
  6210  0E43  00DC               	movwf	?___fttol
  6211  0E44  0008               	return
  6212  0E45                     i1l2633:	
  6213  0E45  085C               	movf	___fttol@f1,w
  6214  0E46  00E0               	movwf	??___fttol
  6215  0E47  085D               	movf	___fttol@f1+1,w
  6216  0E48  00E1               	movwf	??___fttol+1
  6217  0E49  085E               	movf	___fttol@f1+2,w
  6218  0E4A  00E2               	movwf	??___fttol+2
  6219  0E4B  3017               	movlw	23
  6220  0E4C                     u301_25:	
  6221  0E4C  1003               	clrc
  6222  0E4D  0CE2               	rrf	??___fttol+2,f
  6223  0E4E  0CE1               	rrf	??___fttol+1,f
  6224  0E4F  0CE0               	rrf	??___fttol,f
  6225  0E50  3EFF               	addlw	-1
  6226  0E51  1D03               	skipz
  6227  0E52  2E4C               	goto	u301_25
  6228  0E53  0860               	movf	??___fttol,w
  6229  0E54  00E3               	movwf	??___fttol+3
  6230  0E55  0863               	movf	??___fttol+3,w
  6231  0E56  00E4               	movwf	___fttol@sign1
  6232  0E57  17DD               	bsf	___fttol@f1+1,7
  6233  0E58  30FF               	movlw	255
  6234  0E59  05DC               	andwf	___fttol@f1,f
  6235  0E5A  30FF               	movlw	255
  6236  0E5B  05DD               	andwf	___fttol@f1+1,f
  6237  0E5C  3000               	movlw	0
  6238  0E5D  05DE               	andwf	___fttol@f1+2,f
  6239  0E5E  085C               	movf	___fttol@f1,w
  6240  0E5F  00E5               	movwf	___fttol@lval
  6241  0E60  085D               	movf	___fttol@f1+1,w
  6242  0E61  00E6               	movwf	___fttol@lval+1
  6243  0E62  085E               	movf	___fttol@f1+2,w
  6244  0E63  00E7               	movwf	___fttol@lval+2
  6245  0E64  01E8               	clrf	___fttol@lval+3
  6246  0E65  308E               	movlw	142
  6247  0E66  02E9               	subwf	___fttol@exp1,f
  6248  0E67  1FE9               	btfss	___fttol@exp1,7
  6249  0E68  2E87               	goto	i1l2653
  6250  0E69  0869               	movf	___fttol@exp1,w
  6251  0E6A  3A80               	xorlw	128
  6252  0E6B  3E8F               	addlw	143
  6253  0E6C  1803               	skipnc
  6254  0E6D  2E77               	goto	i1l2651
  6255  0E6E  3000               	movlw	0
  6256  0E6F  00DF               	movwf	?___fttol+3
  6257  0E70  3000               	movlw	0
  6258  0E71  00DE               	movwf	?___fttol+2
  6259  0E72  3000               	movlw	0
  6260  0E73  00DD               	movwf	?___fttol+1
  6261  0E74  3000               	movlw	0
  6262  0E75  00DC               	movwf	?___fttol
  6263  0E76  0008               	return
  6264  0E77                     i1l2651:	
  6265  0E77  3001               	movlw	1
  6266  0E78                     u304_25:	
  6267  0E78  1003               	clrc
  6268  0E79  0CE8               	rrf	___fttol@lval+3,f
  6269  0E7A  0CE7               	rrf	___fttol@lval+2,f
  6270  0E7B  0CE6               	rrf	___fttol@lval+1,f
  6271  0E7C  0CE5               	rrf	___fttol@lval,f
  6272  0E7D  3EFF               	addlw	-1
  6273  0E7E  1D03               	skipz
  6274  0E7F  2E78               	goto	u304_25
  6275  0E80  3001               	movlw	1
  6276  0E81  00E0               	movwf	??___fttol
  6277  0E82  0860               	movf	??___fttol,w
  6278  0E83  07E9               	addwf	___fttol@exp1,f
  6279  0E84  1903               	btfsc	3,2
  6280  0E85  2EA2               	goto	i1l2663
  6281  0E86  2E77               	goto	i1l2651
  6282  0E87                     i1l2653:	
  6283  0E87  3018               	movlw	24
  6284  0E88  0269               	subwf	___fttol@exp1,w
  6285  0E89  1C03               	skipc
  6286  0E8A  2E9F               	goto	i1l2661
  6287  0E8B  3000               	movlw	0
  6288  0E8C  00DF               	movwf	?___fttol+3
  6289  0E8D  3000               	movlw	0
  6290  0E8E  00DE               	movwf	?___fttol+2
  6291  0E8F  3000               	movlw	0
  6292  0E90  00DD               	movwf	?___fttol+1
  6293  0E91  3000               	movlw	0
  6294  0E92  00DC               	movwf	?___fttol
  6295  0E93  0008               	return
  6296  0E94                     i1l2659:	
  6297  0E94  3001               	movlw	1
  6298  0E95  00E0               	movwf	??___fttol
  6299  0E96                     u307_25:	
  6300  0E96  1003               	clrc
  6301  0E97  0DE5               	rlf	___fttol@lval,f
  6302  0E98  0DE6               	rlf	___fttol@lval+1,f
  6303  0E99  0DE7               	rlf	___fttol@lval+2,f
  6304  0E9A  0DE8               	rlf	___fttol@lval+3,f
  6305  0E9B  0BE0               	decfsz	??___fttol,f
  6306  0E9C  2E96               	goto	u307_25
  6307  0E9D  3001               	movlw	1
  6308  0E9E  02E9               	subwf	___fttol@exp1,f
  6309  0E9F                     i1l2661:	
  6310  0E9F  08E9               	movf	___fttol@exp1,f
  6311  0EA0  1D03               	skipz
  6312  0EA1  2E94               	goto	i1l2659
  6313  0EA2                     i1l2663:	
  6314  0EA2  0864               	movf	___fttol@sign1,w
  6315  0EA3  1903               	btfsc	3,2
  6316  0EA4  2EB0               	goto	i1l2667
  6317  0EA5  09E5               	comf	___fttol@lval,f
  6318  0EA6  09E6               	comf	___fttol@lval+1,f
  6319  0EA7  09E7               	comf	___fttol@lval+2,f
  6320  0EA8  09E8               	comf	___fttol@lval+3,f
  6321  0EA9  0AE5               	incf	___fttol@lval,f
  6322  0EAA  1903               	skipnz
  6323  0EAB  0AE6               	incf	___fttol@lval+1,f
  6324  0EAC  1903               	skipnz
  6325  0EAD  0AE7               	incf	___fttol@lval+2,f
  6326  0EAE  1903               	skipnz
  6327  0EAF  0AE8               	incf	___fttol@lval+3,f
  6328  0EB0                     i1l2667:	
  6329  0EB0  0868               	movf	___fttol@lval+3,w
  6330  0EB1  00DF               	movwf	?___fttol+3
  6331  0EB2  0867               	movf	___fttol@lval+2,w
  6332  0EB3  00DE               	movwf	?___fttol+2
  6333  0EB4  0866               	movf	___fttol@lval+1,w
  6334  0EB5  00DD               	movwf	?___fttol+1
  6335  0EB6  0865               	movf	___fttol@lval,w
  6336  0EB7  00DC               	movwf	?___fttol
  6337  0EB8  0008               	return
  6338  0EB9                     __end_of___fttol:	
  6339                           
  6340                           	psect	text34
  6341  0020                     __ptext34:	
  6342 ;; *************** function ___ftmul *****************
  6343 ;; Defined at:
  6344 ;;		line 62 in file "C:\Program Files (x86)\Microchip\xc8\v1.33\sources\common\ftmul.c"
  6345 ;; Parameters:    Size  Location     Type
  6346 ;;  f1              3   44[BANK0 ] float 
  6347 ;;  f2              3   47[BANK0 ] float 
  6348 ;; Auto vars:     Size  Location     Type
  6349 ;;  f3_as_produc    3   55[BANK0 ] unsigned um
  6350 ;;  sign            1   59[BANK0 ] unsigned char 
  6351 ;;  cntr            1   58[BANK0 ] unsigned char 
  6352 ;;  exp             1   54[BANK0 ] unsigned char 
  6353 ;; Return value:  Size  Location     Type
  6354 ;;                  3   44[BANK0 ] float 
  6355 ;; Registers used:
  6356 ;;		wreg, status,2, status,0, pclath, cstack
  6357 ;; Tracked objects:
  6358 ;;		On entry : 0/0
  6359 ;;		On exit  : 0/0
  6360 ;;		Unchanged: 0/0
  6361 ;; Data sizes:     COMMON   BANK0   BANK1   BANK3   BANK2
  6362 ;;      Params:         0       6       0       0       0
  6363 ;;      Locals:         0       6       0       0       0
  6364 ;;      Temps:          0       4       0       0       0
  6365 ;;      Totals:         0      16       0       0       0
  6366 ;;Total ram usage:       16 bytes
  6367 ;; Hardware stack levels used:    1
  6368 ;; Hardware stack levels required when called:    1
  6369 ;; This function calls:
  6370 ;;		___ftpack
  6371 ;; This function is called by:
  6372 ;;		_ISR
  6373 ;; This function uses a non-reentrant model
  6374 ;;
  6375                           
  6376                           
  6377                           ;psect for function ___ftmul
  6378  0020                     ___ftmul:	
  6379                           
  6380                           ;incstack = 0
  6381                           ; Regs used in ___ftmul: [wreg+status,2+status,0+pclath+cstack]
  6382  0020  1283               	bcf	3,5	;RP0=0, select bank0
  6383  0021  1303               	bcf	3,6	;RP1=0, select bank0
  6384  0022  084C               	movf	___ftmul@f1,w
  6385  0023  00D2               	movwf	??___ftmul
  6386  0024  084D               	movf	___ftmul@f1+1,w
  6387  0025  00D3               	movwf	??___ftmul+1
  6388  0026  084E               	movf	___ftmul@f1+2,w
  6389  0027  00D4               	movwf	??___ftmul+2
  6390  0028  1003               	clrc
  6391  0029  0D53               	rlf	??___ftmul+1,w
  6392  002A  0D54               	rlf	??___ftmul+2,w
  6393  002B  00D5               	movwf	??___ftmul+3
  6394  002C  0855               	movf	??___ftmul+3,w
  6395  002D  00D6               	movwf	___ftmul@exp
  6396  002E  08D6               	movf	___ftmul@exp,f
  6397  002F  1D03               	skipz
  6398  0030  2838               	goto	i1l2583
  6399  0031  3000               	movlw	0
  6400  0032  00CC               	movwf	?___ftmul
  6401  0033  3000               	movlw	0
  6402  0034  00CD               	movwf	?___ftmul+1
  6403  0035  3000               	movlw	0
  6404  0036  00CE               	movwf	?___ftmul+2
  6405  0037  0008               	return
  6406  0038                     i1l2583:	
  6407  0038  084F               	movf	___ftmul@f2,w
  6408  0039  00D2               	movwf	??___ftmul
  6409  003A  0850               	movf	___ftmul@f2+1,w
  6410  003B  00D3               	movwf	??___ftmul+1
  6411  003C  0851               	movf	___ftmul@f2+2,w
  6412  003D  00D4               	movwf	??___ftmul+2
  6413  003E  1003               	clrc
  6414  003F  0D53               	rlf	??___ftmul+1,w
  6415  0040  0D54               	rlf	??___ftmul+2,w
  6416  0041  00D5               	movwf	??___ftmul+3
  6417  0042  0855               	movf	??___ftmul+3,w
  6418  0043  00DB               	movwf	___ftmul@sign
  6419  0044  08DB               	movf	___ftmul@sign,f
  6420  0045  1D03               	skipz
  6421  0046  284E               	goto	i1l2589
  6422  0047  3000               	movlw	0
  6423  0048  00CC               	movwf	?___ftmul
  6424  0049  3000               	movlw	0
  6425  004A  00CD               	movwf	?___ftmul+1
  6426  004B  3000               	movlw	0
  6427  004C  00CE               	movwf	?___ftmul+2
  6428  004D  0008               	return
  6429  004E                     i1l2589:	
  6430  004E  085B               	movf	___ftmul@sign,w
  6431  004F  3E7B               	addlw	123
  6432  0050  00D2               	movwf	??___ftmul
  6433  0051  0852               	movf	??___ftmul,w
  6434  0052  07D6               	addwf	___ftmul@exp,f
  6435  0053  084C               	movf	___ftmul@f1,w
  6436  0054  00D2               	movwf	??___ftmul
  6437  0055  084D               	movf	___ftmul@f1+1,w
  6438  0056  00D3               	movwf	??___ftmul+1
  6439  0057  084E               	movf	___ftmul@f1+2,w
  6440  0058  00D4               	movwf	??___ftmul+2
  6441  0059  3010               	movlw	16
  6442  005A                     u288_25:	
  6443  005A  1003               	clrc
  6444  005B  0CD4               	rrf	??___ftmul+2,f
  6445  005C  0CD3               	rrf	??___ftmul+1,f
  6446  005D  0CD2               	rrf	??___ftmul,f
  6447  005E  3EFF               	addlw	-1
  6448  005F  1D03               	skipz
  6449  0060  285A               	goto	u288_25
  6450  0061  0852               	movf	??___ftmul,w
  6451  0062  00D5               	movwf	??___ftmul+3
  6452  0063  0855               	movf	??___ftmul+3,w
  6453  0064  00DB               	movwf	___ftmul@sign
  6454  0065  084F               	movf	___ftmul@f2,w
  6455  0066  00D2               	movwf	??___ftmul
  6456  0067  0850               	movf	___ftmul@f2+1,w
  6457  0068  00D3               	movwf	??___ftmul+1
  6458  0069  0851               	movf	___ftmul@f2+2,w
  6459  006A  00D4               	movwf	??___ftmul+2
  6460  006B  3010               	movlw	16
  6461  006C                     u289_25:	
  6462  006C  1003               	clrc
  6463  006D  0CD4               	rrf	??___ftmul+2,f
  6464  006E  0CD3               	rrf	??___ftmul+1,f
  6465  006F  0CD2               	rrf	??___ftmul,f
  6466  0070  3EFF               	addlw	-1
  6467  0071  1D03               	skipz
  6468  0072  286C               	goto	u289_25
  6469  0073  0852               	movf	??___ftmul,w
  6470  0074  00D5               	movwf	??___ftmul+3
  6471  0075  0855               	movf	??___ftmul+3,w
  6472  0076  06DB               	xorwf	___ftmul@sign,f
  6473  0077  3080               	movlw	128
  6474  0078  00D2               	movwf	??___ftmul
  6475  0079  0852               	movf	??___ftmul,w
  6476  007A  05DB               	andwf	___ftmul@sign,f
  6477  007B  17CD               	bsf	___ftmul@f1+1,7
  6478  007C  17D0               	bsf	___ftmul@f2+1,7
  6479  007D  30FF               	movlw	255
  6480  007E  05CF               	andwf	___ftmul@f2,f
  6481  007F  30FF               	movlw	255
  6482  0080  05D0               	andwf	___ftmul@f2+1,f
  6483  0081  3000               	movlw	0
  6484  0082  05D1               	andwf	___ftmul@f2+2,f
  6485  0083  3000               	movlw	0
  6486  0084  00D7               	movwf	___ftmul@f3_as_product
  6487  0085  3000               	movlw	0
  6488  0086  00D8               	movwf	___ftmul@f3_as_product+1
  6489  0087  3000               	movlw	0
  6490  0088  00D9               	movwf	___ftmul@f3_as_product+2
  6491  0089  3007               	movlw	7
  6492  008A  00D2               	movwf	??___ftmul
  6493  008B  0852               	movf	??___ftmul,w
  6494  008C  00DA               	movwf	___ftmul@cntr
  6495  008D                     i1l2601:	
  6496  008D  1C4C               	btfss	___ftmul@f1,0
  6497  008E  289D               	goto	i1l2605
  6498  008F  084F               	movf	___ftmul@f2,w
  6499  0090  07D7               	addwf	___ftmul@f3_as_product,f
  6500  0091  0850               	movf	___ftmul@f2+1,w
  6501  0092  1103               	clrz
  6502  0093  1803               	skipnc
  6503  0094  0A50               	incf	___ftmul@f2+1,w
  6504  0095  1D03               	btfss	3,2
  6505  0096  07D8               	addwf	___ftmul@f3_as_product+1,f
  6506  0097  0851               	movf	___ftmul@f2+2,w
  6507  0098  1103               	clrz
  6508  0099  1803               	skipnc
  6509  009A  0A51               	incf	___ftmul@f2+2,w
  6510  009B  1D03               	btfss	3,2
  6511  009C  07D9               	addwf	___ftmul@f3_as_product+2,f
  6512  009D                     i1l2605:	
  6513  009D  3001               	movlw	1
  6514  009E                     u292_25:	
  6515  009E  1003               	clrc
  6516  009F  0CCE               	rrf	___ftmul@f1+2,f
  6517  00A0  0CCD               	rrf	___ftmul@f1+1,f
  6518  00A1  0CCC               	rrf	___ftmul@f1,f
  6519  00A2  3EFF               	addlw	-1
  6520  00A3  1D03               	skipz
  6521  00A4  289E               	goto	u292_25
  6522  00A5  3001               	movlw	1
  6523  00A6                     u293_25:	
  6524  00A6  1003               	clrc
  6525  00A7  0DCF               	rlf	___ftmul@f2,f
  6526  00A8  0DD0               	rlf	___ftmul@f2+1,f
  6527  00A9  0DD1               	rlf	___ftmul@f2+2,f
  6528  00AA  3EFF               	addlw	-1
  6529  00AB  1D03               	skipz
  6530  00AC  28A6               	goto	u293_25
  6531  00AD  3001               	movlw	1
  6532  00AE  02DA               	subwf	___ftmul@cntr,f
  6533  00AF  1D03               	btfss	3,2
  6534  00B0  288D               	goto	i1l2601
  6535  00B1  3009               	movlw	9
  6536  00B2  00D2               	movwf	??___ftmul
  6537  00B3  0852               	movf	??___ftmul,w
  6538  00B4  00DA               	movwf	___ftmul@cntr
  6539  00B5                     i1l2613:	
  6540  00B5  1C4C               	btfss	___ftmul@f1,0
  6541  00B6  28C5               	goto	i1l2617
  6542  00B7  084F               	movf	___ftmul@f2,w
  6543  00B8  07D7               	addwf	___ftmul@f3_as_product,f
  6544  00B9  0850               	movf	___ftmul@f2+1,w
  6545  00BA  1103               	clrz
  6546  00BB  1803               	skipnc
  6547  00BC  0A50               	incf	___ftmul@f2+1,w
  6548  00BD  1D03               	btfss	3,2
  6549  00BE  07D8               	addwf	___ftmul@f3_as_product+1,f
  6550  00BF  0851               	movf	___ftmul@f2+2,w
  6551  00C0  1103               	clrz
  6552  00C1  1803               	skipnc
  6553  00C2  0A51               	incf	___ftmul@f2+2,w
  6554  00C3  1D03               	btfss	3,2
  6555  00C4  07D9               	addwf	___ftmul@f3_as_product+2,f
  6556  00C5                     i1l2617:	
  6557  00C5  3001               	movlw	1
  6558  00C6                     u297_25:	
  6559  00C6  1003               	clrc
  6560  00C7  0CCE               	rrf	___ftmul@f1+2,f
  6561  00C8  0CCD               	rrf	___ftmul@f1+1,f
  6562  00C9  0CCC               	rrf	___ftmul@f1,f
  6563  00CA  3EFF               	addlw	-1
  6564  00CB  1D03               	skipz
  6565  00CC  28C6               	goto	u297_25
  6566  00CD  3001               	movlw	1
  6567  00CE                     u298_25:	
  6568  00CE  1003               	clrc
  6569  00CF  0CD9               	rrf	___ftmul@f3_as_product+2,f
  6570  00D0  0CD8               	rrf	___ftmul@f3_as_product+1,f
  6571  00D1  0CD7               	rrf	___ftmul@f3_as_product,f
  6572  00D2  3EFF               	addlw	-1
  6573  00D3  1D03               	skipz
  6574  00D4  28CE               	goto	u298_25
  6575  00D5  3001               	movlw	1
  6576  00D6  02DA               	subwf	___ftmul@cntr,f
  6577  00D7  1D03               	btfss	3,2
  6578  00D8  28B5               	goto	i1l2613
  6579  00D9  0857               	movf	___ftmul@f3_as_product,w
  6580  00DA  00F0               	movwf	___ftpack@arg
  6581  00DB  0858               	movf	___ftmul@f3_as_product+1,w
  6582  00DC  00F1               	movwf	___ftpack@arg+1
  6583  00DD  0859               	movf	___ftmul@f3_as_product+2,w
  6584  00DE  00F2               	movwf	___ftpack@arg+2
  6585  00DF  0856               	movf	___ftmul@exp,w
  6586  00E0  00D2               	movwf	??___ftmul
  6587  00E1  0852               	movf	??___ftmul,w
  6588  00E2  00F3               	movwf	___ftpack@exp
  6589  00E3  085B               	movf	___ftmul@sign,w
  6590  00E4  00D3               	movwf	??___ftmul+1
  6591  00E5  0853               	movf	??___ftmul+1,w
  6592  00E6  00F4               	movwf	___ftpack@sign
  6593  00E7  120A  158A  2558   	fcall	___ftpack
  6594  00EA  0870               	movf	?___ftpack,w
  6595  00EB  1283               	bcf	3,5	;RP0=0, select bank0
  6596  00EC  1303               	bcf	3,6	;RP1=0, select bank0
  6597  00ED  00CC               	movwf	?___ftmul
  6598  00EE  0871               	movf	?___ftpack+1,w
  6599  00EF  00CD               	movwf	?___ftmul+1
  6600  00F0  0872               	movf	?___ftpack+2,w
  6601  00F1  00CE               	movwf	?___ftmul+2
  6602  00F2  0008               	return
  6603  00F3                     __end_of___ftmul:	
  6604                           
  6605                           	psect	text35
  6606  0D58                     __ptext35:	
  6607 ;; *************** function ___ftpack *****************
  6608 ;; Defined at:
  6609 ;;		line 62 in file "C:\Program Files (x86)\Microchip\xc8\v1.33\sources\common\float.c"
  6610 ;; Parameters:    Size  Location     Type
  6611 ;;  arg             3    0[COMMON] unsigned um
  6612 ;;  exp             1    3[COMMON] unsigned char 
  6613 ;;  sign            1    4[COMMON] unsigned char 
  6614 ;; Auto vars:     Size  Location     Type
  6615 ;;		None
  6616 ;; Return value:  Size  Location     Type
  6617 ;;                  3    0[COMMON] float 
  6618 ;; Registers used:
  6619 ;;		wreg, status,2, status,0
  6620 ;; Tracked objects:
  6621 ;;		On entry : 0/0
  6622 ;;		On exit  : 0/0
  6623 ;;		Unchanged: 0/0
  6624 ;; Data sizes:     COMMON   BANK0   BANK1   BANK3   BANK2
  6625 ;;      Params:         5       0       0       0       0
  6626 ;;      Locals:         0       0       0       0       0
  6627 ;;      Temps:          3       0       0       0       0
  6628 ;;      Totals:         8       0       0       0       0
  6629 ;;Total ram usage:        8 bytes
  6630 ;; Hardware stack levels used:    1
  6631 ;; This function calls:
  6632 ;;		Nothing
  6633 ;; This function is called by:
  6634 ;;		___ftadd
  6635 ;;		___ftdiv
  6636 ;;		___ftmul
  6637 ;;		___lwtoft
  6638 ;; This function uses a non-reentrant model
  6639 ;;
  6640                           
  6641                           
  6642                           ;psect for function ___ftpack
  6643  0D58                     ___ftpack:	
  6644                           
  6645                           ;incstack = 0
  6646                           ; Regs used in ___ftpack: [wreg+status,2+status,0]
  6647  0D58  0873               	movf	___ftpack@exp,w
  6648  0D59  1903               	btfsc	3,2
  6649  0D5A  2D60               	goto	i1l1983
  6650  0D5B  0872               	movf	___ftpack@arg+2,w
  6651  0D5C  0471               	iorwf	___ftpack@arg+1,w
  6652  0D5D  0470               	iorwf	___ftpack@arg,w
  6653  0D5E  1D03               	skipz
  6654  0D5F  2D73               	goto	i1l1989
  6655  0D60                     i1l1983:	
  6656  0D60  3000               	movlw	0
  6657  0D61  00F0               	movwf	?___ftpack
  6658  0D62  3000               	movlw	0
  6659  0D63  00F1               	movwf	?___ftpack+1
  6660  0D64  3000               	movlw	0
  6661  0D65  00F2               	movwf	?___ftpack+2
  6662  0D66  0008               	return
  6663  0D67                     i1l1987:	
  6664  0D67  3001               	movlw	1
  6665  0D68  00F5               	movwf	??___ftpack
  6666  0D69  0875               	movf	??___ftpack,w
  6667  0D6A  07F3               	addwf	___ftpack@exp,f
  6668  0D6B  3001               	movlw	1
  6669  0D6C                     u178_25:	
  6670  0D6C  1003               	clrc
  6671  0D6D  0CF2               	rrf	___ftpack@arg+2,f
  6672  0D6E  0CF1               	rrf	___ftpack@arg+1,f
  6673  0D6F  0CF0               	rrf	___ftpack@arg,f
  6674  0D70  3EFF               	addlw	-1
  6675  0D71  1D03               	skipz
  6676  0D72  2D6C               	goto	u178_25
  6677  0D73                     i1l1989:	
  6678  0D73  30FE               	movlw	254
  6679  0D74  0572               	andwf	___ftpack@arg+2,w
  6680  0D75  1903               	btfsc	3,2
  6681  0D76  2D8E               	goto	i1l675
  6682  0D77  2D67               	goto	i1l1987
  6683  0D78                     i1l1991:	
  6684  0D78  3001               	movlw	1
  6685  0D79  00F5               	movwf	??___ftpack
  6686  0D7A  0875               	movf	??___ftpack,w
  6687  0D7B  07F3               	addwf	___ftpack@exp,f
  6688  0D7C  3001               	movlw	1
  6689  0D7D  07F0               	addwf	___ftpack@arg,f
  6690  0D7E  3000               	movlw	0
  6691  0D7F  1803               	skipnc
  6692  0D80  3001               	movlw	1
  6693  0D81  07F1               	addwf	___ftpack@arg+1,f
  6694  0D82  3000               	movlw	0
  6695  0D83  1803               	skipnc
  6696  0D84  3001               	movlw	1
  6697  0D85  07F2               	addwf	___ftpack@arg+2,f
  6698  0D86  3001               	movlw	1
  6699  0D87                     u180_25:	
  6700  0D87  1003               	clrc
  6701  0D88  0CF2               	rrf	___ftpack@arg+2,f
  6702  0D89  0CF1               	rrf	___ftpack@arg+1,f
  6703  0D8A  0CF0               	rrf	___ftpack@arg,f
  6704  0D8B  3EFF               	addlw	-1
  6705  0D8C  1D03               	skipz
  6706  0D8D  2D87               	goto	u180_25
  6707  0D8E                     i1l675:	
  6708  0D8E  30FF               	movlw	255
  6709  0D8F  0572               	andwf	___ftpack@arg+2,w
  6710  0D90  1903               	btfsc	3,2
  6711  0D91  2D9D               	goto	i1l1999
  6712  0D92  2D78               	goto	i1l1991
  6713  0D93                     i1l1997:	
  6714  0D93  3001               	movlw	1
  6715  0D94  02F3               	subwf	___ftpack@exp,f
  6716  0D95  3001               	movlw	1
  6717  0D96                     u182_25:	
  6718  0D96  1003               	clrc
  6719  0D97  0DF0               	rlf	___ftpack@arg,f
  6720  0D98  0DF1               	rlf	___ftpack@arg+1,f
  6721  0D99  0DF2               	rlf	___ftpack@arg+2,f
  6722  0D9A  3EFF               	addlw	-1
  6723  0D9B  1D03               	skipz
  6724  0D9C  2D96               	goto	u182_25
  6725  0D9D                     i1l1999:	
  6726  0D9D  1FF1               	btfss	___ftpack@arg+1,7
  6727  0D9E  2D93               	goto	i1l1997
  6728  0D9F  1873               	btfsc	___ftpack@exp,0
  6729  0DA0  2DA7               	goto	i1l681
  6730  0DA1  30FF               	movlw	255
  6731  0DA2  05F0               	andwf	___ftpack@arg,f
  6732  0DA3  307F               	movlw	127
  6733  0DA4  05F1               	andwf	___ftpack@arg+1,f
  6734  0DA5  30FF               	movlw	255
  6735  0DA6  05F2               	andwf	___ftpack@arg+2,f
  6736  0DA7                     i1l681:	
  6737  0DA7  1003               	clrc
  6738  0DA8  0CF3               	rrf	___ftpack@exp,f
  6739  0DA9  0873               	movf	___ftpack@exp,w
  6740  0DAA  00F5               	movwf	??___ftpack
  6741  0DAB  01F6               	clrf	??___ftpack+1
  6742  0DAC  01F7               	clrf	??___ftpack+2
  6743  0DAD  3010               	movlw	16
  6744  0DAE                     u185_25:	
  6745  0DAE  1003               	clrc
  6746  0DAF  0DF5               	rlf	??___ftpack,f
  6747  0DB0  0DF6               	rlf	??___ftpack+1,f
  6748  0DB1  0DF7               	rlf	??___ftpack+2,f
  6749  0DB2  3EFF               	addlw	-1
  6750  0DB3  1D03               	skipz
  6751  0DB4  2DAE               	goto	u185_25
  6752  0DB5  0875               	movf	??___ftpack,w
  6753  0DB6  04F0               	iorwf	___ftpack@arg,f
  6754  0DB7  0876               	movf	??___ftpack+1,w
  6755  0DB8  04F1               	iorwf	___ftpack@arg+1,f
  6756  0DB9  0877               	movf	??___ftpack+2,w
  6757  0DBA  04F2               	iorwf	___ftpack@arg+2,f
  6758  0DBB  0874               	movf	___ftpack@sign,w
  6759  0DBC  1903               	btfsc	3,2
  6760  0DBD  0008               	return
  6761  0DBE  17F2               	bsf	___ftpack@arg+2,7
  6762  0DBF  0008               	return
  6763  0DC0                     __end_of___ftpack:	
  6764  0001                     
  6765                           	psect	functab
  6766  0100                     __pfunctab:	
  6767  0100                     __fptable:	
  6768  0100                     fptable:	
  6769  0100  00FF               	movwf	(btemp+1)& (0+127)
  6770  0101  3001               	movlw	high fptable
  6771  0102  008A               	movwf	10
  6772  0103  087F               	movf	(btemp+1)& (0+127),w
  6773  0104  0782               	addwf	2,f
  6774  0105                     fpbase:	
  6775  0105  2905               	goto	fpbase	; Call via a null pointer and you will get stuck here.
  6776  0106                     fp__putch:	
  6777  0106  120A  118A  2803   	ljmp	_putch
  6778  0109                     __end_of__fptable:	
  6779  007E                     btemp	set	126	;btemp
  6780  007E                     wtemp	set	126
  6781  007E                     wtemp0	set	126
  6782  0080                     wtemp1	set	128
  6783  0082                     wtemp2	set	130
  6784  0084                     wtemp3	set	132
  6785  0086                     wtemp4	set	134
  6786  0088                     wtemp5	set	136
  6787  007F                     wtemp6	set	127
  6788  007E                     ttemp	set	126
  6789  007E                     ttemp0	set	126
  6790  0081                     ttemp1	set	129
  6791  0084                     ttemp2	set	132
  6792  0087                     ttemp3	set	135
  6793  007F                     ttemp4	set	127
  6794  007E                     ltemp	set	126
  6795  007E                     ltemp0	set	126
  6796  0082                     ltemp1	set	130
  6797  0086                     ltemp2	set	134
  6798  0080                     ltemp3	set	128


Data Sizes:
    Strings     127
    Constant    10
    Data        0
    BSS         27
    Persistent  0
    Stack       0

Auto Spaces:
    Space          Size  Autos    Used
    COMMON           14     14      14
    BANK0            80     80      80
    BANK1            80     44      71
    BANK3            96      0       0
    BANK2            96      0       0

Pointer List with Targets:

    sprintf@f	PTR const unsigned char  size(1) Largest target is 5
		 -> STR_9(CODE[5]), 

    sprintf@ap	PTR void [1] size(1) Largest target is 2
		 -> ?_sprintf(BANK1[2]), ?_printf(COMMON[2]), 

    sprintf@wh	PTR unsigned char  size(1) Largest target is 10
		 -> display(BANK1[10]), 

    pb.func	PTR FTN(unsigned char ,)void  size(1) Largest target is 0
		 -> putch(), Absolute function(), 

    pb.ptr	PTR unsigned char  size(1) Largest target is 10
		 -> NULL(NULL[0]), display(BANK1[10]), 

    pb.func	PTR FTN(unsigned char ,)void  size(1) Largest target is 0
		 -> putch(), Absolute function(), 

    pb.ptr	PTR unsigned char  size(1) Largest target is 10
		 -> NULL(NULL[0]), display(BANK1[10]), 

    _doprnt@ap	PTR PTR void  size(1) Largest target is 2
		 -> sprintf@ap(BANK1[1]), printf@ap(COMMON[1]), 

    _doprnt@f	PTR const unsigned char  size(1) Largest target is 5
		 -> STR_9(CODE[5]), STR_5(CODE[2]), STR_4(CODE[2]), STR_3(CODE[2]), 
		 -> STR_2(CODE[2]), STR_1(CODE[2]), 

    S1187__prbuf$func	PTR FTN(unsigned char ,)void  size(1) Largest target is 0
		 -> putch(), Absolute function(), 

    _doprnt@pb.func	PTR FTN(unsigned char ,)void  size(1) Largest target is 0
		 -> putch(), Absolute function(), 

    S1187__prbuf$ptr	PTR unsigned char  size(1) Largest target is 10
		 -> NULL(NULL[0]), display(BANK1[10]), 

    _doprnt@pb.ptr	PTR unsigned char  size(1) Largest target is 10
		 -> NULL(NULL[0]), display(BANK1[10]), 

    _doprnt@pb	PTR struct __prbuf size(1) Largest target is 3
		 -> sprintf@pb(BANK1[2]), printf@pb(COMMON[2]), 

    S1213$_cp	PTR const unsigned char  size(1) Largest target is 0

    _val._str._cp	PTR const unsigned char  size(1) Largest target is 0

    LCD_WriteString@Str	PTR const unsigned char  size(2) Largest target is 17
		 -> STR_11(CODE[6]), display(BANK1[10]), STR_8(CODE[17]), 

    USART_WriteString@str	PTR const unsigned char  size(2) Largest target is 40
		 -> STR_12(CODE[40]), STR_10(CODE[3]), display(BANK1[10]), STR_7(CODE[20]), 
		 -> STR_6(CODE[29]), 


Critical Paths under _main in COMMON

    None.

Critical Paths under _ISR in COMMON

    _ISR->i1_PWM_DutyCycle2
    i1_PWM_DutyCycle2->___lwtoft
    _triangular->___ftge
    _triangular->___lwtoft
    ___ftneg->___lwtoft
    ___ftdiv->___lwtoft
    ___ftadd->___lwtoft
    ___lwtoft->___ftpack
    ___fttol->___lwtoft
    ___ftmul->___lwtoft

Critical Paths under _main in BANK0

    None.

Critical Paths under _ISR in BANK0

    _ISR->i1_PWM_DutyCycle2
    i1_PWM_DutyCycle2->___fttol
    _triangular->___ftdiv
    ___ftdiv->___ftadd
    ___ftadd->___ftneg
    ___fttol->___ftmul
    ___ftmul->_triangular

Critical Paths under _main in BANK1

    _main->_sprintf
    _sprintf->__doprnt
    __doprnt->___lwmod
    ___lwmod->___lwdiv
    _USART_WriteString->_USART_WriteChar
    _USART_Init->___aldiv
    _LCD_WriteString->_LCD_WriteData
    _LCD_Init->_LCD_WriteCmd
    _LCD_Clear->_LCD_WriteCmd

Critical Paths under _ISR in BANK1

    None.

Critical Paths under _main in BANK3

    None.

Critical Paths under _ISR in BANK3

    None.

Critical Paths under _main in BANK2

    None.

Critical Paths under _ISR in BANK2

    None.

Call Graph Tables:

 ---------------------------------------------------------------------------------
 (Depth) Function   	        Calls       Base Space   Used Autos Params    Refs
 ---------------------------------------------------------------------------------
 (0) _main                                                 3     3      0    4767
                                             41 BANK1      3     3      0
                           _ADC_Init
                          _LCD_Clear
                         _LCD_Cursor
                           _LCD_Init
                    _LCD_WriteString
                     _PWM_DutyCycle1
                     _PWM_DutyCycle2
                           _PWM_Init
                        _TIMER0_Init
                         _TIMER0_Set
                         _USART_Init
                  _USART_WriteString
                            _sprintf
 ---------------------------------------------------------------------------------
 (1) _sprintf                                              9     6      3    3029
                                             32 BANK1      9     6      3
                            __doprnt
 ---------------------------------------------------------------------------------
 (2) __doprnt                                             15    13      2    2747
                                             17 BANK1     15    13      2
                   Absolute function *
                            ___lwdiv
                            ___lwmod
                             ___wmul
                            _isdigit
                              _putch *
 ---------------------------------------------------------------------------------
 (3) _putch                                                1     0      1     258
                                              3 BANK1      1     0      1
 ---------------------------------------------------------------------------------
 (3) _isdigit                                              2     2      0      68
                                              3 BANK1      2     2      0
 ---------------------------------------------------------------------------------
 (3) ___wmul                                               6     2      4     220
                                              3 BANK1      6     2      4
 ---------------------------------------------------------------------------------
 (3) ___lwmod                                              6     2      4     287
                                             11 BANK1      6     2      4
                            ___lwdiv (ARG)
 ---------------------------------------------------------------------------------
 (3) ___lwdiv                                              8     4      4     290
                                              3 BANK1      8     4      4
 ---------------------------------------------------------------------------------
 (3) Absolute function(Fake)                               1     0      1       0
                                              3 BANK1      1     0      1
 ---------------------------------------------------------------------------------
 (1) _USART_WriteString                                    2     0      2     387
                                              4 BANK1      2     0      2
                    _USART_WriteChar
 ---------------------------------------------------------------------------------
 (2) _USART_WriteChar                                      1     1      0      22
                                              3 BANK1      1     1      0
 ---------------------------------------------------------------------------------
 (1) _USART_Init                                           8     4      4     514
                                             18 BANK1      8     4      4
                            ___aldiv
 ---------------------------------------------------------------------------------
 (2) ___aldiv                                             15     7      8     428
                                              3 BANK1     15     7      8
 ---------------------------------------------------------------------------------
 (1) _TIMER0_Set                                           1     1      0      22
                                              3 BANK1      1     1      0
 ---------------------------------------------------------------------------------
 (1) _TIMER0_Init                                          0     0      0       0
 ---------------------------------------------------------------------------------
 (1) _PWM_Init                                             0     0      0       0
 ---------------------------------------------------------------------------------
 (1) _PWM_DutyCycle2                                       4     2      2     146
                                              3 BANK1      4     2      2
 ---------------------------------------------------------------------------------
 (1) _PWM_DutyCycle1                                       4     2      2     108
                                              3 BANK1      4     2      2
 ---------------------------------------------------------------------------------
 (1) _LCD_WriteString                                      2     0      2     259
                                              5 BANK1      2     0      2
                      _LCD_WriteData
 ---------------------------------------------------------------------------------
 (2) _LCD_WriteData                                        2     2      0      22
                                              3 BANK1      2     2      0
 ---------------------------------------------------------------------------------
 (1) _LCD_Init                                             2     2      0      22
                                              5 BANK1      2     2      0
                       _LCD_WriteCmd
 ---------------------------------------------------------------------------------
 (1) _LCD_Cursor                                           3     2      1     258
                                              3 BANK1      3     2      1
 ---------------------------------------------------------------------------------
 (1) _LCD_Clear                                            2     2      0      22
                                              5 BANK1      2     2      0
                       _LCD_WriteCmd
 ---------------------------------------------------------------------------------
 (2) _LCD_WriteCmd                                         2     2      0      22
                                              3 BANK1      2     2      0
 ---------------------------------------------------------------------------------
 (1) _ADC_Init                                             0     0      0       0
 ---------------------------------------------------------------------------------
 Estimated maximum stack depth 3
 ---------------------------------------------------------------------------------
 (Depth) Function   	        Calls       Base Space   Used Autos Params    Refs
 ---------------------------------------------------------------------------------
 (4) _ISR                                                  7     7      0   23409
                                             76 BANK0      4     4      0
                                              0 BANK1      3     3      0
                            ___ftadd
                            ___ftdiv
                            ___ftmul
                            ___ftneg
                            ___fttol
                           ___lwtoft
                         _triangular
                   i1_PWM_DutyCycle2
                       i1_TIMER0_Set
 ---------------------------------------------------------------------------------
 (5) i1_TIMER0_Set                                         1     1      0      22
                                              0 COMMON     1     1      0
 ---------------------------------------------------------------------------------
 (5) i1_PWM_DutyCycle2                                     4     2      2      70
                                             12 COMMON     2     2      0
                                             74 BANK0      2     0      2
                            ___ftadd (ARG)
                            ___ftmul (ARG)
                            ___ftneg (ARG)
                            ___fttol (ARG)
                           ___lwtoft (ARG)
                         _triangular (ARG)
 ---------------------------------------------------------------------------------
 (5) _triangular                                          12     0     12   10355
                                             32 BANK0     12     0     12
                            ___ftadd
                            ___ftdiv
                             ___ftge
                            ___ftneg
                           ___lwtoft (ARG)
 ---------------------------------------------------------------------------------
 (6) ___ftneg                                              3     0      3     621
                                              0 BANK0      3     0      3
                           ___lwtoft (ARG)
 ---------------------------------------------------------------------------------
 (6) ___ftge                                              12     6      6    1928
                                              0 COMMON    12     6      6
 ---------------------------------------------------------------------------------
 (6) ___ftdiv                                             16    10      6    2968
                                             16 BANK0     16    10      6
                            ___ftadd (ARG)
                            ___ftneg (ARG)
                           ___ftpack
                           ___lwtoft (ARG)
 ---------------------------------------------------------------------------------
 (6) ___ftadd                                             13     7      6    4142
                                              3 BANK0     13     7      6
                            ___ftneg (ARG)
                           ___ftpack
                           ___lwtoft (ARG)
 ---------------------------------------------------------------------------------
 (5) ___lwtoft                                             4     1      3    2198
                                              8 COMMON     4     1      3
                           ___ftpack
 ---------------------------------------------------------------------------------
 (5) ___fttol                                             14    10      4     380
                                             60 BANK0     14    10      4
                            ___ftadd (ARG)
                            ___ftdiv (ARG)
                            ___ftmul (ARG)
                            ___ftneg (ARG)
                           ___lwtoft (ARG)
                         _triangular (ARG)
 ---------------------------------------------------------------------------------
 (5) ___ftmul                                             16    10      6    2630
                                             44 BANK0     16    10      6
                            ___ftadd (ARG)
                            ___ftdiv (ARG)
                            ___ftneg (ARG)
                           ___ftpack
                           ___lwtoft (ARG)
                         _triangular (ARG)
 ---------------------------------------------------------------------------------
 (7) ___ftpack                                             8     3      5    2048
                                              0 COMMON     8     3      5
 ---------------------------------------------------------------------------------
 Estimated maximum stack depth 7
 ---------------------------------------------------------------------------------

 Call Graph Graphs:

 _main (ROOT)
   _ADC_Init
   _LCD_Clear
     _LCD_WriteCmd
   _LCD_Cursor
   _LCD_Init
     _LCD_WriteCmd
   _LCD_WriteString
     _LCD_WriteData
   _PWM_DutyCycle1
   _PWM_DutyCycle2
   _PWM_Init
   _TIMER0_Init
   _TIMER0_Set
   _USART_Init
     ___aldiv
   _USART_WriteString
     _USART_WriteChar
   _sprintf
     __doprnt
       Absolute function(Fake) *
       ___lwdiv *
       ___lwmod *
         ___lwdiv (ARG)
       ___wmul *
       _isdigit *
       _putch *

 _ISR (ROOT)
   ___ftadd
     ___ftneg (ARG)
       ___lwtoft (ARG)
         ___ftpack
     ___ftpack (ARG)
     ___lwtoft (ARG)
       ___ftpack
   ___ftdiv
     ___ftadd (ARG)
       ___ftneg (ARG)
         ___lwtoft (ARG)
           ___ftpack
       ___ftpack (ARG)
       ___lwtoft (ARG)
         ___ftpack
     ___ftneg (ARG)
       ___lwtoft (ARG)
         ___ftpack
     ___ftpack (ARG)
     ___lwtoft (ARG)
       ___ftpack
   ___ftmul
     ___ftadd (ARG)
       ___ftneg (ARG)
         ___lwtoft (ARG)
           ___ftpack
       ___ftpack (ARG)
       ___lwtoft (ARG)
         ___ftpack
     ___ftdiv (ARG)
       ___ftadd (ARG)
         ___ftneg (ARG)
           ___lwtoft (ARG)
             ___ftpack
         ___ftpack (ARG)
         ___lwtoft (ARG)
           ___ftpack
       ___ftneg (ARG)
         ___lwtoft (ARG)
           ___ftpack
       ___ftpack (ARG)
       ___lwtoft (ARG)
         ___ftpack
     ___ftneg (ARG)
       ___lwtoft (ARG)
         ___ftpack
     ___ftpack (ARG)
     ___lwtoft (ARG)
       ___ftpack
     _triangular (ARG)
       ___ftadd
         ___ftneg (ARG)
           ___lwtoft (ARG)
             ___ftpack
         ___ftpack (ARG)
         ___lwtoft (ARG)
           ___ftpack
       ___ftdiv
         ___ftadd (ARG)
           ___ftneg (ARG)
             ___lwtoft (ARG)
               ___ftpack
           ___ftpack (ARG)
           ___lwtoft (ARG)
             ___ftpack
         ___ftneg (ARG)
           ___lwtoft (ARG)
             ___ftpack
         ___ftpack (ARG)
         ___lwtoft (ARG)
           ___ftpack
       ___ftge
       ___ftneg
         ___lwtoft (ARG)
           ___ftpack
       ___lwtoft (ARG)
         ___ftpack
   ___ftneg
     ___lwtoft (ARG)
       ___ftpack
   ___fttol
     ___ftadd (ARG)
       ___ftneg (ARG)
         ___lwtoft (ARG)
           ___ftpack
       ___ftpack (ARG)
       ___lwtoft (ARG)
         ___ftpack
     ___ftdiv (ARG)
       ___ftadd (ARG)
         ___ftneg (ARG)
           ___lwtoft (ARG)
             ___ftpack
         ___ftpack (ARG)
         ___lwtoft (ARG)
           ___ftpack
       ___ftneg (ARG)
         ___lwtoft (ARG)
           ___ftpack
       ___ftpack (ARG)
       ___lwtoft (ARG)
         ___ftpack
     ___ftmul (ARG)
       ___ftadd (ARG)
         ___ftneg (ARG)
           ___lwtoft (ARG)
             ___ftpack
         ___ftpack (ARG)
         ___lwtoft (ARG)
           ___ftpack
       ___ftdiv (ARG)
         ___ftadd (ARG)
           ___ftneg (ARG)
             ___lwtoft (ARG)
               ___ftpack
           ___ftpack (ARG)
           ___lwtoft (ARG)
             ___ftpack
         ___ftneg (ARG)
           ___lwtoft (ARG)
             ___ftpack
         ___ftpack (ARG)
         ___lwtoft (ARG)
           ___ftpack
       ___ftneg (ARG)
         ___lwtoft (ARG)
           ___ftpack
       ___ftpack (ARG)
       ___lwtoft (ARG)
         ___ftpack
       _triangular (ARG)
         ___ftadd
           ___ftneg (ARG)
             ___lwtoft (ARG)
               ___ftpack
           ___ftpack (ARG)
           ___lwtoft (ARG)
             ___ftpack
         ___ftdiv
           ___ftadd (ARG)
             ___ftneg (ARG)
               ___lwtoft (ARG)
                 ___ftpack
             ___ftpack (ARG)
             ___lwtoft (ARG)
               ___ftpack
           ___ftneg (ARG)
             ___lwtoft (ARG)
               ___ftpack
           ___ftpack (ARG)
           ___lwtoft (ARG)
             ___ftpack
         ___ftge
         ___ftneg
           ___lwtoft (ARG)
             ___ftpack
         ___lwtoft (ARG)
           ___ftpack
     ___ftneg (ARG)
       ___lwtoft (ARG)
         ___ftpack
     ___lwtoft (ARG)
       ___ftpack
     _triangular (ARG)
       ___ftadd
         ___ftneg (ARG)
           ___lwtoft (ARG)
             ___ftpack
         ___ftpack (ARG)
         ___lwtoft (ARG)
           ___ftpack
       ___ftdiv
         ___ftadd (ARG)
           ___ftneg (ARG)
             ___lwtoft (ARG)
               ___ftpack
           ___ftpack (ARG)
           ___lwtoft (ARG)
             ___ftpack
         ___ftneg (ARG)
           ___lwtoft (ARG)
             ___ftpack
         ___ftpack (ARG)
         ___lwtoft (ARG)
           ___ftpack
       ___ftge
       ___ftneg
         ___lwtoft (ARG)
           ___ftpack
       ___lwtoft (ARG)
         ___ftpack
   ___lwtoft
     ___ftpack
   _triangular
     ___ftadd
       ___ftneg (ARG)
         ___lwtoft (ARG)
           ___ftpack
       ___ftpack (ARG)
       ___lwtoft (ARG)
         ___ftpack
     ___ftdiv
       ___ftadd (ARG)
         ___ftneg (ARG)
           ___lwtoft (ARG)
             ___ftpack
         ___ftpack (ARG)
         ___lwtoft (ARG)
           ___ftpack
       ___ftneg (ARG)
         ___lwtoft (ARG)
           ___ftpack
       ___ftpack (ARG)
       ___lwtoft (ARG)
         ___ftpack
     ___ftge
     ___ftneg
       ___lwtoft (ARG)
         ___ftpack
     ___lwtoft (ARG)
       ___ftpack
   i1_PWM_DutyCycle2
     ___ftadd (ARG)
       ___ftneg (ARG)
         ___lwtoft (ARG)
           ___ftpack
       ___ftpack (ARG)
       ___lwtoft (ARG)
         ___ftpack
     ___ftmul (ARG)
       ___ftadd (ARG)
         ___ftneg (ARG)
           ___lwtoft (ARG)
             ___ftpack
         ___ftpack (ARG)
         ___lwtoft (ARG)
           ___ftpack
       ___ftdiv (ARG)
         ___ftadd (ARG)
           ___ftneg (ARG)
             ___lwtoft (ARG)
               ___ftpack
           ___ftpack (ARG)
           ___lwtoft (ARG)
             ___ftpack
         ___ftneg (ARG)
           ___lwtoft (ARG)
             ___ftpack
         ___ftpack (ARG)
         ___lwtoft (ARG)
           ___ftpack
       ___ftneg (ARG)
         ___lwtoft (ARG)
           ___ftpack
       ___ftpack (ARG)
       ___lwtoft (ARG)
         ___ftpack
       _triangular (ARG)
         ___ftadd
           ___ftneg (ARG)
             ___lwtoft (ARG)
               ___ftpack
           ___ftpack (ARG)
           ___lwtoft (ARG)
             ___ftpack
         ___ftdiv
           ___ftadd (ARG)
             ___ftneg (ARG)
               ___lwtoft (ARG)
                 ___ftpack
             ___ftpack (ARG)
             ___lwtoft (ARG)
               ___ftpack
           ___ftneg (ARG)
             ___lwtoft (ARG)
               ___ftpack
           ___ftpack (ARG)
           ___lwtoft (ARG)
             ___ftpack
         ___ftge
         ___ftneg
           ___lwtoft (ARG)
             ___ftpack
         ___lwtoft (ARG)
           ___ftpack
     ___ftneg (ARG)
       ___lwtoft (ARG)
         ___ftpack
     ___fttol (ARG)
       ___ftadd (ARG)
         ___ftneg (ARG)
           ___lwtoft (ARG)
             ___ftpack
         ___ftpack (ARG)
         ___lwtoft (ARG)
           ___ftpack
       ___ftdiv (ARG)
         ___ftadd (ARG)
           ___ftneg (ARG)
             ___lwtoft (ARG)
               ___ftpack
           ___ftpack (ARG)
           ___lwtoft (ARG)
             ___ftpack
         ___ftneg (ARG)
           ___lwtoft (ARG)
             ___ftpack
         ___ftpack (ARG)
         ___lwtoft (ARG)
           ___ftpack
       ___ftmul (ARG)
         ___ftadd (ARG)
           ___ftneg (ARG)
             ___lwtoft (ARG)
               ___ftpack
           ___ftpack (ARG)
           ___lwtoft (ARG)
             ___ftpack
         ___ftdiv (ARG)
           ___ftadd (ARG)
             ___ftneg (ARG)
               ___lwtoft (ARG)
                 ___ftpack
             ___ftpack (ARG)
             ___lwtoft (ARG)
               ___ftpack
           ___ftneg (ARG)
             ___lwtoft (ARG)
               ___ftpack
           ___ftpack (ARG)
           ___lwtoft (ARG)
             ___ftpack
         ___ftneg (ARG)
           ___lwtoft (ARG)
             ___ftpack
         ___ftpack (ARG)
         ___lwtoft (ARG)
           ___ftpack
         _triangular (ARG)
           ___ftadd
             ___ftneg (ARG)
               ___lwtoft (ARG)
                 ___ftpack
             ___ftpack (ARG)
             ___lwtoft (ARG)
               ___ftpack
           ___ftdiv
             ___ftadd (ARG)
               ___ftneg (ARG)
                 ___lwtoft (ARG)
                   ___ftpack
               ___ftpack (ARG)
               ___lwtoft (ARG)
                 ___ftpack
             ___ftneg (ARG)
               ___lwtoft (ARG)
                 ___ftpack
             ___ftpack (ARG)
             ___lwtoft (ARG)
               ___ftpack
           ___ftge
           ___ftneg
             ___lwtoft (ARG)
               ___ftpack
           ___lwtoft (ARG)
             ___ftpack
       ___ftneg (ARG)
         ___lwtoft (ARG)
           ___ftpack
       ___lwtoft (ARG)
         ___ftpack
       _triangular (ARG)
         ___ftadd
           ___ftneg (ARG)
             ___lwtoft (ARG)
               ___ftpack
           ___ftpack (ARG)
           ___lwtoft (ARG)
             ___ftpack
         ___ftdiv
           ___ftadd (ARG)
             ___ftneg (ARG)
               ___lwtoft (ARG)
                 ___ftpack
             ___ftpack (ARG)
             ___lwtoft (ARG)
               ___ftpack
           ___ftneg (ARG)
             ___lwtoft (ARG)
               ___ftpack
           ___ftpack (ARG)
           ___lwtoft (ARG)
             ___ftpack
         ___ftge
         ___ftneg
           ___lwtoft (ARG)
             ___ftpack
         ___lwtoft (ARG)
           ___ftpack
     ___lwtoft (ARG)
       ___ftpack
     _triangular (ARG)
       ___ftadd
         ___ftneg (ARG)
           ___lwtoft (ARG)
             ___ftpack
         ___ftpack (ARG)
         ___lwtoft (ARG)
           ___ftpack
       ___ftdiv
         ___ftadd (ARG)
           ___ftneg (ARG)
             ___lwtoft (ARG)
               ___ftpack
           ___ftpack (ARG)
           ___lwtoft (ARG)
             ___ftpack
         ___ftneg (ARG)
           ___lwtoft (ARG)
             ___ftpack
         ___ftpack (ARG)
         ___lwtoft (ARG)
           ___ftpack
       ___ftge
       ___ftneg
         ___lwtoft (ARG)
           ___ftpack
       ___lwtoft (ARG)
         ___ftpack
   i1_TIMER0_Set

 Address spaces:
Name               Size   Autos  Total    Cost      Usage
BITCOMMON            E      0       0       0        0.0%
EEDATA             100      0       0       0        0.0%
NULL                 0      0       0       0        0.0%
CODE                 0      0       0       0        0.0%
COMMON               E      E       E       1      100.0%
BITSFR0              0      0       0       1        0.0%
SFR0                 0      0       0       1        0.0%
BITSFR1              0      0       0       2        0.0%
SFR1                 0      0       0       2        0.0%
STACK                0      0       0       2        0.0%
ABS                  0      0      A5       3        0.0%
BITBANK0            50      0       0       4        0.0%
BITSFR3              0      0       0       4        0.0%
SFR3                 0      0       0       4        0.0%
BANK0               50     50      50       5      100.0%
BITSFR2              0      0       0       5        0.0%
SFR2                 0      0       0       5        0.0%
BITBANK1            50      0       0       6        0.0%
BANK1               50     2C      47       7       88.8%
BITBANK3            60      0       0       8        0.0%
BANK3               60      0       0       9        0.0%
BITBANK2            60      0       0      10        0.0%
BANK2               60      0       0      11        0.0%
DATA                 0      0      A5      12        0.0%


Microchip Technology PIC Macro Assembler V1.33 build 59893 
Symbol Table                                                                                   Thu Nov 18 21:57:37 2021

         ?i1_PWM_DutyCycle2 006A                           pc 0002                 ?_LCD_Cursor 00A3  
   __size_of_PWM_DutyCycle1 0021     __size_of_PWM_DutyCycle2 0021                 __CFG_CP$OFF 0000  
               _SSPSTATbits 0094                          fsr 0004         ___wmul@multiplicand 00A5  
        ??i1_PWM_DutyCycle2 007C                ___ftadd@exp1 002F                ___ftadd@exp2 002E  
             _contagens_tm0 00D3                ___ftadd@sign 002D                         l108 066C  
                       l133 00F6                         l403 0212                         l514 0B98  
                       l385 014B                         l569 0ECB                         _PR2 0092  
              __CFG_CPD$OFF 0000                         _ISR 04A0                         _rpm 00D7  
                       fsr0 0004  __size_of_USART_WriteString 0031                         indf 0000  
              __CFG_FOSC$HS 0000           ??_LCD_WriteString 00A7                __CFG_LVP$OFF 0000  
                      ?_ISR 0070                ___ftdiv@cntr 003A                ___ftdiv@sign 003F  
                      l2021 0C8A                        l2101 016D                        l2031 0CAB  
                      l2111 01AB                        l2201 02F4                        l2121 01DD  
                      l2113 01C2                        l2027 0CA0                        l2019 0C7C  
                      l2043 0C44                        l2203 010C                        l2045 0C52  
                      l2053 0C6B                        l2141 0231                        l2133 0204  
                      l2125 01E3                        l2205 0357          LCD_WriteString@Str 00A5  
                      l2151 024E                        l2143 0235                        l2241 0F31  
                      l2049 0C60                        l2161 0278                        l2227 0EEC  
                      l2219 0EDC                        l2155 025F                        l2245 0F3F  
                      l2237 0F24                        l2229 0EFC                        l2173 02A9  
                      l2165 0289                        l2085 0135                        l2167 0292  
                      l2095 0150                        l2185 02DD                        l2177 02BA  
                      l2169 0296                        l2097 015B                        l2089 0147  
                      l2179 02C6                        l2197 0345                        l2189 02EE  
                      l2535 0B38                        l2527 0C0B                        l2549 0BDA  
                      l1963 0A9A                        l1969 0B90                        STR_1 088F  
                      STR_2 0891                        STR_3 0893                        STR_4 0895  
                      STR_5 0897                        STR_6 0842                        STR_7 085F  
                      STR_8 0873                        STR_9 088A                        u2115 0221  
                      u2315 0EFE                        u2075 01FA                        u2325 0F13  
                      u2335 0F25                        u3307 0DDA                        u3317 0DE8  
                      u3407 0BD7                        u3327 0DF4                        u2295 0EF0  
                      u1735 0B99                        u3417 0AD3                        u3337 0E00  
                      u1905 0C8B                        u1745 0BA0                        u3347 0E0E  
                      u1915 0C97                        u3267 0665                        u3357 0E1C  
                      u2805 0B80                        u1925 0CA1                        u3277 06CC  
                      u3367 0E28                        u3287 0AEA                        u2815 0CBD  
                      u3377 0B44                        u3297 0DCA                        u3387 0BBD  
                      u1955 0C47                        u3397 0BCB                        u1885 0C7F  
                      u2855 0B5F                        u1975 0C58                        u1985 0C61  
                      _OERR 00C1                        _TMR0 0001                        _TMR1 000E  
                      _main 05C7                ___ftpack@arg 0070          __size_of_LCD_Clear 0029  
              ___ftpack@exp 0073                        btemp 007E            __end_of_ADC_Init 0AAE  
                      ltemp 007E                        start 0012                        ttemp 007E  
                      wtemp 007E               ?_LCD_WriteCmd 0070               _LCD_WriteData 0AD9  
              ___ftmul@cntr 005A                ___ftmul@sign 005B     __end_of_USART_WriteChar 0100  
                     ??_ISR 006C                ___fttol@exp1 0069                ___fttol@lval 0065  
               ?_TIMER0_Set 0070            __end_of_LCD_Init 0E2B             __end_of___aldiv 0F48  
                     ?_main 0070                       _EEADR 010D             __end_of___ftadd 07DC  
                     STR_10 085C                       STR_11 0884                       STR_12 081A  
             __CFG_WDTE$OFF 0000             __end_of___ftdiv 1000             __end_of___ftneg 0A81  
           __end_of___ftmul 00F3                       _T1CON 0010             __end_of___fttol 0EB9  
           __end_of___lwdiv 0CB2             __end_of___lwmod 0C72                       i1l704 077B  
                     i1l681 0DA7                       i1l675 0D8E                       _RCREG 001A  
                     _TMR1H 000F                       _TMR1L 000E                       _SPBRG 0099  
                     _PORTA 0005                       _PORTB 0006                       _PORTC 0007  
                     _PORTD 0008                       _PORTE 0009             __end_of__doprnt 035C  
                     _TRISA 0085                       _TRISB 0086                       _TRISC 0087  
                     _TRISD 0088                       _TRISE 0089                       _TXREG 0019  
             __CFG_PWRTE$ON 0000             __end_of_dpowers 081A             __end_of_isdigit 0A9C  
             ___ftpack@sign 0074                       _putch 0003                       fpbase 0105  
            __CFG_BOREN$OFF 0000         __size_of_LCD_Cursor 0020                       pclath 000A  
          __end_of_PWM_Init 0800                       ltemp0 007E                       ltemp1 0082  
                     ltemp2 0086                       ltemp3 0080                       ttemp0 007E  
                     ttemp1 0081                       ttemp2 0084                       ttemp3 0087  
                     ttemp4 007F                       status 0003                       wtemp0 007E  
                     wtemp1 0080                       wtemp2 0082                       wtemp3 0084  
                     wtemp4 0086                       wtemp5 0088                       wtemp6 007F  
           __end_of_sprintf 0B2A              ??_LCD_WriteCmd 00A3              ?_LCD_WriteData 0070  
               ?_USART_Init 00B2       i1TIMER0_Set@contagens 0070             __initialization 0015  
              __end_of_main 06D3                      ??_main 00C9               ___fttol@sign1 0064  
              ?_TIMER0_Init 0070           __end_of_LCD_Clear 0BDA                      _ADRESH 001E  
                    _ADRESL 009E                      _EEDATA 010C                      _CCPR1L 0015  
                    _CCPR2L 001B                      _EECON2 018D                      ?_putch 00A3  
          __end_of___ftpack 0DC0                      i1l2303 078D                      i1l2307 079F  
                    i1l2317 07C2                      i1l2261 0703                      i1l2333 0F76  
                    i1l2413 0482                      i1l2405 03FE                      i1l2327 0F60  
                    i1l2601 008D                      i1l2257 06FC                      i1l2291 0756  
                    i1l2267 0712                      i1l2355 0FDA                      i1l2347 0FBB  
                    i1l2371 0D49                      i1l2613 00B5                      i1l2605 009D  
                    i1l2285 0741                      i1l2287 074D                      i1l2279 072C  
                    i1l2367 0D22                      i1l2617 00C5                      i1l2633 0E45  
                    i1l2297 076B                      i1l2289 0752                      i1l2651 0E77  
                    i1l2299 0777                      i1l2661 0E9F                      i1l2653 0E87  
                    i1l2397 037A                      i1l2583 0038                      i1l2663 0EA2  
                    i1l2751 05B7                      i1l2735 04BF                      i1l2753 05B8  
                    i1l2667 0EB0                      i1l2659 0E94                      i1l2589 004E  
                    i1l1991 0D78                      i1l1983 0D60                      i1l1987 0D67  
                    i1l1997 0D93                      i1l1989 0D73                      i1l1999 0D9D  
                    u301_25 0E4C                      u310_25 0B01                      u304_25 0E78  
                    u307_25 0E96                      u251_25 0757                      u180_25 0D87  
                    u245_25 072D                      u182_25 0D96                      u254_25 076C  
                    u262_25 0F88                      u271_21 0D3C                      u271_22 0D3D  
                    u271_23 0D42                      u271_24 0D43                      u263_25 0F9A  
                    u248_25 0742                      u264_25 0FBC                      u185_25 0DAE  
                    u265_25 0FCD            __end_of___lwtoft 0AC2                      u178_25 0D6C  
                    u266_25 0FDB                      u292_25 009E                      u269_21 0D15  
                    u269_22 0D16                      u269_23 0D1B                      u269_24 0D1C  
                    u293_25 00A6         __size_of_TIMER0_Set 0008                      u288_25 005A  
                    u297_25 00C6                      u289_25 006C                      u298_25 00CE  
                    _SSPADD 0093                      _SSPBUF 0013            __end_of__fptable 0109  
          LCD_WriteCmd@Byte 00A4                      ___ftge 0CFB                   ??___aldiv 00AB  
                    ___wmul 0B8C                   ??___ftadd 0029              _PWM_DutyCycle1 0B4A  
            _PWM_DutyCycle2 0B6B            ?_USART_WriteChar 0070                   ??___ftdiv 0036  
                 ??___ftneg 007C                   ??___ftmul 0052                   ??___fttol 0060  
                 ??___lwdiv 00A7                   ??___lwmod 00AF                   ??__doprnt 00B3  
              __doprnt@_val 00B7                __doprnt@flag 00BB                __doprnt@prec 00B6  
                    _pulsos 00D5                      _status 00D9       ___ftmul@f3_as_product 0057  
                    fptable 0100                      fptotal 0001                   ??_isdigit 00A3  
                 ?_ADC_Init 0070                      saved_w 007E         __size_of_USART_Init 0049  
                    putch@c 00A3                   ??_sprintf 00C3               ?i1_TIMER0_Set 0070  
   __end_of__initialization 001C                   ?_LCD_Init 0070                  ___ftadd@f1 0023  
                ___ftadd@f2 0026             ??_LCD_WriteData 00A3                  ___ftge@ff1 0070  
                ___ftge@ff2 0073                  ___ftdiv@f1 0033                  ___ftdiv@f2 0030  
                ___ftdiv@f3 003B                  ___ftneg@f1 0020      __end_of_PWM_DutyCycle1 0B6B  
    __end_of_PWM_DutyCycle2 0B8C                  ___ftmul@f1 004C                  ___ftmul@f2 004F  
                ___fttol@f1 005C              __pcstackCOMMON 0070               LCD_Cursor@Col 00A3  
             LCD_Cursor@Row 00A5                ??_LCD_Cursor 00A4             _LCD_WriteString 0BDA  
             __end_of_putch 0004                  ___lwtoft@c 0078                   ?_PWM_Init 0070  
            _OPTION_REGbits 0081                  ??_ADC_Init 00A3        __end_of_LCD_WriteCmd 0AD9  
 __size_ofi1_PWM_DutyCycle2 001B                  __doprnt@ap 00B2                  __doprnt@pb 00BF  
            ??i1_TIMER0_Set 0070                     ??_putch 00A4                  __pbssBANK1 00CC  
        __end_of_LCD_Cursor 0B4A                  ??_LCD_Init 00A5             ?_PWM_DutyCycle1 00A3  
           ?_PWM_DutyCycle2 00A3                  __pmaintext 05C7                     ?___ftge 0070  
                   ?___wmul 00A3                  __pintentry 0004                ??_TIMER0_Set 00A3  
                   _CCP1CON 0017                     _CCP2CON 001D                   ?___ftpack 0070  
                ??_PWM_Init 00A3                   ?___lwtoft 0078        __size_of_TIMER0_Init 000B  
                   _SSPCON2 0091                  __stringtab 0800          __end_of_TIMER0_Set 0A6F  
   __end_of_LCD_WriteString 0C0B                   _ADCResult 00CF                ??_USART_Init 00B6  
         LCD_WriteData@Byte 00A4                     ___aldiv 0EB9             __size_of___ftge 005D  
                   ___ftadd 06D3                     ___ftdiv 0F48                     ___ftneg 0A77  
           __size_of___wmul 0025                     ___ftmul 0020                     ___fttol 0E2B  
                   ___lwdiv 0C72                     ___lwmod 0C3C                     __doprnt 0109  
                ??___ftpack 0075                     __ptext1 0B0B                     __ptext2 0109  
                   __ptext3 0003                     __ptext4 0A8C                     __ptext5 0B8C  
                   __ptext6 0C3C                     __ptext7 0C72                     __ptext8 0C0B  
                   __ptext9 00F3                  ??___lwtoft 007B                     _display 00DD  
              __size_of_ISR 0127                   _T1CONbits 0010                     _dpowers 0810  
                 _T2CONbits 0012                     _isdigit 0A8C            ___aldiv@dividend 00A7  
                 _LCD_Clear 0BB1          __end_of_USART_Init 0CFB                     _sprintf 0B0B  
                   clrloop0 0A70               __doprnt@width 00BC        end_of_initialization 001C  
                 _RCSTAbits 0018            ___aldiv@quotient 00AE        __end_ofi1_TIMER0_Set 0A67  
     __size_of_LCD_WriteCmd 0017                   _PORTBbits 0006                   _PORTEbits 0009  
                ?_LCD_Clear 0070            i1_PWM_DutyCycle2 0AF0           __size_of_ADC_Init 0012  
              _contador_rb6 00D1                  _triangular 035C         PWM_DutyCycle1@valor 00A3  
       PWM_DutyCycle2@valor 00A3                 _CCP1CONbits 0017                 ___ftdiv@exp 003E  
               _CCP2CONbits 001D                   _TXSTAbits 0098            ?_LCD_WriteString 00A5  
         __size_of_LCD_Init 006B                _LCD_WriteCmd 0AC2                 ___ftmul@exp 0056  
            __end_of___ftge 0D58              __end_of___wmul 0BB1    __size_of_USART_WriteChar 000D  
         __size_of_PWM_Init 0024         start_initialization 0015                 __end_of_ISR 05C7  
          ??_PWM_DutyCycle1 00A5            ??_PWM_DutyCycle2 00A5       __end_of_LCD_WriteData 0AF0  
                  ??___ftge 0076                    ??___wmul 00A7                 triangular@a 0043  
               triangular@b 0046                 triangular@c 0049                 triangular@x 0040  
         __size_of___ftpack 0068                   ___latbits 0002           __size_of___lwtoft 0014  
             __pcstackBANK0 0020               __pcstackBANK1 00A0                 ??_LCD_Clear 00A5  
       __end_of__stringdata 0899           __size_of__fptable 0009                _isdigit$1416 00A3  
               ?_triangular 0040                   __doprnt@c 00BE                   __doprnt@f 00B1  
     __size_ofi1_TIMER0_Set 0006            ___lwdiv@dividend 00A5         TIMER0_Set@contagens 00A3  
                 __pfunctab 0100                    ?___aldiv 00A3                    ?___ftadd 0023  
                  ?___ftdiv 0030                    ?___ftneg 0020                    ?___ftmul 004C  
                  ?___fttol 005C                    ?___lwdiv 00A3                    ?___lwmod 00AB  
                  ?__doprnt 00B1                   __pstrings 0800               ??_TIMER0_Init 00A3  
        USART_Init@BaudRate 00B2                    ?_isdigit 0070                    _ADC_Init 0A9C  
          ___lwdiv@quotient 00A8                    ?_sprintf 00C0              __size_of_putch 0001  
                  _ISR$1731 00A0           ??_USART_WriteChar 00A3                i1_TIMER0_Set 0A61  
           ___aldiv@divisor 00A3           interrupt_function 0004             ___aldiv@counter 00AC  
                  _LCD_Init 0DC0              ___wmul@product 00A7                   clear_ram0 0A6F  
                  _PIE1bits 008C                    _PIE2bits 008D                    _PIR1bits 000C  
                  _PIR2bits 000D                   _temp_lida 00CC    __end_ofi1_PWM_DutyCycle2 0B0B  
                 _tempo_rb6 00DB         __size_of_triangular 0144                  _ADCON0bits 001F  
               __stringbase 080F                  _ADCON1bits 009F                 __stringdata 081A  
                  _PWM_Init 07DC           ___wmul@multiplier 00A3         __end_of_TIMER0_Init 0A8C  
                _EECON1bits 018C            __size_of___aldiv 008F            __size_of___ftadd 0109  
          __size_of___ftdiv 00B8            __size_of___ftneg 000A            __size_of___ftmul 00D3  
          __size_of___fttol 008E            __size_of___lwdiv 0040            __size_of___lwmod 0036  
                  ___ftpack 0D58            __size_of__doprnt 0253          __end_of__stringtab 0810  
                  ___lwtoft 0AAE                    __fptable 0100            __size_of_isdigit 0010  
           ___lwdiv@divisor 00A3             ___lwdiv@counter 00AA           _USART_WriteString 0C0B  
                  __ptext10 0CB2                    __ptext11 0EB9                    __ptext20 0B2A  
                  __ptext12 0A67                    __ptext21 0BB1                    __ptext13 0A81  
                  __ptext30 0F48                    __ptext22 0AC2                    __ptext14 07DC  
                  __ptext31 06D3                    __ptext23 0A9C                    __ptext15 0B6B  
                  __ptext32 0AAE                    __ptext24 04A0                    __ptext16 0B4A  
                  __ptext33 0E2B                    __ptext25 0A61                    __ptext17 0BDA  
                  __ptext34 0020                    __ptext26 0AF0                    __ptext18 0AD9  
                  __ptext35 0D58                    __ptext27 035C                    __ptext19 0DC0  
                  __ptext28 0A77                    __ptext29 0CFB          ?_USART_WriteString 00A4  
          __size_of_sprintf 001F               __size_of_main 010C         USART_WriteChar@byte 00A3  
       ??_USART_WriteString 00A6                  _LCD_Cursor 0B2A                    fp__putch 0106  
  __size_of_LCD_WriteString 0031                 _TIMER0_Init 0A81                  _INTCONbits 000B  
 __end_of_USART_WriteString 0C3C                    isdigit@c 00A4                ??_triangular 007C  
                  intlevel1 0100                   sprintf@ap 00C6                   sprintf@pb 00C7  
                 sprintf@wh 00C5            ___lwmod@dividend 00AD                   stringcode 080A  
      USART_WriteString@str 00A4                  _TIMER0_Set 0A67          __end_of_triangular 04A0  
           _USART_WriteChar 00F3                    sprintf@f 00C0             ___lwmod@divisor 00AB  
           ___lwmod@counter 00B0                    stringdir 080A                    stringtab 0800  
              ___aldiv@sign 00AD      __size_of_LCD_WriteData 0017                 _SSPCON2bits 0091  
     i1PWM_DutyCycle2@valor 006A                  _SSPCONbits 0014                  _USART_Init 0CB2  
