Microchip MPLAB XC8 Compiler V1.33 ()

Linker command line:

--edf=C:\Program Files (x86)\Microchip\xc8\v1.33\dat\en_msgs.txt -cs \
  -h+PIC16F877A.sym --cmf=PIC16F877A.cmf -z -Q16F877A \
  -oC:\Users\332414\AppData\Local\Temp\saos.6 -MPIC16F877A.map -E1 -ver=XC8 \
  -ASTACK=0110h-016fh -pstack=STACK -ACONST=00h-0FFhx32 -ACODE=00h-07FFhx4 \
  -ASTRCODE=00h-01FFFh -AENTRY=00h-0FFhx32 -ASTRING=00h-0FFhx32 \
  -ACOMMON=070h-07Fh -ABANK0=020h-06Fh -ABANK1=0A0h-0EFh \
  -ABANK2=0110h-016Fh -ABANK3=0190h-01EFh \
  -ARAM=020h-06Fh,0A0h-0EFh,0110h-016Fh,0190h-01EFh \
  -AABS1=020h-07Fh,0A0h-0EFh,0110h-016Fh,0190h-01EFh -ASFR0=00h-01Fh \
  -ASFR1=080h-09Fh -ASFR2=0100h-010Fh -ASFR3=0180h-018Fh \
  -preset_vec=00h,intentry=04h,init,end_init -ppowerup=CODE -pcinit=CODE \
  -pfunctab=CODE -ACONFIG=02007h-02007h -pconfig=CONFIG -DCONFIG=2 \
  -AIDLOC=02000h-02003h -pidloc=IDLOC -DIDLOC=2 -AEEDATA=00h-0FFh/02100h \
  -peeprom_data=EEDATA -DEEDATA=2 -DCODE=2 -DSTRCODE=2 -DSTRING=2 -DCONST=2 \
  -DENTRY=2 -k startup.obj PIC16F877A.obj 

Object code version is 3.11

Machine type is 16F877A



                Name                               Link     Load   Length Selector   Space Scale
startup.obj     end_init                             12       12        3        8       0
                reset_vec                             0        0        3        0       0
                config                             2007     2007        1     400E       0
PIC16F877A.obj  cinit                                15       15       23        8       0
                functab                             100      100       12        2       0
                intentry                              4        4        E        8       0
                text42                              9E9      9E9       68     13D2       0
                text41                              BD9      BD9       D3     17B2       0
                text40                              ABC      ABC       8E     1578       0
                text39                             1691     1691       14     2D22       0
                text38                              CAC      CAC      107     1958       0
                text37                              73D      73D       B8        2       0
                text36                              98C      98C       5D     1318       0
                text35                             163C     163C        8     2C78       0
                text34                              8C5      8C5       3E     118A       0
                text33                              85B      85B       34     10B6       0
                text32                             1788     1788       23     2F10       0
                text31                             1661     1661        E     2CC2       0
                text30                              801      801        1     1002       0
                text29                              365      365      251        2       0
                text28                             16D3     16D3       19     2DA6       0
                text27                              5B6      5B6      187        2       0
                text26                             16EC     16EC       1B     2DD8       0
                text25                               FA       FA        6      1A2       0
                text24                              EC3      EC3      13D     1D86       0
                text23                             167F     167F       12     2CFE       0
                text22                             16A5     16A5       17     2D4A       0
                text21                               D1       D1       29      1A2       0
                text20                             1726     1726       20     2E4C       0
                text19                              A51      A51       6B     14A2       0
                text18                             16BC     16BC       17     2D78       0
                text17                             17CF     17CF       31     2F9E       0
                text16                             1746     1746       21     2E8C       0
                text15                             1767     1767       21     2ECE       0
                text14                             17AB     17AB       24     2F56       0
                text13                              7F5      7F5        B        2       0
                text12                             1644     1644        8     2C88       0
                text11                              B4A      B4A       8F     1694       0
                text10                              943      943       49     1286       0
                text9                              1654     1654        D     2CA8       0
                text8                               82A      82A       31     1054       0
                text7                               903      903       40     1206       0
                text6                               88F      88F       36     111E       0
                text5                               805      805       25     100A       0
                text4                              166F     166F       10     2CDE       0
                text3                                 3        3        1        0       0
                text2                               112      112      253        2       0
                text1                              1707     1707       1F     2E0E       0
                maintext                            DB3      DB3      110     1B66       0
                cstackBANK0                          20       20       4C       20       1
                cstackCOMMON                         70       70        E       70       1
                cstackBANK1                          A0       A0       2D       A0       1
                cstackBANK3                         190      190        3      190       1
                clrtext                            164C     164C        8     2C98       0
                dataBANK1                            E4       E4        3       A0       1
                bssBANK1                             CD       CD       17       A0       1
                bssBANK0                             6C       6C        4       20       1
                strings                              38       38       99       70       0
                idataBANK1                          802      802        3     1004       0

TOTAL           Name                               Link     Load   Length     Space
        CLASS   STACK          

        CLASS   CONST          

        CLASS   CODE           
                end_init                             12       12        3         0
                cinit                                15       15       23         0
                functab                             100      100       12         0
                intentry                              4        4        E         0
                reset_vec                             0        0        3         0
                text42                              9E9      9E9       68         0
                text41                              BD9      BD9       D3         0
                text40                              ABC      ABC       8E         0
                text39                             1691     1691       14         0
                text38                              CAC      CAC      107         0
                text37                              73D      73D       B8         0
                text36                              98C      98C       5D         0
                text35                             163C     163C        8         0
                text34                              8C5      8C5       3E         0
                text33                              85B      85B       34         0
                text32                             1788     1788       23         0
                text31                             1661     1661        E         0
                text30                              801      801        1         0
                text29                              365      365      251         0
                text28                             16D3     16D3       19         0
                text27                              5B6      5B6      187         0
                text26                             16EC     16EC       1B         0
                text25                               FA       FA        6         0
                text24                              EC3      EC3      13D         0
                text23                             167F     167F       12         0
                text22                             16A5     16A5       17         0
                text21                               D1       D1       29         0
                text20                             1726     1726       20         0
                text19                              A51      A51       6B         0
                text18                             16BC     16BC       17         0
                text17                             17CF     17CF       31         0
                text16                             1746     1746       21         0
                text15                             1767     1767       21         0
                text14                             17AB     17AB       24         0
                text13                              7F5      7F5        B         0
                text12                             1644     1644        8         0
                text11                              B4A      B4A       8F         0
                text10                              943      943       49         0
                text9                              1654     1654        D         0
                text8                               82A      82A       31         0
                text7                               903      903       40         0
                text6                               88F      88F       36         0
                text5                               805      805       25         0
                text4                              166F     166F       10         0
                text3                                 3        3        1         0
                text2                               112      112      253         0
                text1                              1707     1707       1F         0
                maintext                            DB3      DB3      110         0
                clrtext                            164C     164C        8         0
                idataBANK1                          802      802        3         0

        CLASS   STRCODE        

        CLASS   ENTRY          

        CLASS   STRING         
                strings                              38       38       99         0

        CLASS   COMMON         
                cstackCOMMON                         70       70        E         1

        CLASS   BANK0          
                cstackBANK0                          20       20       4C         1
                bssBANK0                             6C       6C        4         1

        CLASS   BANK1          
                cstackBANK1                          A0       A0       2D         1
                dataBANK1                            E4       E4        3         1
                bssBANK1                             CD       CD       17         1

        CLASS   BANK2          

        CLASS   BANK3          
                cstackBANK3                         190      190        3         1

        CLASS   RAM            

        CLASS   ABS1           
                abs_s1                               7E       7E        2         1

        CLASS   SFR0           

        CLASS   SFR1           

        CLASS   SFR2           

        CLASS   SFR3           

        CLASS   CONFIG         
                config                             2007     2007        1         0

        CLASS   IDLOC          

        CLASS   EEDATA         



SEGMENTS        Name                           Load    Length   Top    Selector   Space  Class     Delta

                reset_vec                      000000  000004  000004         0       0  CODE        2
                intentry                       000004  000034  000038         8       0  CODE        2
                cstackBANK0                    000020  000050  000070        20       1  BANK0       1
                cstackCOMMON                   000070  00000E  00007E        70       1  COMMON      1
                strings                        000038  000099  0000D1        70       0  STRING      2
                cstackBANK1                    0000A0  000047  0000E7        A0       1  BANK1       1
                cstackBANK3                    000190  000003  000193       190       1  BANK3       1
                text21                         0000D1  00002F  000100       1A2       0  CODE        2
                functab                        000100  000700  000800         2       0  CODE        2
                text30                         000801  000001  000802      1002       0  CODE        2
                idataBANK1                     000802  000003  000805      1004       0  CODE        2
                text5                          000805  000025  00082A      100A       0  CODE        2
                text8                          00082A  000031  00085B      1054       0  CODE        2
                text33                         00085B  000034  00088F      10B6       0  CODE        2
                text6                          00088F  000036  0008C5      111E       0  CODE        2
                text34                         0008C5  00003E  000903      118A       0  CODE        2
                text7                          000903  000040  000943      1206       0  CODE        2
                text10                         000943  000049  00098C      1286       0  CODE        2
                text36                         00098C  00005D  0009E9      1318       0  CODE        2
                text42                         0009E9  000068  000A51      13D2       0  CODE        2
                text19                         000A51  00006B  000ABC      14A2       0  CODE        2
                text40                         000ABC  00008E  000B4A      1578       0  CODE        2
                text11                         000B4A  00008F  000BD9      1694       0  CODE        2
                text41                         000BD9  0000D3  000CAC      17B2       0  CODE        2
                text38                         000CAC  000107  000DB3      1958       0  CODE        2
                maintext                       000DB3  000110  000EC3      1B66       0  CODE        2
                text24                         000EC3  00013D  001000      1D86       0  CODE        2
                text35                         00163C  000008  001644      2C78       0  CODE        2
                text12                         001644  000008  00164C      2C88       0  CODE        2
                clrtext                        00164C  000008  001654      2C98       0  CODE        2
                text9                          001654  00000D  001661      2CA8       0  CODE        2
                text31                         001661  00000E  00166F      2CC2       0  CODE        2
                text4                          00166F  000010  00167F      2CDE       0  CODE        2
                text23                         00167F  000012  001691      2CFE       0  CODE        2
                text39                         001691  000014  0016A5      2D22       0  CODE        2
                text22                         0016A5  000017  0016BC      2D4A       0  CODE        2
                text18                         0016BC  000017  0016D3      2D78       0  CODE        2
                text28                         0016D3  000019  0016EC      2DA6       0  CODE        2
                text26                         0016EC  00001B  001707      2DD8       0  CODE        2
                text1                          001707  00001F  001726      2E0E       0  CODE        2
                text20                         001726  000020  001746      2E4C       0  CODE        2
                text16                         001746  000021  001767      2E8C       0  CODE        2
                text15                         001767  000021  001788      2ECE       0  CODE        2
                text32                         001788  000023  0017AB      2F10       0  CODE        2
                text14                         0017AB  000024  0017CF      2F56       0  CODE        2
                text17                         0017CF  000031  001800      2F9E       0  CODE        2
                config                         002007  000001  002008      400E       0  CONFIG      2


UNUSED ADDRESS RANGES

        Name                Unused          Largest block    Delta
        BANK1            00E7-00EF              9           1
        BANK2            0110-016F             60           1
        BANK3            0193-01EF             5D           1
        CODE             0800-0800              1           2
                         1000-163B            63C
                         1800-1FFF            800
        CONST            0800-0800              1           2
                         1000-163B            100
                         1800-1FFF            100
        EEDATA           2100-21FF            100           2
        ENTRY            0800-0800              1           2
                         1000-163B            100
                         1800-1FFF            100
        IDLOC            2000-2003              4           2
        RAM              00E7-00EF              9           1
                         0110-016F             60
                         0193-01EF             5D
        SFR0             0000-001F             20           1
        SFR1             0080-009F             20           1
        SFR2             0100-010F             10           1
        SFR3             0180-018F             10           1
        STACK            0110-016F             60           1
        STRCODE          0800-0800              1           2
                         1000-163B            63C
                         1800-1FFF            800
        STRING           0800-0800              1           2
                         1000-163B            100
                         1800-1FFF            100

                                  Symbol Table

?___aldiv                   cstackBANK1  00A7
?___ftadd                   cstackCOMMON 0078
?___ftdiv                   cstackBANK0  0027
?___ftmul                   cstackBANK0  0046
?___ftneg                   cstackCOMMON 0070
?___ftpack                  cstackCOMMON 0070
?___fttol                   cstackBANK0  0056
?___lwdiv                   cstackBANK1  00A7
?___lwmod                   cstackBANK1  00AF
?___lwtoft                  cstackCOMMON 0078
?___wmul                    cstackBANK1  00A7
?__doprnt                   cstackBANK1  00B5
?_printf                    cstackCOMMON 0070
?_sprintf                   cstackBANK1  00C4
?_trapezoidal               cstackBANK0  0037
?i1___lwdiv                 cstackCOMMON 0070
?i1___lwmod                 cstackCOMMON 0078
?i1___wmul                  cstackCOMMON 0070
?i1__doprnt                 cstackBANK0  0020
LCD_Cursor@Col              cstackBANK1  00A7
LCD_Cursor@Row              cstackBANK1  00A9
LCD_WriteCmd@Byte           cstackBANK1  00A8
LCD_WriteData@Byte          cstackBANK1  00A8
LCD_WriteString@Str         cstackBANK1  00A9
PWM_DutyCycle1@valor        cstackBANK1  00A7
PWM_DutyCycle2@valor        cstackBANK1  00A7
TIMER0_Set@contagens        cstackBANK1  00A7
USART_Init@BaudRate         cstackBANK1  00B6
USART_WriteChar@byte        cstackBANK1  00A7
USART_WriteString@str       cstackBANK1  00A8
_ADCON0bits                 (abs)        001F
_ADCON1bits                 (abs)        009F
_ADCResult                  bssBANK0     006C
_ADC_Init                   text23       167F
_ADRESH                     (abs)        001E
_ADRESL                     (abs)        009E
_CCP1CON                    (abs)        0017
_CCP1CONbits                (abs)        0017
_CCP2CON                    (abs)        001D
_CCP2CONbits                (abs)        001D
_CCPR1L                     (abs)        0015
_CCPR2L                     (abs)        001B
_EEADR                      (abs)        010D
_EECON1bits                 (abs)        018C
_EECON2                     (abs)        018D
_EEDATA                     (abs)        010C
_INTCONbits                 (abs)        000B
_ISR                        text24       0EC3
_ISR$1732                   cstackBANK1  00A1
_ISR$1733                   cstackBANK1  00A4
_LCD_Clear                  text21       00D1
_LCD_Cursor                 text20       1726
_LCD_Init                   text19       0A51
_LCD_WriteCmd               text22       16A5
_LCD_WriteData              text18       16BC
_LCD_WriteString            text17       17CF
_OERR                       (abs)        00C1
_OPTION_REGbits             (abs)        0081
_PIE1bits                   (abs)        008C
_PIE2bits                   (abs)        008D
_PIR1bits                   (abs)        000C
_PIR2bits                   (abs)        000D
_PORTA                      (abs)        0005
_PORTB                      (abs)        0006
_PORTBbits                  (abs)        0006
_PORTC                      (abs)        0007
_PORTD                      (abs)        0008
_PORTE                      (abs)        0009
_PORTEbits                  (abs)        0009
_PR2                        (abs)        0092
_PWM_DutyCycle1             text16       1746
_PWM_DutyCycle2             text15       1767
_PWM_Init                   text14       17AB
_RCREG                      (abs)        001A
_RCSTAbits                  (abs)        0018
_SPBRG                      (abs)        0099
_SSPADD                     (abs)        0093
_SSPBUF                     (abs)        0013
_SSPCON2                    (abs)        0091
_SSPCON2bits                (abs)        0091
_SSPCONbits                 (abs)        0014
_SSPSTATbits                (abs)        0094
_T1CON                      (abs)        0010
_T1CONbits                  (abs)        0010
_T2CONbits                  (abs)        0012
_TIMER0_Init                text13       07F5
_TIMER0_Set                 text12       1644
_TMR0                       (abs)        0001
_TMR1                       (abs)        000E
_TMR1H                      (abs)        000F
_TMR1L                      (abs)        000E
_TRISA                      (abs)        0085
_TRISB                      (abs)        0086
_TRISC                      (abs)        0087
_TRISD                      (abs)        0088
_TRISE                      (abs)        0089
_TXREG                      (abs)        0019
_TXSTAbits                  (abs)        0098
_USART_Init                 text10       0943
_USART_WriteChar            text9        1654
_USART_WriteString          text8        082A
__CFG_BOREN$OFF             (abs)        0000
__CFG_CP$OFF                (abs)        0000
__CFG_CPD$OFF               (abs)        0000
__CFG_FOSC$HS               (abs)        0000
__CFG_LVP$OFF               (abs)        0000
__CFG_PWRTE$ON              (abs)        0000
__CFG_WDTE$OFF              (abs)        0000
__Habs1                     abs1         0000
__Hbank0                    bank0        0000
__Hbank1                    bank1        0000
__Hbank2                    bank2        0000
__Hbank3                    bank3        0000
__HbssBANK0                 bssBANK0     0000
__HbssBANK1                 bssBANK1     0000
__Hcinit                    cinit        0038
__Hclrtext                  clrtext      0000
__Hcode                     code         0000
__Hcommon                   common       0000
__Hconfig                   config       2008
__HcstackBANK0              cstackBANK0  0000
__HcstackBANK1              cstackBANK1  0000
__HcstackBANK3              cstackBANK3  0000
__HcstackCOMMON             cstackCOMMON 0000
__HdataBANK1                dataBANK1    0000
__Heeprom_data              eeprom_data  0000
__Hend_init                 end_init     0015
__Hfunctab                  functab      0112
__HidataBANK1               idataBANK1   0000
__Hidloc                    idloc        0000
__Hinit                     init         0012
__Hintentry                 intentry     0012
__Hmaintext                 maintext     0000
__Hpowerup                  powerup      0000
__Hram                      ram          0000
__Hreset_vec                reset_vec    0003
__Hsfr0                     sfr0         0000
__Hsfr1                     sfr1         0000
__Hsfr2                     sfr2         0000
__Hsfr3                     sfr3         0000
__Hspace_0                  (abs)        2008
__Hspace_1                  (abs)        0193
__Hspace_2                  (abs)        0000
__Hspace_3                  (abs)        0000
__Hstack                    stack        0000
__Hstrings                  strings      0000
__Htext                     text         0000
__Labs1                     abs1         0000
__Lbank0                    bank0        0000
__Lbank1                    bank1        0000
__Lbank2                    bank2        0000
__Lbank3                    bank3        0000
__LbssBANK0                 bssBANK0     0000
__LbssBANK1                 bssBANK1     0000
__Lcinit                    cinit        0015
__Lclrtext                  clrtext      0000
__Lcode                     code         0000
__Lcommon                   common       0000
__Lconfig                   config       2007
__LcstackBANK0              cstackBANK0  0000
__LcstackBANK1              cstackBANK1  0000
__LcstackBANK3              cstackBANK3  0000
__LcstackCOMMON             cstackCOMMON 0000
__LdataBANK1                dataBANK1    0000
__Leeprom_data              eeprom_data  0000
__Lend_init                 end_init     0012
__Lfunctab                  functab      0100
__LidataBANK1               idataBANK1   0000
__Lidloc                    idloc        0000
__Linit                     init         0012
__Lintentry                 intentry     0004
__Lmaintext                 maintext     0000
__Lpowerup                  powerup      0000
__Lram                      ram          0000
__Lreset_vec                reset_vec    0000
__Lsfr0                     sfr0         0000
__Lsfr1                     sfr1         0000
__Lsfr2                     sfr2         0000
__Lsfr3                     sfr3         0000
__Lspace_0                  (abs)        0000
__Lspace_1                  (abs)        0000
__Lspace_2                  (abs)        0000
__Lspace_3                  (abs)        0000
__Lstack                    stack        0000
__Lstrings                  strings      0000
__Ltext                     text         0000
__S0                        (abs)        2008
__S1                        (abs)        0193
__S2                        (abs)        0000
__S3                        (abs)        0000
___aldiv                    text11       0B4A
___aldiv@counter            cstackBANK1  00B0
___aldiv@dividend           cstackBANK1  00AB
___aldiv@divisor            cstackBANK1  00A7
___aldiv@quotient           cstackBANK1  00B2
___aldiv@sign               cstackBANK1  00B1
___ftadd                    text38       0CAC
___ftadd@exp1               cstackBANK0  0026
___ftadd@exp2               cstackBANK0  0025
___ftadd@f1                 cstackCOMMON 0078
___ftadd@f2                 cstackCOMMON 007B
___ftadd@sign               cstackBANK0  0024
___ftdiv                    text37       073D
___ftdiv@cntr               cstackBANK0  0031
___ftdiv@exp                cstackBANK0  0035
___ftdiv@f1                 cstackBANK0  002A
___ftdiv@f2                 cstackBANK0  0027
___ftdiv@f3                 cstackBANK0  0032
___ftdiv@sign               cstackBANK0  0036
___ftge                     text36       098C
___ftge@ff1                 cstackCOMMON 0070
___ftge@ff2                 cstackCOMMON 0073
___ftmul                    text41       0BD9
___ftmul@cntr               cstackBANK0  0054
___ftmul@exp                cstackBANK0  0050
___ftmul@f1                 cstackBANK0  0046
___ftmul@f2                 cstackBANK0  0049
___ftmul@f3_as_product      cstackBANK0  0051
___ftmul@sign               cstackBANK0  0055
___ftneg                    text35       163C
___ftneg@f1                 cstackCOMMON 0070
___ftpack                   text42       09E9
___ftpack@arg               cstackCOMMON 0070
___ftpack@exp               cstackCOMMON 0073
___ftpack@sign              cstackCOMMON 0074
___fttol                    text40       0ABC
___fttol@exp1               cstackBANK0  0063
___fttol@f1                 cstackBANK0  0056
___fttol@lval               cstackBANK0  005F
___fttol@sign1              cstackBANK0  005E
___int_sp                   stack        0000
___latbits                  (abs)        0002
___lwdiv                    text7        0903
___lwdiv@counter            cstackBANK1  00AE
___lwdiv@dividend           cstackBANK1  00A9
___lwdiv@divisor            cstackBANK1  00A7
___lwdiv@quotient           cstackBANK1  00AC
___lwmod                    text6        088F
___lwmod@counter            cstackBANK1  00B4
___lwmod@dividend           cstackBANK1  00B1
___lwmod@divisor            cstackBANK1  00AF
___lwtoft                   text39       1691
___lwtoft@c                 cstackCOMMON 0078
___sp                       stack        0000
___wmul                     text5        0805
___wmul@multiplicand        cstackBANK1  00A9
___wmul@multiplier          cstackBANK1  00A7
___wmul@product             cstackBANK1  00AB
__doprnt                    text2        0112
__doprnt@_val               cstackBANK1  00BB
__doprnt@ap                 cstackBANK1  00B6
__doprnt@c                  cstackBANK1  00C2
__doprnt@f                  cstackBANK1  00B5
__doprnt@flag               cstackBANK1  00BF
__doprnt@pb                 cstackBANK1  00C3
__doprnt@prec               cstackBANK1  00BA
__doprnt@width              cstackBANK1  00C0
__end_of_ADC_Init           text23       1691
__end_of_ISR                text24       1000
__end_of_LCD_Clear          text21       00FA
__end_of_LCD_Cursor         text20       1746
__end_of_LCD_Init           text19       0ABC
__end_of_LCD_WriteCmd       text22       16BC
__end_of_LCD_WriteData      text18       16D3
__end_of_LCD_WriteString    text17       1800
__end_of_PWM_DutyCycle1     text16       1767
__end_of_PWM_DutyCycle2     text15       1788
__end_of_PWM_Init           text14       17CF
__end_of_TIMER0_Init        text13       0800
__end_of_TIMER0_Set         text12       164C
__end_of_USART_Init         text10       098C
__end_of_USART_WriteChar    text9        1661
__end_of_USART_WriteString  text8        085B
__end_of___aldiv            text11       0BD9
__end_of___ftadd            text38       0DB3
__end_of___ftdiv            text37       07F5
__end_of___ftge             text36       09E9
__end_of___ftmul            text41       0CAC
__end_of___ftneg            text35       1644
__end_of___ftpack           text42       0A51
__end_of___fttol            text40       0B4A
__end_of___lwdiv            text7        0943
__end_of___lwmod            text6        08C5
__end_of___lwtoft           text39       16A5
__end_of___wmul             text5        082A
__end_of__doprnt            text2        0365
__end_of__fptable           functab      0109
__end_of__i1fptable         functab      0112
__end_of__initialization    cinit        0034
__end_of__stringdata        strings      00D1
__end_of__stringtab         strings      0048
__end_of_dpowers            strings      0052
__end_of_isdigit            text4        167F
__end_of_main               maintext     0EC3
__end_of_printf             text28       16EC
__end_of_putch              text3        0004
__end_of_sprintf            text1        1726
__end_of_trapezoidal        text27       073D
__end_ofi1_PWM_DutyCycle2   text26       1707
__end_ofi1_TIMER0_Set       text25       0100
__end_ofi1___lwdiv          text34       0903
__end_ofi1___lwmod          text33       088F
__end_ofi1___wmul           text32       17AB
__end_ofi1__doprnt          text29       05B6
__end_ofi1_isdigit          text31       166F
__end_ofi1_putch            text30       0802
__fptable                   functab      0100
__i1fptable                 functab      0109
__initialization            cinit        0015
__pbssBANK0                 bssBANK0     006C
__pbssBANK1                 bssBANK1     00CD
__pcstackBANK0              cstackBANK0  0020
__pcstackBANK1              cstackBANK1  00A0
__pcstackBANK3              cstackBANK3  0190
__pcstackCOMMON             cstackCOMMON 0070
__pdataBANK1                dataBANK1    00E4
__pfunctab                  functab      0100
__pidataBANK1               idataBANK1   0802
__pintentry                 intentry     0004
__pmaintext                 maintext     0DB3
__pstrings                  strings      0038
__ptext1                    text1        1707
__ptext10                   text10       0943
__ptext11                   text11       0B4A
__ptext12                   text12       1644
__ptext13                   text13       07F5
__ptext14                   text14       17AB
__ptext15                   text15       1767
__ptext16                   text16       1746
__ptext17                   text17       17CF
__ptext18                   text18       16BC
__ptext19                   text19       0A51
__ptext2                    text2        0112
__ptext20                   text20       1726
__ptext21                   text21       00D1
__ptext22                   text22       16A5
__ptext23                   text23       167F
__ptext24                   text24       0EC3
__ptext25                   text25       00FA
__ptext26                   text26       16EC
__ptext27                   text27       05B6
__ptext28                   text28       16D3
__ptext29                   text29       0365
__ptext3                    text3        0003
__ptext30                   text30       0801
__ptext31                   text31       1661
__ptext32                   text32       1788
__ptext33                   text33       085B
__ptext34                   text34       08C5
__ptext35                   text35       163C
__ptext36                   text36       098C
__ptext37                   text37       073D
__ptext38                   text38       0CAC
__ptext39                   text39       1691
__ptext4                    text4        166F
__ptext40                   text40       0ABC
__ptext41                   text41       0BD9
__ptext42                   text42       09E9
__ptext5                    text5        0805
__ptext6                    text6        088F
__ptext7                    text7        0903
__ptext8                    text8        082A
__ptext9                    text9        1654
__size_of_ADC_Init          (abs)        0000
__size_of_ISR               (abs)        0000
__size_of_LCD_Clear         (abs)        0000
__size_of_LCD_Cursor        (abs)        0000
__size_of_LCD_Init          (abs)        0000
__size_of_LCD_WriteCmd      (abs)        0000
__size_of_LCD_WriteData     (abs)        0000
__size_of_LCD_WriteString   (abs)        0000
__size_of_PWM_DutyCycle1    (abs)        0000
__size_of_PWM_DutyCycle2    (abs)        0000
__size_of_PWM_Init          (abs)        0000
__size_of_TIMER0_Init       (abs)        0000
__size_of_TIMER0_Set        (abs)        0000
__size_of_USART_Init        (abs)        0000
__size_of_USART_WriteChar   (abs)        0000
__size_of_USART_WriteString (abs)        0000
__size_of___aldiv           (abs)        0000
__size_of___ftadd           (abs)        0000
__size_of___ftdiv           (abs)        0000
__size_of___ftge            (abs)        0000
__size_of___ftmul           (abs)        0000
__size_of___ftneg           (abs)        0000
__size_of___ftpack          (abs)        0000
__size_of___fttol           (abs)        0000
__size_of___lwdiv           (abs)        0000
__size_of___lwmod           (abs)        0000
__size_of___lwtoft          (abs)        0000
__size_of___wmul            (abs)        0000
__size_of__doprnt           (abs)        0000
__size_of__fptable          (abs)        0000
__size_of__i1fptable        (abs)        0000
__size_of_isdigit           (abs)        0000
__size_of_main              (abs)        0000
__size_of_printf            (abs)        0000
__size_of_putch             (abs)        0000
__size_of_sprintf           (abs)        0000
__size_of_trapezoidal       (abs)        0000
__size_ofi1_PWM_DutyCycle2  (abs)        0000
__size_ofi1_TIMER0_Set      (abs)        0000
__size_ofi1___lwdiv         (abs)        0000
__size_ofi1___lwmod         (abs)        0000
__size_ofi1___wmul          (abs)        0000
__size_ofi1__doprnt         (abs)        0000
__size_ofi1_isdigit         (abs)        0000
__size_ofi1_putch           (abs)        0000
__stringbase                strings      0047
__stringdata                strings      0052
__stringtab                 strings      0038
_contador_rb6               bssBANK1     00D0
_contagens_tm0              bssBANK1     00D2
_display                    bssBANK1     00DA
_dpowers                    strings      0048
_isdigit                    text4        166F
_isdigit$1417               cstackBANK1  00A7
_main                       maintext     0DB3
_printf                     text28       16D3
_pulsos                     bssBANK1     00D4
_putch                      text3        0003
_requiredRpm                dataBANK1    00E4
_rpm                        bssBANK1     00D6
_sprintf                    text1        1707
_status                     bssBANK0     006E
_temp_lida                  bssBANK1     00CD
_tempo_rb6                  bssBANK1     00D8
_trapezoidal                text27       05B6
btemp                       (abs)        007E
clear_ram0                  clrtext      164C
end_of_initialization       cinit        0034
fpbase                      functab      0105
fptable                     functab      0100
fptotal                     (abs)        0001
i1PWM_DutyCycle2@valor      cstackBANK0  0064
i1TIMER0_Set@contagens      cstackCOMMON 0070
i1_PWM_DutyCycle2           text26       16EC
i1_TIMER0_Set               text25       00FA
i1___lwdiv                  text34       08C5
i1___lwdiv@counter          cstackCOMMON 0077
i1___lwdiv@dividend         cstackCOMMON 0072
i1___lwdiv@divisor          cstackCOMMON 0070
i1___lwdiv@quotient         cstackCOMMON 0075
i1___lwmod                  text33       085B
i1___lwmod@counter          cstackCOMMON 007D
i1___lwmod@dividend         cstackCOMMON 007A
i1___lwmod@divisor          cstackCOMMON 0078
i1___wmul                   text32       1788
i1___wmul@multiplicand      cstackCOMMON 0072
i1___wmul@multiplier        cstackCOMMON 0070
i1___wmul@product           cstackCOMMON 0074
i1__doprnt                  text29       0365
i1__doprnt@_val             cstackBANK0  0026
i1__doprnt@ap               cstackBANK0  0021
i1__doprnt@c                cstackBANK0  002D
i1__doprnt@f                cstackBANK0  0020
i1__doprnt@flag             cstackBANK0  002A
i1__doprnt@pb               cstackBANK0  002E
i1__doprnt@prec             cstackBANK0  0025
i1__doprnt@width            cstackBANK0  002B
i1_isdigit                  text31       1661
i1_isdigit$1417             cstackCOMMON 0070
i1_putch                    text30       0801
i1fpbase                    functab      010E
i1fptable                   functab      0109
i1fptotal                   (abs)        0001
i1isdigit@c                 cstackCOMMON 0071
i1putch@c                   cstackCOMMON 0070
interrupt_function          intentry     0004
intlevel0                   functab      0100
intlevel1                   functab      0100
intlevel2                   functab      0100
intlevel3                   functab      0100
intlevel4                   functab      0100
intlevel5                   functab      0100
isdigit@c                   cstackBANK1  00A8
ltemp                       (abs)        007E
ltemp0                      (abs)        007E
ltemp1                      (abs)        0082
ltemp2                      (abs)        0086
ltemp3                      (abs)        0080
printf@ap                   cstackBANK0  0032
printf@f                    cstackBANK0  0031
printf@pb                   cstackBANK0  0033
putch@c                     cstackBANK1  00A7
reset_vec                   reset_vec    0000
saved_w                     (abs)        007E
sprintf@ap                  cstackBANK1  00CA
sprintf@f                   cstackBANK1  00C4
sprintf@pb                  cstackBANK1  00CB
sprintf@wh                  cstackBANK1  00C9
stackhi                     (abs)        0000
stacklo                     (abs)        0000
start                       init         0012
start_initialization        cinit        0015
trapezoidal@a               cstackBANK0  003A
trapezoidal@b               cstackBANK0  003D
trapezoidal@c               cstackBANK0  0040
trapezoidal@d               cstackBANK0  0043
trapezoidal@x               cstackBANK0  0037
ttemp                       (abs)        007E
ttemp0                      (abs)        007E
ttemp1                      (abs)        0081
ttemp2                      (abs)        0084
ttemp3                      (abs)        0087
ttemp4                      (abs)        007F
wtemp                       (abs)        007E
wtemp0                      (abs)        007E
wtemp1                      (abs)        0080
wtemp2                      (abs)        0082
wtemp3                      (abs)        0084
wtemp4                      (abs)        0086
wtemp5                      (abs)        0088
wtemp6                      (abs)        007F


FUNCTION INFORMATION:

 *************** function _main *****************
 Defined at:
		line 161 in file "C:\Users\332414\Documents\Fuzzy-IA2\Código em C no MPLAB\main.c"
 Parameters:    Size  Location     Type
		None
 Auto vars:     Size  Location     Type
		None
 Return value:  Size  Location     Type
		None               void
 Registers used:
		wreg, fsr0l, fsr0h, status,2, status,0, btemp+1, pclath, cstack
 Tracked objects:
		On entry : 
		On exit  : 
		Unchanged: 
 Data sizes:     COMMON   BANK0   BANK1   BANK3   BANK2
      Params:         0       0       0       0       0
      Locals:         0       0       0       0       0
      Temps:          0       0       0       3       0
      Totals:         0       0       0       3       0
Total ram usage:        3 bytes
 Hardware stack levels required when called:    8
 This function calls:
		_ADC_Init
		_LCD_Clear
		_LCD_Cursor
		_LCD_Init
		_LCD_WriteString
		_PWM_DutyCycle1
		_PWM_DutyCycle2
		_PWM_Init
		_TIMER0_Init
		_TIMER0_Set
		_USART_Init
		_USART_WriteString
		_sprintf
 This function is called by:
		Startup code after reset
 This function uses a non-reentrant model


 *************** function _sprintf *****************
 Defined at:
		line 13 in file "C:\Program Files (x86)\Microchip\xc8\v1.33\sources\common\sprintf.c"
 Parameters:    Size  Location     Type
  wh              1    wreg     PTR unsigned char 
		 -> display(10), 
  f               1   36[BANK1 ] PTR const unsigned char 
		 -> STR_9(5), 
 Auto vars:     Size  Location     Type
  wh              1   41[BANK1 ] PTR unsigned char 
		 -> display(10), 
  pb              2   43[BANK1 ] struct __prbuf
  ap              1   42[BANK1 ] PTR void [1]
		 -> ?_sprintf(2), ?_printf(2), 
 Return value:  Size  Location     Type
                  2   36[BANK1 ] int 
 Registers used:
		wreg, fsr0l, fsr0h, status,2, status,0, btemp+1, pclath, cstack
 Tracked objects:
		On entry : 
		On exit  : 
		Unchanged: 
 Data sizes:     COMMON   BANK0   BANK1   BANK3   BANK2
      Params:         0       0       3       0       0
      Locals:         0       0       4       0       0
      Temps:          0       0       2       0       0
      Totals:         0       0       9       0       0
Total ram usage:        9 bytes
 Hardware stack levels used:    1
 Hardware stack levels required when called:    7
 This function calls:
		__doprnt
 This function is called by:
		_main
 This function uses a non-reentrant model


 *************** function __doprnt *****************
 Defined at:
		line 458 in file "C:\Program Files (x86)\Microchip\xc8\v1.33\sources\common\doprnt.c"
 Parameters:    Size  Location     Type
  pb              1    wreg     PTR struct __prbuf
		 -> sprintf@pb(2), printf@pb(2), 
  f               1   21[BANK1 ] PTR const unsigned char 
		 -> STR_9(5), STR_5(2), STR_4(2), STR_3(2), 
		 -> STR_2(2), STR_1(2), 
  ap              1   22[BANK1 ] PTR PTR void 
		 -> sprintf@ap(1), printf@ap(1), 
 Auto vars:     Size  Location     Type
  pb              1   35[BANK1 ] PTR struct __prbuf
		 -> sprintf@pb(2), printf@pb(2), 
  _val            4   27[BANK1 ] struct .
  width           2   32[BANK1 ] int 
  c               1   34[BANK1 ] char 
  flag            1   31[BANK1 ] unsigned char 
  prec            1   26[BANK1 ] char 
 Return value:  Size  Location     Type
                  2   21[BANK1 ] int 
 Registers used:
		wreg, fsr0l, fsr0h, status,2, status,0, btemp+1, pclath, cstack
 Tracked objects:
		On entry : 
		On exit  : 
		Unchanged: 
 Data sizes:     COMMON   BANK0   BANK1   BANK3   BANK2
      Params:         0       0       2       0       0
      Locals:         0       0      10       0       0
      Temps:          0       0       3       0       0
      Totals:         0       0      15       0       0
Total ram usage:       15 bytes
 Hardware stack levels used:    1
 Hardware stack levels required when called:    6
 This function calls:
		Absolute function
		___lwdiv
		___lwmod
		___wmul
		_isdigit
		_putch
 This function is called by:
		_sprintf
 This function uses a non-reentrant model


 *************** function _putch *****************
 Defined at:
		line 7 in file "C:\Program Files (x86)\Microchip\xc8\v1.33\sources\common\putch.c"
 Parameters:    Size  Location     Type
  c               1    7[BANK1 ] unsigned char 
 Auto vars:     Size  Location     Type
		None
 Return value:  Size  Location     Type
		None               void
 Registers used:
		None
 Tracked objects:
		On entry : 
		On exit  : 
		Unchanged: 
 Data sizes:     COMMON   BANK0   BANK1   BANK3   BANK2
      Params:         0       0       1       0       0
      Locals:         0       0       0       0       0
      Temps:          0       0       0       0       0
      Totals:         0       0       1       0       0
Total ram usage:        1 bytes
 Hardware stack levels used:    1
 Hardware stack levels required when called:    5
 This function calls:
		Nothing
 This function is called by:
		i1__doprnt
		__doprnt
 This function uses a non-reentrant model


 *************** function _isdigit *****************
 Defined at:
		line 8 in file "C:\Program Files (x86)\Microchip\xc8\v1.33\sources\common\isdigit.c"
 Parameters:    Size  Location     Type
  c               1    wreg     unsigned char 
 Auto vars:     Size  Location     Type
  c               1    8[BANK1 ] unsigned char 
 Return value:  Size  Location     Type
		None               void
 Registers used:
		wreg, status,2, status,0
 Tracked objects:
		On entry : 
		On exit  : 
		Unchanged: 
 Data sizes:     COMMON   BANK0   BANK1   BANK3   BANK2
      Params:         0       0       0       0       0
      Locals:         0       0       2       0       0
      Temps:          0       0       0       0       0
      Totals:         0       0       2       0       0
Total ram usage:        2 bytes
 Hardware stack levels used:    1
 Hardware stack levels required when called:    5
 This function calls:
		Nothing
 This function is called by:
		__doprnt
 This function uses a non-reentrant model


 *************** function ___wmul *****************
 Defined at:
		line 15 in file "C:\Program Files (x86)\Microchip\xc8\v1.33\sources\common\Umul16.c"
 Parameters:    Size  Location     Type
  multiplier      2    7[BANK1 ] unsigned int 
  multiplicand    2    9[BANK1 ] unsigned int 
 Auto vars:     Size  Location     Type
  product         2   11[BANK1 ] unsigned int 
 Return value:  Size  Location     Type
                  2    7[BANK1 ] unsigned int 
 Registers used:
		wreg, status,2, status,0
 Tracked objects:
		On entry : 
		On exit  : 
		Unchanged: 
 Data sizes:     COMMON   BANK0   BANK1   BANK3   BANK2
      Params:         0       0       4       0       0
      Locals:         0       0       2       0       0
      Temps:          0       0       0       0       0
      Totals:         0       0       6       0       0
Total ram usage:        6 bytes
 Hardware stack levels used:    1
 Hardware stack levels required when called:    5
 This function calls:
		Nothing
 This function is called by:
		__doprnt
 This function uses a non-reentrant model


 *************** function ___lwmod *****************
 Defined at:
		line 6 in file "C:\Program Files (x86)\Microchip\xc8\v1.33\sources\common\lwmod.c"
 Parameters:    Size  Location     Type
  divisor         2   15[BANK1 ] unsigned int 
  dividend        2   17[BANK1 ] unsigned int 
 Auto vars:     Size  Location     Type
  counter         1   20[BANK1 ] unsigned char 
 Return value:  Size  Location     Type
                  2   15[BANK1 ] unsigned int 
 Registers used:
		wreg, status,2, status,0
 Tracked objects:
		On entry : 
		On exit  : 
		Unchanged: 
 Data sizes:     COMMON   BANK0   BANK1   BANK3   BANK2
      Params:         0       0       4       0       0
      Locals:         0       0       1       0       0
      Temps:          0       0       1       0       0
      Totals:         0       0       6       0       0
Total ram usage:        6 bytes
 Hardware stack levels used:    1
 Hardware stack levels required when called:    5
 This function calls:
		Nothing
 This function is called by:
		__doprnt
 This function uses a non-reentrant model


 *************** function ___lwdiv *****************
 Defined at:
		line 6 in file "C:\Program Files (x86)\Microchip\xc8\v1.33\sources\common\lwdiv.c"
 Parameters:    Size  Location     Type
  divisor         2    7[BANK1 ] unsigned int 
  dividend        2    9[BANK1 ] unsigned int 
 Auto vars:     Size  Location     Type
  quotient        2   12[BANK1 ] unsigned int 
  counter         1   14[BANK1 ] unsigned char 
 Return value:  Size  Location     Type
                  2    7[BANK1 ] unsigned int 
 Registers used:
		wreg, status,2, status,0
 Tracked objects:
		On entry : 
		On exit  : 
		Unchanged: 
 Data sizes:     COMMON   BANK0   BANK1   BANK3   BANK2
      Params:         0       0       4       0       0
      Locals:         0       0       3       0       0
      Temps:          0       0       1       0       0
      Totals:         0       0       8       0       0
Total ram usage:        8 bytes
 Hardware stack levels used:    1
 Hardware stack levels required when called:    5
 This function calls:
		Nothing
 This function is called by:
		__doprnt
 This function uses a non-reentrant model


 *************** function _USART_WriteString *****************
 Defined at:
		line 52 in file "C:\Users\332414\Documents\Fuzzy-IA2\Código em C no MPLAB\usart.c"
 Parameters:    Size  Location     Type
  str             2    8[BANK1 ] PTR const unsigned char 
		 -> STR_12(40), STR_10(3), display(10), STR_7(20), 
		 -> STR_6(29), 
 Auto vars:     Size  Location     Type
		None
 Return value:  Size  Location     Type
		None               void
 Registers used:
		wreg, fsr0l, fsr0h, status,2, status,0, btemp+1, pclath, cstack
 Tracked objects:
		On entry : 
		On exit  : 
		Unchanged: 
 Data sizes:     COMMON   BANK0   BANK1   BANK3   BANK2
      Params:         0       0       2       0       0
      Locals:         0       0       0       0       0
      Temps:          0       0       0       0       0
      Totals:         0       0       2       0       0
Total ram usage:        2 bytes
 Hardware stack levels used:    1
 Hardware stack levels required when called:    6
 This function calls:
		_USART_WriteChar
 This function is called by:
		_main
		_USART_ReceiveChar
 This function uses a non-reentrant model


 *************** function _USART_WriteChar *****************
 Defined at:
		line 44 in file "C:\Users\332414\Documents\Fuzzy-IA2\Código em C no MPLAB\usart.c"
 Parameters:    Size  Location     Type
  byte            1    wreg     unsigned char 
 Auto vars:     Size  Location     Type
  byte            1    7[BANK1 ] unsigned char 
 Return value:  Size  Location     Type
		None               void
 Registers used:
		wreg
 Tracked objects:
		On entry : 
		On exit  : 
		Unchanged: 
 Data sizes:     COMMON   BANK0   BANK1   BANK3   BANK2
      Params:         0       0       0       0       0
      Locals:         0       0       1       0       0
      Temps:          0       0       0       0       0
      Totals:         0       0       1       0       0
Total ram usage:        1 bytes
 Hardware stack levels used:    1
 Hardware stack levels required when called:    5
 This function calls:
		Nothing
 This function is called by:
		_USART_WriteString
 This function uses a non-reentrant model


 *************** function _USART_Init *****************
 Defined at:
		line 6 in file "C:\Users\332414\Documents\Fuzzy-IA2\Código em C no MPLAB\usart.c"
 Parameters:    Size  Location     Type
  BaudRate        4   22[BANK1 ] long 
 Auto vars:     Size  Location     Type
		None
 Return value:  Size  Location     Type
		None               void
 Registers used:
		wreg, status,2, status,0, pclath, cstack
 Tracked objects:
		On entry : 
		On exit  : 
		Unchanged: 
 Data sizes:     COMMON   BANK0   BANK1   BANK3   BANK2
      Params:         0       0       4       0       0
      Locals:         0       0       0       0       0
      Temps:          0       0       4       0       0
      Totals:         0       0       8       0       0
Total ram usage:        8 bytes
 Hardware stack levels used:    1
 Hardware stack levels required when called:    6
 This function calls:
		___aldiv
 This function is called by:
		_main
 This function uses a non-reentrant model


 *************** function ___aldiv *****************
 Defined at:
		line 6 in file "C:\Program Files (x86)\Microchip\xc8\v1.33\sources\common\aldiv.c"
 Parameters:    Size  Location     Type
  divisor         4    7[BANK1 ] long 
  dividend        4   11[BANK1 ] long 
 Auto vars:     Size  Location     Type
  quotient        4   18[BANK1 ] long 
  sign            1   17[BANK1 ] unsigned char 
  counter         1   16[BANK1 ] unsigned char 
 Return value:  Size  Location     Type
                  4    7[BANK1 ] long 
 Registers used:
		wreg, status,2, status,0
 Tracked objects:
		On entry : 
		On exit  : 
		Unchanged: 
 Data sizes:     COMMON   BANK0   BANK1   BANK3   BANK2
      Params:         0       0       8       0       0
      Locals:         0       0       6       0       0
      Temps:          0       0       1       0       0
      Totals:         0       0      15       0       0
Total ram usage:       15 bytes
 Hardware stack levels used:    1
 Hardware stack levels required when called:    5
 This function calls:
		Nothing
 This function is called by:
		_USART_Init
 This function uses a non-reentrant model


 *************** function _TIMER0_Set *****************
 Defined at:
		line 20 in file "C:\Users\332414\Documents\Fuzzy-IA2\Código em C no MPLAB\timers.c"
 Parameters:    Size  Location     Type
  contagens       1    wreg     unsigned char 
 Auto vars:     Size  Location     Type
  contagens       1    7[BANK1 ] unsigned char 
 Return value:  Size  Location     Type
		None               void
 Registers used:
		wreg
 Tracked objects:
		On entry : 
		On exit  : 
		Unchanged: 
 Data sizes:     COMMON   BANK0   BANK1   BANK3   BANK2
      Params:         0       0       0       0       0
      Locals:         0       0       1       0       0
      Temps:          0       0       0       0       0
      Totals:         0       0       1       0       0
Total ram usage:        1 bytes
 Hardware stack levels used:    1
 Hardware stack levels required when called:    5
 This function calls:
		Nothing
 This function is called by:
		_main
 This function uses a non-reentrant model


 *************** function _TIMER0_Init *****************
 Defined at:
		line 6 in file "C:\Users\332414\Documents\Fuzzy-IA2\Código em C no MPLAB\timers.c"
 Parameters:    Size  Location     Type
		None
 Auto vars:     Size  Location     Type
		None
 Return value:  Size  Location     Type
		None               void
 Registers used:
		None
 Tracked objects:
		On entry : 
		On exit  : 
		Unchanged: 
 Data sizes:     COMMON   BANK0   BANK1   BANK3   BANK2
      Params:         0       0       0       0       0
      Locals:         0       0       0       0       0
      Temps:          0       0       0       0       0
      Totals:         0       0       0       0       0
Total ram usage:        0 bytes
 Hardware stack levels used:    1
 Hardware stack levels required when called:    5
 This function calls:
		Nothing
 This function is called by:
		_main
 This function uses a non-reentrant model


 *************** function _PWM_Init *****************
 Defined at:
		line 5 in file "C:\Users\332414\Documents\Fuzzy-IA2\Código em C no MPLAB\pwm.c"
 Parameters:    Size  Location     Type
		None
 Auto vars:     Size  Location     Type
		None
 Return value:  Size  Location     Type
		None               void
 Registers used:
		wreg
 Tracked objects:
		On entry : 
		On exit  : 
		Unchanged: 
 Data sizes:     COMMON   BANK0   BANK1   BANK3   BANK2
      Params:         0       0       0       0       0
      Locals:         0       0       0       0       0
      Temps:          0       0       0       0       0
      Totals:         0       0       0       0       0
Total ram usage:        0 bytes
 Hardware stack levels used:    1
 Hardware stack levels required when called:    5
 This function calls:
		Nothing
 This function is called by:
		_main
 This function uses a non-reentrant model


 *************** function _PWM_DutyCycle2 *****************
 Defined at:
		line 96 in file "C:\Users\332414\Documents\Fuzzy-IA2\Código em C no MPLAB\pwm.c"
 Parameters:    Size  Location     Type
  valor           2    7[BANK1 ] int 
 Auto vars:     Size  Location     Type
		None
 Return value:  Size  Location     Type
		None               void
 Registers used:
		wreg, status,2, status,0
 Tracked objects:
		On entry : 
		On exit  : 
		Unchanged: 
 Data sizes:     COMMON   BANK0   BANK1   BANK3   BANK2
      Params:         0       0       2       0       0
      Locals:         0       0       0       0       0
      Temps:          0       0       2       0       0
      Totals:         0       0       4       0       0
Total ram usage:        4 bytes
 Hardware stack levels used:    1
 Hardware stack levels required when called:    5
 This function calls:
		Nothing
 This function is called by:
		_main
 This function uses a non-reentrant model


 *************** function _PWM_DutyCycle1 *****************
 Defined at:
		line 64 in file "C:\Users\332414\Documents\Fuzzy-IA2\Código em C no MPLAB\pwm.c"
 Parameters:    Size  Location     Type
  valor           2    7[BANK1 ] int 
 Auto vars:     Size  Location     Type
		None
 Return value:  Size  Location     Type
		None               void
 Registers used:
		wreg, status,2, status,0
 Tracked objects:
		On entry : 
		On exit  : 
		Unchanged: 
 Data sizes:     COMMON   BANK0   BANK1   BANK3   BANK2
      Params:         0       0       2       0       0
      Locals:         0       0       0       0       0
      Temps:          0       0       2       0       0
      Totals:         0       0       4       0       0
Total ram usage:        4 bytes
 Hardware stack levels used:    1
 Hardware stack levels required when called:    5
 This function calls:
		Nothing
 This function is called by:
		_main
 This function uses a non-reentrant model


 *************** function _LCD_WriteString *****************
 Defined at:
		line 61 in file "C:\Users\332414\Documents\Fuzzy-IA2\Código em C no MPLAB\lcd.c"
 Parameters:    Size  Location     Type
  Str             2    9[BANK1 ] PTR const unsigned char 
		 -> STR_11(6), display(10), STR_8(17), 
 Auto vars:     Size  Location     Type
		None
 Return value:  Size  Location     Type
		None               void
 Registers used:
		wreg, fsr0l, fsr0h, status,2, status,0, btemp+1, pclath, cstack
 Tracked objects:
		On entry : 
		On exit  : 
		Unchanged: 
 Data sizes:     COMMON   BANK0   BANK1   BANK3   BANK2
      Params:         0       0       2       0       0
      Locals:         0       0       0       0       0
      Temps:          0       0       0       0       0
      Totals:         0       0       2       0       0
Total ram usage:        2 bytes
 Hardware stack levels used:    1
 Hardware stack levels required when called:    6
 This function calls:
		_LCD_WriteData
 This function is called by:
		_main
 This function uses a non-reentrant model


 *************** function _LCD_WriteData *****************
 Defined at:
		line 47 in file "C:\Users\332414\Documents\Fuzzy-IA2\Código em C no MPLAB\lcd.c"
 Parameters:    Size  Location     Type
  Byte            1    wreg     unsigned char 
 Auto vars:     Size  Location     Type
  Byte            1    8[BANK1 ] unsigned char 
 Return value:  Size  Location     Type
		None               void
 Registers used:
		wreg
 Tracked objects:
		On entry : 
		On exit  : 
		Unchanged: 
 Data sizes:     COMMON   BANK0   BANK1   BANK3   BANK2
      Params:         0       0       0       0       0
      Locals:         0       0       1       0       0
      Temps:          0       0       1       0       0
      Totals:         0       0       2       0       0
Total ram usage:        2 bytes
 Hardware stack levels used:    1
 Hardware stack levels required when called:    5
 This function calls:
		Nothing
 This function is called by:
		_LCD_WriteString
 This function uses a non-reentrant model


 *************** function _LCD_Init *****************
 Defined at:
		line 87 in file "C:\Users\332414\Documents\Fuzzy-IA2\Código em C no MPLAB\lcd.c"
 Parameters:    Size  Location     Type
		None
 Auto vars:     Size  Location     Type
		None
 Return value:  Size  Location     Type
		None               void
 Registers used:
		wreg, status,2, status,0, pclath, cstack
 Tracked objects:
		On entry : 
		On exit  : 
		Unchanged: 
 Data sizes:     COMMON   BANK0   BANK1   BANK3   BANK2
      Params:         0       0       0       0       0
      Locals:         0       0       0       0       0
      Temps:          0       0       2       0       0
      Totals:         0       0       2       0       0
Total ram usage:        2 bytes
 Hardware stack levels used:    1
 Hardware stack levels required when called:    6
 This function calls:
		_LCD_WriteCmd
 This function is called by:
		_main
 This function uses a non-reentrant model


 *************** function _LCD_Cursor *****************
 Defined at:
		line 10 in file "C:\Users\332414\Documents\Fuzzy-IA2\Código em C no MPLAB\lcd.c"
 Parameters:    Size  Location     Type
  Row             1    wreg     unsigned char 
  Col             1    7[BANK1 ] unsigned char 
 Auto vars:     Size  Location     Type
  Row             1    9[BANK1 ] unsigned char 
 Return value:  Size  Location     Type
		None               void
 Registers used:
		wreg, status,2, status,0
 Tracked objects:
		On entry : 
		On exit  : 
		Unchanged: 
 Data sizes:     COMMON   BANK0   BANK1   BANK3   BANK2
      Params:         0       0       1       0       0
      Locals:         0       0       1       0       0
      Temps:          0       0       1       0       0
      Totals:         0       0       3       0       0
Total ram usage:        3 bytes
 Hardware stack levels used:    1
 Hardware stack levels required when called:    5
 This function calls:
		Nothing
 This function is called by:
		_main
 This function uses a non-reentrant model


 *************** function _LCD_Clear *****************
 Defined at:
		line 71 in file "C:\Users\332414\Documents\Fuzzy-IA2\Código em C no MPLAB\lcd.c"
 Parameters:    Size  Location     Type
		None
 Auto vars:     Size  Location     Type
		None
 Return value:  Size  Location     Type
		None               void
 Registers used:
		wreg, status,2, status,0, pclath, cstack
 Tracked objects:
		On entry : 
		On exit  : 
		Unchanged: 
 Data sizes:     COMMON   BANK0   BANK1   BANK3   BANK2
      Params:         0       0       0       0       0
      Locals:         0       0       0       0       0
      Temps:          0       0       2       0       0
      Totals:         0       0       2       0       0
Total ram usage:        2 bytes
 Hardware stack levels used:    1
 Hardware stack levels required when called:    6
 This function calls:
		_LCD_WriteCmd
 This function is called by:
		_main
 This function uses a non-reentrant model


 *************** function _LCD_WriteCmd *****************
 Defined at:
		line 32 in file "C:\Users\332414\Documents\Fuzzy-IA2\Código em C no MPLAB\lcd.c"
 Parameters:    Size  Location     Type
  Byte            1    wreg     unsigned char 
 Auto vars:     Size  Location     Type
  Byte            1    8[BANK1 ] unsigned char 
 Return value:  Size  Location     Type
		None               void
 Registers used:
		wreg
 Tracked objects:
		On entry : 
		On exit  : 
		Unchanged: 
 Data sizes:     COMMON   BANK0   BANK1   BANK3   BANK2
      Params:         0       0       0       0       0
      Locals:         0       0       1       0       0
      Temps:          0       0       1       0       0
      Totals:         0       0       2       0       0
Total ram usage:        2 bytes
 Hardware stack levels used:    1
 Hardware stack levels required when called:    5
 This function calls:
		Nothing
 This function is called by:
		_LCD_Clear
		_LCD_Init
 This function uses a non-reentrant model


 *************** function _ADC_Init *****************
 Defined at:
		line 6 in file "C:\Users\332414\Documents\Fuzzy-IA2\Código em C no MPLAB\adc.c"
 Parameters:    Size  Location     Type
		None
 Auto vars:     Size  Location     Type
		None
 Return value:  Size  Location     Type
		None               void
 Registers used:
		None
 Tracked objects:
		On entry : 
		On exit  : 
		Unchanged: 
 Data sizes:     COMMON   BANK0   BANK1   BANK3   BANK2
      Params:         0       0       0       0       0
      Locals:         0       0       0       0       0
      Temps:          0       0       0       0       0
      Totals:         0       0       0       0       0
Total ram usage:        0 bytes
 Hardware stack levels used:    1
 Hardware stack levels required when called:    5
 This function calls:
		Nothing
 This function is called by:
		_main
 This function uses a non-reentrant model


 *************** function _ISR *****************
 Defined at:
		line 82 in file "C:\Users\332414\Documents\Fuzzy-IA2\Código em C no MPLAB\main.c"
 Parameters:    Size  Location     Type
		None
 Auto vars:     Size  Location     Type
		None
 Return value:  Size  Location     Type
		None               void
 Registers used:
		wreg, fsr0l, fsr0h, status,2, status,0, btemp+1, pclath, cstack
 Tracked objects:
		On entry : 
		On exit  : 
		Unchanged: 
 Data sizes:     COMMON   BANK0   BANK1   BANK3   BANK2
      Params:         0       0       0       0       0
      Locals:         0       0       6       0       0
      Temps:          0       4       0       0       0
      Totals:         0       4       6       0       0
Total ram usage:       10 bytes
 Hardware stack levels used:    1
 Hardware stack levels required when called:    4
 This function calls:
		___ftadd
		___ftdiv
		___ftmul
		___fttol
		___lwtoft
		_trapezoidal
		i1_PWM_DutyCycle2
		i1_TIMER0_Set
 This function is called by:
		Interrupt level 1
 This function uses a non-reentrant model


 *************** function i1_TIMER0_Set *****************
 Defined at:
		line 20 in file "C:\Users\332414\Documents\Fuzzy-IA2\Código em C no MPLAB\timers.c"
 Parameters:    Size  Location     Type
  contagens       1    wreg     unsigned char 
 Auto vars:     Size  Location     Type
  contagens       1    0[COMMON] unsigned char 
 Return value:  Size  Location     Type
		None               void
 Registers used:
		wreg
 Tracked objects:
		On entry : 
		On exit  : 
		Unchanged: 
 Data sizes:     COMMON   BANK0   BANK1   BANK3   BANK2
      Params:         0       0       0       0       0
      Locals:         1       0       0       0       0
      Temps:          0       0       0       0       0
      Totals:         1       0       0       0       0
Total ram usage:        1 bytes
 Hardware stack levels used:    1
 This function calls:
		Nothing
 This function is called by:
		_ISR
 This function uses a non-reentrant model


 *************** function i1_PWM_DutyCycle2 *****************
 Defined at:
		line 96 in file "C:\Users\332414\Documents\Fuzzy-IA2\Código em C no MPLAB\pwm.c"
 Parameters:    Size  Location     Type
  valor           2   68[BANK0 ] int 
 Auto vars:     Size  Location     Type
		None
 Return value:  Size  Location     Type
		None               void
 Registers used:
		wreg, status,2, status,0
 Tracked objects:
		On entry : 
		On exit  : 
		Unchanged: 
 Data sizes:     COMMON   BANK0   BANK1   BANK3   BANK2
      Params:         0       2       0       0       0
      Locals:         0       0       0       0       0
      Temps:          0       2       0       0       0
      Totals:         0       4       0       0       0
Total ram usage:        4 bytes
 Hardware stack levels used:    1
 This function calls:
		Nothing
 This function is called by:
		_ISR
 This function uses a non-reentrant model


 *************** function _trapezoidal *****************
 Defined at:
		line 41 in file "C:\Users\332414\Documents\Fuzzy-IA2\Código em C no MPLAB\main.c"
 Parameters:    Size  Location     Type
  x               3   23[BANK0 ] float 
  a               3   26[BANK0 ] float 
  b               3   29[BANK0 ] float 
  c               3   32[BANK0 ] float 
  d               3   35[BANK0 ] float 
 Auto vars:     Size  Location     Type
		None
 Return value:  Size  Location     Type
                  3   23[BANK0 ] float 
 Registers used:
		wreg, fsr0l, fsr0h, status,2, status,0, btemp+1, pclath, cstack
 Tracked objects:
		On entry : 
		On exit  : 
		Unchanged: 
 Data sizes:     COMMON   BANK0   BANK1   BANK3   BANK2
      Params:         0      15       0       0       0
      Locals:         0       0       0       0       0
      Temps:          0       0       0       0       0
      Totals:         0      15       0       0       0
Total ram usage:       15 bytes
 Hardware stack levels used:    1
 Hardware stack levels required when called:    3
 This function calls:
		___ftadd
		___ftdiv
		___ftge
		___ftneg
		_printf
 This function is called by:
		_ISR
 This function uses a non-reentrant model


 *************** function _printf *****************
 Defined at:
		line 13 in file "C:\Program Files (x86)\Microchip\xc8\v1.33\sources\common\printf.c"
 Parameters:    Size  Location     Type
  f               1    wreg     PTR const unsigned char 
		 -> STR_5(2), STR_4(2), STR_3(2), STR_2(2), 
		 -> STR_1(2), 
 Auto vars:     Size  Location     Type
  f               1   17[BANK0 ] PTR const unsigned char 
		 -> STR_5(2), STR_4(2), STR_3(2), STR_2(2), 
		 -> STR_1(2), 
  pb              2   19[BANK0 ] struct __prbuf
  ap              1   18[BANK0 ] PTR void [1]
		 -> ?_sprintf(2), ?_printf(2), 
 Return value:  Size  Location     Type
                  2    2[COMMON] int 
 Registers used:
		wreg, fsr0l, fsr0h, status,2, status,0, btemp+1, pclath, cstack
 Tracked objects:
		On entry : 
		On exit  : 
		Unchanged: 
 Data sizes:     COMMON   BANK0   BANK1   BANK3   BANK2
      Params:         0       0       0       0       0
      Locals:         0       4       0       0       0
      Temps:          0       2       0       0       0
      Totals:         0       6       0       0       0
Total ram usage:        6 bytes
 Hardware stack levels used:    1
 Hardware stack levels required when called:    2
 This function calls:
		i1__doprnt
 This function is called by:
		_trapezoidal
 This function uses a non-reentrant model


 *************** function i1__doprnt *****************
 Defined at:
		line 458 in file "C:\Program Files (x86)\Microchip\xc8\v1.33\sources\common\doprnt.c"
 Parameters:    Size  Location     Type
  pb              1    wreg     PTR struct __prbuf
		 -> sprintf@pb(2), printf@pb(2), 
  f               1    0[BANK0 ] PTR const unsigned char 
		 -> STR_9(5), STR_5(2), STR_4(2), STR_3(2), 
		 -> STR_2(2), STR_1(2), 
  ap              1    1[BANK0 ] PTR PTR void 
		 -> sprintf@ap(1), printf@ap(1), 
 Auto vars:     Size  Location     Type
  pb              1   14[BANK0 ] PTR struct __prbuf
		 -> sprintf@pb(2), printf@pb(2), 
  _doprnt         4    6[BANK0 ] struct .
  _doprnt         2   11[BANK0 ] int 
  _doprnt         1   13[BANK0 ] char 
  _doprnt         1   10[BANK0 ] unsigned char 
  _doprnt         1    5[BANK0 ] char 
 Return value:  Size  Location     Type
                  2    0[BANK0 ] int 
 Registers used:
		wreg, fsr0l, fsr0h, status,2, status,0, btemp+1, pclath, cstack
 Tracked objects:
		On entry : 
		On exit  : 
		Unchanged: 
 Data sizes:     COMMON   BANK0   BANK1   BANK3   BANK2
      Params:         0       2       0       0       0
      Locals:         0      10       0       0       0
      Temps:          0       3       0       0       0
      Totals:         0      15       0       0       0
Total ram usage:       15 bytes
 Hardware stack levels used:    1
 Hardware stack levels required when called:    1
 This function calls:
		Absolute function
		i1___lwdiv
		i1___lwmod
		i1___wmul
		i1_isdigit
		i1_putch
 This function is called by:
		_printf
 This function uses a non-reentrant model


 *************** function i1_putch *****************
 Defined at:
		line 7 in file "C:\Program Files (x86)\Microchip\xc8\v1.33\sources\common\putch.c"
 Parameters:    Size  Location     Type
  c               1    0[COMMON] unsigned char 
 Auto vars:     Size  Location     Type
		None
 Return value:  Size  Location     Type
		None               void
 Registers used:
		None
 Tracked objects:
		On entry : 
		On exit  : 
		Unchanged: 
 Data sizes:     COMMON   BANK0   BANK1   BANK3   BANK2
      Params:         1       0       0       0       0
      Locals:         0       0       0       0       0
      Temps:          0       0       0       0       0
      Totals:         1       0       0       0       0
Total ram usage:        1 bytes
 Hardware stack levels used:    1
 This function calls:
		Nothing
 This function is called by:
		_printf
 This function uses a non-reentrant model


 *************** function i1_isdigit *****************
 Defined at:
		line 8 in file "C:\Program Files (x86)\Microchip\xc8\v1.33\sources\common\isdigit.c"
 Parameters:    Size  Location     Type
  c               1    wreg     unsigned char 
 Auto vars:     Size  Location     Type
  c               1    1[COMMON] unsigned char 
 Return value:  Size  Location     Type
		None               void
 Registers used:
		wreg, status,2, status,0
 Tracked objects:
		On entry : 
		On exit  : 
		Unchanged: 
 Data sizes:     COMMON   BANK0   BANK1   BANK3   BANK2
      Params:         0       0       0       0       0
      Locals:         2       0       0       0       0
      Temps:          0       0       0       0       0
      Totals:         2       0       0       0       0
Total ram usage:        2 bytes
 Hardware stack levels used:    1
 This function calls:
		Nothing
 This function is called by:
		i1__doprnt
 This function uses a non-reentrant model


 *************** function i1___wmul *****************
 Defined at:
		line 15 in file "C:\Program Files (x86)\Microchip\xc8\v1.33\sources\common\Umul16.c"
 Parameters:    Size  Location     Type
  multiplier      2    0[COMMON] unsigned int 
  multiplicand    2    2[COMMON] unsigned int 
 Auto vars:     Size  Location     Type
  __wmul          2    4[COMMON] unsigned int 
 Return value:  Size  Location     Type
                  2    0[COMMON] unsigned int 
 Registers used:
		wreg, status,2, status,0
 Tracked objects:
		On entry : 
		On exit  : 
		Unchanged: 
 Data sizes:     COMMON   BANK0   BANK1   BANK3   BANK2
      Params:         4       0       0       0       0
      Locals:         2       0       0       0       0
      Temps:          0       0       0       0       0
      Totals:         6       0       0       0       0
Total ram usage:        6 bytes
 Hardware stack levels used:    1
 This function calls:
		Nothing
 This function is called by:
		i1__doprnt
 This function uses a non-reentrant model


 *************** function i1___lwmod *****************
 Defined at:
		line 6 in file "C:\Program Files (x86)\Microchip\xc8\v1.33\sources\common\lwmod.c"
 Parameters:    Size  Location     Type
  divisor         2    8[COMMON] unsigned int 
  dividend        2   10[COMMON] unsigned int 
 Auto vars:     Size  Location     Type
  __lwmod         1   13[COMMON] unsigned char 
 Return value:  Size  Location     Type
                  2    8[COMMON] unsigned int 
 Registers used:
		wreg, status,2, status,0
 Tracked objects:
		On entry : 
		On exit  : 
		Unchanged: 
 Data sizes:     COMMON   BANK0   BANK1   BANK3   BANK2
      Params:         4       0       0       0       0
      Locals:         1       0       0       0       0
      Temps:          1       0       0       0       0
      Totals:         6       0       0       0       0
Total ram usage:        6 bytes
 Hardware stack levels used:    1
 This function calls:
		Nothing
 This function is called by:
		i1__doprnt
 This function uses a non-reentrant model


 *************** function i1___lwdiv *****************
 Defined at:
		line 6 in file "C:\Program Files (x86)\Microchip\xc8\v1.33\sources\common\lwdiv.c"
 Parameters:    Size  Location     Type
  divisor         2    0[COMMON] unsigned int 
  dividend        2    2[COMMON] unsigned int 
 Auto vars:     Size  Location     Type
  __lwdiv         2    5[COMMON] unsigned int 
  __lwdiv         1    7[COMMON] unsigned char 
 Return value:  Size  Location     Type
                  2    0[COMMON] unsigned int 
 Registers used:
		wreg, status,2, status,0
 Tracked objects:
		On entry : 
		On exit  : 
		Unchanged: 
 Data sizes:     COMMON   BANK0   BANK1   BANK3   BANK2
      Params:         4       0       0       0       0
      Locals:         3       0       0       0       0
      Temps:          1       0       0       0       0
      Totals:         8       0       0       0       0
Total ram usage:        8 bytes
 Hardware stack levels used:    1
 This function calls:
		Nothing
 This function is called by:
		i1__doprnt
 This function uses a non-reentrant model


 *************** function ___ftneg *****************
 Defined at:
		line 15 in file "C:\Program Files (x86)\Microchip\xc8\v1.33\sources\common\ftneg.c"
 Parameters:    Size  Location     Type
  f1              3    0[COMMON] float 
 Auto vars:     Size  Location     Type
		None
 Return value:  Size  Location     Type
                  3    0[COMMON] float 
 Registers used:
		wreg
 Tracked objects:
		On entry : 
		On exit  : 
		Unchanged: 
 Data sizes:     COMMON   BANK0   BANK1   BANK3   BANK2
      Params:         3       0       0       0       0
      Locals:         0       0       0       0       0
      Temps:          0       0       0       0       0
      Totals:         3       0       0       0       0
Total ram usage:        3 bytes
 Hardware stack levels used:    1
 This function calls:
		Nothing
 This function is called by:
		_trapezoidal
		_triangular
 This function uses a non-reentrant model


 *************** function ___ftge *****************
 Defined at:
		line 4 in file "C:\Program Files (x86)\Microchip\xc8\v1.33\sources\common\ftge.c"
 Parameters:    Size  Location     Type
  ff1             3    0[COMMON] float 
  ff2             3    3[COMMON] float 
 Auto vars:     Size  Location     Type
		None
 Return value:  Size  Location     Type
		None               void
 Registers used:
		wreg, status,2, status,0
 Tracked objects:
		On entry : 
		On exit  : 
		Unchanged: 
 Data sizes:     COMMON   BANK0   BANK1   BANK3   BANK2
      Params:         6       0       0       0       0
      Locals:         0       0       0       0       0
      Temps:          6       0       0       0       0
      Totals:        12       0       0       0       0
Total ram usage:       12 bytes
 Hardware stack levels used:    1
 This function calls:
		Nothing
 This function is called by:
		_trapezoidal
		_triangular
 This function uses a non-reentrant model


 *************** function ___ftdiv *****************
 Defined at:
		line 49 in file "C:\Program Files (x86)\Microchip\xc8\v1.33\sources\pic\ftdiv.c"
 Parameters:    Size  Location     Type
  f2              3    7[BANK0 ] float 
  f1              3   10[BANK0 ] float 
 Auto vars:     Size  Location     Type
  f3              3   18[BANK0 ] float 
  sign            1   22[BANK0 ] unsigned char 
  exp             1   21[BANK0 ] unsigned char 
  cntr            1   17[BANK0 ] unsigned char 
 Return value:  Size  Location     Type
                  3    7[BANK0 ] float 
 Registers used:
		wreg, status,2, status,0, pclath, cstack
 Tracked objects:
		On entry : 
		On exit  : 
		Unchanged: 
 Data sizes:     COMMON   BANK0   BANK1   BANK3   BANK2
      Params:         0       6       0       0       0
      Locals:         0       6       0       0       0
      Temps:          0       4       0       0       0
      Totals:         0      16       0       0       0
Total ram usage:       16 bytes
 Hardware stack levels used:    1
 Hardware stack levels required when called:    1
 This function calls:
		___ftpack
 This function is called by:
		_trapezoidal
		_ISR
		_triangular
 This function uses a non-reentrant model


 *************** function ___ftadd *****************
 Defined at:
		line 86 in file "C:\Program Files (x86)\Microchip\xc8\v1.33\sources\common\ftadd.c"
 Parameters:    Size  Location     Type
  f1              3    8[COMMON] float 
  f2              3   11[COMMON] float 
 Auto vars:     Size  Location     Type
  exp1            1    6[BANK0 ] unsigned char 
  exp2            1    5[BANK0 ] unsigned char 
  sign            1    4[BANK0 ] unsigned char 
 Return value:  Size  Location     Type
                  3    8[COMMON] float 
 Registers used:
		wreg, status,2, status,0, pclath, cstack
 Tracked objects:
		On entry : 
		On exit  : 
		Unchanged: 
 Data sizes:     COMMON   BANK0   BANK1   BANK3   BANK2
      Params:         6       0       0       0       0
      Locals:         0       3       0       0       0
      Temps:          0       4       0       0       0
      Totals:         6       7       0       0       0
Total ram usage:       13 bytes
 Hardware stack levels used:    1
 Hardware stack levels required when called:    1
 This function calls:
		___ftpack
 This function is called by:
		_trapezoidal
		_ISR
		_triangular
 This function uses a non-reentrant model


 *************** function ___lwtoft *****************
 Defined at:
		line 28 in file "C:\Program Files (x86)\Microchip\xc8\v1.33\sources\common\lwtoft.c"
 Parameters:    Size  Location     Type
  c               2    8[COMMON] unsigned int 
 Auto vars:     Size  Location     Type
		None
 Return value:  Size  Location     Type
                  3    8[COMMON] float 
 Registers used:
		wreg, status,2, status,0, pclath, cstack
 Tracked objects:
		On entry : 
		On exit  : 
		Unchanged: 
 Data sizes:     COMMON   BANK0   BANK1   BANK3   BANK2
      Params:         3       0       0       0       0
      Locals:         0       0       0       0       0
      Temps:          1       0       0       0       0
      Totals:         4       0       0       0       0
Total ram usage:        4 bytes
 Hardware stack levels used:    1
 Hardware stack levels required when called:    1
 This function calls:
		___ftpack
 This function is called by:
		_ISR
 This function uses a non-reentrant model


 *************** function ___fttol *****************
 Defined at:
		line 44 in file "C:\Program Files (x86)\Microchip\xc8\v1.33\sources\common\fttol.c"
 Parameters:    Size  Location     Type
  f1              3   54[BANK0 ] float 
 Auto vars:     Size  Location     Type
  lval            4   63[BANK0 ] unsigned long 
  exp1            1   67[BANK0 ] unsigned char 
  sign1           1   62[BANK0 ] unsigned char 
 Return value:  Size  Location     Type
                  4   54[BANK0 ] long 
 Registers used:
		wreg, status,2, status,0
 Tracked objects:
		On entry : 
		On exit  : 
		Unchanged: 
 Data sizes:     COMMON   BANK0   BANK1   BANK3   BANK2
      Params:         0       4       0       0       0
      Locals:         0       6       0       0       0
      Temps:          0       4       0       0       0
      Totals:         0      14       0       0       0
Total ram usage:       14 bytes
 Hardware stack levels used:    1
 This function calls:
		Nothing
 This function is called by:
		_ISR
 This function uses a non-reentrant model


 *************** function ___ftmul *****************
 Defined at:
		line 62 in file "C:\Program Files (x86)\Microchip\xc8\v1.33\sources\common\ftmul.c"
 Parameters:    Size  Location     Type
  f1              3   38[BANK0 ] float 
  f2              3   41[BANK0 ] float 
 Auto vars:     Size  Location     Type
  f3_as_produc    3   49[BANK0 ] unsigned um
  sign            1   53[BANK0 ] unsigned char 
  cntr            1   52[BANK0 ] unsigned char 
  exp             1   48[BANK0 ] unsigned char 
 Return value:  Size  Location     Type
                  3   38[BANK0 ] float 
 Registers used:
		wreg, status,2, status,0, pclath, cstack
 Tracked objects:
		On entry : 
		On exit  : 
		Unchanged: 
 Data sizes:     COMMON   BANK0   BANK1   BANK3   BANK2
      Params:         0       6       0       0       0
      Locals:         0       6       0       0       0
      Temps:          0       4       0       0       0
      Totals:         0      16       0       0       0
Total ram usage:       16 bytes
 Hardware stack levels used:    1
 Hardware stack levels required when called:    1
 This function calls:
		___ftpack
 This function is called by:
		_ISR
 This function uses a non-reentrant model


 *************** function ___ftpack *****************
 Defined at:
		line 62 in file "C:\Program Files (x86)\Microchip\xc8\v1.33\sources\common\float.c"
 Parameters:    Size  Location     Type
  arg             3    0[COMMON] unsigned um
  exp             1    3[COMMON] unsigned char 
  sign            1    4[COMMON] unsigned char 
 Auto vars:     Size  Location     Type
		None
 Return value:  Size  Location     Type
                  3    0[COMMON] float 
 Registers used:
		wreg, status,2, status,0
 Tracked objects:
		On entry : 
		On exit  : 
		Unchanged: 
 Data sizes:     COMMON   BANK0   BANK1   BANK3   BANK2
      Params:         5       0       0       0       0
      Locals:         0       0       0       0       0
      Temps:          3       0       0       0       0
      Totals:         8       0       0       0       0
Total ram usage:        8 bytes
 Hardware stack levels used:    1
 This function calls:
		Nothing
 This function is called by:
		___ftadd
		___ftdiv
		___ftmul
		___lwtoft
 This function uses a non-reentrant model



MODULE INFORMATION

Module		Function		Class		Link	Load	Size
C:\Users\332414\Documents\Fuzzy-IA2\Código em C no MPLAB\adc.c
		_ADC_Init      		CODE           	167F	0000	18

C:\Users\332414\Documents\Fuzzy-IA2\Código em C no MPLAB\adc.c estimated size: 18

C:\Program Files (x86)\Microchip\xc8\v1.33\sources\common\ftneg.c
		___ftneg       		CODE           	163C	0000	8

C:\Program Files (x86)\Microchip\xc8\v1.33\sources\common\ftneg.c estimated size: 8

C:\Program Files (x86)\Microchip\xc8\v1.33\sources\common\ftge.c
		___ftge        		CODE           	098C	0000	93

C:\Program Files (x86)\Microchip\xc8\v1.33\sources\common\ftge.c estimated size: 93

C:\Program Files (x86)\Microchip\xc8\v1.33\sources\common\doprnt.c
		__doprnt       		CODE           	0112	0000	595

C:\Program Files (x86)\Microchip\xc8\v1.33\sources\common\doprnt.c estimated size: 595

C:\Program Files (x86)\Microchip\xc8\v1.33\sources\common\float.c
		___ftpack      		CODE           	09E9	0000	104

C:\Program Files (x86)\Microchip\xc8\v1.33\sources\common\float.c estimated size: 104

C:\Program Files (x86)\Microchip\xc8\v1.33\sources\common\sprintf.c
		_sprintf       		CODE           	1707	0000	31

C:\Program Files (x86)\Microchip\xc8\v1.33\sources\common\sprintf.c estimated size: 31

C:\Program Files (x86)\Microchip\xc8\v1.33\sources\common\lwmod.c
		___lwmod       		CODE           	088F	0000	54

C:\Program Files (x86)\Microchip\xc8\v1.33\sources\common\lwmod.c estimated size: 54

C:\Program Files (x86)\Microchip\xc8\v1.33\sources\common\Umul16.c
		___wmul        		CODE           	0805	0000	37

C:\Program Files (x86)\Microchip\xc8\v1.33\sources\common\Umul16.c estimated size: 37

C:\Program Files (x86)\Microchip\xc8\v1.33\sources\common\putch.c
		_putch         		CODE           	0003	0000	1

C:\Program Files (x86)\Microchip\xc8\v1.33\sources\common\putch.c estimated size: 1

C:\Users\332414\Documents\Fuzzy-IA2\Código em C no MPLAB\lcd.c
		_LCD_Init      		CODE           	0A51	0000	107
		_LCD_WriteStrin		CODE           	17CF	0000	49
		_LCD_Clear     		CODE           	00D1	0000	41
		_LCD_Cursor    		CODE           	1726	0000	32
		_LCD_WriteCmd  		CODE           	16A5	0000	23
		_LCD_WriteData 		CODE           	16BC	0000	23

C:\Users\332414\Documents\Fuzzy-IA2\Código em C no MPLAB\lcd.c estimated size: 275

C:\Program Files (x86)\Microchip\xc8\v1.33\sources\common\ftmul.c
		___ftmul       		CODE           	0BD9	0000	211

C:\Program Files (x86)\Microchip\xc8\v1.33\sources\common\ftmul.c estimated size: 211

C:\Program Files (x86)\Microchip\xc8\v1.33\sources\common\lwdiv.c
		___lwdiv       		CODE           	0903	0000	64

C:\Program Files (x86)\Microchip\xc8\v1.33\sources\common\lwdiv.c estimated size: 64

C:\Users\332414\Documents\Fuzzy-IA2\Código em C no MPLAB\usart.c
		_USART_WriteCha		CODE           	1654	0000	13
		_USART_WriteStr		CODE           	082A	0000	49
		_USART_Init    		CODE           	0943	0000	73

C:\Users\332414\Documents\Fuzzy-IA2\Código em C no MPLAB\usart.c estimated size: 135

C:\Program Files (x86)\Microchip\xc8\v1.33\sources\common\printf.c
		_printf        		CODE           	16D3	0000	25

C:\Program Files (x86)\Microchip\xc8\v1.33\sources\common\printf.c estimated size: 25

shared
		i1_TIMER0_Set  		CODE           	00FA	0000	6
		i1_putch       		CODE           	0801	0000	1
		__stringtab    		STRING         	0038	0000	16
		i1_PWM_DutyCycl		CODE           	16EC	0000	27
		__i1fptable    		CODE           	0109	0000	9
		__stringdata   		STRING         	0052	0000	127
		i1___lwdiv     		CODE           	08C5	0000	62
		_dpowers       		STRING         	0048	0000	10
		i1_isdigit     		CODE           	1661	0000	14
		i1___wmul      		CODE           	1788	0000	35
		i1__doprnt     		CODE           	0365	0000	593
		i1___lwmod     		CODE           	085B	0000	52
		__initializatio		CODE           	0015	0000	31
		__fptable      		CODE           	0100	0000	9

shared estimated size: 992

C:\Program Files (x86)\Microchip\xc8\v1.33\sources\common\aldiv.c
		___aldiv       		CODE           	0B4A	0000	143

C:\Program Files (x86)\Microchip\xc8\v1.33\sources\common\aldiv.c estimated size: 143

C:\Users\332414\Documents\Fuzzy-IA2\Código em C no MPLAB\timers.c
		_TIMER0_Set    		CODE           	1644	0000	8
		_TIMER0_Init   		CODE           	07F5	0000	11

C:\Users\332414\Documents\Fuzzy-IA2\Código em C no MPLAB\timers.c estimated size: 19

C:\Users\332414\Documents\Fuzzy-IA2\Código em C no MPLAB\main.c
		_ISR           		CODE           	0EC3	0000	317
		_main          		CODE           	0DB3	0000	272
		_trapezoidal   		CODE           	05B6	0000	391

C:\Users\332414\Documents\Fuzzy-IA2\Código em C no MPLAB\main.c estimated size: 980

C:\Program Files (x86)\Microchip\xc8\v1.33\sources\common\fttol.c
		___fttol       		CODE           	0ABC	0000	142

C:\Program Files (x86)\Microchip\xc8\v1.33\sources\common\fttol.c estimated size: 142

C:\Program Files (x86)\Microchip\xc8\v1.33\sources\common\ftadd.c
		___ftadd       		CODE           	0CAC	0000	263

C:\Program Files (x86)\Microchip\xc8\v1.33\sources\common\ftadd.c estimated size: 263

C:\Program Files (x86)\Microchip\xc8\v1.33\sources\pic\ftdiv.c
		___ftdiv       		CODE           	073D	0000	184

C:\Program Files (x86)\Microchip\xc8\v1.33\sources\pic\ftdiv.c estimated size: 184

C:\Program Files (x86)\Microchip\xc8\v1.33\sources\common\lwtoft.c
		___lwtoft      		CODE           	1691	0000	20

C:\Program Files (x86)\Microchip\xc8\v1.33\sources\common\lwtoft.c estimated size: 20

C:\Users\332414\Documents\Fuzzy-IA2\Código em C no MPLAB\pwm.c
		_PWM_DutyCycle1		CODE           	1746	0000	33
		_PWM_DutyCycle2		CODE           	1767	0000	33
		_PWM_Init      		CODE           	17AB	0000	36

C:\Users\332414\Documents\Fuzzy-IA2\Código em C no MPLAB\pwm.c estimated size: 102

C:\Program Files (x86)\Microchip\xc8\v1.33\sources\common\isdigit.c
		_isdigit       		CODE           	166F	0000	16

C:\Program Files (x86)\Microchip\xc8\v1.33\sources\common\isdigit.c estimated size: 16

