opt subtitle "Microchip Technology Omniscient Code Generator (Lite mode) build 59893"

opt pagewidth 120

	opt lm

	processor	16F877A
clrc	macro
	bcf	3,0
	endm
clrz	macro
	bcf	3,2
	endm
setc	macro
	bsf	3,0
	endm
setz	macro
	bsf	3,2
	endm
skipc	macro
	btfss	3,0
	endm
skipz	macro
	btfss	3,2
	endm
skipnc	macro
	btfsc	3,0
	endm
skipnz	macro
	btfsc	3,2
	endm
indf	equ	0
indf0	equ	0
pc	equ	2
pcl	equ	2
status	equ	3
fsr	equ	4
fsr0	equ	4
c	equ	1
z	equ	0
pclath	equ	10
# 49 "C:\Program Files (x86)\Microchip\xc8\v1.33\include\pic16f877a.h"
INDF equ 00h ;# 
# 55 "C:\Program Files (x86)\Microchip\xc8\v1.33\include\pic16f877a.h"
TMR0 equ 01h ;# 
# 61 "C:\Program Files (x86)\Microchip\xc8\v1.33\include\pic16f877a.h"
PCL equ 02h ;# 
# 67 "C:\Program Files (x86)\Microchip\xc8\v1.33\include\pic16f877a.h"
STATUS equ 03h ;# 
# 154 "C:\Program Files (x86)\Microchip\xc8\v1.33\include\pic16f877a.h"
FSR equ 04h ;# 
# 160 "C:\Program Files (x86)\Microchip\xc8\v1.33\include\pic16f877a.h"
PORTA equ 05h ;# 
# 209 "C:\Program Files (x86)\Microchip\xc8\v1.33\include\pic16f877a.h"
PORTB equ 06h ;# 
# 270 "C:\Program Files (x86)\Microchip\xc8\v1.33\include\pic16f877a.h"
PORTC equ 07h ;# 
# 331 "C:\Program Files (x86)\Microchip\xc8\v1.33\include\pic16f877a.h"
PORTD equ 08h ;# 
# 392 "C:\Program Files (x86)\Microchip\xc8\v1.33\include\pic16f877a.h"
PORTE equ 09h ;# 
# 423 "C:\Program Files (x86)\Microchip\xc8\v1.33\include\pic16f877a.h"
PCLATH equ 0Ah ;# 
# 442 "C:\Program Files (x86)\Microchip\xc8\v1.33\include\pic16f877a.h"
INTCON equ 0Bh ;# 
# 519 "C:\Program Files (x86)\Microchip\xc8\v1.33\include\pic16f877a.h"
PIR1 equ 0Ch ;# 
# 580 "C:\Program Files (x86)\Microchip\xc8\v1.33\include\pic16f877a.h"
PIR2 equ 0Dh ;# 
# 619 "C:\Program Files (x86)\Microchip\xc8\v1.33\include\pic16f877a.h"
TMR1 equ 0Eh ;# 
# 625 "C:\Program Files (x86)\Microchip\xc8\v1.33\include\pic16f877a.h"
TMR1L equ 0Eh ;# 
# 631 "C:\Program Files (x86)\Microchip\xc8\v1.33\include\pic16f877a.h"
TMR1H equ 0Fh ;# 
# 637 "C:\Program Files (x86)\Microchip\xc8\v1.33\include\pic16f877a.h"
T1CON equ 010h ;# 
# 711 "C:\Program Files (x86)\Microchip\xc8\v1.33\include\pic16f877a.h"
TMR2 equ 011h ;# 
# 717 "C:\Program Files (x86)\Microchip\xc8\v1.33\include\pic16f877a.h"
T2CON equ 012h ;# 
# 787 "C:\Program Files (x86)\Microchip\xc8\v1.33\include\pic16f877a.h"
SSPBUF equ 013h ;# 
# 793 "C:\Program Files (x86)\Microchip\xc8\v1.33\include\pic16f877a.h"
SSPCON equ 014h ;# 
# 862 "C:\Program Files (x86)\Microchip\xc8\v1.33\include\pic16f877a.h"
CCPR1 equ 015h ;# 
# 868 "C:\Program Files (x86)\Microchip\xc8\v1.33\include\pic16f877a.h"
CCPR1L equ 015h ;# 
# 874 "C:\Program Files (x86)\Microchip\xc8\v1.33\include\pic16f877a.h"
CCPR1H equ 016h ;# 
# 880 "C:\Program Files (x86)\Microchip\xc8\v1.33\include\pic16f877a.h"
CCP1CON equ 017h ;# 
# 937 "C:\Program Files (x86)\Microchip\xc8\v1.33\include\pic16f877a.h"
RCSTA equ 018h ;# 
# 1031 "C:\Program Files (x86)\Microchip\xc8\v1.33\include\pic16f877a.h"
TXREG equ 019h ;# 
# 1037 "C:\Program Files (x86)\Microchip\xc8\v1.33\include\pic16f877a.h"
RCREG equ 01Ah ;# 
# 1043 "C:\Program Files (x86)\Microchip\xc8\v1.33\include\pic16f877a.h"
CCPR2 equ 01Bh ;# 
# 1049 "C:\Program Files (x86)\Microchip\xc8\v1.33\include\pic16f877a.h"
CCPR2L equ 01Bh ;# 
# 1055 "C:\Program Files (x86)\Microchip\xc8\v1.33\include\pic16f877a.h"
CCPR2H equ 01Ch ;# 
# 1061 "C:\Program Files (x86)\Microchip\xc8\v1.33\include\pic16f877a.h"
CCP2CON equ 01Dh ;# 
# 1118 "C:\Program Files (x86)\Microchip\xc8\v1.33\include\pic16f877a.h"
ADRESH equ 01Eh ;# 
# 1124 "C:\Program Files (x86)\Microchip\xc8\v1.33\include\pic16f877a.h"
ADCON0 equ 01Fh ;# 
# 1219 "C:\Program Files (x86)\Microchip\xc8\v1.33\include\pic16f877a.h"
OPTION_REG equ 081h ;# 
# 1288 "C:\Program Files (x86)\Microchip\xc8\v1.33\include\pic16f877a.h"
TRISA equ 085h ;# 
# 1337 "C:\Program Files (x86)\Microchip\xc8\v1.33\include\pic16f877a.h"
TRISB equ 086h ;# 
# 1398 "C:\Program Files (x86)\Microchip\xc8\v1.33\include\pic16f877a.h"
TRISC equ 087h ;# 
# 1459 "C:\Program Files (x86)\Microchip\xc8\v1.33\include\pic16f877a.h"
TRISD equ 088h ;# 
# 1520 "C:\Program Files (x86)\Microchip\xc8\v1.33\include\pic16f877a.h"
TRISE equ 089h ;# 
# 1576 "C:\Program Files (x86)\Microchip\xc8\v1.33\include\pic16f877a.h"
PIE1 equ 08Ch ;# 
# 1637 "C:\Program Files (x86)\Microchip\xc8\v1.33\include\pic16f877a.h"
PIE2 equ 08Dh ;# 
# 1676 "C:\Program Files (x86)\Microchip\xc8\v1.33\include\pic16f877a.h"
PCON equ 08Eh ;# 
# 1709 "C:\Program Files (x86)\Microchip\xc8\v1.33\include\pic16f877a.h"
SSPCON2 equ 091h ;# 
# 1770 "C:\Program Files (x86)\Microchip\xc8\v1.33\include\pic16f877a.h"
PR2 equ 092h ;# 
# 1776 "C:\Program Files (x86)\Microchip\xc8\v1.33\include\pic16f877a.h"
SSPADD equ 093h ;# 
# 1782 "C:\Program Files (x86)\Microchip\xc8\v1.33\include\pic16f877a.h"
SSPSTAT equ 094h ;# 
# 1950 "C:\Program Files (x86)\Microchip\xc8\v1.33\include\pic16f877a.h"
TXSTA equ 098h ;# 
# 2030 "C:\Program Files (x86)\Microchip\xc8\v1.33\include\pic16f877a.h"
SPBRG equ 099h ;# 
# 2036 "C:\Program Files (x86)\Microchip\xc8\v1.33\include\pic16f877a.h"
CMCON equ 09Ch ;# 
# 2105 "C:\Program Files (x86)\Microchip\xc8\v1.33\include\pic16f877a.h"
CVRCON equ 09Dh ;# 
# 2169 "C:\Program Files (x86)\Microchip\xc8\v1.33\include\pic16f877a.h"
ADRESL equ 09Eh ;# 
# 2175 "C:\Program Files (x86)\Microchip\xc8\v1.33\include\pic16f877a.h"
ADCON1 equ 09Fh ;# 
# 2233 "C:\Program Files (x86)\Microchip\xc8\v1.33\include\pic16f877a.h"
EEDATA equ 010Ch ;# 
# 2239 "C:\Program Files (x86)\Microchip\xc8\v1.33\include\pic16f877a.h"
EEADR equ 010Dh ;# 
# 2245 "C:\Program Files (x86)\Microchip\xc8\v1.33\include\pic16f877a.h"
EEDATH equ 010Eh ;# 
# 2251 "C:\Program Files (x86)\Microchip\xc8\v1.33\include\pic16f877a.h"
EEADRH equ 010Fh ;# 
# 2257 "C:\Program Files (x86)\Microchip\xc8\v1.33\include\pic16f877a.h"
EECON1 equ 018Ch ;# 
# 2301 "C:\Program Files (x86)\Microchip\xc8\v1.33\include\pic16f877a.h"
EECON2 equ 018Dh ;# 
# 49 "C:\Program Files (x86)\Microchip\xc8\v1.33\include\pic16f877a.h"
INDF equ 00h ;# 
# 55 "C:\Program Files (x86)\Microchip\xc8\v1.33\include\pic16f877a.h"
TMR0 equ 01h ;# 
# 61 "C:\Program Files (x86)\Microchip\xc8\v1.33\include\pic16f877a.h"
PCL equ 02h ;# 
# 67 "C:\Program Files (x86)\Microchip\xc8\v1.33\include\pic16f877a.h"
STATUS equ 03h ;# 
# 154 "C:\Program Files (x86)\Microchip\xc8\v1.33\include\pic16f877a.h"
FSR equ 04h ;# 
# 160 "C:\Program Files (x86)\Microchip\xc8\v1.33\include\pic16f877a.h"
PORTA equ 05h ;# 
# 209 "C:\Program Files (x86)\Microchip\xc8\v1.33\include\pic16f877a.h"
PORTB equ 06h ;# 
# 270 "C:\Program Files (x86)\Microchip\xc8\v1.33\include\pic16f877a.h"
PORTC equ 07h ;# 
# 331 "C:\Program Files (x86)\Microchip\xc8\v1.33\include\pic16f877a.h"
PORTD equ 08h ;# 
# 392 "C:\Program Files (x86)\Microchip\xc8\v1.33\include\pic16f877a.h"
PORTE equ 09h ;# 
# 423 "C:\Program Files (x86)\Microchip\xc8\v1.33\include\pic16f877a.h"
PCLATH equ 0Ah ;# 
# 442 "C:\Program Files (x86)\Microchip\xc8\v1.33\include\pic16f877a.h"
INTCON equ 0Bh ;# 
# 519 "C:\Program Files (x86)\Microchip\xc8\v1.33\include\pic16f877a.h"
PIR1 equ 0Ch ;# 
# 580 "C:\Program Files (x86)\Microchip\xc8\v1.33\include\pic16f877a.h"
PIR2 equ 0Dh ;# 
# 619 "C:\Program Files (x86)\Microchip\xc8\v1.33\include\pic16f877a.h"
TMR1 equ 0Eh ;# 
# 625 "C:\Program Files (x86)\Microchip\xc8\v1.33\include\pic16f877a.h"
TMR1L equ 0Eh ;# 
# 631 "C:\Program Files (x86)\Microchip\xc8\v1.33\include\pic16f877a.h"
TMR1H equ 0Fh ;# 
# 637 "C:\Program Files (x86)\Microchip\xc8\v1.33\include\pic16f877a.h"
T1CON equ 010h ;# 
# 711 "C:\Program Files (x86)\Microchip\xc8\v1.33\include\pic16f877a.h"
TMR2 equ 011h ;# 
# 717 "C:\Program Files (x86)\Microchip\xc8\v1.33\include\pic16f877a.h"
T2CON equ 012h ;# 
# 787 "C:\Program Files (x86)\Microchip\xc8\v1.33\include\pic16f877a.h"
SSPBUF equ 013h ;# 
# 793 "C:\Program Files (x86)\Microchip\xc8\v1.33\include\pic16f877a.h"
SSPCON equ 014h ;# 
# 862 "C:\Program Files (x86)\Microchip\xc8\v1.33\include\pic16f877a.h"
CCPR1 equ 015h ;# 
# 868 "C:\Program Files (x86)\Microchip\xc8\v1.33\include\pic16f877a.h"
CCPR1L equ 015h ;# 
# 874 "C:\Program Files (x86)\Microchip\xc8\v1.33\include\pic16f877a.h"
CCPR1H equ 016h ;# 
# 880 "C:\Program Files (x86)\Microchip\xc8\v1.33\include\pic16f877a.h"
CCP1CON equ 017h ;# 
# 937 "C:\Program Files (x86)\Microchip\xc8\v1.33\include\pic16f877a.h"
RCSTA equ 018h ;# 
# 1031 "C:\Program Files (x86)\Microchip\xc8\v1.33\include\pic16f877a.h"
TXREG equ 019h ;# 
# 1037 "C:\Program Files (x86)\Microchip\xc8\v1.33\include\pic16f877a.h"
RCREG equ 01Ah ;# 
# 1043 "C:\Program Files (x86)\Microchip\xc8\v1.33\include\pic16f877a.h"
CCPR2 equ 01Bh ;# 
# 1049 "C:\Program Files (x86)\Microchip\xc8\v1.33\include\pic16f877a.h"
CCPR2L equ 01Bh ;# 
# 1055 "C:\Program Files (x86)\Microchip\xc8\v1.33\include\pic16f877a.h"
CCPR2H equ 01Ch ;# 
# 1061 "C:\Program Files (x86)\Microchip\xc8\v1.33\include\pic16f877a.h"
CCP2CON equ 01Dh ;# 
# 1118 "C:\Program Files (x86)\Microchip\xc8\v1.33\include\pic16f877a.h"
ADRESH equ 01Eh ;# 
# 1124 "C:\Program Files (x86)\Microchip\xc8\v1.33\include\pic16f877a.h"
ADCON0 equ 01Fh ;# 
# 1219 "C:\Program Files (x86)\Microchip\xc8\v1.33\include\pic16f877a.h"
OPTION_REG equ 081h ;# 
# 1288 "C:\Program Files (x86)\Microchip\xc8\v1.33\include\pic16f877a.h"
TRISA equ 085h ;# 
# 1337 "C:\Program Files (x86)\Microchip\xc8\v1.33\include\pic16f877a.h"
TRISB equ 086h ;# 
# 1398 "C:\Program Files (x86)\Microchip\xc8\v1.33\include\pic16f877a.h"
TRISC equ 087h ;# 
# 1459 "C:\Program Files (x86)\Microchip\xc8\v1.33\include\pic16f877a.h"
TRISD equ 088h ;# 
# 1520 "C:\Program Files (x86)\Microchip\xc8\v1.33\include\pic16f877a.h"
TRISE equ 089h ;# 
# 1576 "C:\Program Files (x86)\Microchip\xc8\v1.33\include\pic16f877a.h"
PIE1 equ 08Ch ;# 
# 1637 "C:\Program Files (x86)\Microchip\xc8\v1.33\include\pic16f877a.h"
PIE2 equ 08Dh ;# 
# 1676 "C:\Program Files (x86)\Microchip\xc8\v1.33\include\pic16f877a.h"
PCON equ 08Eh ;# 
# 1709 "C:\Program Files (x86)\Microchip\xc8\v1.33\include\pic16f877a.h"
SSPCON2 equ 091h ;# 
# 1770 "C:\Program Files (x86)\Microchip\xc8\v1.33\include\pic16f877a.h"
PR2 equ 092h ;# 
# 1776 "C:\Program Files (x86)\Microchip\xc8\v1.33\include\pic16f877a.h"
SSPADD equ 093h ;# 
# 1782 "C:\Program Files (x86)\Microchip\xc8\v1.33\include\pic16f877a.h"
SSPSTAT equ 094h ;# 
# 1950 "C:\Program Files (x86)\Microchip\xc8\v1.33\include\pic16f877a.h"
TXSTA equ 098h ;# 
# 2030 "C:\Program Files (x86)\Microchip\xc8\v1.33\include\pic16f877a.h"
SPBRG equ 099h ;# 
# 2036 "C:\Program Files (x86)\Microchip\xc8\v1.33\include\pic16f877a.h"
CMCON equ 09Ch ;# 
# 2105 "C:\Program Files (x86)\Microchip\xc8\v1.33\include\pic16f877a.h"
CVRCON equ 09Dh ;# 
# 2169 "C:\Program Files (x86)\Microchip\xc8\v1.33\include\pic16f877a.h"
ADRESL equ 09Eh ;# 
# 2175 "C:\Program Files (x86)\Microchip\xc8\v1.33\include\pic16f877a.h"
ADCON1 equ 09Fh ;# 
# 2233 "C:\Program Files (x86)\Microchip\xc8\v1.33\include\pic16f877a.h"
EEDATA equ 010Ch ;# 
# 2239 "C:\Program Files (x86)\Microchip\xc8\v1.33\include\pic16f877a.h"
EEADR equ 010Dh ;# 
# 2245 "C:\Program Files (x86)\Microchip\xc8\v1.33\include\pic16f877a.h"
EEDATH equ 010Eh ;# 
# 2251 "C:\Program Files (x86)\Microchip\xc8\v1.33\include\pic16f877a.h"
EEADRH equ 010Fh ;# 
# 2257 "C:\Program Files (x86)\Microchip\xc8\v1.33\include\pic16f877a.h"
EECON1 equ 018Ch ;# 
# 2301 "C:\Program Files (x86)\Microchip\xc8\v1.33\include\pic16f877a.h"
EECON2 equ 018Dh ;# 
# 49 "C:\Program Files (x86)\Microchip\xc8\v1.33\include\pic16f877a.h"
INDF equ 00h ;# 
# 55 "C:\Program Files (x86)\Microchip\xc8\v1.33\include\pic16f877a.h"
TMR0 equ 01h ;# 
# 61 "C:\Program Files (x86)\Microchip\xc8\v1.33\include\pic16f877a.h"
PCL equ 02h ;# 
# 67 "C:\Program Files (x86)\Microchip\xc8\v1.33\include\pic16f877a.h"
STATUS equ 03h ;# 
# 154 "C:\Program Files (x86)\Microchip\xc8\v1.33\include\pic16f877a.h"
FSR equ 04h ;# 
# 160 "C:\Program Files (x86)\Microchip\xc8\v1.33\include\pic16f877a.h"
PORTA equ 05h ;# 
# 209 "C:\Program Files (x86)\Microchip\xc8\v1.33\include\pic16f877a.h"
PORTB equ 06h ;# 
# 270 "C:\Program Files (x86)\Microchip\xc8\v1.33\include\pic16f877a.h"
PORTC equ 07h ;# 
# 331 "C:\Program Files (x86)\Microchip\xc8\v1.33\include\pic16f877a.h"
PORTD equ 08h ;# 
# 392 "C:\Program Files (x86)\Microchip\xc8\v1.33\include\pic16f877a.h"
PORTE equ 09h ;# 
# 423 "C:\Program Files (x86)\Microchip\xc8\v1.33\include\pic16f877a.h"
PCLATH equ 0Ah ;# 
# 442 "C:\Program Files (x86)\Microchip\xc8\v1.33\include\pic16f877a.h"
INTCON equ 0Bh ;# 
# 519 "C:\Program Files (x86)\Microchip\xc8\v1.33\include\pic16f877a.h"
PIR1 equ 0Ch ;# 
# 580 "C:\Program Files (x86)\Microchip\xc8\v1.33\include\pic16f877a.h"
PIR2 equ 0Dh ;# 
# 619 "C:\Program Files (x86)\Microchip\xc8\v1.33\include\pic16f877a.h"
TMR1 equ 0Eh ;# 
# 625 "C:\Program Files (x86)\Microchip\xc8\v1.33\include\pic16f877a.h"
TMR1L equ 0Eh ;# 
# 631 "C:\Program Files (x86)\Microchip\xc8\v1.33\include\pic16f877a.h"
TMR1H equ 0Fh ;# 
# 637 "C:\Program Files (x86)\Microchip\xc8\v1.33\include\pic16f877a.h"
T1CON equ 010h ;# 
# 711 "C:\Program Files (x86)\Microchip\xc8\v1.33\include\pic16f877a.h"
TMR2 equ 011h ;# 
# 717 "C:\Program Files (x86)\Microchip\xc8\v1.33\include\pic16f877a.h"
T2CON equ 012h ;# 
# 787 "C:\Program Files (x86)\Microchip\xc8\v1.33\include\pic16f877a.h"
SSPBUF equ 013h ;# 
# 793 "C:\Program Files (x86)\Microchip\xc8\v1.33\include\pic16f877a.h"
SSPCON equ 014h ;# 
# 862 "C:\Program Files (x86)\Microchip\xc8\v1.33\include\pic16f877a.h"
CCPR1 equ 015h ;# 
# 868 "C:\Program Files (x86)\Microchip\xc8\v1.33\include\pic16f877a.h"
CCPR1L equ 015h ;# 
# 874 "C:\Program Files (x86)\Microchip\xc8\v1.33\include\pic16f877a.h"
CCPR1H equ 016h ;# 
# 880 "C:\Program Files (x86)\Microchip\xc8\v1.33\include\pic16f877a.h"
CCP1CON equ 017h ;# 
# 937 "C:\Program Files (x86)\Microchip\xc8\v1.33\include\pic16f877a.h"
RCSTA equ 018h ;# 
# 1031 "C:\Program Files (x86)\Microchip\xc8\v1.33\include\pic16f877a.h"
TXREG equ 019h ;# 
# 1037 "C:\Program Files (x86)\Microchip\xc8\v1.33\include\pic16f877a.h"
RCREG equ 01Ah ;# 
# 1043 "C:\Program Files (x86)\Microchip\xc8\v1.33\include\pic16f877a.h"
CCPR2 equ 01Bh ;# 
# 1049 "C:\Program Files (x86)\Microchip\xc8\v1.33\include\pic16f877a.h"
CCPR2L equ 01Bh ;# 
# 1055 "C:\Program Files (x86)\Microchip\xc8\v1.33\include\pic16f877a.h"
CCPR2H equ 01Ch ;# 
# 1061 "C:\Program Files (x86)\Microchip\xc8\v1.33\include\pic16f877a.h"
CCP2CON equ 01Dh ;# 
# 1118 "C:\Program Files (x86)\Microchip\xc8\v1.33\include\pic16f877a.h"
ADRESH equ 01Eh ;# 
# 1124 "C:\Program Files (x86)\Microchip\xc8\v1.33\include\pic16f877a.h"
ADCON0 equ 01Fh ;# 
# 1219 "C:\Program Files (x86)\Microchip\xc8\v1.33\include\pic16f877a.h"
OPTION_REG equ 081h ;# 
# 1288 "C:\Program Files (x86)\Microchip\xc8\v1.33\include\pic16f877a.h"
TRISA equ 085h ;# 
# 1337 "C:\Program Files (x86)\Microchip\xc8\v1.33\include\pic16f877a.h"
TRISB equ 086h ;# 
# 1398 "C:\Program Files (x86)\Microchip\xc8\v1.33\include\pic16f877a.h"
TRISC equ 087h ;# 
# 1459 "C:\Program Files (x86)\Microchip\xc8\v1.33\include\pic16f877a.h"
TRISD equ 088h ;# 
# 1520 "C:\Program Files (x86)\Microchip\xc8\v1.33\include\pic16f877a.h"
TRISE equ 089h ;# 
# 1576 "C:\Program Files (x86)\Microchip\xc8\v1.33\include\pic16f877a.h"
PIE1 equ 08Ch ;# 
# 1637 "C:\Program Files (x86)\Microchip\xc8\v1.33\include\pic16f877a.h"
PIE2 equ 08Dh ;# 
# 1676 "C:\Program Files (x86)\Microchip\xc8\v1.33\include\pic16f877a.h"
PCON equ 08Eh ;# 
# 1709 "C:\Program Files (x86)\Microchip\xc8\v1.33\include\pic16f877a.h"
SSPCON2 equ 091h ;# 
# 1770 "C:\Program Files (x86)\Microchip\xc8\v1.33\include\pic16f877a.h"
PR2 equ 092h ;# 
# 1776 "C:\Program Files (x86)\Microchip\xc8\v1.33\include\pic16f877a.h"
SSPADD equ 093h ;# 
# 1782 "C:\Program Files (x86)\Microchip\xc8\v1.33\include\pic16f877a.h"
SSPSTAT equ 094h ;# 
# 1950 "C:\Program Files (x86)\Microchip\xc8\v1.33\include\pic16f877a.h"
TXSTA equ 098h ;# 
# 2030 "C:\Program Files (x86)\Microchip\xc8\v1.33\include\pic16f877a.h"
SPBRG equ 099h ;# 
# 2036 "C:\Program Files (x86)\Microchip\xc8\v1.33\include\pic16f877a.h"
CMCON equ 09Ch ;# 
# 2105 "C:\Program Files (x86)\Microchip\xc8\v1.33\include\pic16f877a.h"
CVRCON equ 09Dh ;# 
# 2169 "C:\Program Files (x86)\Microchip\xc8\v1.33\include\pic16f877a.h"
ADRESL equ 09Eh ;# 
# 2175 "C:\Program Files (x86)\Microchip\xc8\v1.33\include\pic16f877a.h"
ADCON1 equ 09Fh ;# 
# 2233 "C:\Program Files (x86)\Microchip\xc8\v1.33\include\pic16f877a.h"
EEDATA equ 010Ch ;# 
# 2239 "C:\Program Files (x86)\Microchip\xc8\v1.33\include\pic16f877a.h"
EEADR equ 010Dh ;# 
# 2245 "C:\Program Files (x86)\Microchip\xc8\v1.33\include\pic16f877a.h"
EEDATH equ 010Eh ;# 
# 2251 "C:\Program Files (x86)\Microchip\xc8\v1.33\include\pic16f877a.h"
EEADRH equ 010Fh ;# 
# 2257 "C:\Program Files (x86)\Microchip\xc8\v1.33\include\pic16f877a.h"
EECON1 equ 018Ch ;# 
# 2301 "C:\Program Files (x86)\Microchip\xc8\v1.33\include\pic16f877a.h"
EECON2 equ 018Dh ;# 
# 49 "C:\Program Files (x86)\Microchip\xc8\v1.33\include\pic16f877a.h"
INDF equ 00h ;# 
# 55 "C:\Program Files (x86)\Microchip\xc8\v1.33\include\pic16f877a.h"
TMR0 equ 01h ;# 
# 61 "C:\Program Files (x86)\Microchip\xc8\v1.33\include\pic16f877a.h"
PCL equ 02h ;# 
# 67 "C:\Program Files (x86)\Microchip\xc8\v1.33\include\pic16f877a.h"
STATUS equ 03h ;# 
# 154 "C:\Program Files (x86)\Microchip\xc8\v1.33\include\pic16f877a.h"
FSR equ 04h ;# 
# 160 "C:\Program Files (x86)\Microchip\xc8\v1.33\include\pic16f877a.h"
PORTA equ 05h ;# 
# 209 "C:\Program Files (x86)\Microchip\xc8\v1.33\include\pic16f877a.h"
PORTB equ 06h ;# 
# 270 "C:\Program Files (x86)\Microchip\xc8\v1.33\include\pic16f877a.h"
PORTC equ 07h ;# 
# 331 "C:\Program Files (x86)\Microchip\xc8\v1.33\include\pic16f877a.h"
PORTD equ 08h ;# 
# 392 "C:\Program Files (x86)\Microchip\xc8\v1.33\include\pic16f877a.h"
PORTE equ 09h ;# 
# 423 "C:\Program Files (x86)\Microchip\xc8\v1.33\include\pic16f877a.h"
PCLATH equ 0Ah ;# 
# 442 "C:\Program Files (x86)\Microchip\xc8\v1.33\include\pic16f877a.h"
INTCON equ 0Bh ;# 
# 519 "C:\Program Files (x86)\Microchip\xc8\v1.33\include\pic16f877a.h"
PIR1 equ 0Ch ;# 
# 580 "C:\Program Files (x86)\Microchip\xc8\v1.33\include\pic16f877a.h"
PIR2 equ 0Dh ;# 
# 619 "C:\Program Files (x86)\Microchip\xc8\v1.33\include\pic16f877a.h"
TMR1 equ 0Eh ;# 
# 625 "C:\Program Files (x86)\Microchip\xc8\v1.33\include\pic16f877a.h"
TMR1L equ 0Eh ;# 
# 631 "C:\Program Files (x86)\Microchip\xc8\v1.33\include\pic16f877a.h"
TMR1H equ 0Fh ;# 
# 637 "C:\Program Files (x86)\Microchip\xc8\v1.33\include\pic16f877a.h"
T1CON equ 010h ;# 
# 711 "C:\Program Files (x86)\Microchip\xc8\v1.33\include\pic16f877a.h"
TMR2 equ 011h ;# 
# 717 "C:\Program Files (x86)\Microchip\xc8\v1.33\include\pic16f877a.h"
T2CON equ 012h ;# 
# 787 "C:\Program Files (x86)\Microchip\xc8\v1.33\include\pic16f877a.h"
SSPBUF equ 013h ;# 
# 793 "C:\Program Files (x86)\Microchip\xc8\v1.33\include\pic16f877a.h"
SSPCON equ 014h ;# 
# 862 "C:\Program Files (x86)\Microchip\xc8\v1.33\include\pic16f877a.h"
CCPR1 equ 015h ;# 
# 868 "C:\Program Files (x86)\Microchip\xc8\v1.33\include\pic16f877a.h"
CCPR1L equ 015h ;# 
# 874 "C:\Program Files (x86)\Microchip\xc8\v1.33\include\pic16f877a.h"
CCPR1H equ 016h ;# 
# 880 "C:\Program Files (x86)\Microchip\xc8\v1.33\include\pic16f877a.h"
CCP1CON equ 017h ;# 
# 937 "C:\Program Files (x86)\Microchip\xc8\v1.33\include\pic16f877a.h"
RCSTA equ 018h ;# 
# 1031 "C:\Program Files (x86)\Microchip\xc8\v1.33\include\pic16f877a.h"
TXREG equ 019h ;# 
# 1037 "C:\Program Files (x86)\Microchip\xc8\v1.33\include\pic16f877a.h"
RCREG equ 01Ah ;# 
# 1043 "C:\Program Files (x86)\Microchip\xc8\v1.33\include\pic16f877a.h"
CCPR2 equ 01Bh ;# 
# 1049 "C:\Program Files (x86)\Microchip\xc8\v1.33\include\pic16f877a.h"
CCPR2L equ 01Bh ;# 
# 1055 "C:\Program Files (x86)\Microchip\xc8\v1.33\include\pic16f877a.h"
CCPR2H equ 01Ch ;# 
# 1061 "C:\Program Files (x86)\Microchip\xc8\v1.33\include\pic16f877a.h"
CCP2CON equ 01Dh ;# 
# 1118 "C:\Program Files (x86)\Microchip\xc8\v1.33\include\pic16f877a.h"
ADRESH equ 01Eh ;# 
# 1124 "C:\Program Files (x86)\Microchip\xc8\v1.33\include\pic16f877a.h"
ADCON0 equ 01Fh ;# 
# 1219 "C:\Program Files (x86)\Microchip\xc8\v1.33\include\pic16f877a.h"
OPTION_REG equ 081h ;# 
# 1288 "C:\Program Files (x86)\Microchip\xc8\v1.33\include\pic16f877a.h"
TRISA equ 085h ;# 
# 1337 "C:\Program Files (x86)\Microchip\xc8\v1.33\include\pic16f877a.h"
TRISB equ 086h ;# 
# 1398 "C:\Program Files (x86)\Microchip\xc8\v1.33\include\pic16f877a.h"
TRISC equ 087h ;# 
# 1459 "C:\Program Files (x86)\Microchip\xc8\v1.33\include\pic16f877a.h"
TRISD equ 088h ;# 
# 1520 "C:\Program Files (x86)\Microchip\xc8\v1.33\include\pic16f877a.h"
TRISE equ 089h ;# 
# 1576 "C:\Program Files (x86)\Microchip\xc8\v1.33\include\pic16f877a.h"
PIE1 equ 08Ch ;# 
# 1637 "C:\Program Files (x86)\Microchip\xc8\v1.33\include\pic16f877a.h"
PIE2 equ 08Dh ;# 
# 1676 "C:\Program Files (x86)\Microchip\xc8\v1.33\include\pic16f877a.h"
PCON equ 08Eh ;# 
# 1709 "C:\Program Files (x86)\Microchip\xc8\v1.33\include\pic16f877a.h"
SSPCON2 equ 091h ;# 
# 1770 "C:\Program Files (x86)\Microchip\xc8\v1.33\include\pic16f877a.h"
PR2 equ 092h ;# 
# 1776 "C:\Program Files (x86)\Microchip\xc8\v1.33\include\pic16f877a.h"
SSPADD equ 093h ;# 
# 1782 "C:\Program Files (x86)\Microchip\xc8\v1.33\include\pic16f877a.h"
SSPSTAT equ 094h ;# 
# 1950 "C:\Program Files (x86)\Microchip\xc8\v1.33\include\pic16f877a.h"
TXSTA equ 098h ;# 
# 2030 "C:\Program Files (x86)\Microchip\xc8\v1.33\include\pic16f877a.h"
SPBRG equ 099h ;# 
# 2036 "C:\Program Files (x86)\Microchip\xc8\v1.33\include\pic16f877a.h"
CMCON equ 09Ch ;# 
# 2105 "C:\Program Files (x86)\Microchip\xc8\v1.33\include\pic16f877a.h"
CVRCON equ 09Dh ;# 
# 2169 "C:\Program Files (x86)\Microchip\xc8\v1.33\include\pic16f877a.h"
ADRESL equ 09Eh ;# 
# 2175 "C:\Program Files (x86)\Microchip\xc8\v1.33\include\pic16f877a.h"
ADCON1 equ 09Fh ;# 
# 2233 "C:\Program Files (x86)\Microchip\xc8\v1.33\include\pic16f877a.h"
EEDATA equ 010Ch ;# 
# 2239 "C:\Program Files (x86)\Microchip\xc8\v1.33\include\pic16f877a.h"
EEADR equ 010Dh ;# 
# 2245 "C:\Program Files (x86)\Microchip\xc8\v1.33\include\pic16f877a.h"
EEDATH equ 010Eh ;# 
# 2251 "C:\Program Files (x86)\Microchip\xc8\v1.33\include\pic16f877a.h"
EEADRH equ 010Fh ;# 
# 2257 "C:\Program Files (x86)\Microchip\xc8\v1.33\include\pic16f877a.h"
EECON1 equ 018Ch ;# 
# 2301 "C:\Program Files (x86)\Microchip\xc8\v1.33\include\pic16f877a.h"
EECON2 equ 018Dh ;# 
# 49 "C:\Program Files (x86)\Microchip\xc8\v1.33\include\pic16f877a.h"
INDF equ 00h ;# 
# 55 "C:\Program Files (x86)\Microchip\xc8\v1.33\include\pic16f877a.h"
TMR0 equ 01h ;# 
# 61 "C:\Program Files (x86)\Microchip\xc8\v1.33\include\pic16f877a.h"
PCL equ 02h ;# 
# 67 "C:\Program Files (x86)\Microchip\xc8\v1.33\include\pic16f877a.h"
STATUS equ 03h ;# 
# 154 "C:\Program Files (x86)\Microchip\xc8\v1.33\include\pic16f877a.h"
FSR equ 04h ;# 
# 160 "C:\Program Files (x86)\Microchip\xc8\v1.33\include\pic16f877a.h"
PORTA equ 05h ;# 
# 209 "C:\Program Files (x86)\Microchip\xc8\v1.33\include\pic16f877a.h"
PORTB equ 06h ;# 
# 270 "C:\Program Files (x86)\Microchip\xc8\v1.33\include\pic16f877a.h"
PORTC equ 07h ;# 
# 331 "C:\Program Files (x86)\Microchip\xc8\v1.33\include\pic16f877a.h"
PORTD equ 08h ;# 
# 392 "C:\Program Files (x86)\Microchip\xc8\v1.33\include\pic16f877a.h"
PORTE equ 09h ;# 
# 423 "C:\Program Files (x86)\Microchip\xc8\v1.33\include\pic16f877a.h"
PCLATH equ 0Ah ;# 
# 442 "C:\Program Files (x86)\Microchip\xc8\v1.33\include\pic16f877a.h"
INTCON equ 0Bh ;# 
# 519 "C:\Program Files (x86)\Microchip\xc8\v1.33\include\pic16f877a.h"
PIR1 equ 0Ch ;# 
# 580 "C:\Program Files (x86)\Microchip\xc8\v1.33\include\pic16f877a.h"
PIR2 equ 0Dh ;# 
# 619 "C:\Program Files (x86)\Microchip\xc8\v1.33\include\pic16f877a.h"
TMR1 equ 0Eh ;# 
# 625 "C:\Program Files (x86)\Microchip\xc8\v1.33\include\pic16f877a.h"
TMR1L equ 0Eh ;# 
# 631 "C:\Program Files (x86)\Microchip\xc8\v1.33\include\pic16f877a.h"
TMR1H equ 0Fh ;# 
# 637 "C:\Program Files (x86)\Microchip\xc8\v1.33\include\pic16f877a.h"
T1CON equ 010h ;# 
# 711 "C:\Program Files (x86)\Microchip\xc8\v1.33\include\pic16f877a.h"
TMR2 equ 011h ;# 
# 717 "C:\Program Files (x86)\Microchip\xc8\v1.33\include\pic16f877a.h"
T2CON equ 012h ;# 
# 787 "C:\Program Files (x86)\Microchip\xc8\v1.33\include\pic16f877a.h"
SSPBUF equ 013h ;# 
# 793 "C:\Program Files (x86)\Microchip\xc8\v1.33\include\pic16f877a.h"
SSPCON equ 014h ;# 
# 862 "C:\Program Files (x86)\Microchip\xc8\v1.33\include\pic16f877a.h"
CCPR1 equ 015h ;# 
# 868 "C:\Program Files (x86)\Microchip\xc8\v1.33\include\pic16f877a.h"
CCPR1L equ 015h ;# 
# 874 "C:\Program Files (x86)\Microchip\xc8\v1.33\include\pic16f877a.h"
CCPR1H equ 016h ;# 
# 880 "C:\Program Files (x86)\Microchip\xc8\v1.33\include\pic16f877a.h"
CCP1CON equ 017h ;# 
# 937 "C:\Program Files (x86)\Microchip\xc8\v1.33\include\pic16f877a.h"
RCSTA equ 018h ;# 
# 1031 "C:\Program Files (x86)\Microchip\xc8\v1.33\include\pic16f877a.h"
TXREG equ 019h ;# 
# 1037 "C:\Program Files (x86)\Microchip\xc8\v1.33\include\pic16f877a.h"
RCREG equ 01Ah ;# 
# 1043 "C:\Program Files (x86)\Microchip\xc8\v1.33\include\pic16f877a.h"
CCPR2 equ 01Bh ;# 
# 1049 "C:\Program Files (x86)\Microchip\xc8\v1.33\include\pic16f877a.h"
CCPR2L equ 01Bh ;# 
# 1055 "C:\Program Files (x86)\Microchip\xc8\v1.33\include\pic16f877a.h"
CCPR2H equ 01Ch ;# 
# 1061 "C:\Program Files (x86)\Microchip\xc8\v1.33\include\pic16f877a.h"
CCP2CON equ 01Dh ;# 
# 1118 "C:\Program Files (x86)\Microchip\xc8\v1.33\include\pic16f877a.h"
ADRESH equ 01Eh ;# 
# 1124 "C:\Program Files (x86)\Microchip\xc8\v1.33\include\pic16f877a.h"
ADCON0 equ 01Fh ;# 
# 1219 "C:\Program Files (x86)\Microchip\xc8\v1.33\include\pic16f877a.h"
OPTION_REG equ 081h ;# 
# 1288 "C:\Program Files (x86)\Microchip\xc8\v1.33\include\pic16f877a.h"
TRISA equ 085h ;# 
# 1337 "C:\Program Files (x86)\Microchip\xc8\v1.33\include\pic16f877a.h"
TRISB equ 086h ;# 
# 1398 "C:\Program Files (x86)\Microchip\xc8\v1.33\include\pic16f877a.h"
TRISC equ 087h ;# 
# 1459 "C:\Program Files (x86)\Microchip\xc8\v1.33\include\pic16f877a.h"
TRISD equ 088h ;# 
# 1520 "C:\Program Files (x86)\Microchip\xc8\v1.33\include\pic16f877a.h"
TRISE equ 089h ;# 
# 1576 "C:\Program Files (x86)\Microchip\xc8\v1.33\include\pic16f877a.h"
PIE1 equ 08Ch ;# 
# 1637 "C:\Program Files (x86)\Microchip\xc8\v1.33\include\pic16f877a.h"
PIE2 equ 08Dh ;# 
# 1676 "C:\Program Files (x86)\Microchip\xc8\v1.33\include\pic16f877a.h"
PCON equ 08Eh ;# 
# 1709 "C:\Program Files (x86)\Microchip\xc8\v1.33\include\pic16f877a.h"
SSPCON2 equ 091h ;# 
# 1770 "C:\Program Files (x86)\Microchip\xc8\v1.33\include\pic16f877a.h"
PR2 equ 092h ;# 
# 1776 "C:\Program Files (x86)\Microchip\xc8\v1.33\include\pic16f877a.h"
SSPADD equ 093h ;# 
# 1782 "C:\Program Files (x86)\Microchip\xc8\v1.33\include\pic16f877a.h"
SSPSTAT equ 094h ;# 
# 1950 "C:\Program Files (x86)\Microchip\xc8\v1.33\include\pic16f877a.h"
TXSTA equ 098h ;# 
# 2030 "C:\Program Files (x86)\Microchip\xc8\v1.33\include\pic16f877a.h"
SPBRG equ 099h ;# 
# 2036 "C:\Program Files (x86)\Microchip\xc8\v1.33\include\pic16f877a.h"
CMCON equ 09Ch ;# 
# 2105 "C:\Program Files (x86)\Microchip\xc8\v1.33\include\pic16f877a.h"
CVRCON equ 09Dh ;# 
# 2169 "C:\Program Files (x86)\Microchip\xc8\v1.33\include\pic16f877a.h"
ADRESL equ 09Eh ;# 
# 2175 "C:\Program Files (x86)\Microchip\xc8\v1.33\include\pic16f877a.h"
ADCON1 equ 09Fh ;# 
# 2233 "C:\Program Files (x86)\Microchip\xc8\v1.33\include\pic16f877a.h"
EEDATA equ 010Ch ;# 
# 2239 "C:\Program Files (x86)\Microchip\xc8\v1.33\include\pic16f877a.h"
EEADR equ 010Dh ;# 
# 2245 "C:\Program Files (x86)\Microchip\xc8\v1.33\include\pic16f877a.h"
EEDATH equ 010Eh ;# 
# 2251 "C:\Program Files (x86)\Microchip\xc8\v1.33\include\pic16f877a.h"
EEADRH equ 010Fh ;# 
# 2257 "C:\Program Files (x86)\Microchip\xc8\v1.33\include\pic16f877a.h"
EECON1 equ 018Ch ;# 
# 2301 "C:\Program Files (x86)\Microchip\xc8\v1.33\include\pic16f877a.h"
EECON2 equ 018Dh ;# 
# 49 "C:\Program Files (x86)\Microchip\xc8\v1.33\include\pic16f877a.h"
INDF equ 00h ;# 
# 55 "C:\Program Files (x86)\Microchip\xc8\v1.33\include\pic16f877a.h"
TMR0 equ 01h ;# 
# 61 "C:\Program Files (x86)\Microchip\xc8\v1.33\include\pic16f877a.h"
PCL equ 02h ;# 
# 67 "C:\Program Files (x86)\Microchip\xc8\v1.33\include\pic16f877a.h"
STATUS equ 03h ;# 
# 154 "C:\Program Files (x86)\Microchip\xc8\v1.33\include\pic16f877a.h"
FSR equ 04h ;# 
# 160 "C:\Program Files (x86)\Microchip\xc8\v1.33\include\pic16f877a.h"
PORTA equ 05h ;# 
# 209 "C:\Program Files (x86)\Microchip\xc8\v1.33\include\pic16f877a.h"
PORTB equ 06h ;# 
# 270 "C:\Program Files (x86)\Microchip\xc8\v1.33\include\pic16f877a.h"
PORTC equ 07h ;# 
# 331 "C:\Program Files (x86)\Microchip\xc8\v1.33\include\pic16f877a.h"
PORTD equ 08h ;# 
# 392 "C:\Program Files (x86)\Microchip\xc8\v1.33\include\pic16f877a.h"
PORTE equ 09h ;# 
# 423 "C:\Program Files (x86)\Microchip\xc8\v1.33\include\pic16f877a.h"
PCLATH equ 0Ah ;# 
# 442 "C:\Program Files (x86)\Microchip\xc8\v1.33\include\pic16f877a.h"
INTCON equ 0Bh ;# 
# 519 "C:\Program Files (x86)\Microchip\xc8\v1.33\include\pic16f877a.h"
PIR1 equ 0Ch ;# 
# 580 "C:\Program Files (x86)\Microchip\xc8\v1.33\include\pic16f877a.h"
PIR2 equ 0Dh ;# 
# 619 "C:\Program Files (x86)\Microchip\xc8\v1.33\include\pic16f877a.h"
TMR1 equ 0Eh ;# 
# 625 "C:\Program Files (x86)\Microchip\xc8\v1.33\include\pic16f877a.h"
TMR1L equ 0Eh ;# 
# 631 "C:\Program Files (x86)\Microchip\xc8\v1.33\include\pic16f877a.h"
TMR1H equ 0Fh ;# 
# 637 "C:\Program Files (x86)\Microchip\xc8\v1.33\include\pic16f877a.h"
T1CON equ 010h ;# 
# 711 "C:\Program Files (x86)\Microchip\xc8\v1.33\include\pic16f877a.h"
TMR2 equ 011h ;# 
# 717 "C:\Program Files (x86)\Microchip\xc8\v1.33\include\pic16f877a.h"
T2CON equ 012h ;# 
# 787 "C:\Program Files (x86)\Microchip\xc8\v1.33\include\pic16f877a.h"
SSPBUF equ 013h ;# 
# 793 "C:\Program Files (x86)\Microchip\xc8\v1.33\include\pic16f877a.h"
SSPCON equ 014h ;# 
# 862 "C:\Program Files (x86)\Microchip\xc8\v1.33\include\pic16f877a.h"
CCPR1 equ 015h ;# 
# 868 "C:\Program Files (x86)\Microchip\xc8\v1.33\include\pic16f877a.h"
CCPR1L equ 015h ;# 
# 874 "C:\Program Files (x86)\Microchip\xc8\v1.33\include\pic16f877a.h"
CCPR1H equ 016h ;# 
# 880 "C:\Program Files (x86)\Microchip\xc8\v1.33\include\pic16f877a.h"
CCP1CON equ 017h ;# 
# 937 "C:\Program Files (x86)\Microchip\xc8\v1.33\include\pic16f877a.h"
RCSTA equ 018h ;# 
# 1031 "C:\Program Files (x86)\Microchip\xc8\v1.33\include\pic16f877a.h"
TXREG equ 019h ;# 
# 1037 "C:\Program Files (x86)\Microchip\xc8\v1.33\include\pic16f877a.h"
RCREG equ 01Ah ;# 
# 1043 "C:\Program Files (x86)\Microchip\xc8\v1.33\include\pic16f877a.h"
CCPR2 equ 01Bh ;# 
# 1049 "C:\Program Files (x86)\Microchip\xc8\v1.33\include\pic16f877a.h"
CCPR2L equ 01Bh ;# 
# 1055 "C:\Program Files (x86)\Microchip\xc8\v1.33\include\pic16f877a.h"
CCPR2H equ 01Ch ;# 
# 1061 "C:\Program Files (x86)\Microchip\xc8\v1.33\include\pic16f877a.h"
CCP2CON equ 01Dh ;# 
# 1118 "C:\Program Files (x86)\Microchip\xc8\v1.33\include\pic16f877a.h"
ADRESH equ 01Eh ;# 
# 1124 "C:\Program Files (x86)\Microchip\xc8\v1.33\include\pic16f877a.h"
ADCON0 equ 01Fh ;# 
# 1219 "C:\Program Files (x86)\Microchip\xc8\v1.33\include\pic16f877a.h"
OPTION_REG equ 081h ;# 
# 1288 "C:\Program Files (x86)\Microchip\xc8\v1.33\include\pic16f877a.h"
TRISA equ 085h ;# 
# 1337 "C:\Program Files (x86)\Microchip\xc8\v1.33\include\pic16f877a.h"
TRISB equ 086h ;# 
# 1398 "C:\Program Files (x86)\Microchip\xc8\v1.33\include\pic16f877a.h"
TRISC equ 087h ;# 
# 1459 "C:\Program Files (x86)\Microchip\xc8\v1.33\include\pic16f877a.h"
TRISD equ 088h ;# 
# 1520 "C:\Program Files (x86)\Microchip\xc8\v1.33\include\pic16f877a.h"
TRISE equ 089h ;# 
# 1576 "C:\Program Files (x86)\Microchip\xc8\v1.33\include\pic16f877a.h"
PIE1 equ 08Ch ;# 
# 1637 "C:\Program Files (x86)\Microchip\xc8\v1.33\include\pic16f877a.h"
PIE2 equ 08Dh ;# 
# 1676 "C:\Program Files (x86)\Microchip\xc8\v1.33\include\pic16f877a.h"
PCON equ 08Eh ;# 
# 1709 "C:\Program Files (x86)\Microchip\xc8\v1.33\include\pic16f877a.h"
SSPCON2 equ 091h ;# 
# 1770 "C:\Program Files (x86)\Microchip\xc8\v1.33\include\pic16f877a.h"
PR2 equ 092h ;# 
# 1776 "C:\Program Files (x86)\Microchip\xc8\v1.33\include\pic16f877a.h"
SSPADD equ 093h ;# 
# 1782 "C:\Program Files (x86)\Microchip\xc8\v1.33\include\pic16f877a.h"
SSPSTAT equ 094h ;# 
# 1950 "C:\Program Files (x86)\Microchip\xc8\v1.33\include\pic16f877a.h"
TXSTA equ 098h ;# 
# 2030 "C:\Program Files (x86)\Microchip\xc8\v1.33\include\pic16f877a.h"
SPBRG equ 099h ;# 
# 2036 "C:\Program Files (x86)\Microchip\xc8\v1.33\include\pic16f877a.h"
CMCON equ 09Ch ;# 
# 2105 "C:\Program Files (x86)\Microchip\xc8\v1.33\include\pic16f877a.h"
CVRCON equ 09Dh ;# 
# 2169 "C:\Program Files (x86)\Microchip\xc8\v1.33\include\pic16f877a.h"
ADRESL equ 09Eh ;# 
# 2175 "C:\Program Files (x86)\Microchip\xc8\v1.33\include\pic16f877a.h"
ADCON1 equ 09Fh ;# 
# 2233 "C:\Program Files (x86)\Microchip\xc8\v1.33\include\pic16f877a.h"
EEDATA equ 010Ch ;# 
# 2239 "C:\Program Files (x86)\Microchip\xc8\v1.33\include\pic16f877a.h"
EEADR equ 010Dh ;# 
# 2245 "C:\Program Files (x86)\Microchip\xc8\v1.33\include\pic16f877a.h"
EEDATH equ 010Eh ;# 
# 2251 "C:\Program Files (x86)\Microchip\xc8\v1.33\include\pic16f877a.h"
EEADRH equ 010Fh ;# 
# 2257 "C:\Program Files (x86)\Microchip\xc8\v1.33\include\pic16f877a.h"
EECON1 equ 018Ch ;# 
# 2301 "C:\Program Files (x86)\Microchip\xc8\v1.33\include\pic16f877a.h"
EECON2 equ 018Dh ;# 
# 49 "C:\Program Files (x86)\Microchip\xc8\v1.33\include\pic16f877a.h"
INDF equ 00h ;# 
# 55 "C:\Program Files (x86)\Microchip\xc8\v1.33\include\pic16f877a.h"
TMR0 equ 01h ;# 
# 61 "C:\Program Files (x86)\Microchip\xc8\v1.33\include\pic16f877a.h"
PCL equ 02h ;# 
# 67 "C:\Program Files (x86)\Microchip\xc8\v1.33\include\pic16f877a.h"
STATUS equ 03h ;# 
# 154 "C:\Program Files (x86)\Microchip\xc8\v1.33\include\pic16f877a.h"
FSR equ 04h ;# 
# 160 "C:\Program Files (x86)\Microchip\xc8\v1.33\include\pic16f877a.h"
PORTA equ 05h ;# 
# 209 "C:\Program Files (x86)\Microchip\xc8\v1.33\include\pic16f877a.h"
PORTB equ 06h ;# 
# 270 "C:\Program Files (x86)\Microchip\xc8\v1.33\include\pic16f877a.h"
PORTC equ 07h ;# 
# 331 "C:\Program Files (x86)\Microchip\xc8\v1.33\include\pic16f877a.h"
PORTD equ 08h ;# 
# 392 "C:\Program Files (x86)\Microchip\xc8\v1.33\include\pic16f877a.h"
PORTE equ 09h ;# 
# 423 "C:\Program Files (x86)\Microchip\xc8\v1.33\include\pic16f877a.h"
PCLATH equ 0Ah ;# 
# 442 "C:\Program Files (x86)\Microchip\xc8\v1.33\include\pic16f877a.h"
INTCON equ 0Bh ;# 
# 519 "C:\Program Files (x86)\Microchip\xc8\v1.33\include\pic16f877a.h"
PIR1 equ 0Ch ;# 
# 580 "C:\Program Files (x86)\Microchip\xc8\v1.33\include\pic16f877a.h"
PIR2 equ 0Dh ;# 
# 619 "C:\Program Files (x86)\Microchip\xc8\v1.33\include\pic16f877a.h"
TMR1 equ 0Eh ;# 
# 625 "C:\Program Files (x86)\Microchip\xc8\v1.33\include\pic16f877a.h"
TMR1L equ 0Eh ;# 
# 631 "C:\Program Files (x86)\Microchip\xc8\v1.33\include\pic16f877a.h"
TMR1H equ 0Fh ;# 
# 637 "C:\Program Files (x86)\Microchip\xc8\v1.33\include\pic16f877a.h"
T1CON equ 010h ;# 
# 711 "C:\Program Files (x86)\Microchip\xc8\v1.33\include\pic16f877a.h"
TMR2 equ 011h ;# 
# 717 "C:\Program Files (x86)\Microchip\xc8\v1.33\include\pic16f877a.h"
T2CON equ 012h ;# 
# 787 "C:\Program Files (x86)\Microchip\xc8\v1.33\include\pic16f877a.h"
SSPBUF equ 013h ;# 
# 793 "C:\Program Files (x86)\Microchip\xc8\v1.33\include\pic16f877a.h"
SSPCON equ 014h ;# 
# 862 "C:\Program Files (x86)\Microchip\xc8\v1.33\include\pic16f877a.h"
CCPR1 equ 015h ;# 
# 868 "C:\Program Files (x86)\Microchip\xc8\v1.33\include\pic16f877a.h"
CCPR1L equ 015h ;# 
# 874 "C:\Program Files (x86)\Microchip\xc8\v1.33\include\pic16f877a.h"
CCPR1H equ 016h ;# 
# 880 "C:\Program Files (x86)\Microchip\xc8\v1.33\include\pic16f877a.h"
CCP1CON equ 017h ;# 
# 937 "C:\Program Files (x86)\Microchip\xc8\v1.33\include\pic16f877a.h"
RCSTA equ 018h ;# 
# 1031 "C:\Program Files (x86)\Microchip\xc8\v1.33\include\pic16f877a.h"
TXREG equ 019h ;# 
# 1037 "C:\Program Files (x86)\Microchip\xc8\v1.33\include\pic16f877a.h"
RCREG equ 01Ah ;# 
# 1043 "C:\Program Files (x86)\Microchip\xc8\v1.33\include\pic16f877a.h"
CCPR2 equ 01Bh ;# 
# 1049 "C:\Program Files (x86)\Microchip\xc8\v1.33\include\pic16f877a.h"
CCPR2L equ 01Bh ;# 
# 1055 "C:\Program Files (x86)\Microchip\xc8\v1.33\include\pic16f877a.h"
CCPR2H equ 01Ch ;# 
# 1061 "C:\Program Files (x86)\Microchip\xc8\v1.33\include\pic16f877a.h"
CCP2CON equ 01Dh ;# 
# 1118 "C:\Program Files (x86)\Microchip\xc8\v1.33\include\pic16f877a.h"
ADRESH equ 01Eh ;# 
# 1124 "C:\Program Files (x86)\Microchip\xc8\v1.33\include\pic16f877a.h"
ADCON0 equ 01Fh ;# 
# 1219 "C:\Program Files (x86)\Microchip\xc8\v1.33\include\pic16f877a.h"
OPTION_REG equ 081h ;# 
# 1288 "C:\Program Files (x86)\Microchip\xc8\v1.33\include\pic16f877a.h"
TRISA equ 085h ;# 
# 1337 "C:\Program Files (x86)\Microchip\xc8\v1.33\include\pic16f877a.h"
TRISB equ 086h ;# 
# 1398 "C:\Program Files (x86)\Microchip\xc8\v1.33\include\pic16f877a.h"
TRISC equ 087h ;# 
# 1459 "C:\Program Files (x86)\Microchip\xc8\v1.33\include\pic16f877a.h"
TRISD equ 088h ;# 
# 1520 "C:\Program Files (x86)\Microchip\xc8\v1.33\include\pic16f877a.h"
TRISE equ 089h ;# 
# 1576 "C:\Program Files (x86)\Microchip\xc8\v1.33\include\pic16f877a.h"
PIE1 equ 08Ch ;# 
# 1637 "C:\Program Files (x86)\Microchip\xc8\v1.33\include\pic16f877a.h"
PIE2 equ 08Dh ;# 
# 1676 "C:\Program Files (x86)\Microchip\xc8\v1.33\include\pic16f877a.h"
PCON equ 08Eh ;# 
# 1709 "C:\Program Files (x86)\Microchip\xc8\v1.33\include\pic16f877a.h"
SSPCON2 equ 091h ;# 
# 1770 "C:\Program Files (x86)\Microchip\xc8\v1.33\include\pic16f877a.h"
PR2 equ 092h ;# 
# 1776 "C:\Program Files (x86)\Microchip\xc8\v1.33\include\pic16f877a.h"
SSPADD equ 093h ;# 
# 1782 "C:\Program Files (x86)\Microchip\xc8\v1.33\include\pic16f877a.h"
SSPSTAT equ 094h ;# 
# 1950 "C:\Program Files (x86)\Microchip\xc8\v1.33\include\pic16f877a.h"
TXSTA equ 098h ;# 
# 2030 "C:\Program Files (x86)\Microchip\xc8\v1.33\include\pic16f877a.h"
SPBRG equ 099h ;# 
# 2036 "C:\Program Files (x86)\Microchip\xc8\v1.33\include\pic16f877a.h"
CMCON equ 09Ch ;# 
# 2105 "C:\Program Files (x86)\Microchip\xc8\v1.33\include\pic16f877a.h"
CVRCON equ 09Dh ;# 
# 2169 "C:\Program Files (x86)\Microchip\xc8\v1.33\include\pic16f877a.h"
ADRESL equ 09Eh ;# 
# 2175 "C:\Program Files (x86)\Microchip\xc8\v1.33\include\pic16f877a.h"
ADCON1 equ 09Fh ;# 
# 2233 "C:\Program Files (x86)\Microchip\xc8\v1.33\include\pic16f877a.h"
EEDATA equ 010Ch ;# 
# 2239 "C:\Program Files (x86)\Microchip\xc8\v1.33\include\pic16f877a.h"
EEADR equ 010Dh ;# 
# 2245 "C:\Program Files (x86)\Microchip\xc8\v1.33\include\pic16f877a.h"
EEDATH equ 010Eh ;# 
# 2251 "C:\Program Files (x86)\Microchip\xc8\v1.33\include\pic16f877a.h"
EEADRH equ 010Fh ;# 
# 2257 "C:\Program Files (x86)\Microchip\xc8\v1.33\include\pic16f877a.h"
EECON1 equ 018Ch ;# 
# 2301 "C:\Program Files (x86)\Microchip\xc8\v1.33\include\pic16f877a.h"
EECON2 equ 018Dh ;# 
# 49 "C:\Program Files (x86)\Microchip\xc8\v1.33\include\pic16f877a.h"
INDF equ 00h ;# 
# 55 "C:\Program Files (x86)\Microchip\xc8\v1.33\include\pic16f877a.h"
TMR0 equ 01h ;# 
# 61 "C:\Program Files (x86)\Microchip\xc8\v1.33\include\pic16f877a.h"
PCL equ 02h ;# 
# 67 "C:\Program Files (x86)\Microchip\xc8\v1.33\include\pic16f877a.h"
STATUS equ 03h ;# 
# 154 "C:\Program Files (x86)\Microchip\xc8\v1.33\include\pic16f877a.h"
FSR equ 04h ;# 
# 160 "C:\Program Files (x86)\Microchip\xc8\v1.33\include\pic16f877a.h"
PORTA equ 05h ;# 
# 209 "C:\Program Files (x86)\Microchip\xc8\v1.33\include\pic16f877a.h"
PORTB equ 06h ;# 
# 270 "C:\Program Files (x86)\Microchip\xc8\v1.33\include\pic16f877a.h"
PORTC equ 07h ;# 
# 331 "C:\Program Files (x86)\Microchip\xc8\v1.33\include\pic16f877a.h"
PORTD equ 08h ;# 
# 392 "C:\Program Files (x86)\Microchip\xc8\v1.33\include\pic16f877a.h"
PORTE equ 09h ;# 
# 423 "C:\Program Files (x86)\Microchip\xc8\v1.33\include\pic16f877a.h"
PCLATH equ 0Ah ;# 
# 442 "C:\Program Files (x86)\Microchip\xc8\v1.33\include\pic16f877a.h"
INTCON equ 0Bh ;# 
# 519 "C:\Program Files (x86)\Microchip\xc8\v1.33\include\pic16f877a.h"
PIR1 equ 0Ch ;# 
# 580 "C:\Program Files (x86)\Microchip\xc8\v1.33\include\pic16f877a.h"
PIR2 equ 0Dh ;# 
# 619 "C:\Program Files (x86)\Microchip\xc8\v1.33\include\pic16f877a.h"
TMR1 equ 0Eh ;# 
# 625 "C:\Program Files (x86)\Microchip\xc8\v1.33\include\pic16f877a.h"
TMR1L equ 0Eh ;# 
# 631 "C:\Program Files (x86)\Microchip\xc8\v1.33\include\pic16f877a.h"
TMR1H equ 0Fh ;# 
# 637 "C:\Program Files (x86)\Microchip\xc8\v1.33\include\pic16f877a.h"
T1CON equ 010h ;# 
# 711 "C:\Program Files (x86)\Microchip\xc8\v1.33\include\pic16f877a.h"
TMR2 equ 011h ;# 
# 717 "C:\Program Files (x86)\Microchip\xc8\v1.33\include\pic16f877a.h"
T2CON equ 012h ;# 
# 787 "C:\Program Files (x86)\Microchip\xc8\v1.33\include\pic16f877a.h"
SSPBUF equ 013h ;# 
# 793 "C:\Program Files (x86)\Microchip\xc8\v1.33\include\pic16f877a.h"
SSPCON equ 014h ;# 
# 862 "C:\Program Files (x86)\Microchip\xc8\v1.33\include\pic16f877a.h"
CCPR1 equ 015h ;# 
# 868 "C:\Program Files (x86)\Microchip\xc8\v1.33\include\pic16f877a.h"
CCPR1L equ 015h ;# 
# 874 "C:\Program Files (x86)\Microchip\xc8\v1.33\include\pic16f877a.h"
CCPR1H equ 016h ;# 
# 880 "C:\Program Files (x86)\Microchip\xc8\v1.33\include\pic16f877a.h"
CCP1CON equ 017h ;# 
# 937 "C:\Program Files (x86)\Microchip\xc8\v1.33\include\pic16f877a.h"
RCSTA equ 018h ;# 
# 1031 "C:\Program Files (x86)\Microchip\xc8\v1.33\include\pic16f877a.h"
TXREG equ 019h ;# 
# 1037 "C:\Program Files (x86)\Microchip\xc8\v1.33\include\pic16f877a.h"
RCREG equ 01Ah ;# 
# 1043 "C:\Program Files (x86)\Microchip\xc8\v1.33\include\pic16f877a.h"
CCPR2 equ 01Bh ;# 
# 1049 "C:\Program Files (x86)\Microchip\xc8\v1.33\include\pic16f877a.h"
CCPR2L equ 01Bh ;# 
# 1055 "C:\Program Files (x86)\Microchip\xc8\v1.33\include\pic16f877a.h"
CCPR2H equ 01Ch ;# 
# 1061 "C:\Program Files (x86)\Microchip\xc8\v1.33\include\pic16f877a.h"
CCP2CON equ 01Dh ;# 
# 1118 "C:\Program Files (x86)\Microchip\xc8\v1.33\include\pic16f877a.h"
ADRESH equ 01Eh ;# 
# 1124 "C:\Program Files (x86)\Microchip\xc8\v1.33\include\pic16f877a.h"
ADCON0 equ 01Fh ;# 
# 1219 "C:\Program Files (x86)\Microchip\xc8\v1.33\include\pic16f877a.h"
OPTION_REG equ 081h ;# 
# 1288 "C:\Program Files (x86)\Microchip\xc8\v1.33\include\pic16f877a.h"
TRISA equ 085h ;# 
# 1337 "C:\Program Files (x86)\Microchip\xc8\v1.33\include\pic16f877a.h"
TRISB equ 086h ;# 
# 1398 "C:\Program Files (x86)\Microchip\xc8\v1.33\include\pic16f877a.h"
TRISC equ 087h ;# 
# 1459 "C:\Program Files (x86)\Microchip\xc8\v1.33\include\pic16f877a.h"
TRISD equ 088h ;# 
# 1520 "C:\Program Files (x86)\Microchip\xc8\v1.33\include\pic16f877a.h"
TRISE equ 089h ;# 
# 1576 "C:\Program Files (x86)\Microchip\xc8\v1.33\include\pic16f877a.h"
PIE1 equ 08Ch ;# 
# 1637 "C:\Program Files (x86)\Microchip\xc8\v1.33\include\pic16f877a.h"
PIE2 equ 08Dh ;# 
# 1676 "C:\Program Files (x86)\Microchip\xc8\v1.33\include\pic16f877a.h"
PCON equ 08Eh ;# 
# 1709 "C:\Program Files (x86)\Microchip\xc8\v1.33\include\pic16f877a.h"
SSPCON2 equ 091h ;# 
# 1770 "C:\Program Files (x86)\Microchip\xc8\v1.33\include\pic16f877a.h"
PR2 equ 092h ;# 
# 1776 "C:\Program Files (x86)\Microchip\xc8\v1.33\include\pic16f877a.h"
SSPADD equ 093h ;# 
# 1782 "C:\Program Files (x86)\Microchip\xc8\v1.33\include\pic16f877a.h"
SSPSTAT equ 094h ;# 
# 1950 "C:\Program Files (x86)\Microchip\xc8\v1.33\include\pic16f877a.h"
TXSTA equ 098h ;# 
# 2030 "C:\Program Files (x86)\Microchip\xc8\v1.33\include\pic16f877a.h"
SPBRG equ 099h ;# 
# 2036 "C:\Program Files (x86)\Microchip\xc8\v1.33\include\pic16f877a.h"
CMCON equ 09Ch ;# 
# 2105 "C:\Program Files (x86)\Microchip\xc8\v1.33\include\pic16f877a.h"
CVRCON equ 09Dh ;# 
# 2169 "C:\Program Files (x86)\Microchip\xc8\v1.33\include\pic16f877a.h"
ADRESL equ 09Eh ;# 
# 2175 "C:\Program Files (x86)\Microchip\xc8\v1.33\include\pic16f877a.h"
ADCON1 equ 09Fh ;# 
# 2233 "C:\Program Files (x86)\Microchip\xc8\v1.33\include\pic16f877a.h"
EEDATA equ 010Ch ;# 
# 2239 "C:\Program Files (x86)\Microchip\xc8\v1.33\include\pic16f877a.h"
EEADR equ 010Dh ;# 
# 2245 "C:\Program Files (x86)\Microchip\xc8\v1.33\include\pic16f877a.h"
EEDATH equ 010Eh ;# 
# 2251 "C:\Program Files (x86)\Microchip\xc8\v1.33\include\pic16f877a.h"
EEADRH equ 010Fh ;# 
# 2257 "C:\Program Files (x86)\Microchip\xc8\v1.33\include\pic16f877a.h"
EECON1 equ 018Ch ;# 
# 2301 "C:\Program Files (x86)\Microchip\xc8\v1.33\include\pic16f877a.h"
EECON2 equ 018Dh ;# 
# 49 "C:\Program Files (x86)\Microchip\xc8\v1.33\include\pic16f877a.h"
INDF equ 00h ;# 
# 55 "C:\Program Files (x86)\Microchip\xc8\v1.33\include\pic16f877a.h"
TMR0 equ 01h ;# 
# 61 "C:\Program Files (x86)\Microchip\xc8\v1.33\include\pic16f877a.h"
PCL equ 02h ;# 
# 67 "C:\Program Files (x86)\Microchip\xc8\v1.33\include\pic16f877a.h"
STATUS equ 03h ;# 
# 154 "C:\Program Files (x86)\Microchip\xc8\v1.33\include\pic16f877a.h"
FSR equ 04h ;# 
# 160 "C:\Program Files (x86)\Microchip\xc8\v1.33\include\pic16f877a.h"
PORTA equ 05h ;# 
# 209 "C:\Program Files (x86)\Microchip\xc8\v1.33\include\pic16f877a.h"
PORTB equ 06h ;# 
# 270 "C:\Program Files (x86)\Microchip\xc8\v1.33\include\pic16f877a.h"
PORTC equ 07h ;# 
# 331 "C:\Program Files (x86)\Microchip\xc8\v1.33\include\pic16f877a.h"
PORTD equ 08h ;# 
# 392 "C:\Program Files (x86)\Microchip\xc8\v1.33\include\pic16f877a.h"
PORTE equ 09h ;# 
# 423 "C:\Program Files (x86)\Microchip\xc8\v1.33\include\pic16f877a.h"
PCLATH equ 0Ah ;# 
# 442 "C:\Program Files (x86)\Microchip\xc8\v1.33\include\pic16f877a.h"
INTCON equ 0Bh ;# 
# 519 "C:\Program Files (x86)\Microchip\xc8\v1.33\include\pic16f877a.h"
PIR1 equ 0Ch ;# 
# 580 "C:\Program Files (x86)\Microchip\xc8\v1.33\include\pic16f877a.h"
PIR2 equ 0Dh ;# 
# 619 "C:\Program Files (x86)\Microchip\xc8\v1.33\include\pic16f877a.h"
TMR1 equ 0Eh ;# 
# 625 "C:\Program Files (x86)\Microchip\xc8\v1.33\include\pic16f877a.h"
TMR1L equ 0Eh ;# 
# 631 "C:\Program Files (x86)\Microchip\xc8\v1.33\include\pic16f877a.h"
TMR1H equ 0Fh ;# 
# 637 "C:\Program Files (x86)\Microchip\xc8\v1.33\include\pic16f877a.h"
T1CON equ 010h ;# 
# 711 "C:\Program Files (x86)\Microchip\xc8\v1.33\include\pic16f877a.h"
TMR2 equ 011h ;# 
# 717 "C:\Program Files (x86)\Microchip\xc8\v1.33\include\pic16f877a.h"
T2CON equ 012h ;# 
# 787 "C:\Program Files (x86)\Microchip\xc8\v1.33\include\pic16f877a.h"
SSPBUF equ 013h ;# 
# 793 "C:\Program Files (x86)\Microchip\xc8\v1.33\include\pic16f877a.h"
SSPCON equ 014h ;# 
# 862 "C:\Program Files (x86)\Microchip\xc8\v1.33\include\pic16f877a.h"
CCPR1 equ 015h ;# 
# 868 "C:\Program Files (x86)\Microchip\xc8\v1.33\include\pic16f877a.h"
CCPR1L equ 015h ;# 
# 874 "C:\Program Files (x86)\Microchip\xc8\v1.33\include\pic16f877a.h"
CCPR1H equ 016h ;# 
# 880 "C:\Program Files (x86)\Microchip\xc8\v1.33\include\pic16f877a.h"
CCP1CON equ 017h ;# 
# 937 "C:\Program Files (x86)\Microchip\xc8\v1.33\include\pic16f877a.h"
RCSTA equ 018h ;# 
# 1031 "C:\Program Files (x86)\Microchip\xc8\v1.33\include\pic16f877a.h"
TXREG equ 019h ;# 
# 1037 "C:\Program Files (x86)\Microchip\xc8\v1.33\include\pic16f877a.h"
RCREG equ 01Ah ;# 
# 1043 "C:\Program Files (x86)\Microchip\xc8\v1.33\include\pic16f877a.h"
CCPR2 equ 01Bh ;# 
# 1049 "C:\Program Files (x86)\Microchip\xc8\v1.33\include\pic16f877a.h"
CCPR2L equ 01Bh ;# 
# 1055 "C:\Program Files (x86)\Microchip\xc8\v1.33\include\pic16f877a.h"
CCPR2H equ 01Ch ;# 
# 1061 "C:\Program Files (x86)\Microchip\xc8\v1.33\include\pic16f877a.h"
CCP2CON equ 01Dh ;# 
# 1118 "C:\Program Files (x86)\Microchip\xc8\v1.33\include\pic16f877a.h"
ADRESH equ 01Eh ;# 
# 1124 "C:\Program Files (x86)\Microchip\xc8\v1.33\include\pic16f877a.h"
ADCON0 equ 01Fh ;# 
# 1219 "C:\Program Files (x86)\Microchip\xc8\v1.33\include\pic16f877a.h"
OPTION_REG equ 081h ;# 
# 1288 "C:\Program Files (x86)\Microchip\xc8\v1.33\include\pic16f877a.h"
TRISA equ 085h ;# 
# 1337 "C:\Program Files (x86)\Microchip\xc8\v1.33\include\pic16f877a.h"
TRISB equ 086h ;# 
# 1398 "C:\Program Files (x86)\Microchip\xc8\v1.33\include\pic16f877a.h"
TRISC equ 087h ;# 
# 1459 "C:\Program Files (x86)\Microchip\xc8\v1.33\include\pic16f877a.h"
TRISD equ 088h ;# 
# 1520 "C:\Program Files (x86)\Microchip\xc8\v1.33\include\pic16f877a.h"
TRISE equ 089h ;# 
# 1576 "C:\Program Files (x86)\Microchip\xc8\v1.33\include\pic16f877a.h"
PIE1 equ 08Ch ;# 
# 1637 "C:\Program Files (x86)\Microchip\xc8\v1.33\include\pic16f877a.h"
PIE2 equ 08Dh ;# 
# 1676 "C:\Program Files (x86)\Microchip\xc8\v1.33\include\pic16f877a.h"
PCON equ 08Eh ;# 
# 1709 "C:\Program Files (x86)\Microchip\xc8\v1.33\include\pic16f877a.h"
SSPCON2 equ 091h ;# 
# 1770 "C:\Program Files (x86)\Microchip\xc8\v1.33\include\pic16f877a.h"
PR2 equ 092h ;# 
# 1776 "C:\Program Files (x86)\Microchip\xc8\v1.33\include\pic16f877a.h"
SSPADD equ 093h ;# 
# 1782 "C:\Program Files (x86)\Microchip\xc8\v1.33\include\pic16f877a.h"
SSPSTAT equ 094h ;# 
# 1950 "C:\Program Files (x86)\Microchip\xc8\v1.33\include\pic16f877a.h"
TXSTA equ 098h ;# 
# 2030 "C:\Program Files (x86)\Microchip\xc8\v1.33\include\pic16f877a.h"
SPBRG equ 099h ;# 
# 2036 "C:\Program Files (x86)\Microchip\xc8\v1.33\include\pic16f877a.h"
CMCON equ 09Ch ;# 
# 2105 "C:\Program Files (x86)\Microchip\xc8\v1.33\include\pic16f877a.h"
CVRCON equ 09Dh ;# 
# 2169 "C:\Program Files (x86)\Microchip\xc8\v1.33\include\pic16f877a.h"
ADRESL equ 09Eh ;# 
# 2175 "C:\Program Files (x86)\Microchip\xc8\v1.33\include\pic16f877a.h"
ADCON1 equ 09Fh ;# 
# 2233 "C:\Program Files (x86)\Microchip\xc8\v1.33\include\pic16f877a.h"
EEDATA equ 010Ch ;# 
# 2239 "C:\Program Files (x86)\Microchip\xc8\v1.33\include\pic16f877a.h"
EEADR equ 010Dh ;# 
# 2245 "C:\Program Files (x86)\Microchip\xc8\v1.33\include\pic16f877a.h"
EEDATH equ 010Eh ;# 
# 2251 "C:\Program Files (x86)\Microchip\xc8\v1.33\include\pic16f877a.h"
EEADRH equ 010Fh ;# 
# 2257 "C:\Program Files (x86)\Microchip\xc8\v1.33\include\pic16f877a.h"
EECON1 equ 018Ch ;# 
# 2301 "C:\Program Files (x86)\Microchip\xc8\v1.33\include\pic16f877a.h"
EECON2 equ 018Dh ;# 
	FNCALL	_main,_ADC_Init
	FNCALL	_main,_LCD_Clear
	FNCALL	_main,_LCD_Cursor
	FNCALL	_main,_LCD_Init
	FNCALL	_main,_LCD_WriteString
	FNCALL	_main,_PWM_DutyCycle1
	FNCALL	_main,_PWM_DutyCycle2
	FNCALL	_main,_PWM_Init
	FNCALL	_main,_TIMER0_Init
	FNCALL	_main,_TIMER0_Set
	FNCALL	_main,_USART_Init
	FNCALL	_main,_USART_WriteString
	FNCALL	_main,_sprintf
	FNCALL	_sprintf,__doprnt
	FNCALL	__doprnt,___lwdiv
	FNCALL	__doprnt,___lwmod
	FNCALL	__doprnt,___wmul
	FNCALL	__doprnt,_isdigit
	FNCALL	__doprnt,_putch
	FNCALL	_USART_WriteString,_USART_WriteChar
	FNCALL	_USART_Init,___aldiv
	FNCALL	_LCD_WriteString,_LCD_WriteData
	FNCALL	_LCD_Init,_LCD_WriteCmd
	FNCALL	_LCD_Clear,_LCD_WriteCmd
	FNROOT	_main
	FNCALL	_ISR,___ftadd
	FNCALL	_ISR,___ftdiv
	FNCALL	_ISR,___ftmul
	FNCALL	_ISR,___ftneg
	FNCALL	_ISR,___fttol
	FNCALL	_ISR,___lwtoft
	FNCALL	_ISR,_triangular
	FNCALL	_ISR,i1_PWM_DutyCycle2
	FNCALL	_ISR,i1_TIMER0_Set
	FNCALL	_triangular,___ftadd
	FNCALL	_triangular,___ftdiv
	FNCALL	_triangular,___ftge
	FNCALL	_triangular,___ftneg
	FNCALL	___ftdiv,___ftpack
	FNCALL	___ftadd,___ftpack
	FNCALL	___lwtoft,___ftpack
	FNCALL	___ftmul,___ftpack
	FNCALL	intlevel1,_ISR
	global	intlevel1
	FNROOT	intlevel1
	global	_dpowers
psect	strings,class=STRING,delta=2,noexec
global __pstrings
__pstrings:
stringtab:
	global    __stringtab
__stringtab:
;	String table - string pointers are 1 byte each
	btfsc	(btemp+1),7
	ljmp	stringcode
	bcf	status,7
	btfsc	(btemp+1),0
	bsf	status,7
	movf	indf,w
	incf fsr
skipnz
incf btemp+1
	return
stringcode:stringdir:
movlw high(stringdir)
movwf pclath
movf fsr,w
incf fsr
	addwf pc
	global __stringbase
__stringbase:
	retlw	0
psect	strings
	global    __end_of__stringtab
__end_of__stringtab:
	file	"C:\Program Files (x86)\Microchip\xc8\v1.33\sources\common\doprnt.c"
	line	354
_dpowers:
	retlw	01h
	retlw	0

	retlw	0Ah
	retlw	0

	retlw	064h
	retlw	0

	retlw	0E8h
	retlw	03h

	retlw	010h
	retlw	027h

	global __end_of_dpowers
__end_of_dpowers:
	global	_dpowers
	global	_temp_lida
	global	_ADCResult
	global	_contador_rb6
	global	_contagens_tm0
	global	_pulsos
	global	_rpm
	global	_status
	global	_tempo_rb6
	global	_display
	global	_TMR1
_TMR1	set	0xE
	global	_ADCON0bits
_ADCON0bits	set	0x1F
	global	_ADRESH
_ADRESH	set	0x1E
	global	_CCP1CON
_CCP1CON	set	0x17
	global	_CCP1CONbits
_CCP1CONbits	set	0x17
	global	_CCP2CON
_CCP2CON	set	0x1D
	global	_CCP2CONbits
_CCP2CONbits	set	0x1D
	global	_CCPR1L
_CCPR1L	set	0x15
	global	_CCPR2L
_CCPR2L	set	0x1B
	global	_INTCONbits
_INTCONbits	set	0xB
	global	_PIR1bits
_PIR1bits	set	0xC
	global	_PIR2bits
_PIR2bits	set	0xD
	global	_PORTA
_PORTA	set	0x5
	global	_PORTB
_PORTB	set	0x6
	global	_PORTBbits
_PORTBbits	set	0x6
	global	_PORTC
_PORTC	set	0x7
	global	_PORTD
_PORTD	set	0x8
	global	_PORTE
_PORTE	set	0x9
	global	_PORTEbits
_PORTEbits	set	0x9
	global	_RCREG
_RCREG	set	0x1A
	global	_RCSTAbits
_RCSTAbits	set	0x18
	global	_SSPBUF
_SSPBUF	set	0x13
	global	_SSPCONbits
_SSPCONbits	set	0x14
	global	_T1CON
_T1CON	set	0x10
	global	_T1CONbits
_T1CONbits	set	0x10
	global	_T2CONbits
_T2CONbits	set	0x12
	global	_TMR0
_TMR0	set	0x1
	global	_TMR1H
_TMR1H	set	0xF
	global	_TMR1L
_TMR1L	set	0xE
	global	_TXREG
_TXREG	set	0x19
	global	_OERR
_OERR	set	0xC1
	global	_ADCON1bits
_ADCON1bits	set	0x9F
	global	_ADRESL
_ADRESL	set	0x9E
	global	_OPTION_REGbits
_OPTION_REGbits	set	0x81
	global	_PIE1bits
_PIE1bits	set	0x8C
	global	_PIE2bits
_PIE2bits	set	0x8D
	global	_PR2
_PR2	set	0x92
	global	_SPBRG
_SPBRG	set	0x99
	global	_SSPADD
_SSPADD	set	0x93
	global	_SSPCON2
_SSPCON2	set	0x91
	global	_SSPCON2bits
_SSPCON2bits	set	0x91
	global	_SSPSTATbits
_SSPSTATbits	set	0x94
	global	_TRISA
_TRISA	set	0x85
	global	_TRISB
_TRISB	set	0x86
	global	_TRISC
_TRISC	set	0x87
	global	_TRISD
_TRISD	set	0x88
	global	_TRISE
_TRISE	set	0x89
	global	_TXSTAbits
_TXSTAbits	set	0x98
	global	_EEADR
_EEADR	set	0x10D
	global	_EEDATA
_EEDATA	set	0x10C
	global	_EECON1bits
_EECON1bits	set	0x18C
	global	_EECON2
_EECON2	set	0x18D
	global __stringdata
__stringdata:
	
STR_12:	
	retlw	10
	retlw	13
	retlw	32	;' '
	retlw	45	;'-'
	retlw	45	;'-'
	retlw	45	;'-'
	retlw	45	;'-'
	retlw	45	;'-'
	retlw	45	;'-'
	retlw	45	;'-'
	retlw	32	;' '
	retlw	69	;'E'
	retlw	83	;'S'
	retlw	84	;'T'
	retlw	79	;'O'
	retlw	85	;'U'
	retlw	82	;'R'
	retlw	79	;'O'
	retlw	32	;' '
	retlw	68	;'D'
	retlw	69	;'E'
	retlw	32	;' '
	retlw	80	;'P'
	retlw	73	;'I'
	retlw	76	;'L'
	retlw	72	;'H'
	retlw	65	;'A'
	retlw	32	;' '
	retlw	45	;'-'
	retlw	45	;'-'
	retlw	45	;'-'
	retlw	45	;'-'
	retlw	45	;'-'
	retlw	45	;'-'
	retlw	45	;'-'
	retlw	32	;' '
	retlw	10
	retlw	13
	retlw	32	;' '
	retlw	0
psect	strings
	
STR_6:	
	retlw	73	;'I'
	retlw	110	;'n'
	retlw	105	;'i'
	retlw	99	;'c'
	retlw	105	;'i'
	retlw	97	;'a'
	retlw	108	;'l'
	retlw	105	;'i'
	retlw	122	;'z'
	retlw	97	;'a'
	retlw	110	;'n'
	retlw	100	;'d'
	retlw	111	;'o'
	retlw	32	;' '
	retlw	111	;'o'
	retlw	32	;' '
	retlw	80	;'P'
	retlw	73	;'I'
	retlw	67	;'C'
	retlw	49	;'1'
	retlw	54	;'6'
	retlw	70	;'F'
	retlw	56	;'8'
	retlw	55	;'7'
	retlw	55	;'7'
	retlw	65	;'A'
	retlw	10
	retlw	13
	retlw	0
psect	strings
	
STR_7:	
	retlw	85	;'U'
	retlw	83	;'S'
	retlw	65	;'A'
	retlw	82	;'R'
	retlw	84	;'T'
	retlw	58	;':'
	retlw	32	;' '
	retlw	49	;'1'
	retlw	49	;'1'
	retlw	53	;'5'
	retlw	46	;'.'
	retlw	50	;'2'
	retlw	48	;'0'
	retlw	48	;'0'
	retlw	98	;'b'
	retlw	112	;'p'
	retlw	115	;'s'
	retlw	10
	retlw	13
	retlw	0
psect	strings
	
STR_8:	
	retlw	73	;'I'
	retlw	110	;'n'
	retlw	105	;'i'
	retlw	99	;'c'
	retlw	105	;'i'
	retlw	97	;'a'
	retlw	108	;'l'
	retlw	105	;'i'
	retlw	122	;'z'
	retlw	97	;'a'
	retlw	110	;'n'
	retlw	100	;'d'
	retlw	111	;'o'
	retlw	46	;'.'
	retlw	46	;'.'
	retlw	46	;'.'
	retlw	0
psect	strings
	
STR_11:	
	retlw	82	;'R'
	retlw	80	;'P'
	retlw	77	;'M'
	retlw	58	;':'
	retlw	32	;' '
	retlw	0
psect	strings
	
STR_9:	
	retlw	37	;'%'
	retlw	48	;'0'
	retlw	52	;'4'
	retlw	100	;'d'
	retlw	0
psect	strings
	
STR_1:	
	retlw	49	;'1'
	retlw	0
psect	strings
	
STR_2:	
	retlw	50	;'2'
	retlw	0
psect	strings
	
STR_3:	
	retlw	51	;'3'
	retlw	0
psect	strings
	
STR_4:	
	retlw	52	;'4'
	retlw	0
psect	strings
	
STR_5:	
	retlw	53	;'5'
	retlw	0
psect	strings
STR_10	equ	STR_6+26
	global __end_of__stringdata
__end_of__stringdata:
; #config settings
global __CFG_WDTE$OFF
__CFG_WDTE$OFF equ 0x0
global __CFG_PWRTE$ON
__CFG_PWRTE$ON equ 0x0
global __CFG_CP$OFF
__CFG_CP$OFF equ 0x0
global __CFG_BOREN$OFF
__CFG_BOREN$OFF equ 0x0
global __CFG_LVP$OFF
__CFG_LVP$OFF equ 0x0
global __CFG_CPD$OFF
__CFG_CPD$OFF equ 0x0
global __CFG_FOSC$HS
__CFG_FOSC$HS equ 0x0
	file	"PIC16F877A.as"
	line	#
psect cinit,class=CODE,delta=2
global start_initialization
start_initialization:

global __initialization
__initialization:
psect	bssBANK1,class=BANK1,space=1,noexec
global __pbssBANK1
__pbssBANK1:
_temp_lida:
       ds      3

_ADCResult:
       ds      2

_contador_rb6:
       ds      2

_contagens_tm0:
       ds      2

_pulsos:
       ds      2

_rpm:
       ds      2

_status:
       ds      2

_tempo_rb6:
       ds      2

_display:
       ds      10

	line	#
psect clrtext,class=CODE,delta=2
global clear_ram0
;	Called with FSR containing the base address, and
;	W with the last address+1
clear_ram0:
	clrwdt			;clear the watchdog before getting into this loop
clrloop0:
	clrf	indf		;clear RAM location pointed to by FSR
	incf	fsr,f		;increment pointer
	xorwf	fsr,w		;XOR with final address
	btfsc	status,2	;have we reached the end yet?
	retlw	0		;all done for this memory range, return
	xorwf	fsr,w		;XOR again to restore value
	goto	clrloop0		;do the next byte

; Clear objects allocated to BANK1
psect cinit,class=CODE,delta=2,merge=1
	bcf	status, 7	;select IRP bank0
	movlw	low(__pbssBANK1)
	movwf	fsr
	movlw	low((__pbssBANK1)+01Bh)
	fcall	clear_ram0
psect cinit,class=CODE,delta=2,merge=1
global end_of_initialization,__end_of__initialization

;End of C runtime variable initialization code

end_of_initialization:
__end_of__initialization:clrf status
ljmp _main	;jump to C main() function
psect	cstackBANK1,class=BANK1,space=1,noexec
global __pcstackBANK1
__pcstackBANK1:
	global	_ISR$1731
_ISR$1731:	; 3 bytes @ 0x0
	ds	3
??_TIMER0_Set:	; 0 bytes @ 0x3
?_PWM_DutyCycle2:	; 0 bytes @ 0x3
??_TIMER0_Init:	; 0 bytes @ 0x3
??_ADC_Init:	; 0 bytes @ 0x3
??_PWM_Init:	; 0 bytes @ 0x3
?_LCD_Cursor:	; 0 bytes @ 0x3
?_PWM_DutyCycle1:	; 0 bytes @ 0x3
??_isdigit:	; 0 bytes @ 0x3
?_putch:	; 0 bytes @ 0x3
??_USART_WriteChar:	; 0 bytes @ 0x3
??_LCD_WriteCmd:	; 0 bytes @ 0x3
??_LCD_WriteData:	; 0 bytes @ 0x3
	global	?___wmul
?___wmul:	; 2 bytes @ 0x3
	global	?___lwdiv
?___lwdiv:	; 2 bytes @ 0x3
	global	?___aldiv
?___aldiv:	; 4 bytes @ 0x3
	global	USART_WriteChar@byte
USART_WriteChar@byte:	; 1 bytes @ 0x3
	global	TIMER0_Set@contagens
TIMER0_Set@contagens:	; 1 bytes @ 0x3
	global	LCD_Cursor@Col
LCD_Cursor@Col:	; 1 bytes @ 0x3
	global	_isdigit$1416
_isdigit$1416:	; 1 bytes @ 0x3
	global	putch@c
putch@c:	; 1 bytes @ 0x3
	global	PWM_DutyCycle1@valor
PWM_DutyCycle1@valor:	; 2 bytes @ 0x3
	global	PWM_DutyCycle2@valor
PWM_DutyCycle2@valor:	; 2 bytes @ 0x3
	global	___wmul@multiplier
___wmul@multiplier:	; 2 bytes @ 0x3
	global	___lwdiv@divisor
___lwdiv@divisor:	; 2 bytes @ 0x3
	global	___aldiv@divisor
___aldiv@divisor:	; 4 bytes @ 0x3
	ds	1
?_USART_WriteString:	; 0 bytes @ 0x4
??_LCD_Cursor:	; 0 bytes @ 0x4
??_putch:	; 0 bytes @ 0x4
	global	LCD_WriteCmd@Byte
LCD_WriteCmd@Byte:	; 1 bytes @ 0x4
	global	LCD_WriteData@Byte
LCD_WriteData@Byte:	; 1 bytes @ 0x4
	global	isdigit@c
isdigit@c:	; 1 bytes @ 0x4
	global	USART_WriteString@str
USART_WriteString@str:	; 2 bytes @ 0x4
	ds	1
??_PWM_DutyCycle2:	; 0 bytes @ 0x5
??_LCD_Init:	; 0 bytes @ 0x5
?_LCD_WriteString:	; 0 bytes @ 0x5
??_PWM_DutyCycle1:	; 0 bytes @ 0x5
??_LCD_Clear:	; 0 bytes @ 0x5
	global	LCD_Cursor@Row
LCD_Cursor@Row:	; 1 bytes @ 0x5
	global	LCD_WriteString@Str
LCD_WriteString@Str:	; 2 bytes @ 0x5
	global	___wmul@multiplicand
___wmul@multiplicand:	; 2 bytes @ 0x5
	global	___lwdiv@dividend
___lwdiv@dividend:	; 2 bytes @ 0x5
	ds	1
??_USART_WriteString:	; 0 bytes @ 0x6
	ds	1
??_LCD_WriteString:	; 0 bytes @ 0x7
??___wmul:	; 0 bytes @ 0x7
??___lwdiv:	; 0 bytes @ 0x7
	global	___wmul@product
___wmul@product:	; 2 bytes @ 0x7
	global	___aldiv@dividend
___aldiv@dividend:	; 4 bytes @ 0x7
	ds	1
	global	___lwdiv@quotient
___lwdiv@quotient:	; 2 bytes @ 0x8
	ds	2
	global	___lwdiv@counter
___lwdiv@counter:	; 1 bytes @ 0xA
	ds	1
??___aldiv:	; 0 bytes @ 0xB
	global	?___lwmod
?___lwmod:	; 2 bytes @ 0xB
	global	___lwmod@divisor
___lwmod@divisor:	; 2 bytes @ 0xB
	ds	1
	global	___aldiv@counter
___aldiv@counter:	; 1 bytes @ 0xC
	ds	1
	global	___aldiv@sign
___aldiv@sign:	; 1 bytes @ 0xD
	global	___lwmod@dividend
___lwmod@dividend:	; 2 bytes @ 0xD
	ds	1
	global	___aldiv@quotient
___aldiv@quotient:	; 4 bytes @ 0xE
	ds	1
??___lwmod:	; 0 bytes @ 0xF
	ds	1
	global	___lwmod@counter
___lwmod@counter:	; 1 bytes @ 0x10
	ds	1
	global	?__doprnt
?__doprnt:	; 2 bytes @ 0x11
	global	__doprnt@f
__doprnt@f:	; 1 bytes @ 0x11
	ds	1
?_USART_Init:	; 0 bytes @ 0x12
	global	__doprnt@ap
__doprnt@ap:	; 1 bytes @ 0x12
	global	USART_Init@BaudRate
USART_Init@BaudRate:	; 4 bytes @ 0x12
	ds	1
??__doprnt:	; 0 bytes @ 0x13
	ds	3
??_USART_Init:	; 0 bytes @ 0x16
	global	__doprnt@prec
__doprnt@prec:	; 1 bytes @ 0x16
	ds	1
	global	__doprnt@_val
__doprnt@_val:	; 4 bytes @ 0x17
	ds	4
	global	__doprnt@flag
__doprnt@flag:	; 1 bytes @ 0x1B
	ds	1
	global	__doprnt@width
__doprnt@width:	; 2 bytes @ 0x1C
	ds	2
	global	__doprnt@c
__doprnt@c:	; 1 bytes @ 0x1E
	ds	1
	global	__doprnt@pb
__doprnt@pb:	; 1 bytes @ 0x1F
	ds	1
	global	?_sprintf
?_sprintf:	; 2 bytes @ 0x20
	global	sprintf@f
sprintf@f:	; 1 bytes @ 0x20
	ds	3
??_sprintf:	; 0 bytes @ 0x23
	ds	2
	global	sprintf@wh
sprintf@wh:	; 1 bytes @ 0x25
	ds	1
	global	sprintf@ap
sprintf@ap:	; 1 bytes @ 0x26
	ds	1
	global	sprintf@pb
sprintf@pb:	; 2 bytes @ 0x27
	ds	2
??_main:	; 0 bytes @ 0x29
	ds	3
psect	cstackCOMMON,class=COMMON,space=1,noexec
global __pcstackCOMMON
__pcstackCOMMON:
?_TIMER0_Set:	; 0 bytes @ 0x0
?_TIMER0_Init:	; 0 bytes @ 0x0
?_ADC_Init:	; 0 bytes @ 0x0
?_PWM_Init:	; 0 bytes @ 0x0
?_LCD_Init:	; 0 bytes @ 0x0
?_LCD_Clear:	; 0 bytes @ 0x0
?_isdigit:	; 1 bit 
?_ISR:	; 0 bytes @ 0x0
?_main:	; 0 bytes @ 0x0
?_USART_WriteChar:	; 0 bytes @ 0x0
?_LCD_WriteCmd:	; 0 bytes @ 0x0
?_LCD_WriteData:	; 0 bytes @ 0x0
?___ftge:	; 1 bit 
?i1_TIMER0_Set:	; 0 bytes @ 0x0
??i1_TIMER0_Set:	; 0 bytes @ 0x0
	global	?___ftpack
?___ftpack:	; 3 bytes @ 0x0
	global	i1TIMER0_Set@contagens
i1TIMER0_Set@contagens:	; 1 bytes @ 0x0
	global	___ftpack@arg
___ftpack@arg:	; 3 bytes @ 0x0
	global	___ftge@ff1
___ftge@ff1:	; 3 bytes @ 0x0
	ds	3
	global	___ftpack@exp
___ftpack@exp:	; 1 bytes @ 0x3
	global	___ftge@ff2
___ftge@ff2:	; 3 bytes @ 0x3
	ds	1
	global	___ftpack@sign
___ftpack@sign:	; 1 bytes @ 0x4
	ds	1
??___ftpack:	; 0 bytes @ 0x5
	ds	1
??___ftge:	; 0 bytes @ 0x6
	ds	2
	global	?___lwtoft
?___lwtoft:	; 3 bytes @ 0x8
	global	___lwtoft@c
___lwtoft@c:	; 2 bytes @ 0x8
	ds	3
??___lwtoft:	; 0 bytes @ 0xB
	ds	1
??_triangular:	; 0 bytes @ 0xC
??___ftneg:	; 0 bytes @ 0xC
??i1_PWM_DutyCycle2:	; 0 bytes @ 0xC
	ds	2
psect	cstackBANK0,class=BANK0,space=1,noexec
global __pcstackBANK0
__pcstackBANK0:
	global	?___ftneg
?___ftneg:	; 3 bytes @ 0x0
	global	___ftneg@f1
___ftneg@f1:	; 3 bytes @ 0x0
	ds	3
	global	?___ftadd
?___ftadd:	; 3 bytes @ 0x3
	global	___ftadd@f1
___ftadd@f1:	; 3 bytes @ 0x3
	ds	3
	global	___ftadd@f2
___ftadd@f2:	; 3 bytes @ 0x6
	ds	3
??___ftadd:	; 0 bytes @ 0x9
	ds	4
	global	___ftadd@sign
___ftadd@sign:	; 1 bytes @ 0xD
	ds	1
	global	___ftadd@exp2
___ftadd@exp2:	; 1 bytes @ 0xE
	ds	1
	global	___ftadd@exp1
___ftadd@exp1:	; 1 bytes @ 0xF
	ds	1
	global	?___ftdiv
?___ftdiv:	; 3 bytes @ 0x10
	global	___ftdiv@f2
___ftdiv@f2:	; 3 bytes @ 0x10
	ds	3
	global	___ftdiv@f1
___ftdiv@f1:	; 3 bytes @ 0x13
	ds	3
??___ftdiv:	; 0 bytes @ 0x16
	ds	4
	global	___ftdiv@cntr
___ftdiv@cntr:	; 1 bytes @ 0x1A
	ds	1
	global	___ftdiv@f3
___ftdiv@f3:	; 3 bytes @ 0x1B
	ds	3
	global	___ftdiv@exp
___ftdiv@exp:	; 1 bytes @ 0x1E
	ds	1
	global	___ftdiv@sign
___ftdiv@sign:	; 1 bytes @ 0x1F
	ds	1
	global	?_triangular
?_triangular:	; 3 bytes @ 0x20
	global	triangular@x
triangular@x:	; 3 bytes @ 0x20
	ds	3
	global	triangular@a
triangular@a:	; 3 bytes @ 0x23
	ds	3
	global	triangular@b
triangular@b:	; 3 bytes @ 0x26
	ds	3
	global	triangular@c
triangular@c:	; 3 bytes @ 0x29
	ds	3
	global	?___ftmul
?___ftmul:	; 3 bytes @ 0x2C
	global	___ftmul@f1
___ftmul@f1:	; 3 bytes @ 0x2C
	ds	3
	global	___ftmul@f2
___ftmul@f2:	; 3 bytes @ 0x2F
	ds	3
??___ftmul:	; 0 bytes @ 0x32
	ds	4
	global	___ftmul@exp
___ftmul@exp:	; 1 bytes @ 0x36
	ds	1
	global	___ftmul@f3_as_product
___ftmul@f3_as_product:	; 3 bytes @ 0x37
	ds	3
	global	___ftmul@cntr
___ftmul@cntr:	; 1 bytes @ 0x3A
	ds	1
	global	___ftmul@sign
___ftmul@sign:	; 1 bytes @ 0x3B
	ds	1
	global	?___fttol
?___fttol:	; 4 bytes @ 0x3C
	global	___fttol@f1
___fttol@f1:	; 3 bytes @ 0x3C
	ds	4
??___fttol:	; 0 bytes @ 0x40
	ds	4
	global	___fttol@sign1
___fttol@sign1:	; 1 bytes @ 0x44
	ds	1
	global	___fttol@lval
___fttol@lval:	; 4 bytes @ 0x45
	ds	4
	global	___fttol@exp1
___fttol@exp1:	; 1 bytes @ 0x49
	ds	1
?i1_PWM_DutyCycle2:	; 0 bytes @ 0x4A
	global	i1PWM_DutyCycle2@valor
i1PWM_DutyCycle2@valor:	; 2 bytes @ 0x4A
	ds	2
??_ISR:	; 0 bytes @ 0x4C
	ds	4
;!
;!Data Sizes:
;!    Strings     127
;!    Constant    10
;!    Data        0
;!    BSS         27
;!    Persistent  0
;!    Stack       0
;!
;!Auto Spaces:
;!    Space          Size  Autos    Used
;!    COMMON           14     14      14
;!    BANK0            80     80      80
;!    BANK1            80     44      71
;!    BANK3            96      0       0
;!    BANK2            96      0       0

;!
;!Pointer List with Targets:
;!
;!    sprintf@f	PTR const unsigned char  size(1) Largest target is 5
;!		 -> STR_9(CODE[5]), 
;!
;!    sprintf@ap	PTR void [1] size(1) Largest target is 2
;!		 -> ?_sprintf(BANK1[2]), ?_printf(COMMON[2]), 
;!
;!    sprintf@wh	PTR unsigned char  size(1) Largest target is 10
;!		 -> display(BANK1[10]), 
;!
;!    pb.func	PTR FTN(unsigned char ,)void  size(1) Largest target is 0
;!		 -> putch(), Absolute function(), 
;!
;!    pb.ptr	PTR unsigned char  size(1) Largest target is 10
;!		 -> NULL(NULL[0]), display(BANK1[10]), 
;!
;!    pb.func	PTR FTN(unsigned char ,)void  size(1) Largest target is 0
;!		 -> putch(), Absolute function(), 
;!
;!    pb.ptr	PTR unsigned char  size(1) Largest target is 10
;!		 -> NULL(NULL[0]), display(BANK1[10]), 
;!
;!    _doprnt@ap	PTR PTR void  size(1) Largest target is 2
;!		 -> sprintf@ap(BANK1[1]), printf@ap(COMMON[1]), 
;!
;!    _doprnt@f	PTR const unsigned char  size(1) Largest target is 5
;!		 -> STR_9(CODE[5]), STR_5(CODE[2]), STR_4(CODE[2]), STR_3(CODE[2]), 
;!		 -> STR_2(CODE[2]), STR_1(CODE[2]), 
;!
;!    S1187__prbuf$func	PTR FTN(unsigned char ,)void  size(1) Largest target is 0
;!		 -> putch(), Absolute function(), 
;!
;!    _doprnt@pb.func	PTR FTN(unsigned char ,)void  size(1) Largest target is 0
;!		 -> putch(), Absolute function(), 
;!
;!    S1187__prbuf$ptr	PTR unsigned char  size(1) Largest target is 10
;!		 -> NULL(NULL[0]), display(BANK1[10]), 
;!
;!    _doprnt@pb.ptr	PTR unsigned char  size(1) Largest target is 10
;!		 -> NULL(NULL[0]), display(BANK1[10]), 
;!
;!    _doprnt@pb	PTR struct __prbuf size(1) Largest target is 3
;!		 -> sprintf@pb(BANK1[2]), printf@pb(COMMON[2]), 
;!
;!    S1213$_cp	PTR const unsigned char  size(1) Largest target is 0
;!
;!    _val._str._cp	PTR const unsigned char  size(1) Largest target is 0
;!
;!    LCD_WriteString@Str	PTR const unsigned char  size(2) Largest target is 17
;!		 -> STR_11(CODE[6]), display(BANK1[10]), STR_8(CODE[17]), 
;!
;!    USART_WriteString@str	PTR const unsigned char  size(2) Largest target is 40
;!		 -> STR_12(CODE[40]), STR_10(CODE[3]), display(BANK1[10]), STR_7(CODE[20]), 
;!		 -> STR_6(CODE[29]), 
;!


;!
;!Critical Paths under _main in COMMON
;!
;!    None.
;!
;!Critical Paths under _ISR in COMMON
;!
;!    _ISR->i1_PWM_DutyCycle2
;!    i1_PWM_DutyCycle2->___lwtoft
;!    _triangular->___ftge
;!    _triangular->___lwtoft
;!    ___ftneg->___lwtoft
;!    ___ftdiv->___lwtoft
;!    ___ftadd->___lwtoft
;!    ___lwtoft->___ftpack
;!    ___fttol->___lwtoft
;!    ___ftmul->___lwtoft
;!
;!Critical Paths under _main in BANK0
;!
;!    None.
;!
;!Critical Paths under _ISR in BANK0
;!
;!    _ISR->i1_PWM_DutyCycle2
;!    i1_PWM_DutyCycle2->___fttol
;!    _triangular->___ftdiv
;!    ___ftdiv->___ftadd
;!    ___ftadd->___ftneg
;!    ___fttol->___ftmul
;!    ___ftmul->_triangular
;!
;!Critical Paths under _main in BANK1
;!
;!    _main->_sprintf
;!    _sprintf->__doprnt
;!    __doprnt->___lwmod
;!    ___lwmod->___lwdiv
;!    _USART_WriteString->_USART_WriteChar
;!    _USART_Init->___aldiv
;!    _LCD_WriteString->_LCD_WriteData
;!    _LCD_Init->_LCD_WriteCmd
;!    _LCD_Clear->_LCD_WriteCmd
;!
;!Critical Paths under _ISR in BANK1
;!
;!    None.
;!
;!Critical Paths under _main in BANK3
;!
;!    None.
;!
;!Critical Paths under _ISR in BANK3
;!
;!    None.
;!
;!Critical Paths under _main in BANK2
;!
;!    None.
;!
;!Critical Paths under _ISR in BANK2
;!
;!    None.

;;
;;Main: autosize = 0, tempsize = 3, incstack = 0, save=0
;;

;!
;!Call Graph Tables:
;!
;! ---------------------------------------------------------------------------------
;! (Depth) Function   	        Calls       Base Space   Used Autos Params    Refs
;! ---------------------------------------------------------------------------------
;! (0) _main                                                 3     3      0    4767
;!                                             41 BANK1      3     3      0
;!                           _ADC_Init
;!                          _LCD_Clear
;!                         _LCD_Cursor
;!                           _LCD_Init
;!                    _LCD_WriteString
;!                     _PWM_DutyCycle1
;!                     _PWM_DutyCycle2
;!                           _PWM_Init
;!                        _TIMER0_Init
;!                         _TIMER0_Set
;!                         _USART_Init
;!                  _USART_WriteString
;!                            _sprintf
;! ---------------------------------------------------------------------------------
;! (1) _sprintf                                              9     6      3    3029
;!                                             32 BANK1      9     6      3
;!                            __doprnt
;! ---------------------------------------------------------------------------------
;! (2) __doprnt                                             15    13      2    2747
;!                                             17 BANK1     15    13      2
;!                   Absolute function *
;!                            ___lwdiv
;!                            ___lwmod
;!                             ___wmul
;!                            _isdigit
;!                              _putch *
;! ---------------------------------------------------------------------------------
;! (3) _putch                                                1     0      1     258
;!                                              3 BANK1      1     0      1
;! ---------------------------------------------------------------------------------
;! (3) _isdigit                                              2     2      0      68
;!                                              3 BANK1      2     2      0
;! ---------------------------------------------------------------------------------
;! (3) ___wmul                                               6     2      4     220
;!                                              3 BANK1      6     2      4
;! ---------------------------------------------------------------------------------
;! (3) ___lwmod                                              6     2      4     287
;!                                             11 BANK1      6     2      4
;!                            ___lwdiv (ARG)
;! ---------------------------------------------------------------------------------
;! (3) ___lwdiv                                              8     4      4     290
;!                                              3 BANK1      8     4      4
;! ---------------------------------------------------------------------------------
;! (3) Absolute function(Fake)                               1     0      1       0
;!                                              3 BANK1      1     0      1
;! ---------------------------------------------------------------------------------
;! (1) _USART_WriteString                                    2     0      2     387
;!                                              4 BANK1      2     0      2
;!                    _USART_WriteChar
;! ---------------------------------------------------------------------------------
;! (2) _USART_WriteChar                                      1     1      0      22
;!                                              3 BANK1      1     1      0
;! ---------------------------------------------------------------------------------
;! (1) _USART_Init                                           8     4      4     514
;!                                             18 BANK1      8     4      4
;!                            ___aldiv
;! ---------------------------------------------------------------------------------
;! (2) ___aldiv                                             15     7      8     428
;!                                              3 BANK1     15     7      8
;! ---------------------------------------------------------------------------------
;! (1) _TIMER0_Set                                           1     1      0      22
;!                                              3 BANK1      1     1      0
;! ---------------------------------------------------------------------------------
;! (1) _TIMER0_Init                                          0     0      0       0
;! ---------------------------------------------------------------------------------
;! (1) _PWM_Init                                             0     0      0       0
;! ---------------------------------------------------------------------------------
;! (1) _PWM_DutyCycle2                                       4     2      2     146
;!                                              3 BANK1      4     2      2
;! ---------------------------------------------------------------------------------
;! (1) _PWM_DutyCycle1                                       4     2      2     108
;!                                              3 BANK1      4     2      2
;! ---------------------------------------------------------------------------------
;! (1) _LCD_WriteString                                      2     0      2     259
;!                                              5 BANK1      2     0      2
;!                      _LCD_WriteData
;! ---------------------------------------------------------------------------------
;! (2) _LCD_WriteData                                        2     2      0      22
;!                                              3 BANK1      2     2      0
;! ---------------------------------------------------------------------------------
;! (1) _LCD_Init                                             2     2      0      22
;!                                              5 BANK1      2     2      0
;!                       _LCD_WriteCmd
;! ---------------------------------------------------------------------------------
;! (1) _LCD_Cursor                                           3     2      1     258
;!                                              3 BANK1      3     2      1
;! ---------------------------------------------------------------------------------
;! (1) _LCD_Clear                                            2     2      0      22
;!                                              5 BANK1      2     2      0
;!                       _LCD_WriteCmd
;! ---------------------------------------------------------------------------------
;! (2) _LCD_WriteCmd                                         2     2      0      22
;!                                              3 BANK1      2     2      0
;! ---------------------------------------------------------------------------------
;! (1) _ADC_Init                                             0     0      0       0
;! ---------------------------------------------------------------------------------
;! Estimated maximum stack depth 3
;! ---------------------------------------------------------------------------------
;! (Depth) Function   	        Calls       Base Space   Used Autos Params    Refs
;! ---------------------------------------------------------------------------------
;! (4) _ISR                                                  7     7      0   23409
;!                                             76 BANK0      4     4      0
;!                                              0 BANK1      3     3      0
;!                            ___ftadd
;!                            ___ftdiv
;!                            ___ftmul
;!                            ___ftneg
;!                            ___fttol
;!                           ___lwtoft
;!                         _triangular
;!                   i1_PWM_DutyCycle2
;!                       i1_TIMER0_Set
;! ---------------------------------------------------------------------------------
;! (5) i1_TIMER0_Set                                         1     1      0      22
;!                                              0 COMMON     1     1      0
;! ---------------------------------------------------------------------------------
;! (5) i1_PWM_DutyCycle2                                     4     2      2      70
;!                                             12 COMMON     2     2      0
;!                                             74 BANK0      2     0      2
;!                            ___ftadd (ARG)
;!                            ___ftmul (ARG)
;!                            ___ftneg (ARG)
;!                            ___fttol (ARG)
;!                           ___lwtoft (ARG)
;!                         _triangular (ARG)
;! ---------------------------------------------------------------------------------
;! (5) _triangular                                          12     0     12   10355
;!                                             32 BANK0     12     0     12
;!                            ___ftadd
;!                            ___ftdiv
;!                             ___ftge
;!                            ___ftneg
;!                           ___lwtoft (ARG)
;! ---------------------------------------------------------------------------------
;! (6) ___ftneg                                              3     0      3     621
;!                                              0 BANK0      3     0      3
;!                           ___lwtoft (ARG)
;! ---------------------------------------------------------------------------------
;! (6) ___ftge                                              12     6      6    1928
;!                                              0 COMMON    12     6      6
;! ---------------------------------------------------------------------------------
;! (6) ___ftdiv                                             16    10      6    2968
;!                                             16 BANK0     16    10      6
;!                            ___ftadd (ARG)
;!                            ___ftneg (ARG)
;!                           ___ftpack
;!                           ___lwtoft (ARG)
;! ---------------------------------------------------------------------------------
;! (6) ___ftadd                                             13     7      6    4142
;!                                              3 BANK0     13     7      6
;!                            ___ftneg (ARG)
;!                           ___ftpack
;!                           ___lwtoft (ARG)
;! ---------------------------------------------------------------------------------
;! (5) ___lwtoft                                             4     1      3    2198
;!                                              8 COMMON     4     1      3
;!                           ___ftpack
;! ---------------------------------------------------------------------------------
;! (5) ___fttol                                             14    10      4     380
;!                                             60 BANK0     14    10      4
;!                            ___ftadd (ARG)
;!                            ___ftdiv (ARG)
;!                            ___ftmul (ARG)
;!                            ___ftneg (ARG)
;!                           ___lwtoft (ARG)
;!                         _triangular (ARG)
;! ---------------------------------------------------------------------------------
;! (5) ___ftmul                                             16    10      6    2630
;!                                             44 BANK0     16    10      6
;!                            ___ftadd (ARG)
;!                            ___ftdiv (ARG)
;!                            ___ftneg (ARG)
;!                           ___ftpack
;!                           ___lwtoft (ARG)
;!                         _triangular (ARG)
;! ---------------------------------------------------------------------------------
;! (7) ___ftpack                                             8     3      5    2048
;!                                              0 COMMON     8     3      5
;! ---------------------------------------------------------------------------------
;! Estimated maximum stack depth 7
;! ---------------------------------------------------------------------------------
;!
;! Call Graph Graphs:
;!
;! _main (ROOT)
;!   _ADC_Init
;!   _LCD_Clear
;!     _LCD_WriteCmd
;!   _LCD_Cursor
;!   _LCD_Init
;!     _LCD_WriteCmd
;!   _LCD_WriteString
;!     _LCD_WriteData
;!   _PWM_DutyCycle1
;!   _PWM_DutyCycle2
;!   _PWM_Init
;!   _TIMER0_Init
;!   _TIMER0_Set
;!   _USART_Init
;!     ___aldiv
;!   _USART_WriteString
;!     _USART_WriteChar
;!   _sprintf
;!     __doprnt
;!       Absolute function(Fake) *
;!       ___lwdiv *
;!       ___lwmod *
;!         ___lwdiv (ARG)
;!       ___wmul *
;!       _isdigit *
;!       _putch *
;!
;! _ISR (ROOT)
;!   ___ftadd
;!     ___ftneg (ARG)
;!       ___lwtoft (ARG)
;!         ___ftpack
;!     ___ftpack (ARG)
;!     ___lwtoft (ARG)
;!       ___ftpack
;!   ___ftdiv
;!     ___ftadd (ARG)
;!       ___ftneg (ARG)
;!         ___lwtoft (ARG)
;!           ___ftpack
;!       ___ftpack (ARG)
;!       ___lwtoft (ARG)
;!         ___ftpack
;!     ___ftneg (ARG)
;!       ___lwtoft (ARG)
;!         ___ftpack
;!     ___ftpack (ARG)
;!     ___lwtoft (ARG)
;!       ___ftpack
;!   ___ftmul
;!     ___ftadd (ARG)
;!       ___ftneg (ARG)
;!         ___lwtoft (ARG)
;!           ___ftpack
;!       ___ftpack (ARG)
;!       ___lwtoft (ARG)
;!         ___ftpack
;!     ___ftdiv (ARG)
;!       ___ftadd (ARG)
;!         ___ftneg (ARG)
;!           ___lwtoft (ARG)
;!             ___ftpack
;!         ___ftpack (ARG)
;!         ___lwtoft (ARG)
;!           ___ftpack
;!       ___ftneg (ARG)
;!         ___lwtoft (ARG)
;!           ___ftpack
;!       ___ftpack (ARG)
;!       ___lwtoft (ARG)
;!         ___ftpack
;!     ___ftneg (ARG)
;!       ___lwtoft (ARG)
;!         ___ftpack
;!     ___ftpack (ARG)
;!     ___lwtoft (ARG)
;!       ___ftpack
;!     _triangular (ARG)
;!       ___ftadd
;!         ___ftneg (ARG)
;!           ___lwtoft (ARG)
;!             ___ftpack
;!         ___ftpack (ARG)
;!         ___lwtoft (ARG)
;!           ___ftpack
;!       ___ftdiv
;!         ___ftadd (ARG)
;!           ___ftneg (ARG)
;!             ___lwtoft (ARG)
;!               ___ftpack
;!           ___ftpack (ARG)
;!           ___lwtoft (ARG)
;!             ___ftpack
;!         ___ftneg (ARG)
;!           ___lwtoft (ARG)
;!             ___ftpack
;!         ___ftpack (ARG)
;!         ___lwtoft (ARG)
;!           ___ftpack
;!       ___ftge
;!       ___ftneg
;!         ___lwtoft (ARG)
;!           ___ftpack
;!       ___lwtoft (ARG)
;!         ___ftpack
;!   ___ftneg
;!     ___lwtoft (ARG)
;!       ___ftpack
;!   ___fttol
;!     ___ftadd (ARG)
;!       ___ftneg (ARG)
;!         ___lwtoft (ARG)
;!           ___ftpack
;!       ___ftpack (ARG)
;!       ___lwtoft (ARG)
;!         ___ftpack
;!     ___ftdiv (ARG)
;!       ___ftadd (ARG)
;!         ___ftneg (ARG)
;!           ___lwtoft (ARG)
;!             ___ftpack
;!         ___ftpack (ARG)
;!         ___lwtoft (ARG)
;!           ___ftpack
;!       ___ftneg (ARG)
;!         ___lwtoft (ARG)
;!           ___ftpack
;!       ___ftpack (ARG)
;!       ___lwtoft (ARG)
;!         ___ftpack
;!     ___ftmul (ARG)
;!       ___ftadd (ARG)
;!         ___ftneg (ARG)
;!           ___lwtoft (ARG)
;!             ___ftpack
;!         ___ftpack (ARG)
;!         ___lwtoft (ARG)
;!           ___ftpack
;!       ___ftdiv (ARG)
;!         ___ftadd (ARG)
;!           ___ftneg (ARG)
;!             ___lwtoft (ARG)
;!               ___ftpack
;!           ___ftpack (ARG)
;!           ___lwtoft (ARG)
;!             ___ftpack
;!         ___ftneg (ARG)
;!           ___lwtoft (ARG)
;!             ___ftpack
;!         ___ftpack (ARG)
;!         ___lwtoft (ARG)
;!           ___ftpack
;!       ___ftneg (ARG)
;!         ___lwtoft (ARG)
;!           ___ftpack
;!       ___ftpack (ARG)
;!       ___lwtoft (ARG)
;!         ___ftpack
;!       _triangular (ARG)
;!         ___ftadd
;!           ___ftneg (ARG)
;!             ___lwtoft (ARG)
;!               ___ftpack
;!           ___ftpack (ARG)
;!           ___lwtoft (ARG)
;!             ___ftpack
;!         ___ftdiv
;!           ___ftadd (ARG)
;!             ___ftneg (ARG)
;!               ___lwtoft (ARG)
;!                 ___ftpack
;!             ___ftpack (ARG)
;!             ___lwtoft (ARG)
;!               ___ftpack
;!           ___ftneg (ARG)
;!             ___lwtoft (ARG)
;!               ___ftpack
;!           ___ftpack (ARG)
;!           ___lwtoft (ARG)
;!             ___ftpack
;!         ___ftge
;!         ___ftneg
;!           ___lwtoft (ARG)
;!             ___ftpack
;!         ___lwtoft (ARG)
;!           ___ftpack
;!     ___ftneg (ARG)
;!       ___lwtoft (ARG)
;!         ___ftpack
;!     ___lwtoft (ARG)
;!       ___ftpack
;!     _triangular (ARG)
;!       ___ftadd
;!         ___ftneg (ARG)
;!           ___lwtoft (ARG)
;!             ___ftpack
;!         ___ftpack (ARG)
;!         ___lwtoft (ARG)
;!           ___ftpack
;!       ___ftdiv
;!         ___ftadd (ARG)
;!           ___ftneg (ARG)
;!             ___lwtoft (ARG)
;!               ___ftpack
;!           ___ftpack (ARG)
;!           ___lwtoft (ARG)
;!             ___ftpack
;!         ___ftneg (ARG)
;!           ___lwtoft (ARG)
;!             ___ftpack
;!         ___ftpack (ARG)
;!         ___lwtoft (ARG)
;!           ___ftpack
;!       ___ftge
;!       ___ftneg
;!         ___lwtoft (ARG)
;!           ___ftpack
;!       ___lwtoft (ARG)
;!         ___ftpack
;!   ___lwtoft
;!     ___ftpack
;!   _triangular
;!     ___ftadd
;!       ___ftneg (ARG)
;!         ___lwtoft (ARG)
;!           ___ftpack
;!       ___ftpack (ARG)
;!       ___lwtoft (ARG)
;!         ___ftpack
;!     ___ftdiv
;!       ___ftadd (ARG)
;!         ___ftneg (ARG)
;!           ___lwtoft (ARG)
;!             ___ftpack
;!         ___ftpack (ARG)
;!         ___lwtoft (ARG)
;!           ___ftpack
;!       ___ftneg (ARG)
;!         ___lwtoft (ARG)
;!           ___ftpack
;!       ___ftpack (ARG)
;!       ___lwtoft (ARG)
;!         ___ftpack
;!     ___ftge
;!     ___ftneg
;!       ___lwtoft (ARG)
;!         ___ftpack
;!     ___lwtoft (ARG)
;!       ___ftpack
;!   i1_PWM_DutyCycle2
;!     ___ftadd (ARG)
;!       ___ftneg (ARG)
;!         ___lwtoft (ARG)
;!           ___ftpack
;!       ___ftpack (ARG)
;!       ___lwtoft (ARG)
;!         ___ftpack
;!     ___ftmul (ARG)
;!       ___ftadd (ARG)
;!         ___ftneg (ARG)
;!           ___lwtoft (ARG)
;!             ___ftpack
;!         ___ftpack (ARG)
;!         ___lwtoft (ARG)
;!           ___ftpack
;!       ___ftdiv (ARG)
;!         ___ftadd (ARG)
;!           ___ftneg (ARG)
;!             ___lwtoft (ARG)
;!               ___ftpack
;!           ___ftpack (ARG)
;!           ___lwtoft (ARG)
;!             ___ftpack
;!         ___ftneg (ARG)
;!           ___lwtoft (ARG)
;!             ___ftpack
;!         ___ftpack (ARG)
;!         ___lwtoft (ARG)
;!           ___ftpack
;!       ___ftneg (ARG)
;!         ___lwtoft (ARG)
;!           ___ftpack
;!       ___ftpack (ARG)
;!       ___lwtoft (ARG)
;!         ___ftpack
;!       _triangular (ARG)
;!         ___ftadd
;!           ___ftneg (ARG)
;!             ___lwtoft (ARG)
;!               ___ftpack
;!           ___ftpack (ARG)
;!           ___lwtoft (ARG)
;!             ___ftpack
;!         ___ftdiv
;!           ___ftadd (ARG)
;!             ___ftneg (ARG)
;!               ___lwtoft (ARG)
;!                 ___ftpack
;!             ___ftpack (ARG)
;!             ___lwtoft (ARG)
;!               ___ftpack
;!           ___ftneg (ARG)
;!             ___lwtoft (ARG)
;!               ___ftpack
;!           ___ftpack (ARG)
;!           ___lwtoft (ARG)
;!             ___ftpack
;!         ___ftge
;!         ___ftneg
;!           ___lwtoft (ARG)
;!             ___ftpack
;!         ___lwtoft (ARG)
;!           ___ftpack
;!     ___ftneg (ARG)
;!       ___lwtoft (ARG)
;!         ___ftpack
;!     ___fttol (ARG)
;!       ___ftadd (ARG)
;!         ___ftneg (ARG)
;!           ___lwtoft (ARG)
;!             ___ftpack
;!         ___ftpack (ARG)
;!         ___lwtoft (ARG)
;!           ___ftpack
;!       ___ftdiv (ARG)
;!         ___ftadd (ARG)
;!           ___ftneg (ARG)
;!             ___lwtoft (ARG)
;!               ___ftpack
;!           ___ftpack (ARG)
;!           ___lwtoft (ARG)
;!             ___ftpack
;!         ___ftneg (ARG)
;!           ___lwtoft (ARG)
;!             ___ftpack
;!         ___ftpack (ARG)
;!         ___lwtoft (ARG)
;!           ___ftpack
;!       ___ftmul (ARG)
;!         ___ftadd (ARG)
;!           ___ftneg (ARG)
;!             ___lwtoft (ARG)
;!               ___ftpack
;!           ___ftpack (ARG)
;!           ___lwtoft (ARG)
;!             ___ftpack
;!         ___ftdiv (ARG)
;!           ___ftadd (ARG)
;!             ___ftneg (ARG)
;!               ___lwtoft (ARG)
;!                 ___ftpack
;!             ___ftpack (ARG)
;!             ___lwtoft (ARG)
;!               ___ftpack
;!           ___ftneg (ARG)
;!             ___lwtoft (ARG)
;!               ___ftpack
;!           ___ftpack (ARG)
;!           ___lwtoft (ARG)
;!             ___ftpack
;!         ___ftneg (ARG)
;!           ___lwtoft (ARG)
;!             ___ftpack
;!         ___ftpack (ARG)
;!         ___lwtoft (ARG)
;!           ___ftpack
;!         _triangular (ARG)
;!           ___ftadd
;!             ___ftneg (ARG)
;!               ___lwtoft (ARG)
;!                 ___ftpack
;!             ___ftpack (ARG)
;!             ___lwtoft (ARG)
;!               ___ftpack
;!           ___ftdiv
;!             ___ftadd (ARG)
;!               ___ftneg (ARG)
;!                 ___lwtoft (ARG)
;!                   ___ftpack
;!               ___ftpack (ARG)
;!               ___lwtoft (ARG)
;!                 ___ftpack
;!             ___ftneg (ARG)
;!               ___lwtoft (ARG)
;!                 ___ftpack
;!             ___ftpack (ARG)
;!             ___lwtoft (ARG)
;!               ___ftpack
;!           ___ftge
;!           ___ftneg
;!             ___lwtoft (ARG)
;!               ___ftpack
;!           ___lwtoft (ARG)
;!             ___ftpack
;!       ___ftneg (ARG)
;!         ___lwtoft (ARG)
;!           ___ftpack
;!       ___lwtoft (ARG)
;!         ___ftpack
;!       _triangular (ARG)
;!         ___ftadd
;!           ___ftneg (ARG)
;!             ___lwtoft (ARG)
;!               ___ftpack
;!           ___ftpack (ARG)
;!           ___lwtoft (ARG)
;!             ___ftpack
;!         ___ftdiv
;!           ___ftadd (ARG)
;!             ___ftneg (ARG)
;!               ___lwtoft (ARG)
;!                 ___ftpack
;!             ___ftpack (ARG)
;!             ___lwtoft (ARG)
;!               ___ftpack
;!           ___ftneg (ARG)
;!             ___lwtoft (ARG)
;!               ___ftpack
;!           ___ftpack (ARG)
;!           ___lwtoft (ARG)
;!             ___ftpack
;!         ___ftge
;!         ___ftneg
;!           ___lwtoft (ARG)
;!             ___ftpack
;!         ___lwtoft (ARG)
;!           ___ftpack
;!     ___lwtoft (ARG)
;!       ___ftpack
;!     _triangular (ARG)
;!       ___ftadd
;!         ___ftneg (ARG)
;!           ___lwtoft (ARG)
;!             ___ftpack
;!         ___ftpack (ARG)
;!         ___lwtoft (ARG)
;!           ___ftpack
;!       ___ftdiv
;!         ___ftadd (ARG)
;!           ___ftneg (ARG)
;!             ___lwtoft (ARG)
;!               ___ftpack
;!           ___ftpack (ARG)
;!           ___lwtoft (ARG)
;!             ___ftpack
;!         ___ftneg (ARG)
;!           ___lwtoft (ARG)
;!             ___ftpack
;!         ___ftpack (ARG)
;!         ___lwtoft (ARG)
;!           ___ftpack
;!       ___ftge
;!       ___ftneg
;!         ___lwtoft (ARG)
;!           ___ftpack
;!       ___lwtoft (ARG)
;!         ___ftpack
;!   i1_TIMER0_Set
;!

;! Address spaces:

;!Name               Size   Autos  Total    Cost      Usage
;!BITCOMMON            E      0       0       0        0.0%
;!EEDATA             100      0       0       0        0.0%
;!NULL                 0      0       0       0        0.0%
;!CODE                 0      0       0       0        0.0%
;!COMMON               E      E       E       1      100.0%
;!BITSFR0              0      0       0       1        0.0%
;!SFR0                 0      0       0       1        0.0%
;!BITSFR1              0      0       0       2        0.0%
;!SFR1                 0      0       0       2        0.0%
;!STACK                0      0       0       2        0.0%
;!ABS                  0      0      A5       3        0.0%
;!BITBANK0            50      0       0       4        0.0%
;!BITSFR3              0      0       0       4        0.0%
;!SFR3                 0      0       0       4        0.0%
;!BANK0               50     50      50       5      100.0%
;!BITSFR2              0      0       0       5        0.0%
;!SFR2                 0      0       0       5        0.0%
;!BITBANK1            50      0       0       6        0.0%
;!BANK1               50     2C      47       7       88.8%
;!BITBANK3            60      0       0       8        0.0%
;!BANK3               60      0       0       9        0.0%
;!BITBANK2            60      0       0      10        0.0%
;!BANK2               60      0       0      11        0.0%
;!DATA                 0      0      A5      12        0.0%

	global	_main

;; *************** function _main *****************
;; Defined at:
;;		line 153 in file "C:\Users\332414\Documents\Fuzzy-IA2\Cdigo em C no MPLAB\main.c"
;; Parameters:    Size  Location     Type
;;		None
;; Auto vars:     Size  Location     Type
;;		None
;; Return value:  Size  Location     Type
;;		None               void
;; Registers used:
;;		wreg, fsr0l, fsr0h, status,2, status,0, btemp+1, pclath, cstack
;; Tracked objects:
;;		On entry : 17F/0
;;		On exit  : 0/0
;;		Unchanged: 0/0
;; Data sizes:     COMMON   BANK0   BANK1   BANK3   BANK2
;;      Params:         0       0       0       0       0
;;      Locals:         0       0       0       0       0
;;      Temps:          0       0       3       0       0
;;      Totals:         0       0       3       0       0
;;Total ram usage:        3 bytes
;; Hardware stack levels required when called:    7
;; This function calls:
;;		_ADC_Init
;;		_LCD_Clear
;;		_LCD_Cursor
;;		_LCD_Init
;;		_LCD_WriteString
;;		_PWM_DutyCycle1
;;		_PWM_DutyCycle2
;;		_PWM_Init
;;		_TIMER0_Init
;;		_TIMER0_Set
;;		_USART_Init
;;		_USART_WriteString
;;		_sprintf
;; This function is called by:
;;		Startup code after reset
;; This function uses a non-reentrant model
;;
psect	maintext,global,class=CODE,delta=2,split=1
	file	"C:\Users\332414\Documents\Fuzzy-IA2\Cdigo em C no MPLAB\main.c"
	line	153
global __pmaintext
__pmaintext:	;psect for function _main
psect	maintext
	file	"C:\Users\332414\Documents\Fuzzy-IA2\Cdigo em C no MPLAB\main.c"
	line	153
	global	__size_of_main
	__size_of_main	equ	__end_of_main-_main
	
_main:	
;incstack = 0
	opt	stack 1
; Regs used in _main: [wreg-fsr0h+status,2+status,0+btemp+1+pclath+cstack]
	line	155
	
l2759:	
;main.c: 155: TRISA = 0b00000001;
	movlw	(01h)
	bsf	status, 5	;RP0=1, select bank1
	bcf	status, 6	;RP1=0, select bank1
	movwf	(133)^080h	;volatile
	line	156
;main.c: 156: PORTA = 0b00000001;
	movlw	(01h)
	bcf	status, 5	;RP0=0, select bank0
	bcf	status, 6	;RP1=0, select bank0
	movwf	(5)	;volatile
	line	157
	
l2761:	
;main.c: 157: TRISB = 0b00000000;
	bsf	status, 5	;RP0=1, select bank1
	bcf	status, 6	;RP1=0, select bank1
	clrf	(134)^080h	;volatile
	line	158
	
l2763:	
;main.c: 158: PORTB = 0b00000000;
	bcf	status, 5	;RP0=0, select bank0
	bcf	status, 6	;RP1=0, select bank0
	clrf	(6)	;volatile
	line	159
;main.c: 159: TRISC = 0b10000001;
	movlw	(081h)
	bsf	status, 5	;RP0=1, select bank1
	bcf	status, 6	;RP1=0, select bank1
	movwf	(135)^080h	;volatile
	line	160
;main.c: 160: PORTC = 0b11000000;
	movlw	(0C0h)
	bcf	status, 5	;RP0=0, select bank0
	bcf	status, 6	;RP1=0, select bank0
	movwf	(7)	;volatile
	line	161
	
l2765:	
;main.c: 161: TRISD = 0b00000000;
	bsf	status, 5	;RP0=1, select bank1
	bcf	status, 6	;RP1=0, select bank1
	clrf	(136)^080h	;volatile
	line	162
	
l2767:	
;main.c: 162: PORTD = 0b00000000;
	bcf	status, 5	;RP0=0, select bank0
	bcf	status, 6	;RP1=0, select bank0
	clrf	(8)	;volatile
	line	163
	
l2769:	
;main.c: 163: TRISE = 0b00000000;
	bsf	status, 5	;RP0=1, select bank1
	bcf	status, 6	;RP1=0, select bank1
	clrf	(137)^080h	;volatile
	line	164
	
l2771:	
;main.c: 164: PORTE = 0b00000000;
	bcf	status, 5	;RP0=0, select bank0
	bcf	status, 6	;RP1=0, select bank0
	clrf	(9)	;volatile
	line	167
;main.c: 167: T1CON = 0x03;
	movlw	(03h)
	movwf	(16)	;volatile
	line	168
	
l2773:	
;main.c: 168: TMR1L = 0x00;
	clrf	(14)	;volatile
	line	169
	
l2775:	
;main.c: 169: TMR1H = 0x00;
	clrf	(15)	;volatile
	line	172
	
l2777:	
;main.c: 172: USART_Init(115200);
	movlw	0
	bsf	status, 5	;RP0=1, select bank1
	bcf	status, 6	;RP1=0, select bank1
	movwf	(USART_Init@BaudRate+3)^080h
	movlw	01h
	movwf	(USART_Init@BaudRate+2)^080h
	movlw	0C2h
	movwf	(USART_Init@BaudRate+1)^080h
	movlw	0
	movwf	(USART_Init@BaudRate)^080h

	fcall	_USART_Init
	line	173
;main.c: 173: TIMER0_Init();
	fcall	_TIMER0_Init
	line	174
;main.c: 174: ADC_Init();
	fcall	_ADC_Init
	line	175
	
l2779:	
;main.c: 175: PWM_Init();
	fcall	_PWM_Init
	line	176
	
l2781:	
;main.c: 176: LCD_Init();
	fcall	_LCD_Init
	line	179
	
l2783:	
;main.c: 179: INTCONbits.PEIE = 1;
	bsf	(11),6	;volatile
	line	180
	
l2785:	
;main.c: 180: INTCONbits.GIE = 1;
	bsf	(11),7	;volatile
	line	183
	
l2787:	
;main.c: 183: USART_WriteString("Inicializando o PIC16F877A\n\r");
	movlw	low((STR_6)-__stringbase)
	bsf	status, 5	;RP0=1, select bank1
	bcf	status, 6	;RP1=0, select bank1
	movwf	(USART_WriteString@str)^080h
	movlw	80h
	movwf	(USART_WriteString@str+1)^080h
	fcall	_USART_WriteString
	line	184
	
l2789:	
;main.c: 184: USART_WriteString("USART: 115.200bps\n\r");
	movlw	low((STR_7)-__stringbase)
	bsf	status, 5	;RP0=1, select bank1
	bcf	status, 6	;RP1=0, select bank1
	movwf	(USART_WriteString@str)^080h
	movlw	80h
	movwf	(USART_WriteString@str+1)^080h
	fcall	_USART_WriteString
	line	187
	
l2791:	
;main.c: 187: LCD_Init();
	fcall	_LCD_Init
	line	188
	
l2793:	
;main.c: 188: LCD_Cursor(0,0);
	bsf	status, 5	;RP0=1, select bank1
	bcf	status, 6	;RP1=0, select bank1
	clrf	(LCD_Cursor@Col)^080h
	movlw	(0)
	fcall	_LCD_Cursor
	line	189
	
l2795:	
;main.c: 189: LCD_WriteString("Inicializando...");
	movlw	low((STR_8)-__stringbase)
	bsf	status, 5	;RP0=1, select bank1
	bcf	status, 6	;RP1=0, select bank1
	movwf	(LCD_WriteString@Str)^080h
	movlw	80h
	movwf	(LCD_WriteString@Str+1)^080h
	fcall	_LCD_WriteString
	line	192
	
l2797:	
;main.c: 192: PWM_DutyCycle1(0);
	movlw	low(0)
	bsf	status, 5	;RP0=1, select bank1
	bcf	status, 6	;RP1=0, select bank1
	movwf	(PWM_DutyCycle1@valor)^080h
	movlw	high(0)
	movwf	((PWM_DutyCycle1@valor)^080h)+1
	fcall	_PWM_DutyCycle1
	line	193
	
l2799:	
;main.c: 193: PWM_DutyCycle2(0);
	movlw	low(0)
	bsf	status, 5	;RP0=1, select bank1
	bcf	status, 6	;RP1=0, select bank1
	movwf	(PWM_DutyCycle2@valor)^080h
	movlw	high(0)
	movwf	((PWM_DutyCycle2@valor)^080h)+1
	fcall	_PWM_DutyCycle2
	line	196
	
l2801:	
;main.c: 196: TIMER0_Set(238);
	movlw	(0EEh)
	fcall	_TIMER0_Set
	line	199
	
l2803:	
;main.c: 199: _delay((unsigned long)((1000)*(18432000/4000.0)));
	opt asmopt_off
movlw  24
	bsf	status, 5	;RP0=1, select bank1
	bcf	status, 6	;RP1=0, select bank1
movwf	((??_main+0)^080h+0+2),f
movlw	97
movwf	((??_main+0)^080h+0+1),f
	movlw	110
movwf	((??_main+0)^080h+0),f
u3267:
	decfsz	((??_main+0)^080h+0),f
	goto	u3267
	decfsz	((??_main+0)^080h+0+1),f
	goto	u3267
	decfsz	((??_main+0)^080h+0+2),f
	goto	u3267
	nop
opt asmopt_on

	line	202
;main.c: 202: while(1)
	
l108:	
	line	205
;main.c: 203: {
;main.c: 205: sprintf(display,"%04d", rpm);
	movlw	((STR_9)-__stringbase)&0ffh
	bsf	status, 5	;RP0=1, select bank1
	bcf	status, 6	;RP1=0, select bank1
	movwf	(??_main+0)^080h+0
	movf	(??_main+0)^080h+0,w
	movwf	(sprintf@f)^080h
	movf	(_rpm+1)^080h,w
	clrf	1+(?_sprintf)^080h+01h
	addwf	1+(?_sprintf)^080h+01h
	movf	(_rpm)^080h,w
	clrf	0+(?_sprintf)^080h+01h
	addwf	0+(?_sprintf)^080h+01h

	movlw	(_display)&0ffh
	fcall	_sprintf
	line	208
;main.c: 208: USART_WriteString(display);
	movlw	(_display&0ffh)
	bsf	status, 5	;RP0=1, select bank1
	bcf	status, 6	;RP1=0, select bank1
	movwf	(USART_WriteString@str)^080h
	movlw	(0x0)
	movwf	(USART_WriteString@str+1)^080h
	fcall	_USART_WriteString
	line	209
;main.c: 209: USART_WriteString("\n\r");
	movlw	low((STR_10)-__stringbase)
	bsf	status, 5	;RP0=1, select bank1
	bcf	status, 6	;RP1=0, select bank1
	movwf	(USART_WriteString@str)^080h
	movlw	80h
	movwf	(USART_WriteString@str+1)^080h
	fcall	_USART_WriteString
	line	212
	
l2805:	
;main.c: 212: LCD_Clear();
	fcall	_LCD_Clear
	line	213
	
l2807:	
;main.c: 213: LCD_Cursor(0,0);
	bsf	status, 5	;RP0=1, select bank1
	bcf	status, 6	;RP1=0, select bank1
	clrf	(LCD_Cursor@Col)^080h
	movlw	(0)
	fcall	_LCD_Cursor
	line	214
;main.c: 214: LCD_WriteString("RPM: ");
	movlw	low((STR_11)-__stringbase)
	bsf	status, 5	;RP0=1, select bank1
	bcf	status, 6	;RP1=0, select bank1
	movwf	(LCD_WriteString@Str)^080h
	movlw	80h
	movwf	(LCD_WriteString@Str+1)^080h
	fcall	_LCD_WriteString
	line	215
	
l2809:	
;main.c: 215: LCD_Cursor(0,6);
	movlw	(06h)
	bsf	status, 5	;RP0=1, select bank1
	bcf	status, 6	;RP1=0, select bank1
	movwf	(??_main+0)^080h+0
	movf	(??_main+0)^080h+0,w
	movwf	(LCD_Cursor@Col)^080h
	movlw	(0)
	fcall	_LCD_Cursor
	line	216
	
l2811:	
;main.c: 216: LCD_WriteString(display);
	movlw	(_display&0ffh)
	bsf	status, 5	;RP0=1, select bank1
	bcf	status, 6	;RP1=0, select bank1
	movwf	(LCD_WriteString@Str)^080h
	movlw	(0x0)
	movwf	(LCD_WriteString@Str+1)^080h
	fcall	_LCD_WriteString
	line	218
	
l2813:	
;main.c: 218: _delay((unsigned long)((200)*(18432000/4000.0)));
	opt asmopt_off
movlw  5
	bsf	status, 5	;RP0=1, select bank1
	bcf	status, 6	;RP1=0, select bank1
movwf	((??_main+0)^080h+0+2),f
movlw	173
movwf	((??_main+0)^080h+0+1),f
	movlw	224
movwf	((??_main+0)^080h+0),f
u3277:
	decfsz	((??_main+0)^080h+0),f
	goto	u3277
	decfsz	((??_main+0)^080h+0+1),f
	goto	u3277
	decfsz	((??_main+0)^080h+0+2),f
	goto	u3277
opt asmopt_on

	goto	l108
	line	219
	
l109:	
	line	202
	goto	l108
	
l110:	
	line	220
	
l111:	
	global	start
	ljmp	start
	opt stack 0
GLOBAL	__end_of_main
	__end_of_main:
	signat	_main,88
	global	_sprintf

;; *************** function _sprintf *****************
;; Defined at:
;;		line 13 in file "C:\Program Files (x86)\Microchip\xc8\v1.33\sources\common\sprintf.c"
;; Parameters:    Size  Location     Type
;;  wh              1    wreg     PTR unsigned char 
;;		 -> display(10), 
;;  f               1   32[BANK1 ] PTR const unsigned char 
;;		 -> STR_9(5), 
;; Auto vars:     Size  Location     Type
;;  wh              1   37[BANK1 ] PTR unsigned char 
;;		 -> display(10), 
;;  pb              2   39[BANK1 ] struct __prbuf
;;  ap              1   38[BANK1 ] PTR void [1]
;;		 -> ?_sprintf(2), ?_printf(2), 
;; Return value:  Size  Location     Type
;;                  2   32[BANK1 ] int 
;; Registers used:
;;		wreg, fsr0l, fsr0h, status,2, status,0, btemp+1, pclath, cstack
;; Tracked objects:
;;		On entry : 0/0
;;		On exit  : 0/0
;;		Unchanged: 0/0
;; Data sizes:     COMMON   BANK0   BANK1   BANK3   BANK2
;;      Params:         0       0       3       0       0
;;      Locals:         0       0       4       0       0
;;      Temps:          0       0       2       0       0
;;      Totals:         0       0       9       0       0
;;Total ram usage:        9 bytes
;; Hardware stack levels used:    1
;; Hardware stack levels required when called:    6
;; This function calls:
;;		__doprnt
;; This function is called by:
;;		_main
;; This function uses a non-reentrant model
;;
psect	text1,local,class=CODE,delta=2,merge=1
	file	"C:\Program Files (x86)\Microchip\xc8\v1.33\sources\common\sprintf.c"
	line	13
global __ptext1
__ptext1:	;psect for function _sprintf
psect	text1
	file	"C:\Program Files (x86)\Microchip\xc8\v1.33\sources\common\sprintf.c"
	line	13
	global	__size_of_sprintf
	__size_of_sprintf	equ	__end_of_sprintf-_sprintf
	
_sprintf:	
;incstack = 0
	opt	stack 1
; Regs used in _sprintf: [wreg-fsr0h+status,2+status,0+btemp+1+pclath+cstack]
;sprintf@wh stored from wreg
	bsf	status, 5	;RP0=1, select bank1
	bcf	status, 6	;RP1=0, select bank1
	movwf	(sprintf@wh)^080h
	line	31
	
l2555:	
	movf	(sprintf@wh)^080h,w
	movwf	(??_sprintf+0)^080h+0
	movf	(??_sprintf+0)^080h+0,w
	movwf	(sprintf@pb)^080h
	line	32
	
l2557:	
	clrf	(0+sprintf@pb+01h)^080h
	line	33
	
l2559:	
	movlw	(?_sprintf+01h)&0ffh
	movwf	(??_sprintf+0)^080h+0
	movf	(??_sprintf+0)^080h+0,w
	movwf	(sprintf@ap)^080h
	line	34
	
l2561:	
	movf	(sprintf@f)^080h,w
	movwf	(??_sprintf+0)^080h+0
	movf	(??_sprintf+0)^080h+0,w
	movwf	(__doprnt@f)^080h
	movlw	(sprintf@ap)&0ffh
	movwf	(??_sprintf+1)^080h+0
	movf	(??_sprintf+1)^080h+0,w
	movwf	(__doprnt@ap)^080h
	movlw	(sprintf@pb)&0ffh
	fcall	__doprnt
	line	35
	
l2563:	
	bsf	status, 5	;RP0=1, select bank1
	bcf	status, 6	;RP1=0, select bank1
	movf	(sprintf@pb)^080h,w
	movwf	fsr0
	bcf	status, 7	;select IRP bank0
	clrf	indf
	goto	l889
	line	36
	
l2565:	
	line	38
;	Return value of _sprintf is never used
	
l889:	
	return
	opt stack 0
GLOBAL	__end_of_sprintf
	__end_of_sprintf:
	signat	_sprintf,4698
	global	__doprnt

;; *************** function __doprnt *****************
;; Defined at:
;;		line 458 in file "C:\Program Files (x86)\Microchip\xc8\v1.33\sources\common\doprnt.c"
;; Parameters:    Size  Location     Type
;;  pb              1    wreg     PTR struct __prbuf
;;		 -> sprintf@pb(2), printf@pb(2), 
;;  f               1   17[BANK1 ] PTR const unsigned char 
;;		 -> STR_9(5), STR_5(2), STR_4(2), STR_3(2), 
;;		 -> STR_2(2), STR_1(2), 
;;  ap              1   18[BANK1 ] PTR PTR void 
;;		 -> sprintf@ap(1), printf@ap(1), 
;; Auto vars:     Size  Location     Type
;;  pb              1   31[BANK1 ] PTR struct __prbuf
;;		 -> sprintf@pb(2), printf@pb(2), 
;;  _val            4   23[BANK1 ] struct .
;;  width           2   28[BANK1 ] int 
;;  c               1   30[BANK1 ] char 
;;  flag            1   27[BANK1 ] unsigned char 
;;  prec            1   22[BANK1 ] char 
;; Return value:  Size  Location     Type
;;                  2   17[BANK1 ] int 
;; Registers used:
;;		wreg, fsr0l, fsr0h, status,2, status,0, btemp+1, pclath, cstack
;; Tracked objects:
;;		On entry : 0/0
;;		On exit  : 0/0
;;		Unchanged: 0/0
;; Data sizes:     COMMON   BANK0   BANK1   BANK3   BANK2
;;      Params:         0       0       2       0       0
;;      Locals:         0       0      10       0       0
;;      Temps:          0       0       3       0       0
;;      Totals:         0       0      15       0       0
;;Total ram usage:       15 bytes
;; Hardware stack levels used:    1
;; Hardware stack levels required when called:    5
;; This function calls:
;;		Absolute function
;;		___lwdiv
;;		___lwmod
;;		___wmul
;;		_isdigit
;;		_putch
;; This function is called by:
;;		_sprintf
;; This function uses a non-reentrant model
;;
psect	text2,local,class=CODE,delta=2,merge=1
	file	"C:\Program Files (x86)\Microchip\xc8\v1.33\sources\common\doprnt.c"
	line	458
global __ptext2
__ptext2:	;psect for function __doprnt
psect	text2
	file	"C:\Program Files (x86)\Microchip\xc8\v1.33\sources\common\doprnt.c"
	line	458
	global	__size_of__doprnt
	__size_of__doprnt	equ	__end_of__doprnt-__doprnt
	
__doprnt:	
;incstack = 0
	opt	stack 1
; Regs used in __doprnt: [wreg-fsr0h+status,2+status,0+btemp+1+pclath+cstack]
;__doprnt@pb stored from wreg
	bsf	status, 5	;RP0=1, select bank1
	bcf	status, 6	;RP1=0, select bank1
	movwf	(__doprnt@pb)^080h
	line	545
	
l2077:	
;doprnt.c: 499: signed char c;
;doprnt.c: 501: int width;
;doprnt.c: 506: signed char prec;
;doprnt.c: 508: unsigned char flag;
;doprnt.c: 527: union {
;doprnt.c: 528: unsigned int _val;
;doprnt.c: 529: struct {
;doprnt.c: 530: const char * _cp;
;doprnt.c: 531: unsigned _len;
;doprnt.c: 532: } _str;
;doprnt.c: 533: } _val;
;doprnt.c: 545: while(c = *f++) {
	goto	l2203
	
l379:	
	line	547
	
l2079:	
;doprnt.c: 547: if(c != '%')
	movf	(__doprnt@c)^080h,w
	xorlw	025h
	skipnz
	goto	u2011
	goto	u2010
u2011:
	goto	l2089
u2010:
	line	550
	
l2081:	
;doprnt.c: 549: {
;doprnt.c: 550: if(pb->func) (pb->func(c)); else ((*pb->ptr++ = c));
	incf	(__doprnt@pb)^080h,w
	movwf	fsr0
	bcf	status, 7	;select IRP bank0
	movf	indf
	skipnz
	goto	u2021
	goto	u2020
u2021:
	goto	l2085
u2020:
	
l2083:	
	movf	(__doprnt@c)^080h,w
	movwf	(??__doprnt+0)^080h+0
	movf	(??__doprnt+0)^080h+0,w
	movwf	(putch@c)^080h
	incf	(__doprnt@pb)^080h,w
	movwf	fsr0
	movf	indf,w
	fcall	fptable
	goto	l2203
	
l381:	
	
l2085:	
	bsf	status, 5	;RP0=1, select bank1
	bcf	status, 6	;RP1=0, select bank1
	movf	(__doprnt@c)^080h,w
	movwf	(??__doprnt+0)^080h+0
	movf	(__doprnt@pb)^080h,w
	movwf	fsr0
	bcf	status, 7	;select IRP bank0
	movf	indf,w
	movwf	fsr0
	movf	(??__doprnt+0)^080h+0,w
	movwf	indf
	
l2087:	
	movlw	(01h)
	movwf	(??__doprnt+0)^080h+0
	movf	(__doprnt@pb)^080h,w
	movwf	fsr0
	movf	(??__doprnt+0)^080h+0,w
	addwf	indf,f
	goto	l2203
	
l382:	
	line	551
;doprnt.c: 551: continue;
	goto	l2203
	line	552
	
l380:	
	line	555
	
l2089:	
;doprnt.c: 552: }
;doprnt.c: 555: width = 0;
	clrf	(__doprnt@width)^080h
	clrf	(__doprnt@width+1)^080h
	line	557
;doprnt.c: 557: flag = 0;
	clrf	(__doprnt@flag)^080h
	goto	l2095
	line	559
;doprnt.c: 559: for(;;) {
	
l383:	
	line	560
;doprnt.c: 560: switch(*f) {
	goto	l2095
	line	588
;doprnt.c: 588: case '0':
	
l385:	
	line	589
;doprnt.c: 589: flag |= 0x04;
	bsf	(__doprnt@flag)^080h+(2/8),(2)&7
	line	590
	
l2091:	
;doprnt.c: 590: f++;
	movlw	(01h)
	movwf	(??__doprnt+0)^080h+0
	movf	(??__doprnt+0)^080h+0,w
	addwf	(__doprnt@f)^080h,f
	line	591
;doprnt.c: 591: continue;
	goto	l2095
	line	593
	
l2093:	
;doprnt.c: 593: }
	goto	l2097
	line	560
	
l384:	
	
l2095:	
	movf	(__doprnt@f)^080h,w
	movwf	fsr0
	fcall	stringdir
	; Switch size 1, requested type "space"
; Number of cases is 1, Range of values is 48 to 48
; switch strategies available:
; Name         Instructions Cycles
; simple_byte            4     3 (average)
; direct_byte           14    11 (fixed)
; jumptable            263     9 (fixed)
;	Chosen strategy is simple_byte

	opt asmopt_off
	xorlw	48^0	; case 48
	skipnz
	goto	l385
	goto	l2097
	opt asmopt_on

	line	593
	
l387:	
	line	594
;doprnt.c: 594: break;
	goto	l2097
	line	595
	
l386:	
;doprnt.c: 595: }
	goto	l2095
	
l388:	
	line	606
	
l2097:	
;doprnt.c: 606: if(isdigit((unsigned)*f)) {
	movf	(__doprnt@f)^080h,w
	movwf	fsr0
	fcall	stringdir
	fcall	_isdigit
	btfss	status,0
	goto	u2031
	goto	u2030
u2031:
	goto	l2111
u2030:
	line	607
	
l2099:	
;doprnt.c: 607: width = 0;
	bsf	status, 5	;RP0=1, select bank1
	bcf	status, 6	;RP1=0, select bank1
	clrf	(__doprnt@width)^080h
	clrf	(__doprnt@width+1)^080h
	goto	l2101
	line	608
;doprnt.c: 608: do {
	
l390:	
	line	609
	
l2101:	
;doprnt.c: 609: width *= 10;
	movlw	low(0Ah)
	bsf	status, 5	;RP0=1, select bank1
	bcf	status, 6	;RP1=0, select bank1
	movwf	(___wmul@multiplier)^080h
	movlw	high(0Ah)
	movwf	((___wmul@multiplier)^080h)+1
	movf	(__doprnt@width+1)^080h,w
	clrf	(___wmul@multiplicand+1)^080h
	addwf	(___wmul@multiplicand+1)^080h
	movf	(__doprnt@width)^080h,w
	clrf	(___wmul@multiplicand)^080h
	addwf	(___wmul@multiplicand)^080h

	fcall	___wmul
	bsf	status, 5	;RP0=1, select bank1
	bcf	status, 6	;RP1=0, select bank1
	movf	(1+(?___wmul))^080h,w
	clrf	(__doprnt@width+1)^080h
	addwf	(__doprnt@width+1)^080h
	movf	(0+(?___wmul))^080h,w
	clrf	(__doprnt@width)^080h
	addwf	(__doprnt@width)^080h

	line	610
	
l2103:	
;doprnt.c: 610: width += *f++ - '0';
	movf	(__doprnt@f)^080h,w
	movwf	fsr0
	fcall	stringdir
	addlw	low(-48)
	movwf	(??__doprnt+0)^080h+0
	movlw	high(-48)
	skipnc
	movlw	(high(-48)+1)&0ffh
	movwf	((??__doprnt+0)^080h+0)+1
	movf	0+(??__doprnt+0)^080h+0,w
	addwf	(__doprnt@width)^080h,f
	skipnc
	incf	(__doprnt@width+1)^080h,f
	movf	1+(??__doprnt+0)^080h+0,w
	addwf	(__doprnt@width+1)^080h,f
	
l2105:	
	movlw	(01h)
	movwf	(??__doprnt+0)^080h+0
	movf	(??__doprnt+0)^080h+0,w
	addwf	(__doprnt@f)^080h,f
	line	611
	
l2107:	
;doprnt.c: 611: } while(isdigit((unsigned)*f));
	movf	(__doprnt@f)^080h,w
	movwf	fsr0
	fcall	stringdir
	fcall	_isdigit
	btfsc	status,0
	goto	u2041
	goto	u2040
u2041:
	goto	l2101
u2040:
	goto	l2111
	
l391:	
	goto	l2111
	line	617
	
l389:	
	line	644
;doprnt.c: 617: }
;doprnt.c: 644: switch(c = *f++) {
	goto	l2111
	line	646
;doprnt.c: 646: case 0:
	
l393:	
	line	647
;doprnt.c: 647: goto alldone;
	goto	l2205
	line	706
;doprnt.c: 706: case 'd':
	
l395:	
	goto	l2113
	line	707
	
l396:	
	line	708
;doprnt.c: 707: case 'i':
;doprnt.c: 708: break;
	goto	l2113
	line	811
;doprnt.c: 811: default:
	
l398:	
	line	822
;doprnt.c: 822: continue;
	goto	l2203
	line	831
	
l2109:	
;doprnt.c: 831: }
	goto	l2113
	line	644
	
l392:	
	
l2111:	
	movlw	01h
	bsf	status, 5	;RP0=1, select bank1
	bcf	status, 6	;RP1=0, select bank1
	addwf	(__doprnt@f)^080h,f
	movlw	-01h
	addwf	(__doprnt@f)^080h,w
	movwf	fsr0
	fcall	stringdir
	movwf	(__doprnt@c)^080h
	; Switch size 1, requested type "space"
; Number of cases is 3, Range of values is 0 to 105
; switch strategies available:
; Name         Instructions Cycles
; simple_byte           10     6 (average)
; jumptable            260     6 (fixed)
;	Chosen strategy is simple_byte

	opt asmopt_off
	xorlw	0^0	; case 0
	skipnz
	goto	l2205
	xorlw	100^0	; case 100
	skipnz
	goto	l2113
	xorlw	105^100	; case 105
	skipnz
	goto	l2113
	goto	l2203
	opt asmopt_on

	line	831
	
l397:	
	line	1268
	
l2113:	
;doprnt.c: 1262: {
;doprnt.c: 1268: _val._val = (int)(*(int *)__va_arg((*(int **)ap), (int)0));
	bsf	status, 5	;RP0=1, select bank1
	bcf	status, 6	;RP1=0, select bank1
	movf	(__doprnt@ap)^080h,w
	movwf	fsr0
	bcf	status, 7	;select IRP bank0
	movf	indf,w
	movwf	((??__doprnt+0)^080h+0)
	movlw	02h
	addwf	indf,f
	movf	((??__doprnt+0)^080h+0),w
	movwf	fsr0
	movf	indf,w
	movwf	(__doprnt@_val)^080h
	incf	fsr0,f
	movf	indf,w
	movwf	(__doprnt@_val+1)^080h
	line	1270
	
l2115:	
;doprnt.c: 1270: if((int)_val._val < 0) {
	btfss	(__doprnt@_val+1)^080h,7
	goto	u2051
	goto	u2050
u2051:
	goto	l2121
u2050:
	line	1271
	
l2117:	
;doprnt.c: 1271: flag |= 0x03;
	movlw	(03h)
	movwf	(??__doprnt+0)^080h+0
	movf	(??__doprnt+0)^080h+0,w
	iorwf	(__doprnt@flag)^080h,f
	line	1272
	
l2119:	
;doprnt.c: 1272: _val._val = -_val._val;
	comf	(__doprnt@_val)^080h,f
	comf	(__doprnt@_val+1)^080h,f
	incf	(__doprnt@_val)^080h,f
	skipnz
	incf	(__doprnt@_val+1)^080h,f
	goto	l2121
	line	1273
	
l399:	
	line	1314
	
l2121:	
;doprnt.c: 1273: }
;doprnt.c: 1275: }
;doprnt.c: 1314: for(c = 1 ; c != sizeof dpowers/sizeof dpowers[0] ; c++)
	clrf	(__doprnt@c)^080h
	incf	(__doprnt@c)^080h,f
	movf	(__doprnt@c)^080h,w
	xorlw	05h
	skipz
	goto	u2061
	goto	u2060
u2061:
	goto	l2125
u2060:
	goto	l2133
	
l2123:	
	goto	l2133
	line	1315
	
l400:	
	
l2125:	
;doprnt.c: 1315: if(_val._val < dpowers[c])
	movf	(__doprnt@c)^080h,w
	movwf	(??__doprnt+0)^080h+0
	addwf	(??__doprnt+0)^080h+0,w
	addlw	low((_dpowers)-__stringbase)
	movwf	fsr0
	fcall	stringdir
	movwf	(??__doprnt+1)^080h+0
	fcall	stringdir
	movwf	(??__doprnt+1)^080h+0+1
	movf	1+(??__doprnt+1)^080h+0,w
	subwf	(__doprnt@_val+1)^080h,w
	skipz
	goto	u2075
	movf	0+(??__doprnt+1)^080h+0,w
	subwf	(__doprnt@_val)^080h,w
u2075:
	skipnc
	goto	u2071
	goto	u2070
u2071:
	goto	l2129
u2070:
	goto	l2133
	line	1316
	
l2127:	
;doprnt.c: 1316: break;
	goto	l2133
	
l402:	
	line	1314
	
l2129:	
	movlw	(01h)
	movwf	(??__doprnt+0)^080h+0
	movf	(??__doprnt+0)^080h+0,w
	addwf	(__doprnt@c)^080h,f
	
l2131:	
	movf	(__doprnt@c)^080h,w
	xorlw	05h
	skipz
	goto	u2081
	goto	u2080
u2081:
	goto	l2125
u2080:
	goto	l2133
	
l401:	
	line	1354
	
l2133:	
;doprnt.c: 1354: if(width && flag & 0x03)
	movf	(__doprnt@width+1)^080h,w
	iorwf	(__doprnt@width)^080h,w
	skipnz
	goto	u2091
	goto	u2090
u2091:
	goto	l403
u2090:
	
l2135:	
	movf	(__doprnt@flag)^080h,w
	andlw	03h
	btfsc	status,2
	goto	u2101
	goto	u2100
u2101:
	goto	l403
u2100:
	line	1355
	
l2137:	
;doprnt.c: 1355: width--;
	movlw	low(-1)
	addwf	(__doprnt@width)^080h,f
	skipnc
	incf	(__doprnt@width+1)^080h,f
	movlw	high(-1)
	addwf	(__doprnt@width+1)^080h,f
	
l403:	
	line	1390
;doprnt.c: 1390: if(width > c)
	movf	(__doprnt@c)^080h,w
	movwf	(??__doprnt+0)^080h+0
	clrf	(??__doprnt+0)^080h+0+1
	btfsc	(??__doprnt+0)^080h+0,7
	decf	(??__doprnt+0)^080h+0+1,f
	movf	1+(??__doprnt+0)^080h+0,w
	xorlw	80h
	movwf	(??__doprnt+2)^080h+0
	movf	(__doprnt@width+1)^080h,w
	xorlw	80h
	subwf	(??__doprnt+2)^080h+0,w
	skipz
	goto	u2115
	movf	(__doprnt@width)^080h,w
	subwf	0+(??__doprnt+0)^080h+0,w
u2115:

	skipnc
	goto	u2111
	goto	u2110
u2111:
	goto	l2141
u2110:
	line	1391
	
l2139:	
;doprnt.c: 1391: width -= c;
	bsf	status, 5	;RP0=1, select bank1
	bcf	status, 6	;RP1=0, select bank1
	movf	(__doprnt@c)^080h,w
	movwf	(??__doprnt+0)^080h+0
	clrf	(??__doprnt+0)^080h+0+1
	btfsc	(??__doprnt+0)^080h+0,7
	decf	(??__doprnt+0)^080h+0+1,f
	movf	0+(??__doprnt+0)^080h+0,w
	subwf	(__doprnt@width)^080h,f
	movf	1+(??__doprnt+0)^080h+0,w
	skipc
	decf	(__doprnt@width+1)^080h,f
	subwf	(__doprnt@width+1)^080h,f
	goto	l2143
	line	1392
	
l404:	
	line	1393
	
l2141:	
;doprnt.c: 1392: else
;doprnt.c: 1393: width = 0;
	bsf	status, 5	;RP0=1, select bank1
	bcf	status, 6	;RP1=0, select bank1
	clrf	(__doprnt@width)^080h
	clrf	(__doprnt@width+1)^080h
	goto	l2143
	
l405:	
	line	1396
	
l2143:	
;doprnt.c: 1396: if(flag & 0x04) {
	btfss	(__doprnt@flag)^080h,(2)&7
	goto	u2121
	goto	u2120
u2121:
	goto	l2167
u2120:
	line	1401
	
l2145:	
;doprnt.c: 1401: if(flag & 0x03)
	movf	(__doprnt@flag)^080h,w
	andlw	03h
	btfsc	status,2
	goto	u2131
	goto	u2130
u2131:
	goto	l2155
u2130:
	line	1402
	
l2147:	
;doprnt.c: 1402: if(pb->func) (pb->func('-')); else ((*pb->ptr++ = '-'));
	incf	(__doprnt@pb)^080h,w
	movwf	fsr0
	bcf	status, 7	;select IRP bank0
	movf	indf
	skipnz
	goto	u2141
	goto	u2140
u2141:
	goto	l2151
u2140:
	
l2149:	
	movlw	(02Dh)
	movwf	(??__doprnt+0)^080h+0
	movf	(??__doprnt+0)^080h+0,w
	movwf	(putch@c)^080h
	incf	(__doprnt@pb)^080h,w
	movwf	fsr0
	movf	indf,w
	fcall	fptable
	goto	l2155
	
l408:	
	
l2151:	
	movlw	(02Dh)
	bsf	status, 5	;RP0=1, select bank1
	bcf	status, 6	;RP1=0, select bank1
	movwf	(??__doprnt+0)^080h+0
	movf	(__doprnt@pb)^080h,w
	movwf	fsr0
	bcf	status, 7	;select IRP bank0
	movf	indf,w
	movwf	fsr0
	movf	(??__doprnt+0)^080h+0,w
	movwf	indf
	
l2153:	
	movlw	(01h)
	movwf	(??__doprnt+0)^080h+0
	movf	(__doprnt@pb)^080h,w
	movwf	fsr0
	movf	(??__doprnt+0)^080h+0,w
	addwf	indf,f
	goto	l2155
	
l409:	
	goto	l2155
	
l407:	
	line	1424
	
l2155:	
;doprnt.c: 1424: if(width)
	bsf	status, 5	;RP0=1, select bank1
	bcf	status, 6	;RP1=0, select bank1
	movf	(__doprnt@width+1)^080h,w
	iorwf	(__doprnt@width)^080h,w
	skipnz
	goto	u2151
	goto	u2150
u2151:
	goto	l2189
u2150:
	goto	l2157
	line	1425
;doprnt.c: 1425: do
	
l411:	
	line	1426
	
l2157:	
;doprnt.c: 1426: if(pb->func) (pb->func('0')); else ((*pb->ptr++ = '0'));
	incf	(__doprnt@pb)^080h,w
	movwf	fsr0
	bcf	status, 7	;select IRP bank0
	movf	indf
	skipnz
	goto	u2161
	goto	u2160
u2161:
	goto	l2161
u2160:
	
l2159:	
	movlw	(030h)
	movwf	(??__doprnt+0)^080h+0
	movf	(??__doprnt+0)^080h+0,w
	movwf	(putch@c)^080h
	incf	(__doprnt@pb)^080h,w
	movwf	fsr0
	movf	indf,w
	fcall	fptable
	goto	l2165
	
l412:	
	
l2161:	
	movlw	(030h)
	bsf	status, 5	;RP0=1, select bank1
	bcf	status, 6	;RP1=0, select bank1
	movwf	(??__doprnt+0)^080h+0
	movf	(__doprnt@pb)^080h,w
	movwf	fsr0
	bcf	status, 7	;select IRP bank0
	movf	indf,w
	movwf	fsr0
	movf	(??__doprnt+0)^080h+0,w
	movwf	indf
	
l2163:	
	movlw	(01h)
	movwf	(??__doprnt+0)^080h+0
	movf	(__doprnt@pb)^080h,w
	movwf	fsr0
	movf	(??__doprnt+0)^080h+0,w
	addwf	indf,f
	goto	l2165
	
l413:	
	line	1427
	
l2165:	
;doprnt.c: 1427: while(--width);
	movlw	low(-1)
	bsf	status, 5	;RP0=1, select bank1
	bcf	status, 6	;RP1=0, select bank1
	addwf	(__doprnt@width)^080h,f
	skipnc
	incf	(__doprnt@width+1)^080h,f
	movlw	high(-1)
	addwf	(__doprnt@width+1)^080h,f
	movf	(((__doprnt@width+1)^080h)),w
	iorwf	(((__doprnt@width)^080h)),w
	skipz
	goto	u2171
	goto	u2170
u2171:
	goto	l2157
u2170:
	goto	l2189
	
l414:	
	goto	l2189
	
l410:	
	line	1429
;doprnt.c: 1429: } else
	goto	l2189
	
l406:	
	line	1437
	
l2167:	
;doprnt.c: 1431: {
;doprnt.c: 1433: if(width
;doprnt.c: 1437: )
	movf	(__doprnt@width+1)^080h,w
	iorwf	(__doprnt@width)^080h,w
	skipnz
	goto	u2181
	goto	u2180
u2181:
	goto	l2179
u2180:
	goto	l2169
	line	1438
;doprnt.c: 1438: do
	
l417:	
	line	1439
	
l2169:	
;doprnt.c: 1439: if(pb->func) (pb->func(' ')); else ((*pb->ptr++ = ' '));
	incf	(__doprnt@pb)^080h,w
	movwf	fsr0
	bcf	status, 7	;select IRP bank0
	movf	indf
	skipnz
	goto	u2191
	goto	u2190
u2191:
	goto	l2173
u2190:
	
l2171:	
	movlw	(020h)
	movwf	(??__doprnt+0)^080h+0
	movf	(??__doprnt+0)^080h+0,w
	movwf	(putch@c)^080h
	incf	(__doprnt@pb)^080h,w
	movwf	fsr0
	movf	indf,w
	fcall	fptable
	goto	l2177
	
l418:	
	
l2173:	
	movlw	(020h)
	bsf	status, 5	;RP0=1, select bank1
	bcf	status, 6	;RP1=0, select bank1
	movwf	(??__doprnt+0)^080h+0
	movf	(__doprnt@pb)^080h,w
	movwf	fsr0
	bcf	status, 7	;select IRP bank0
	movf	indf,w
	movwf	fsr0
	movf	(??__doprnt+0)^080h+0,w
	movwf	indf
	
l2175:	
	movlw	(01h)
	movwf	(??__doprnt+0)^080h+0
	movf	(__doprnt@pb)^080h,w
	movwf	fsr0
	movf	(??__doprnt+0)^080h+0,w
	addwf	indf,f
	goto	l2177
	
l419:	
	line	1440
	
l2177:	
;doprnt.c: 1440: while(--width);
	movlw	low(-1)
	bsf	status, 5	;RP0=1, select bank1
	bcf	status, 6	;RP1=0, select bank1
	addwf	(__doprnt@width)^080h,f
	skipnc
	incf	(__doprnt@width+1)^080h,f
	movlw	high(-1)
	addwf	(__doprnt@width+1)^080h,f
	movf	(((__doprnt@width+1)^080h)),w
	iorwf	(((__doprnt@width)^080h)),w
	skipz
	goto	u2201
	goto	u2200
u2201:
	goto	l2169
u2200:
	goto	l2179
	
l420:	
	goto	l2179
	
l416:	
	line	1447
	
l2179:	
;doprnt.c: 1447: if(flag & 0x03)
	movf	(__doprnt@flag)^080h,w
	andlw	03h
	btfsc	status,2
	goto	u2211
	goto	u2210
u2211:
	goto	l2189
u2210:
	line	1448
	
l2181:	
;doprnt.c: 1448: if(pb->func) (pb->func('-')); else ((*pb->ptr++ = '-'));
	incf	(__doprnt@pb)^080h,w
	movwf	fsr0
	bcf	status, 7	;select IRP bank0
	movf	indf
	skipnz
	goto	u2221
	goto	u2220
u2221:
	goto	l2185
u2220:
	
l2183:	
	movlw	(02Dh)
	movwf	(??__doprnt+0)^080h+0
	movf	(??__doprnt+0)^080h+0,w
	movwf	(putch@c)^080h
	incf	(__doprnt@pb)^080h,w
	movwf	fsr0
	movf	indf,w
	fcall	fptable
	goto	l2189
	
l422:	
	
l2185:	
	movlw	(02Dh)
	bsf	status, 5	;RP0=1, select bank1
	bcf	status, 6	;RP1=0, select bank1
	movwf	(??__doprnt+0)^080h+0
	movf	(__doprnt@pb)^080h,w
	movwf	fsr0
	bcf	status, 7	;select IRP bank0
	movf	indf,w
	movwf	fsr0
	movf	(??__doprnt+0)^080h+0,w
	movwf	indf
	
l2187:	
	movlw	(01h)
	movwf	(??__doprnt+0)^080h+0
	movf	(__doprnt@pb)^080h,w
	movwf	fsr0
	movf	(??__doprnt+0)^080h+0,w
	addwf	indf,f
	goto	l2189
	
l423:	
	goto	l2189
	
l421:	
	goto	l2189
	line	1478
	
l415:	
	line	1481
	
l2189:	
;doprnt.c: 1478: }
;doprnt.c: 1481: prec = c;
	bsf	status, 5	;RP0=1, select bank1
	bcf	status, 6	;RP1=0, select bank1
	movf	(__doprnt@c)^080h,w
	movwf	(??__doprnt+0)^080h+0
	movf	(??__doprnt+0)^080h+0,w
	movwf	(__doprnt@prec)^080h
	line	1483
;doprnt.c: 1483: while(prec--) {
	goto	l2201
	
l425:	
	line	1498
	
l2191:	
;doprnt.c: 1487: {
;doprnt.c: 1498: c = (_val._val / dpowers[prec]) % 10 + '0';
	movlw	low(0Ah)
	movwf	(___lwmod@divisor)^080h
	movlw	high(0Ah)
	movwf	((___lwmod@divisor)^080h)+1
	movf	(__doprnt@prec)^080h,w
	movwf	(??__doprnt+0)^080h+0
	addwf	(??__doprnt+0)^080h+0,w
	addlw	low((_dpowers)-__stringbase)
	movwf	fsr0
	fcall	stringdir
	movwf	(___lwdiv@divisor)^080h
	fcall	stringdir
	movwf	(___lwdiv@divisor+1)^080h
	movf	(__doprnt@_val+1)^080h,w
	clrf	(___lwdiv@dividend+1)^080h
	addwf	(___lwdiv@dividend+1)^080h
	movf	(__doprnt@_val)^080h,w
	clrf	(___lwdiv@dividend)^080h
	addwf	(___lwdiv@dividend)^080h

	fcall	___lwdiv
	bsf	status, 5	;RP0=1, select bank1
	bcf	status, 6	;RP1=0, select bank1
	movf	(1+(?___lwdiv))^080h,w
	clrf	(___lwmod@dividend+1)^080h
	addwf	(___lwmod@dividend+1)^080h
	movf	(0+(?___lwdiv))^080h,w
	clrf	(___lwmod@dividend)^080h
	addwf	(___lwmod@dividend)^080h

	fcall	___lwmod
	bsf	status, 5	;RP0=1, select bank1
	bcf	status, 6	;RP1=0, select bank1
	movf	(0+(?___lwmod))^080h,w
	addlw	030h
	movwf	(??__doprnt+1)^080h+0
	movf	(??__doprnt+1)^080h+0,w
	movwf	(__doprnt@c)^080h
	line	1533
	
l2193:	
;doprnt.c: 1532: }
;doprnt.c: 1533: if(pb->func) (pb->func(c)); else ((*pb->ptr++ = c));
	incf	(__doprnt@pb)^080h,w
	movwf	fsr0
	bcf	status, 7	;select IRP bank0
	movf	indf
	skipnz
	goto	u2231
	goto	u2230
u2231:
	goto	l2197
u2230:
	
l2195:	
	movf	(__doprnt@c)^080h,w
	movwf	(??__doprnt+0)^080h+0
	movf	(??__doprnt+0)^080h+0,w
	movwf	(putch@c)^080h
	incf	(__doprnt@pb)^080h,w
	movwf	fsr0
	movf	indf,w
	fcall	fptable
	goto	l2201
	
l426:	
	
l2197:	
	bsf	status, 5	;RP0=1, select bank1
	bcf	status, 6	;RP1=0, select bank1
	movf	(__doprnt@c)^080h,w
	movwf	(??__doprnt+0)^080h+0
	movf	(__doprnt@pb)^080h,w
	movwf	fsr0
	bcf	status, 7	;select IRP bank0
	movf	indf,w
	movwf	fsr0
	movf	(??__doprnt+0)^080h+0,w
	movwf	indf
	
l2199:	
	movlw	(01h)
	movwf	(??__doprnt+0)^080h+0
	movf	(__doprnt@pb)^080h,w
	movwf	fsr0
	movf	(??__doprnt+0)^080h+0,w
	addwf	indf,f
	goto	l2201
	
l427:	
	goto	l2201
	line	1534
	
l424:	
	line	1483
	
l2201:	
	movlw	(-1)
	bsf	status, 5	;RP0=1, select bank1
	bcf	status, 6	;RP1=0, select bank1
	movwf	(??__doprnt+0)^080h+0
	movf	(??__doprnt+0)^080h+0,w
	addwf	(__doprnt@prec)^080h,f
	movf	((__doprnt@prec)^080h),w
	xorlw	-1
	skipz
	goto	u2241
	goto	u2240
u2241:
	goto	l2191
u2240:
	goto	l2203
	
l428:	
	goto	l2203
	line	1542
	
l378:	
	line	545
	
l2203:	
	movlw	01h
	bsf	status, 5	;RP0=1, select bank1
	bcf	status, 6	;RP1=0, select bank1
	addwf	(__doprnt@f)^080h,f
	movlw	-01h
	addwf	(__doprnt@f)^080h,w
	movwf	fsr0
	fcall	stringdir
	movwf	(??__doprnt+0)^080h+0
	movf	(??__doprnt+0)^080h+0,w
	movwf	(__doprnt@c)^080h
	movf	((__doprnt@c)^080h),f
	skipz
	goto	u2251
	goto	u2250
u2251:
	goto	l2079
u2250:
	goto	l2205
	
l429:	
	goto	l2205
	line	1544
;doprnt.c: 1534: }
;doprnt.c: 1542: }
;doprnt.c: 1544: alldone:
	
l394:	
	line	1549
	
l2205:	
;doprnt.c: 1549: return 0;
	bsf	status, 5	;RP0=1, select bank1
	bcf	status, 6	;RP1=0, select bank1
	clrf	(?__doprnt)^080h
	clrf	(?__doprnt+1)^080h
	goto	l430
	
l2207:	
	line	1550
	
l430:	
	return
	opt stack 0
GLOBAL	__end_of__doprnt
	__end_of__doprnt:
	signat	__doprnt,12410
	global	_putch

;; *************** function _putch *****************
;; Defined at:
;;		line 7 in file "C:\Program Files (x86)\Microchip\xc8\v1.33\sources\common\putch.c"
;; Parameters:    Size  Location     Type
;;  c               1    3[BANK1 ] unsigned char 
;; Auto vars:     Size  Location     Type
;;		None
;; Return value:  Size  Location     Type
;;		None               void
;; Registers used:
;;		None
;; Tracked objects:
;;		On entry : 0/0
;;		On exit  : 0/0
;;		Unchanged: 0/0
;; Data sizes:     COMMON   BANK0   BANK1   BANK3   BANK2
;;      Params:         0       0       1       0       0
;;      Locals:         0       0       0       0       0
;;      Temps:          0       0       0       0       0
;;      Totals:         0       0       1       0       0
;;Total ram usage:        1 bytes
;; Hardware stack levels used:    1
;; Hardware stack levels required when called:    4
;; This function calls:
;;		Nothing
;; This function is called by:
;;		__doprnt
;; This function uses a non-reentrant model
;;
psect	text3,local,class=CODE,delta=2,merge=1
	file	"C:\Program Files (x86)\Microchip\xc8\v1.33\sources\common\putch.c"
	line	7
global __ptext3
__ptext3:	;psect for function _putch
psect	text3
	file	"C:\Program Files (x86)\Microchip\xc8\v1.33\sources\common\putch.c"
	line	7
	global	__size_of_putch
	__size_of_putch	equ	__end_of_putch-_putch
	
_putch:	
;incstack = 0
	opt	stack 1
; Regs used in _putch: []
	line	9
	
l882:	
	return
	opt stack 0
GLOBAL	__end_of_putch
	__end_of_putch:
	signat	_putch,4216
	global	_isdigit

;; *************** function _isdigit *****************
;; Defined at:
;;		line 8 in file "C:\Program Files (x86)\Microchip\xc8\v1.33\sources\common\isdigit.c"
;; Parameters:    Size  Location     Type
;;  c               1    wreg     unsigned char 
;; Auto vars:     Size  Location     Type
;;  c               1    4[BANK1 ] unsigned char 
;; Return value:  Size  Location     Type
;;		None               void
;; Registers used:
;;		wreg, status,2, status,0
;; Tracked objects:
;;		On entry : 0/0
;;		On exit  : 0/0
;;		Unchanged: 0/0
;; Data sizes:     COMMON   BANK0   BANK1   BANK3   BANK2
;;      Params:         0       0       0       0       0
;;      Locals:         0       0       2       0       0
;;      Temps:          0       0       0       0       0
;;      Totals:         0       0       2       0       0
;;Total ram usage:        2 bytes
;; Hardware stack levels used:    1
;; Hardware stack levels required when called:    4
;; This function calls:
;;		Nothing
;; This function is called by:
;;		__doprnt
;; This function uses a non-reentrant model
;;
psect	text4,local,class=CODE,delta=2,merge=1
	file	"C:\Program Files (x86)\Microchip\xc8\v1.33\sources\common\isdigit.c"
	line	8
global __ptext4
__ptext4:	;psect for function _isdigit
psect	text4
	file	"C:\Program Files (x86)\Microchip\xc8\v1.33\sources\common\isdigit.c"
	line	8
	global	__size_of_isdigit
	__size_of_isdigit	equ	__end_of_isdigit-_isdigit
	
_isdigit:	
;incstack = 0
	opt	stack 1
; Regs used in _isdigit: [wreg+status,2+status,0]
;isdigit@c stored from wreg
	bsf	status, 5	;RP0=1, select bank1
	bcf	status, 6	;RP1=0, select bank1
	movwf	(isdigit@c)^080h
	line	14
	
l1955:	
	clrf	(_isdigit$1416)^080h
	
l1957:	
	movlw	(03Ah)
	subwf	(isdigit@c)^080h,w
	skipnc
	goto	u1701
	goto	u1700
u1701:
	goto	l1963
u1700:
	
l1959:	
	movlw	(030h)
	subwf	(isdigit@c)^080h,w
	skipc
	goto	u1711
	goto	u1710
u1711:
	goto	l1963
u1710:
	
l1961:	
	clrf	(_isdigit$1416)^080h
	incf	(_isdigit$1416)^080h,f
	goto	l1963
	
l770:	
	
l1963:	
	rrf	(_isdigit$1416)^080h,w
	
	goto	l771
	
l1965:	
	line	15
	
l771:	
	return
	opt stack 0
GLOBAL	__end_of_isdigit
	__end_of_isdigit:
	signat	_isdigit,4216
	global	___wmul

;; *************** function ___wmul *****************
;; Defined at:
;;		line 15 in file "C:\Program Files (x86)\Microchip\xc8\v1.33\sources\common\Umul16.c"
;; Parameters:    Size  Location     Type
;;  multiplier      2    3[BANK1 ] unsigned int 
;;  multiplicand    2    5[BANK1 ] unsigned int 
;; Auto vars:     Size  Location     Type
;;  product         2    7[BANK1 ] unsigned int 
;; Return value:  Size  Location     Type
;;                  2    3[BANK1 ] unsigned int 
;; Registers used:
;;		wreg, status,2, status,0
;; Tracked objects:
;;		On entry : 0/0
;;		On exit  : 0/0
;;		Unchanged: 0/0
;; Data sizes:     COMMON   BANK0   BANK1   BANK3   BANK2
;;      Params:         0       0       4       0       0
;;      Locals:         0       0       2       0       0
;;      Temps:          0       0       0       0       0
;;      Totals:         0       0       6       0       0
;;Total ram usage:        6 bytes
;; Hardware stack levels used:    1
;; Hardware stack levels required when called:    4
;; This function calls:
;;		Nothing
;; This function is called by:
;;		__doprnt
;; This function uses a non-reentrant model
;;
psect	text5,local,class=CODE,delta=2,merge=1
	file	"C:\Program Files (x86)\Microchip\xc8\v1.33\sources\common\Umul16.c"
	line	15
global __ptext5
__ptext5:	;psect for function ___wmul
psect	text5
	file	"C:\Program Files (x86)\Microchip\xc8\v1.33\sources\common\Umul16.c"
	line	15
	global	__size_of___wmul
	__size_of___wmul	equ	__end_of___wmul-___wmul
	
___wmul:	
;incstack = 0
	opt	stack 1
; Regs used in ___wmul: [wreg+status,2+status,0]
	line	43
	
l1967:	
	bsf	status, 5	;RP0=1, select bank1
	bcf	status, 6	;RP1=0, select bank1
	clrf	(___wmul@product)^080h
	clrf	(___wmul@product+1)^080h
	goto	l1969
	line	44
	
l513:	
	line	45
	
l1969:	
	btfss	(___wmul@multiplier)^080h,(0)&7
	goto	u1721
	goto	u1720
u1721:
	goto	l514
u1720:
	line	46
	
l1971:	
	movf	(___wmul@multiplicand)^080h,w
	addwf	(___wmul@product)^080h,f
	skipnc
	incf	(___wmul@product+1)^080h,f
	movf	(___wmul@multiplicand+1)^080h,w
	addwf	(___wmul@product+1)^080h,f
	
l514:	
	line	47
	movlw	01h
	
u1735:
	clrc
	rlf	(___wmul@multiplicand)^080h,f
	rlf	(___wmul@multiplicand+1)^080h,f
	addlw	-1
	skipz
	goto	u1735
	line	48
	
l1973:	
	movlw	01h
	
u1745:
	clrc
	rrf	(___wmul@multiplier+1)^080h,f
	rrf	(___wmul@multiplier)^080h,f
	addlw	-1
	skipz
	goto	u1745
	line	49
	movf	((___wmul@multiplier+1)^080h),w
	iorwf	((___wmul@multiplier)^080h),w
	skipz
	goto	u1751
	goto	u1750
u1751:
	goto	l1969
u1750:
	goto	l1975
	
l515:	
	line	52
	
l1975:	
	movf	(___wmul@product+1)^080h,w
	clrf	(?___wmul+1)^080h
	addwf	(?___wmul+1)^080h
	movf	(___wmul@product)^080h,w
	clrf	(?___wmul)^080h
	addwf	(?___wmul)^080h

	goto	l516
	
l1977:	
	line	53
	
l516:	
	return
	opt stack 0
GLOBAL	__end_of___wmul
	__end_of___wmul:
	signat	___wmul,8314
	global	___lwmod

;; *************** function ___lwmod *****************
;; Defined at:
;;		line 6 in file "C:\Program Files (x86)\Microchip\xc8\v1.33\sources\common\lwmod.c"
;; Parameters:    Size  Location     Type
;;  divisor         2   11[BANK1 ] unsigned int 
;;  dividend        2   13[BANK1 ] unsigned int 
;; Auto vars:     Size  Location     Type
;;  counter         1   16[BANK1 ] unsigned char 
;; Return value:  Size  Location     Type
;;                  2   11[BANK1 ] unsigned int 
;; Registers used:
;;		wreg, status,2, status,0
;; Tracked objects:
;;		On entry : 0/0
;;		On exit  : 0/0
;;		Unchanged: 0/0
;; Data sizes:     COMMON   BANK0   BANK1   BANK3   BANK2
;;      Params:         0       0       4       0       0
;;      Locals:         0       0       1       0       0
;;      Temps:          0       0       1       0       0
;;      Totals:         0       0       6       0       0
;;Total ram usage:        6 bytes
;; Hardware stack levels used:    1
;; Hardware stack levels required when called:    4
;; This function calls:
;;		Nothing
;; This function is called by:
;;		__doprnt
;; This function uses a non-reentrant model
;;
psect	text6,local,class=CODE,delta=2,merge=1
	file	"C:\Program Files (x86)\Microchip\xc8\v1.33\sources\common\lwmod.c"
	line	6
global __ptext6
__ptext6:	;psect for function ___lwmod
psect	text6
	file	"C:\Program Files (x86)\Microchip\xc8\v1.33\sources\common\lwmod.c"
	line	6
	global	__size_of___lwmod
	__size_of___lwmod	equ	__end_of___lwmod-___lwmod
	
___lwmod:	
;incstack = 0
	opt	stack 1
; Regs used in ___lwmod: [wreg+status,2+status,0]
	line	13
	
l2035:	
	bsf	status, 5	;RP0=1, select bank1
	bcf	status, 6	;RP1=0, select bank1
	movf	(___lwmod@divisor+1)^080h,w
	iorwf	(___lwmod@divisor)^080h,w
	skipnz
	goto	u1941
	goto	u1940
u1941:
	goto	l2053
u1940:
	line	14
	
l2037:	
	clrf	(___lwmod@counter)^080h
	incf	(___lwmod@counter)^080h,f
	line	15
	goto	l2043
	
l860:	
	line	16
	
l2039:	
	movlw	01h
	
u1955:
	clrc
	rlf	(___lwmod@divisor)^080h,f
	rlf	(___lwmod@divisor+1)^080h,f
	addlw	-1
	skipz
	goto	u1955
	line	17
	
l2041:	
	movlw	(01h)
	movwf	(??___lwmod+0)^080h+0
	movf	(??___lwmod+0)^080h+0,w
	addwf	(___lwmod@counter)^080h,f
	goto	l2043
	line	18
	
l859:	
	line	15
	
l2043:	
	btfss	(___lwmod@divisor+1)^080h,(15)&7
	goto	u1961
	goto	u1960
u1961:
	goto	l2039
u1960:
	goto	l2045
	
l861:	
	goto	l2045
	line	19
	
l862:	
	line	20
	
l2045:	
	movf	(___lwmod@divisor+1)^080h,w
	subwf	(___lwmod@dividend+1)^080h,w
	skipz
	goto	u1975
	movf	(___lwmod@divisor)^080h,w
	subwf	(___lwmod@dividend)^080h,w
u1975:
	skipc
	goto	u1971
	goto	u1970
u1971:
	goto	l2049
u1970:
	line	21
	
l2047:	
	movf	(___lwmod@divisor)^080h,w
	subwf	(___lwmod@dividend)^080h,f
	movf	(___lwmod@divisor+1)^080h,w
	skipc
	decf	(___lwmod@dividend+1)^080h,f
	subwf	(___lwmod@dividend+1)^080h,f
	goto	l2049
	
l863:	
	line	22
	
l2049:	
	movlw	01h
	
u1985:
	clrc
	rrf	(___lwmod@divisor+1)^080h,f
	rrf	(___lwmod@divisor)^080h,f
	addlw	-1
	skipz
	goto	u1985
	line	23
	
l2051:	
	movlw	low(01h)
	subwf	(___lwmod@counter)^080h,f
	btfss	status,2
	goto	u1991
	goto	u1990
u1991:
	goto	l2045
u1990:
	goto	l2053
	
l864:	
	goto	l2053
	line	24
	
l858:	
	line	25
	
l2053:	
	movf	(___lwmod@dividend+1)^080h,w
	clrf	(?___lwmod+1)^080h
	addwf	(?___lwmod+1)^080h
	movf	(___lwmod@dividend)^080h,w
	clrf	(?___lwmod)^080h
	addwf	(?___lwmod)^080h

	goto	l865
	
l2055:	
	line	26
	
l865:	
	return
	opt stack 0
GLOBAL	__end_of___lwmod
	__end_of___lwmod:
	signat	___lwmod,8314
	global	___lwdiv

;; *************** function ___lwdiv *****************
;; Defined at:
;;		line 6 in file "C:\Program Files (x86)\Microchip\xc8\v1.33\sources\common\lwdiv.c"
;; Parameters:    Size  Location     Type
;;  divisor         2    3[BANK1 ] unsigned int 
;;  dividend        2    5[BANK1 ] unsigned int 
;; Auto vars:     Size  Location     Type
;;  quotient        2    8[BANK1 ] unsigned int 
;;  counter         1   10[BANK1 ] unsigned char 
;; Return value:  Size  Location     Type
;;                  2    3[BANK1 ] unsigned int 
;; Registers used:
;;		wreg, status,2, status,0
;; Tracked objects:
;;		On entry : 0/0
;;		On exit  : 0/0
;;		Unchanged: 0/0
;; Data sizes:     COMMON   BANK0   BANK1   BANK3   BANK2
;;      Params:         0       0       4       0       0
;;      Locals:         0       0       3       0       0
;;      Temps:          0       0       1       0       0
;;      Totals:         0       0       8       0       0
;;Total ram usage:        8 bytes
;; Hardware stack levels used:    1
;; Hardware stack levels required when called:    4
;; This function calls:
;;		Nothing
;; This function is called by:
;;		__doprnt
;; This function uses a non-reentrant model
;;
psect	text7,local,class=CODE,delta=2,merge=1
	file	"C:\Program Files (x86)\Microchip\xc8\v1.33\sources\common\lwdiv.c"
	line	6
global __ptext7
__ptext7:	;psect for function ___lwdiv
psect	text7
	file	"C:\Program Files (x86)\Microchip\xc8\v1.33\sources\common\lwdiv.c"
	line	6
	global	__size_of___lwdiv
	__size_of___lwdiv	equ	__end_of___lwdiv-___lwdiv
	
___lwdiv:	
;incstack = 0
	opt	stack 1
; Regs used in ___lwdiv: [wreg+status,2+status,0]
	line	14
	
l2009:	
	bsf	status, 5	;RP0=1, select bank1
	bcf	status, 6	;RP1=0, select bank1
	clrf	(___lwdiv@quotient)^080h
	clrf	(___lwdiv@quotient+1)^080h
	line	15
	
l2011:	
	movf	(___lwdiv@divisor+1)^080h,w
	iorwf	(___lwdiv@divisor)^080h,w
	skipnz
	goto	u1871
	goto	u1870
u1871:
	goto	l2031
u1870:
	line	16
	
l2013:	
	clrf	(___lwdiv@counter)^080h
	incf	(___lwdiv@counter)^080h,f
	line	17
	goto	l2019
	
l850:	
	line	18
	
l2015:	
	movlw	01h
	
u1885:
	clrc
	rlf	(___lwdiv@divisor)^080h,f
	rlf	(___lwdiv@divisor+1)^080h,f
	addlw	-1
	skipz
	goto	u1885
	line	19
	
l2017:	
	movlw	(01h)
	movwf	(??___lwdiv+0)^080h+0
	movf	(??___lwdiv+0)^080h+0,w
	addwf	(___lwdiv@counter)^080h,f
	goto	l2019
	line	20
	
l849:	
	line	17
	
l2019:	
	btfss	(___lwdiv@divisor+1)^080h,(15)&7
	goto	u1891
	goto	u1890
u1891:
	goto	l2015
u1890:
	goto	l2021
	
l851:	
	goto	l2021
	line	21
	
l852:	
	line	22
	
l2021:	
	movlw	01h
	
u1905:
	clrc
	rlf	(___lwdiv@quotient)^080h,f
	rlf	(___lwdiv@quotient+1)^080h,f
	addlw	-1
	skipz
	goto	u1905
	line	23
	movf	(___lwdiv@divisor+1)^080h,w
	subwf	(___lwdiv@dividend+1)^080h,w
	skipz
	goto	u1915
	movf	(___lwdiv@divisor)^080h,w
	subwf	(___lwdiv@dividend)^080h,w
u1915:
	skipc
	goto	u1911
	goto	u1910
u1911:
	goto	l2027
u1910:
	line	24
	
l2023:	
	movf	(___lwdiv@divisor)^080h,w
	subwf	(___lwdiv@dividend)^080h,f
	movf	(___lwdiv@divisor+1)^080h,w
	skipc
	decf	(___lwdiv@dividend+1)^080h,f
	subwf	(___lwdiv@dividend+1)^080h,f
	line	25
	
l2025:	
	bsf	(___lwdiv@quotient)^080h+(0/8),(0)&7
	goto	l2027
	line	26
	
l853:	
	line	27
	
l2027:	
	movlw	01h
	
u1925:
	clrc
	rrf	(___lwdiv@divisor+1)^080h,f
	rrf	(___lwdiv@divisor)^080h,f
	addlw	-1
	skipz
	goto	u1925
	line	28
	
l2029:	
	movlw	low(01h)
	subwf	(___lwdiv@counter)^080h,f
	btfss	status,2
	goto	u1931
	goto	u1930
u1931:
	goto	l2021
u1930:
	goto	l2031
	
l854:	
	goto	l2031
	line	29
	
l848:	
	line	30
	
l2031:	
	movf	(___lwdiv@quotient+1)^080h,w
	clrf	(?___lwdiv+1)^080h
	addwf	(?___lwdiv+1)^080h
	movf	(___lwdiv@quotient)^080h,w
	clrf	(?___lwdiv)^080h
	addwf	(?___lwdiv)^080h

	goto	l855
	
l2033:	
	line	31
	
l855:	
	return
	opt stack 0
GLOBAL	__end_of___lwdiv
	__end_of___lwdiv:
	signat	___lwdiv,8314
	global	_USART_WriteString

;; *************** function _USART_WriteString *****************
;; Defined at:
;;		line 52 in file "C:\Users\332414\Documents\Fuzzy-IA2\Cdigo em C no MPLAB\usart.c"
;; Parameters:    Size  Location     Type
;;  str             2    4[BANK1 ] PTR const unsigned char 
;;		 -> STR_12(40), STR_10(3), display(10), STR_7(20), 
;;		 -> STR_6(29), 
;; Auto vars:     Size  Location     Type
;;		None
;; Return value:  Size  Location     Type
;;		None               void
;; Registers used:
;;		wreg, fsr0l, fsr0h, status,2, status,0, btemp+1, pclath, cstack
;; Tracked objects:
;;		On entry : 0/0
;;		On exit  : 0/0
;;		Unchanged: 0/0
;; Data sizes:     COMMON   BANK0   BANK1   BANK3   BANK2
;;      Params:         0       0       2       0       0
;;      Locals:         0       0       0       0       0
;;      Temps:          0       0       0       0       0
;;      Totals:         0       0       2       0       0
;;Total ram usage:        2 bytes
;; Hardware stack levels used:    1
;; Hardware stack levels required when called:    5
;; This function calls:
;;		_USART_WriteChar
;; This function is called by:
;;		_main
;;		_USART_ReceiveChar
;; This function uses a non-reentrant model
;;
psect	text8,local,class=CODE,delta=2,merge=1
	file	"C:\Users\332414\Documents\Fuzzy-IA2\Cdigo em C no MPLAB\usart.c"
	line	52
global __ptext8
__ptext8:	;psect for function _USART_WriteString
psect	text8
	file	"C:\Users\332414\Documents\Fuzzy-IA2\Cdigo em C no MPLAB\usart.c"
	line	52
	global	__size_of_USART_WriteString
	__size_of_USART_WriteString	equ	__end_of_USART_WriteString-_USART_WriteString
	
_USART_WriteString:	
;incstack = 0
	opt	stack 2
; Regs used in _USART_WriteString: [wreg-fsr0h+status,2+status,0+btemp+1+pclath+cstack]
	line	54
	
l2521:	
;usart.c: 54: while(*str != '\0')
	goto	l2527
	
l140:	
	line	56
	
l2523:	
;usart.c: 55: {
;usart.c: 56: USART_WriteChar(*str);
	bsf	status, 5	;RP0=1, select bank1
	bcf	status, 6	;RP1=0, select bank1
	movf	(USART_WriteString@str+1)^080h,w
	bcf	status, 5	;RP0=0, select bank0
	bcf	status, 6	;RP1=0, select bank0
	movwf	btemp+1
	bsf	status, 5	;RP0=1, select bank1
	bcf	status, 6	;RP1=0, select bank1
	movf	(USART_WriteString@str)^080h,w
	movwf	fsr0
	bcf	status, 5	;RP0=0, select bank0
	bcf	status, 6	;RP1=0, select bank0
	fcall	stringtab
	fcall	_USART_WriteChar
	line	57
	
l2525:	
;usart.c: 57: str++;
	movlw	01h
	bsf	status, 5	;RP0=1, select bank1
	bcf	status, 6	;RP1=0, select bank1
	addwf	(USART_WriteString@str)^080h,f
	skipnc
	incf	(USART_WriteString@str+1)^080h,f
	goto	l2527
	line	58
	
l139:	
	line	54
	
l2527:	
	bsf	status, 5	;RP0=1, select bank1
	bcf	status, 6	;RP1=0, select bank1
	movf	(USART_WriteString@str+1)^080h,w
	bcf	status, 5	;RP0=0, select bank0
	bcf	status, 6	;RP1=0, select bank0
	movwf	btemp+1
	bsf	status, 5	;RP0=1, select bank1
	bcf	status, 6	;RP1=0, select bank1
	movf	(USART_WriteString@str)^080h,w
	movwf	fsr0
	bcf	status, 5	;RP0=0, select bank0
	bcf	status, 6	;RP1=0, select bank0
	fcall	stringtab
	iorlw	0
	skipz
	goto	u2821
	goto	u2820
u2821:
	goto	l2523
u2820:
	goto	l142
	
l141:	
	line	59
	
l142:	
	return
	opt stack 0
GLOBAL	__end_of_USART_WriteString
	__end_of_USART_WriteString:
	signat	_USART_WriteString,4216
	global	_USART_WriteChar

;; *************** function _USART_WriteChar *****************
;; Defined at:
;;		line 44 in file "C:\Users\332414\Documents\Fuzzy-IA2\Cdigo em C no MPLAB\usart.c"
;; Parameters:    Size  Location     Type
;;  byte            1    wreg     unsigned char 
;; Auto vars:     Size  Location     Type
;;  byte            1    3[BANK1 ] unsigned char 
;; Return value:  Size  Location     Type
;;		None               void
;; Registers used:
;;		wreg
;; Tracked objects:
;;		On entry : 0/0
;;		On exit  : 0/0
;;		Unchanged: 0/0
;; Data sizes:     COMMON   BANK0   BANK1   BANK3   BANK2
;;      Params:         0       0       0       0       0
;;      Locals:         0       0       1       0       0
;;      Temps:          0       0       0       0       0
;;      Totals:         0       0       1       0       0
;;Total ram usage:        1 bytes
;; Hardware stack levels used:    1
;; Hardware stack levels required when called:    4
;; This function calls:
;;		Nothing
;; This function is called by:
;;		_USART_WriteString
;; This function uses a non-reentrant model
;;
psect	text9,local,class=CODE,delta=2,merge=1
	line	44
global __ptext9
__ptext9:	;psect for function _USART_WriteChar
psect	text9
	file	"C:\Users\332414\Documents\Fuzzy-IA2\Cdigo em C no MPLAB\usart.c"
	line	44
	global	__size_of_USART_WriteChar
	__size_of_USART_WriteChar	equ	__end_of_USART_WriteChar-_USART_WriteChar
	
_USART_WriteChar:	
;incstack = 0
	opt	stack 2
; Regs used in _USART_WriteChar: [wreg]
;USART_WriteChar@byte stored from wreg
	bsf	status, 5	;RP0=1, select bank1
	bcf	status, 6	;RP1=0, select bank1
	movwf	(USART_WriteChar@byte)^080h
	line	46
	
l2057:	
;usart.c: 46: while(!PIR1bits.TXIF);
	goto	l133
	
l134:	
	
l133:	
	bcf	status, 5	;RP0=0, select bank0
	btfss	(12),4	;volatile
	goto	u2001
	goto	u2000
u2001:
	goto	l133
u2000:
	goto	l2059
	
l135:	
	line	47
	
l2059:	
;usart.c: 47: TXREG = byte;
	bsf	status, 5	;RP0=1, select bank1
	bcf	status, 6	;RP1=0, select bank1
	movf	(USART_WriteChar@byte)^080h,w
	bcf	status, 5	;RP0=0, select bank0
	bcf	status, 6	;RP1=0, select bank0
	movwf	(25)	;volatile
	line	48
	
l136:	
	return
	opt stack 0
GLOBAL	__end_of_USART_WriteChar
	__end_of_USART_WriteChar:
	signat	_USART_WriteChar,4216
	global	_USART_Init

;; *************** function _USART_Init *****************
;; Defined at:
;;		line 6 in file "C:\Users\332414\Documents\Fuzzy-IA2\Cdigo em C no MPLAB\usart.c"
;; Parameters:    Size  Location     Type
;;  BaudRate        4   18[BANK1 ] long 
;; Auto vars:     Size  Location     Type
;;		None
;; Return value:  Size  Location     Type
;;		None               void
;; Registers used:
;;		wreg, status,2, status,0, pclath, cstack
;; Tracked objects:
;;		On entry : 0/0
;;		On exit  : 0/0
;;		Unchanged: 0/0
;; Data sizes:     COMMON   BANK0   BANK1   BANK3   BANK2
;;      Params:         0       0       4       0       0
;;      Locals:         0       0       0       0       0
;;      Temps:          0       0       4       0       0
;;      Totals:         0       0       8       0       0
;;Total ram usage:        8 bytes
;; Hardware stack levels used:    1
;; Hardware stack levels required when called:    5
;; This function calls:
;;		___aldiv
;; This function is called by:
;;		_main
;; This function uses a non-reentrant model
;;
psect	text10,local,class=CODE,delta=2,merge=1
	line	6
global __ptext10
__ptext10:	;psect for function _USART_Init
psect	text10
	file	"C:\Users\332414\Documents\Fuzzy-IA2\Cdigo em C no MPLAB\usart.c"
	line	6
	global	__size_of_USART_Init
	__size_of_USART_Init	equ	__end_of_USART_Init-_USART_Init
	
_USART_Init:	
;incstack = 0
	opt	stack 2
; Regs used in _USART_Init: [wreg+status,2+status,0+pclath+cstack]
	line	13
	
l2425:	
;usart.c: 13: SPBRG = (unsigned char)(18432000 / (16 * BaudRate)) - 1;
	bsf	status, 5	;RP0=1, select bank1
	bcf	status, 6	;RP1=0, select bank1
	movf	(USART_Init@BaudRate)^080h,w
	movwf	(??_USART_Init+0)^080h+0
	movf	(USART_Init@BaudRate+1)^080h,w
	movwf	((??_USART_Init+0)^080h+0+1)
	movf	(USART_Init@BaudRate+2)^080h,w
	movwf	((??_USART_Init+0)^080h+0+2)
	movf	(USART_Init@BaudRate+3)^080h,w
	movwf	((??_USART_Init+0)^080h+0+3)
	movlw	04h
u2815:
	clrc
	rlf	(??_USART_Init+0)^080h+0,f
	rlf	(??_USART_Init+0)^080h+1,f
	rlf	(??_USART_Init+0)^080h+2,f
	rlf	(??_USART_Init+0)^080h+3,f
u2810:
	addlw	-1
	skipz
	goto	u2815
	movf	3+(??_USART_Init+0)^080h+0,w
	movwf	(___aldiv@divisor+3)^080h
	movf	2+(??_USART_Init+0)^080h+0,w
	movwf	(___aldiv@divisor+2)^080h
	movf	1+(??_USART_Init+0)^080h+0,w
	movwf	(___aldiv@divisor+1)^080h
	movf	0+(??_USART_Init+0)^080h+0,w
	movwf	(___aldiv@divisor)^080h

	movlw	01h
	movwf	(___aldiv@dividend+3)^080h
	movlw	019h
	movwf	(___aldiv@dividend+2)^080h
	movlw	040h
	movwf	(___aldiv@dividend+1)^080h
	movlw	0
	movwf	(___aldiv@dividend)^080h

	fcall	___aldiv
	bsf	status, 5	;RP0=1, select bank1
	bcf	status, 6	;RP1=0, select bank1
	movf	0+(((0+(?___aldiv))^080h)),w
	addlw	0FFh
	movwf	(153)^080h	;volatile
	line	16
	
l2427:	
;usart.c: 16: TXSTAbits.CSRC = 0;
	bcf	(152)^080h,7	;volatile
	line	17
	
l2429:	
;usart.c: 17: TXSTAbits.TX9 = 0;
	bcf	(152)^080h,6	;volatile
	line	18
	
l2431:	
;usart.c: 18: TXSTAbits.TXEN = 1;
	bsf	(152)^080h,5	;volatile
	line	19
	
l2433:	
;usart.c: 19: TXSTAbits.SYNC = 0;
	bcf	(152)^080h,4	;volatile
	line	21
	
l2435:	
;usart.c: 21: TXSTAbits.BRGH = 1;
	bsf	(152)^080h,2	;volatile
	line	22
	
l2437:	
;usart.c: 22: TXSTAbits.TRMT = 1;
	bsf	(152)^080h,1	;volatile
	line	23
	
l2439:	
;usart.c: 23: TXSTAbits.TX9D = 0;
	bcf	(152)^080h,0	;volatile
	line	26
	
l2441:	
;usart.c: 26: RCSTAbits.SPEN = 1;
	bcf	status, 5	;RP0=0, select bank0
	bcf	status, 6	;RP1=0, select bank0
	bsf	(24),7	;volatile
	line	27
	
l2443:	
;usart.c: 27: RCSTAbits.RX9 = 0;
	bcf	(24),6	;volatile
	line	28
	
l2445:	
;usart.c: 28: RCSTAbits.SREN = 0;
	bcf	(24),5	;volatile
	line	29
	
l2447:	
;usart.c: 29: RCSTAbits.CREN = 1;
	bsf	(24),4	;volatile
	line	30
	
l2449:	
;usart.c: 30: RCSTAbits.ADDEN = 0;
	bcf	(24),3	;volatile
	line	31
	
l2451:	
;usart.c: 31: RCSTAbits.FERR = 0;
	bcf	(24),2	;volatile
	line	32
	
l2453:	
;usart.c: 32: RCSTAbits.OERR = 0;
	bcf	(24),1	;volatile
	line	33
	
l2455:	
;usart.c: 33: RCSTAbits.RX9D = 0;
	bcf	(24),0	;volatile
	line	36
	
l2457:	
;usart.c: 36: PIE1bits.TXIE = 0;
	bsf	status, 5	;RP0=1, select bank1
	bcf	status, 6	;RP1=0, select bank1
	bcf	(140)^080h,4	;volatile
	line	37
	
l2459:	
;usart.c: 37: PIR1bits.TXIF = 0;
	bcf	status, 5	;RP0=0, select bank0
	bcf	status, 6	;RP1=0, select bank0
	bcf	(12),4	;volatile
	line	38
	
l2461:	
;usart.c: 38: PIE1bits.RCIE = 1;
	bsf	status, 5	;RP0=1, select bank1
	bcf	status, 6	;RP1=0, select bank1
	bsf	(140)^080h,5	;volatile
	line	39
	
l2463:	
;usart.c: 39: PIR1bits.RCIF = 0;
	bcf	status, 5	;RP0=0, select bank0
	bcf	status, 6	;RP1=0, select bank0
	bcf	(12),5	;volatile
	line	40
	
l130:	
	return
	opt stack 0
GLOBAL	__end_of_USART_Init
	__end_of_USART_Init:
	signat	_USART_Init,4216
	global	___aldiv

;; *************** function ___aldiv *****************
;; Defined at:
;;		line 6 in file "C:\Program Files (x86)\Microchip\xc8\v1.33\sources\common\aldiv.c"
;; Parameters:    Size  Location     Type
;;  divisor         4    3[BANK1 ] long 
;;  dividend        4    7[BANK1 ] long 
;; Auto vars:     Size  Location     Type
;;  quotient        4   14[BANK1 ] long 
;;  sign            1   13[BANK1 ] unsigned char 
;;  counter         1   12[BANK1 ] unsigned char 
;; Return value:  Size  Location     Type
;;                  4    3[BANK1 ] long 
;; Registers used:
;;		wreg, status,2, status,0
;; Tracked objects:
;;		On entry : 0/0
;;		On exit  : 0/0
;;		Unchanged: 0/0
;; Data sizes:     COMMON   BANK0   BANK1   BANK3   BANK2
;;      Params:         0       0       8       0       0
;;      Locals:         0       0       6       0       0
;;      Temps:          0       0       1       0       0
;;      Totals:         0       0      15       0       0
;;Total ram usage:       15 bytes
;; Hardware stack levels used:    1
;; Hardware stack levels required when called:    4
;; This function calls:
;;		Nothing
;; This function is called by:
;;		_USART_Init
;; This function uses a non-reentrant model
;;
psect	text11,local,class=CODE,delta=2,merge=1
	file	"C:\Program Files (x86)\Microchip\xc8\v1.33\sources\common\aldiv.c"
	line	6
global __ptext11
__ptext11:	;psect for function ___aldiv
psect	text11
	file	"C:\Program Files (x86)\Microchip\xc8\v1.33\sources\common\aldiv.c"
	line	6
	global	__size_of___aldiv
	__size_of___aldiv	equ	__end_of___aldiv-___aldiv
	
___aldiv:	
;incstack = 0
	opt	stack 2
; Regs used in ___aldiv: [wreg+status,2+status,0]
	line	14
	
l2209:	
	bsf	status, 5	;RP0=1, select bank1
	bcf	status, 6	;RP1=0, select bank1
	clrf	(___aldiv@sign)^080h
	line	15
	
l2211:	
	btfss	(___aldiv@divisor+3)^080h,7
	goto	u2261
	goto	u2260
u2261:
	goto	l569
u2260:
	line	16
	
l2213:	
	comf	(___aldiv@divisor)^080h,f
	comf	(___aldiv@divisor+1)^080h,f
	comf	(___aldiv@divisor+2)^080h,f
	comf	(___aldiv@divisor+3)^080h,f
	incf	(___aldiv@divisor)^080h,f
	skipnz
	incf	(___aldiv@divisor+1)^080h,f
	skipnz
	incf	(___aldiv@divisor+2)^080h,f
	skipnz
	incf	(___aldiv@divisor+3)^080h,f
	line	17
	clrf	(___aldiv@sign)^080h
	incf	(___aldiv@sign)^080h,f
	line	18
	
l569:	
	line	19
	btfss	(___aldiv@dividend+3)^080h,7
	goto	u2271
	goto	u2270
u2271:
	goto	l2219
u2270:
	line	20
	
l2215:	
	comf	(___aldiv@dividend)^080h,f
	comf	(___aldiv@dividend+1)^080h,f
	comf	(___aldiv@dividend+2)^080h,f
	comf	(___aldiv@dividend+3)^080h,f
	incf	(___aldiv@dividend)^080h,f
	skipnz
	incf	(___aldiv@dividend+1)^080h,f
	skipnz
	incf	(___aldiv@dividend+2)^080h,f
	skipnz
	incf	(___aldiv@dividend+3)^080h,f
	line	21
	
l2217:	
	movlw	(01h)
	movwf	(??___aldiv+0)^080h+0
	movf	(??___aldiv+0)^080h+0,w
	xorwf	(___aldiv@sign)^080h,f
	goto	l2219
	line	22
	
l570:	
	line	23
	
l2219:	
	movlw	0
	movwf	(___aldiv@quotient+3)^080h
	movlw	0
	movwf	(___aldiv@quotient+2)^080h
	movlw	0
	movwf	(___aldiv@quotient+1)^080h
	movlw	0
	movwf	(___aldiv@quotient)^080h

	line	24
	
l2221:	
	movf	(___aldiv@divisor+3)^080h,w
	iorwf	(___aldiv@divisor+2)^080h,w
	iorwf	(___aldiv@divisor+1)^080h,w
	iorwf	(___aldiv@divisor)^080h,w
	skipnz
	goto	u2281
	goto	u2280
u2281:
	goto	l2241
u2280:
	line	25
	
l2223:	
	clrf	(___aldiv@counter)^080h
	incf	(___aldiv@counter)^080h,f
	line	26
	goto	l2227
	
l573:	
	line	27
	
l2225:	
	movlw	01h
	movwf	(??___aldiv+0)^080h+0
u2295:
	clrc
	rlf	(___aldiv@divisor)^080h,f
	rlf	(___aldiv@divisor+1)^080h,f
	rlf	(___aldiv@divisor+2)^080h,f
	rlf	(___aldiv@divisor+3)^080h,f
	decfsz	(??___aldiv+0)^080h+0
	goto	u2295
	line	28
	movlw	(01h)
	movwf	(??___aldiv+0)^080h+0
	movf	(??___aldiv+0)^080h+0,w
	addwf	(___aldiv@counter)^080h,f
	goto	l2227
	line	29
	
l572:	
	line	26
	
l2227:	
	btfss	(___aldiv@divisor+3)^080h,(31)&7
	goto	u2301
	goto	u2300
u2301:
	goto	l2225
u2300:
	goto	l2229
	
l574:	
	goto	l2229
	line	30
	
l575:	
	line	31
	
l2229:	
	movlw	01h
	movwf	(??___aldiv+0)^080h+0
u2315:
	clrc
	rlf	(___aldiv@quotient)^080h,f
	rlf	(___aldiv@quotient+1)^080h,f
	rlf	(___aldiv@quotient+2)^080h,f
	rlf	(___aldiv@quotient+3)^080h,f
	decfsz	(??___aldiv+0)^080h+0
	goto	u2315
	line	32
	
l2231:	
	movf	(___aldiv@divisor+3)^080h,w
	subwf	(___aldiv@dividend+3)^080h,w
	skipz
	goto	u2325
	movf	(___aldiv@divisor+2)^080h,w
	subwf	(___aldiv@dividend+2)^080h,w
	skipz
	goto	u2325
	movf	(___aldiv@divisor+1)^080h,w
	subwf	(___aldiv@dividend+1)^080h,w
	skipz
	goto	u2325
	movf	(___aldiv@divisor)^080h,w
	subwf	(___aldiv@dividend)^080h,w
u2325:
	skipc
	goto	u2321
	goto	u2320
u2321:
	goto	l2237
u2320:
	line	33
	
l2233:	
	movf	(___aldiv@divisor)^080h,w
	subwf	(___aldiv@dividend)^080h,f
	movf	(___aldiv@divisor+1)^080h,w
	skipc
	incfsz	(___aldiv@divisor+1)^080h,w
	subwf	(___aldiv@dividend+1)^080h,f
	movf	(___aldiv@divisor+2)^080h,w
	skipc
	incfsz	(___aldiv@divisor+2)^080h,w
	subwf	(___aldiv@dividend+2)^080h,f
	movf	(___aldiv@divisor+3)^080h,w
	skipc
	incfsz	(___aldiv@divisor+3)^080h,w
	subwf	(___aldiv@dividend+3)^080h,f
	line	34
	
l2235:	
	bsf	(___aldiv@quotient)^080h+(0/8),(0)&7
	goto	l2237
	line	35
	
l576:	
	line	36
	
l2237:	
	movlw	01h
u2335:
	clrc
	rrf	(___aldiv@divisor+3)^080h,f
	rrf	(___aldiv@divisor+2)^080h,f
	rrf	(___aldiv@divisor+1)^080h,f
	rrf	(___aldiv@divisor)^080h,f
	addlw	-1
	skipz
	goto	u2335

	line	37
	
l2239:	
	movlw	low(01h)
	subwf	(___aldiv@counter)^080h,f
	btfss	status,2
	goto	u2341
	goto	u2340
u2341:
	goto	l2229
u2340:
	goto	l2241
	
l577:	
	goto	l2241
	line	38
	
l571:	
	line	39
	
l2241:	
	movf	(___aldiv@sign)^080h,w
	skipz
	goto	u2350
	goto	l2245
u2350:
	line	40
	
l2243:	
	comf	(___aldiv@quotient)^080h,f
	comf	(___aldiv@quotient+1)^080h,f
	comf	(___aldiv@quotient+2)^080h,f
	comf	(___aldiv@quotient+3)^080h,f
	incf	(___aldiv@quotient)^080h,f
	skipnz
	incf	(___aldiv@quotient+1)^080h,f
	skipnz
	incf	(___aldiv@quotient+2)^080h,f
	skipnz
	incf	(___aldiv@quotient+3)^080h,f
	goto	l2245
	
l578:	
	line	41
	
l2245:	
	movf	(___aldiv@quotient+3)^080h,w
	movwf	(?___aldiv+3)^080h
	movf	(___aldiv@quotient+2)^080h,w
	movwf	(?___aldiv+2)^080h
	movf	(___aldiv@quotient+1)^080h,w
	movwf	(?___aldiv+1)^080h
	movf	(___aldiv@quotient)^080h,w
	movwf	(?___aldiv)^080h

	goto	l579
	
l2247:	
	line	42
	
l579:	
	return
	opt stack 0
GLOBAL	__end_of___aldiv
	__end_of___aldiv:
	signat	___aldiv,8316
	global	_TIMER0_Set

;; *************** function _TIMER0_Set *****************
;; Defined at:
;;		line 20 in file "C:\Users\332414\Documents\Fuzzy-IA2\Cdigo em C no MPLAB\timers.c"
;; Parameters:    Size  Location     Type
;;  contagens       1    wreg     unsigned char 
;; Auto vars:     Size  Location     Type
;;  contagens       1    3[BANK1 ] unsigned char 
;; Return value:  Size  Location     Type
;;		None               void
;; Registers used:
;;		wreg
;; Tracked objects:
;;		On entry : 0/0
;;		On exit  : 0/0
;;		Unchanged: 0/0
;; Data sizes:     COMMON   BANK0   BANK1   BANK3   BANK2
;;      Params:         0       0       0       0       0
;;      Locals:         0       0       1       0       0
;;      Temps:          0       0       0       0       0
;;      Totals:         0       0       1       0       0
;;Total ram usage:        1 bytes
;; Hardware stack levels used:    1
;; Hardware stack levels required when called:    4
;; This function calls:
;;		Nothing
;; This function is called by:
;;		_main
;; This function uses a non-reentrant model
;;
psect	text12,local,class=CODE,delta=2,merge=1
	file	"C:\Users\332414\Documents\Fuzzy-IA2\Cdigo em C no MPLAB\timers.c"
	line	20
global __ptext12
__ptext12:	;psect for function _TIMER0_Set
psect	text12
	file	"C:\Users\332414\Documents\Fuzzy-IA2\Cdigo em C no MPLAB\timers.c"
	line	20
	global	__size_of_TIMER0_Set
	__size_of_TIMER0_Set	equ	__end_of_TIMER0_Set-_TIMER0_Set
	
_TIMER0_Set:	
;incstack = 0
	opt	stack 3
; Regs used in _TIMER0_Set: [wreg]
;TIMER0_Set@contagens stored from wreg
	bsf	status, 5	;RP0=1, select bank1
	bcf	status, 6	;RP1=0, select bank1
	movwf	(TIMER0_Set@contagens)^080h
	line	22
	
l2419:	
;timers.c: 22: TMR0 = contagens;
	movf	(TIMER0_Set@contagens)^080h,w
	bcf	status, 5	;RP0=0, select bank0
	bcf	status, 6	;RP1=0, select bank0
	movwf	(1)	;volatile
	line	23
	
l190:	
	return
	opt stack 0
GLOBAL	__end_of_TIMER0_Set
	__end_of_TIMER0_Set:
	signat	_TIMER0_Set,4216
	global	_TIMER0_Init

;; *************** function _TIMER0_Init *****************
;; Defined at:
;;		line 6 in file "C:\Users\332414\Documents\Fuzzy-IA2\Cdigo em C no MPLAB\timers.c"
;; Parameters:    Size  Location     Type
;;		None
;; Auto vars:     Size  Location     Type
;;		None
;; Return value:  Size  Location     Type
;;		None               void
;; Registers used:
;;		None
;; Tracked objects:
;;		On entry : 0/0
;;		On exit  : 0/0
;;		Unchanged: 0/0
;; Data sizes:     COMMON   BANK0   BANK1   BANK3   BANK2
;;      Params:         0       0       0       0       0
;;      Locals:         0       0       0       0       0
;;      Temps:          0       0       0       0       0
;;      Totals:         0       0       0       0       0
;;Total ram usage:        0 bytes
;; Hardware stack levels used:    1
;; Hardware stack levels required when called:    4
;; This function calls:
;;		Nothing
;; This function is called by:
;;		_main
;; This function uses a non-reentrant model
;;
psect	text13,local,class=CODE,delta=2,merge=1
	line	6
global __ptext13
__ptext13:	;psect for function _TIMER0_Init
psect	text13
	file	"C:\Users\332414\Documents\Fuzzy-IA2\Cdigo em C no MPLAB\timers.c"
	line	6
	global	__size_of_TIMER0_Init
	__size_of_TIMER0_Init	equ	__end_of_TIMER0_Init-_TIMER0_Init
	
_TIMER0_Init:	
;incstack = 0
	opt	stack 3
; Regs used in _TIMER0_Init: []
	line	8
	
l2465:	
;timers.c: 8: OPTION_REGbits.T0CS = 0;
	bsf	status, 5	;RP0=1, select bank1
	bcf	status, 6	;RP1=0, select bank1
	bcf	(129)^080h,5	;volatile
	line	9
;timers.c: 9: OPTION_REGbits.T0SE = 0;
	bcf	(129)^080h,4	;volatile
	line	10
;timers.c: 10: OPTION_REGbits.PSA = 0;
	bcf	(129)^080h,3	;volatile
	line	11
;timers.c: 11: OPTION_REGbits.PS2 = 1;
	bsf	(129)^080h,2	;volatile
	line	12
;timers.c: 12: OPTION_REGbits.PS1 = 1;
	bsf	(129)^080h,1	;volatile
	line	13
;timers.c: 13: OPTION_REGbits.PS0 = 1;
	bsf	(129)^080h,0	;volatile
	line	14
;timers.c: 14: INTCONbits.TMR0IF = 0;
	bcf	(11),2	;volatile
	line	15
;timers.c: 15: INTCONbits.TMR0IE = 1;
	bsf	(11),5	;volatile
	line	16
	
l187:	
	return
	opt stack 0
GLOBAL	__end_of_TIMER0_Init
	__end_of_TIMER0_Init:
	signat	_TIMER0_Init,88
	global	_PWM_Init

;; *************** function _PWM_Init *****************
;; Defined at:
;;		line 5 in file "C:\Users\332414\Documents\Fuzzy-IA2\Cdigo em C no MPLAB\pwm.c"
;; Parameters:    Size  Location     Type
;;		None
;; Auto vars:     Size  Location     Type
;;		None
;; Return value:  Size  Location     Type
;;		None               void
;; Registers used:
;;		wreg
;; Tracked objects:
;;		On entry : 0/0
;;		On exit  : 0/0
;;		Unchanged: 0/0
;; Data sizes:     COMMON   BANK0   BANK1   BANK3   BANK2
;;      Params:         0       0       0       0       0
;;      Locals:         0       0       0       0       0
;;      Temps:          0       0       0       0       0
;;      Totals:         0       0       0       0       0
;;Total ram usage:        0 bytes
;; Hardware stack levels used:    1
;; Hardware stack levels required when called:    4
;; This function calls:
;;		Nothing
;; This function is called by:
;;		_main
;; This function uses a non-reentrant model
;;
psect	text14,local,class=CODE,delta=2,merge=1
	file	"C:\Users\332414\Documents\Fuzzy-IA2\Cdigo em C no MPLAB\pwm.c"
	line	5
global __ptext14
__ptext14:	;psect for function _PWM_Init
psect	text14
	file	"C:\Users\332414\Documents\Fuzzy-IA2\Cdigo em C no MPLAB\pwm.c"
	line	5
	global	__size_of_PWM_Init
	__size_of_PWM_Init	equ	__end_of_PWM_Init-_PWM_Init
	
_PWM_Init:	
;incstack = 0
	opt	stack 3
; Regs used in _PWM_Init: [wreg]
	line	14
	
l2469:	
;pwm.c: 14: T2CONbits.T2CKPS1 = 1;
	bcf	status, 5	;RP0=0, select bank0
	bcf	status, 6	;RP1=0, select bank0
	bsf	(18),1	;volatile
	line	15
;pwm.c: 15: T2CONbits.T2CKPS0 = 0;
	bcf	(18),0	;volatile
	line	18
;pwm.c: 18: T2CONbits.TOUTPS3 = 0;
	bcf	(18),6	;volatile
	line	19
;pwm.c: 19: T2CONbits.TOUTPS2 = 0;
	bcf	(18),5	;volatile
	line	20
;pwm.c: 20: T2CONbits.TOUTPS1 = 0;
	bcf	(18),4	;volatile
	line	21
;pwm.c: 21: T2CONbits.TOUTPS0 = 0;
	bcf	(18),3	;volatile
	line	24
;pwm.c: 24: T2CONbits.TMR2ON = 1;
	bsf	(18),2	;volatile
	line	27
	
l2471:	
;pwm.c: 27: PR2 = 255;
	movlw	(0FFh)
	bsf	status, 5	;RP0=1, select bank1
	bcf	status, 6	;RP1=0, select bank1
	movwf	(146)^080h	;volatile
	line	43
	
l2473:	
;pwm.c: 43: CCP1CONbits.CCP1M3 = 1;
	bcf	status, 5	;RP0=0, select bank0
	bcf	status, 6	;RP1=0, select bank0
	bsf	(23),3	;volatile
	line	44
	
l2475:	
;pwm.c: 44: CCP1CONbits.CCP1M2 = 1;
	bsf	(23),2	;volatile
	line	45
	
l2477:	
;pwm.c: 45: CCP1CONbits.CCP1M1 = 1;
	bsf	(23),1	;volatile
	line	46
	
l2479:	
;pwm.c: 46: CCP1CONbits.CCP1M0 = 1;
	bsf	(23),0	;volatile
	line	49
	
l2481:	
;pwm.c: 49: PIE1bits.CCP1IE = 1;
	bsf	status, 5	;RP0=1, select bank1
	bcf	status, 6	;RP1=0, select bank1
	bsf	(140)^080h,2	;volatile
	line	50
	
l2483:	
;pwm.c: 50: PIR1bits.CCP1IF = 0;
	bcf	status, 5	;RP0=0, select bank0
	bcf	status, 6	;RP1=0, select bank0
	bcf	(12),2	;volatile
	line	53
	
l2485:	
;pwm.c: 53: CCP2CONbits.CCP2M3 = 1;
	bsf	(29),3	;volatile
	line	54
	
l2487:	
;pwm.c: 54: CCP2CONbits.CCP2M2 = 1;
	bsf	(29),2	;volatile
	line	55
	
l2489:	
;pwm.c: 55: CCP2CONbits.CCP2M1 = 1;
	bsf	(29),1	;volatile
	line	56
	
l2491:	
;pwm.c: 56: CCP2CONbits.CCP2M0 = 1;
	bsf	(29),0	;volatile
	line	59
	
l2493:	
;pwm.c: 59: PIE2bits.CCP2IE = 1;
	bsf	status, 5	;RP0=1, select bank1
	bcf	status, 6	;RP1=0, select bank1
	bsf	(141)^080h,0	;volatile
	line	60
	
l2495:	
;pwm.c: 60: PIR2bits.CCP2IF = 0;
	bcf	status, 5	;RP0=0, select bank0
	bcf	status, 6	;RP1=0, select bank0
	bcf	(13),0	;volatile
	line	61
	
l338:	
	return
	opt stack 0
GLOBAL	__end_of_PWM_Init
	__end_of_PWM_Init:
	signat	_PWM_Init,88
	global	_PWM_DutyCycle2

;; *************** function _PWM_DutyCycle2 *****************
;; Defined at:
;;		line 96 in file "C:\Users\332414\Documents\Fuzzy-IA2\Cdigo em C no MPLAB\pwm.c"
;; Parameters:    Size  Location     Type
;;  valor           2    3[BANK1 ] int 
;; Auto vars:     Size  Location     Type
;;		None
;; Return value:  Size  Location     Type
;;		None               void
;; Registers used:
;;		wreg, status,2, status,0
;; Tracked objects:
;;		On entry : 0/0
;;		On exit  : 0/0
;;		Unchanged: 0/0
;; Data sizes:     COMMON   BANK0   BANK1   BANK3   BANK2
;;      Params:         0       0       2       0       0
;;      Locals:         0       0       0       0       0
;;      Temps:          0       0       2       0       0
;;      Totals:         0       0       4       0       0
;;Total ram usage:        4 bytes
;; Hardware stack levels used:    1
;; Hardware stack levels required when called:    4
;; This function calls:
;;		Nothing
;; This function is called by:
;;		_main
;; This function uses a non-reentrant model
;;
psect	text15,local,class=CODE,delta=2,merge=1
	line	96
global __ptext15
__ptext15:	;psect for function _PWM_DutyCycle2
psect	text15
	file	"C:\Users\332414\Documents\Fuzzy-IA2\Cdigo em C no MPLAB\pwm.c"
	line	96
	global	__size_of_PWM_DutyCycle2
	__size_of_PWM_DutyCycle2	equ	__end_of_PWM_DutyCycle2-_PWM_DutyCycle2
	
_PWM_DutyCycle2:	
;incstack = 0
	opt	stack 3
; Regs used in _PWM_DutyCycle2: [wreg+status,2+status,0]
	line	98
	
l2421:	
;pwm.c: 98: CCPR2L = valor >> 2;
	bsf	status, 5	;RP0=1, select bank1
	bcf	status, 6	;RP1=0, select bank1
	movf	(PWM_DutyCycle2@valor+1)^080h,w
	movwf	(??_PWM_DutyCycle2+0)^080h+0+1
	movf	(PWM_DutyCycle2@valor)^080h,w
	movwf	(??_PWM_DutyCycle2+0)^080h+0
	rlf	(??_PWM_DutyCycle2+0)^080h+1,w
	rrf	(??_PWM_DutyCycle2+0)^080h+1,f
	rrf	(??_PWM_DutyCycle2+0)^080h+0,f
	rlf	(??_PWM_DutyCycle2+0)^080h+1,w
	rrf	(??_PWM_DutyCycle2+0)^080h+1,f
	rrf	(??_PWM_DutyCycle2+0)^080h+0,f
	movf	0+(??_PWM_DutyCycle2+0)^080h+0,w
	bcf	status, 5	;RP0=0, select bank0
	bcf	status, 6	;RP1=0, select bank0
	movwf	(27)	;volatile
	line	99
	
l2423:	
;pwm.c: 99: CCP2CON = (valor << 4)|0X0C;
	bsf	status, 5	;RP0=1, select bank1
	bcf	status, 6	;RP1=0, select bank1
	movf	(PWM_DutyCycle2@valor)^080h,w
	movwf	(??_PWM_DutyCycle2+0)^080h+0
	movlw	(04h)-1
u2805:
	clrc
	rlf	(??_PWM_DutyCycle2+0)^080h+0,f
	addlw	-1
	skipz
	goto	u2805
	clrc
	rlf	(??_PWM_DutyCycle2+0)^080h+0,w
	iorlw	0Ch
	bcf	status, 5	;RP0=0, select bank0
	bcf	status, 6	;RP1=0, select bank0
	movwf	(29)	;volatile
	line	100
	
l344:	
	return
	opt stack 0
GLOBAL	__end_of_PWM_DutyCycle2
	__end_of_PWM_DutyCycle2:
	signat	_PWM_DutyCycle2,4216
	global	_PWM_DutyCycle1

;; *************** function _PWM_DutyCycle1 *****************
;; Defined at:
;;		line 64 in file "C:\Users\332414\Documents\Fuzzy-IA2\Cdigo em C no MPLAB\pwm.c"
;; Parameters:    Size  Location     Type
;;  valor           2    3[BANK1 ] int 
;; Auto vars:     Size  Location     Type
;;		None
;; Return value:  Size  Location     Type
;;		None               void
;; Registers used:
;;		wreg, status,2, status,0
;; Tracked objects:
;;		On entry : 0/0
;;		On exit  : 0/0
;;		Unchanged: 0/0
;; Data sizes:     COMMON   BANK0   BANK1   BANK3   BANK2
;;      Params:         0       0       2       0       0
;;      Locals:         0       0       0       0       0
;;      Temps:          0       0       2       0       0
;;      Totals:         0       0       4       0       0
;;Total ram usage:        4 bytes
;; Hardware stack levels used:    1
;; Hardware stack levels required when called:    4
;; This function calls:
;;		Nothing
;; This function is called by:
;;		_main
;; This function uses a non-reentrant model
;;
psect	text16,local,class=CODE,delta=2,merge=1
	line	64
global __ptext16
__ptext16:	;psect for function _PWM_DutyCycle1
psect	text16
	file	"C:\Users\332414\Documents\Fuzzy-IA2\Cdigo em C no MPLAB\pwm.c"
	line	64
	global	__size_of_PWM_DutyCycle1
	__size_of_PWM_DutyCycle1	equ	__end_of_PWM_DutyCycle1-_PWM_DutyCycle1
	
_PWM_DutyCycle1:	
;incstack = 0
	opt	stack 3
; Regs used in _PWM_DutyCycle1: [wreg+status,2+status,0]
	line	91
	
l2551:	
;pwm.c: 91: CCPR1L = valor >> 2;
	bsf	status, 5	;RP0=1, select bank1
	bcf	status, 6	;RP1=0, select bank1
	movf	(PWM_DutyCycle1@valor+1)^080h,w
	movwf	(??_PWM_DutyCycle1+0)^080h+0+1
	movf	(PWM_DutyCycle1@valor)^080h,w
	movwf	(??_PWM_DutyCycle1+0)^080h+0
	rlf	(??_PWM_DutyCycle1+0)^080h+1,w
	rrf	(??_PWM_DutyCycle1+0)^080h+1,f
	rrf	(??_PWM_DutyCycle1+0)^080h+0,f
	rlf	(??_PWM_DutyCycle1+0)^080h+1,w
	rrf	(??_PWM_DutyCycle1+0)^080h+1,f
	rrf	(??_PWM_DutyCycle1+0)^080h+0,f
	movf	0+(??_PWM_DutyCycle1+0)^080h+0,w
	bcf	status, 5	;RP0=0, select bank0
	bcf	status, 6	;RP1=0, select bank0
	movwf	(21)	;volatile
	line	92
	
l2553:	
;pwm.c: 92: CCP1CON = (valor << 4)|0X0C;
	bsf	status, 5	;RP0=1, select bank1
	bcf	status, 6	;RP1=0, select bank1
	movf	(PWM_DutyCycle1@valor)^080h,w
	movwf	(??_PWM_DutyCycle1+0)^080h+0
	movlw	(04h)-1
u2855:
	clrc
	rlf	(??_PWM_DutyCycle1+0)^080h+0,f
	addlw	-1
	skipz
	goto	u2855
	clrc
	rlf	(??_PWM_DutyCycle1+0)^080h+0,w
	iorlw	0Ch
	bcf	status, 5	;RP0=0, select bank0
	bcf	status, 6	;RP1=0, select bank0
	movwf	(23)	;volatile
	line	94
	
l341:	
	return
	opt stack 0
GLOBAL	__end_of_PWM_DutyCycle1
	__end_of_PWM_DutyCycle1:
	signat	_PWM_DutyCycle1,4216
	global	_LCD_WriteString

;; *************** function _LCD_WriteString *****************
;; Defined at:
;;		line 61 in file "C:\Users\332414\Documents\Fuzzy-IA2\Cdigo em C no MPLAB\lcd.c"
;; Parameters:    Size  Location     Type
;;  Str             2    5[BANK1 ] PTR const unsigned char 
;;		 -> STR_11(6), display(10), STR_8(17), 
;; Auto vars:     Size  Location     Type
;;		None
;; Return value:  Size  Location     Type
;;		None               void
;; Registers used:
;;		wreg, fsr0l, fsr0h, status,2, status,0, btemp+1, pclath, cstack
;; Tracked objects:
;;		On entry : 0/0
;;		On exit  : 0/0
;;		Unchanged: 0/0
;; Data sizes:     COMMON   BANK0   BANK1   BANK3   BANK2
;;      Params:         0       0       2       0       0
;;      Locals:         0       0       0       0       0
;;      Temps:          0       0       0       0       0
;;      Totals:         0       0       2       0       0
;;Total ram usage:        2 bytes
;; Hardware stack levels used:    1
;; Hardware stack levels required when called:    5
;; This function calls:
;;		_LCD_WriteData
;; This function is called by:
;;		_main
;; This function uses a non-reentrant model
;;
psect	text17,local,class=CODE,delta=2,merge=1
	file	"C:\Users\332414\Documents\Fuzzy-IA2\Cdigo em C no MPLAB\lcd.c"
	line	61
global __ptext17
__ptext17:	;psect for function _LCD_WriteString
psect	text17
	file	"C:\Users\332414\Documents\Fuzzy-IA2\Cdigo em C no MPLAB\lcd.c"
	line	61
	global	__size_of_LCD_WriteString
	__size_of_LCD_WriteString	equ	__end_of_LCD_WriteString-_LCD_WriteString
	
_LCD_WriteString:	
;incstack = 0
	opt	stack 2
; Regs used in _LCD_WriteString: [wreg-fsr0h+status,2+status,0+btemp+1+pclath+cstack]
	line	63
	
l2543:	
;lcd.c: 63: while(*Str != '\0')
	goto	l2549
	
l219:	
	line	65
	
l2545:	
;lcd.c: 64: {
;lcd.c: 65: LCD_WriteData(*Str);
	bsf	status, 5	;RP0=1, select bank1
	bcf	status, 6	;RP1=0, select bank1
	movf	(LCD_WriteString@Str+1)^080h,w
	bcf	status, 5	;RP0=0, select bank0
	bcf	status, 6	;RP1=0, select bank0
	movwf	btemp+1
	bsf	status, 5	;RP0=1, select bank1
	bcf	status, 6	;RP1=0, select bank1
	movf	(LCD_WriteString@Str)^080h,w
	movwf	fsr0
	bcf	status, 5	;RP0=0, select bank0
	bcf	status, 6	;RP1=0, select bank0
	fcall	stringtab
	fcall	_LCD_WriteData
	line	66
	
l2547:	
;lcd.c: 66: Str++;
	movlw	01h
	bsf	status, 5	;RP0=1, select bank1
	bcf	status, 6	;RP1=0, select bank1
	addwf	(LCD_WriteString@Str)^080h,f
	skipnc
	incf	(LCD_WriteString@Str+1)^080h,f
	goto	l2549
	line	67
	
l218:	
	line	63
	
l2549:	
	bsf	status, 5	;RP0=1, select bank1
	bcf	status, 6	;RP1=0, select bank1
	movf	(LCD_WriteString@Str+1)^080h,w
	bcf	status, 5	;RP0=0, select bank0
	bcf	status, 6	;RP1=0, select bank0
	movwf	btemp+1
	bsf	status, 5	;RP0=1, select bank1
	bcf	status, 6	;RP1=0, select bank1
	movf	(LCD_WriteString@Str)^080h,w
	movwf	fsr0
	bcf	status, 5	;RP0=0, select bank0
	bcf	status, 6	;RP1=0, select bank0
	fcall	stringtab
	iorlw	0
	skipz
	goto	u2841
	goto	u2840
u2841:
	goto	l2545
u2840:
	goto	l221
	
l220:	
	line	68
	
l221:	
	return
	opt stack 0
GLOBAL	__end_of_LCD_WriteString
	__end_of_LCD_WriteString:
	signat	_LCD_WriteString,4216
	global	_LCD_WriteData

;; *************** function _LCD_WriteData *****************
;; Defined at:
;;		line 47 in file "C:\Users\332414\Documents\Fuzzy-IA2\Cdigo em C no MPLAB\lcd.c"
;; Parameters:    Size  Location     Type
;;  Byte            1    wreg     unsigned char 
;; Auto vars:     Size  Location     Type
;;  Byte            1    4[BANK1 ] unsigned char 
;; Return value:  Size  Location     Type
;;		None               void
;; Registers used:
;;		wreg
;; Tracked objects:
;;		On entry : 0/0
;;		On exit  : 0/0
;;		Unchanged: 0/0
;; Data sizes:     COMMON   BANK0   BANK1   BANK3   BANK2
;;      Params:         0       0       0       0       0
;;      Locals:         0       0       1       0       0
;;      Temps:          0       0       1       0       0
;;      Totals:         0       0       2       0       0
;;Total ram usage:        2 bytes
;; Hardware stack levels used:    1
;; Hardware stack levels required when called:    4
;; This function calls:
;;		Nothing
;; This function is called by:
;;		_LCD_WriteString
;; This function uses a non-reentrant model
;;
psect	text18,local,class=CODE,delta=2,merge=1
	line	47
global __ptext18
__ptext18:	;psect for function _LCD_WriteData
psect	text18
	file	"C:\Users\332414\Documents\Fuzzy-IA2\Cdigo em C no MPLAB\lcd.c"
	line	47
	global	__size_of_LCD_WriteData
	__size_of_LCD_WriteData	equ	__end_of_LCD_WriteData-_LCD_WriteData
	
_LCD_WriteData:	
;incstack = 0
	opt	stack 2
; Regs used in _LCD_WriteData: [wreg]
;LCD_WriteData@Byte stored from wreg
	bsf	status, 5	;RP0=1, select bank1
	bcf	status, 6	;RP1=0, select bank1
	movwf	(LCD_WriteData@Byte)^080h
	line	49
	
l2069:	
;lcd.c: 49: PORTEbits.RE0 = 1;
	bcf	status, 5	;RP0=0, select bank0
	bcf	status, 6	;RP1=0, select bank0
	bsf	(9),0	;volatile
	line	51
	
l2071:	
;lcd.c: 51: PORTD = Byte;
	bsf	status, 5	;RP0=1, select bank1
	bcf	status, 6	;RP1=0, select bank1
	movf	(LCD_WriteData@Byte)^080h,w
	bcf	status, 5	;RP0=0, select bank0
	bcf	status, 6	;RP1=0, select bank0
	movwf	(8)	;volatile
	line	53
	
l2073:	
;lcd.c: 53: PORTEbits.RE1 = 1;
	bsf	(9),1	;volatile
	line	55
;lcd.c: 55: _delay((unsigned long)((40)*(18432000/4000000.0)));
	opt asmopt_off
movlw	61
	bsf	status, 5	;RP0=1, select bank1
	bcf	status, 6	;RP1=0, select bank1
movwf	(??_LCD_WriteData+0)^080h+0,f
u3287:
decfsz	(??_LCD_WriteData+0)^080h+0,f
	goto	u3287
opt asmopt_on

	line	57
	
l2075:	
;lcd.c: 57: PORTEbits.RE1 = 0;
	bcf	status, 5	;RP0=0, select bank0
	bcf	status, 6	;RP1=0, select bank0
	bcf	(9),1	;volatile
	line	58
	
l215:	
	return
	opt stack 0
GLOBAL	__end_of_LCD_WriteData
	__end_of_LCD_WriteData:
	signat	_LCD_WriteData,4216
	global	_LCD_Init

;; *************** function _LCD_Init *****************
;; Defined at:
;;		line 87 in file "C:\Users\332414\Documents\Fuzzy-IA2\Cdigo em C no MPLAB\lcd.c"
;; Parameters:    Size  Location     Type
;;		None
;; Auto vars:     Size  Location     Type
;;		None
;; Return value:  Size  Location     Type
;;		None               void
;; Registers used:
;;		wreg, status,2, status,0, pclath, cstack
;; Tracked objects:
;;		On entry : 0/0
;;		On exit  : 0/0
;;		Unchanged: 0/0
;; Data sizes:     COMMON   BANK0   BANK1   BANK3   BANK2
;;      Params:         0       0       0       0       0
;;      Locals:         0       0       0       0       0
;;      Temps:          0       0       2       0       0
;;      Totals:         0       0       2       0       0
;;Total ram usage:        2 bytes
;; Hardware stack levels used:    1
;; Hardware stack levels required when called:    5
;; This function calls:
;;		_LCD_WriteCmd
;; This function is called by:
;;		_main
;; This function uses a non-reentrant model
;;
psect	text19,local,class=CODE,delta=2,merge=1
	line	87
global __ptext19
__ptext19:	;psect for function _LCD_Init
psect	text19
	file	"C:\Users\332414\Documents\Fuzzy-IA2\Cdigo em C no MPLAB\lcd.c"
	line	87
	global	__size_of_LCD_Init
	__size_of_LCD_Init	equ	__end_of_LCD_Init-_LCD_Init
	
_LCD_Init:	
;incstack = 0
	opt	stack 2
; Regs used in _LCD_Init: [wreg+status,2+status,0+pclath+cstack]
	line	90
	
l2497:	
;lcd.c: 90: ADCON1bits.PCFG3 = 0;
	bsf	status, 5	;RP0=1, select bank1
	bcf	status, 6	;RP1=0, select bank1
	bcf	(159)^080h,3	;volatile
	line	91
;lcd.c: 91: ADCON1bits.PCFG2 = 1;
	bsf	(159)^080h,2	;volatile
	line	92
;lcd.c: 92: ADCON1bits.PCFG1 = 0;
	bcf	(159)^080h,1	;volatile
	line	93
;lcd.c: 93: ADCON1bits.PCFG0 = 0;
	bcf	(159)^080h,0	;volatile
	line	95
	
l2499:	
;lcd.c: 95: _delay((unsigned long)((15)*(18432000/4000.0)));
	opt asmopt_off
movlw	90
movwf	((??_LCD_Init+0)^080h+0+1),f
	movlw	195
movwf	((??_LCD_Init+0)^080h+0),f
u3297:
	decfsz	((??_LCD_Init+0)^080h+0),f
	goto	u3297
	decfsz	((??_LCD_Init+0)^080h+0+1),f
	goto	u3297
opt asmopt_on

	line	97
	
l2501:	
;lcd.c: 97: LCD_WriteCmd(0x30);
	movlw	(030h)
	fcall	_LCD_WriteCmd
	line	98
	
l2503:	
;lcd.c: 98: _delay((unsigned long)((4)*(18432000/4000.0)));
	opt asmopt_off
movlw	24
	bsf	status, 5	;RP0=1, select bank1
	bcf	status, 6	;RP1=0, select bank1
movwf	((??_LCD_Init+0)^080h+0+1),f
	movlw	239
movwf	((??_LCD_Init+0)^080h+0),f
u3307:
	decfsz	((??_LCD_Init+0)^080h+0),f
	goto	u3307
	decfsz	((??_LCD_Init+0)^080h+0+1),f
	goto	u3307
opt asmopt_on

	line	100
;lcd.c: 100: LCD_WriteCmd(0x30);
	movlw	(030h)
	fcall	_LCD_WriteCmd
	line	101
	
l2505:	
;lcd.c: 101: _delay((unsigned long)((100)*(18432000/4000000.0)));
	opt asmopt_off
movlw	153
	bsf	status, 5	;RP0=1, select bank1
	bcf	status, 6	;RP1=0, select bank1
movwf	(??_LCD_Init+0)^080h+0,f
u3317:
decfsz	(??_LCD_Init+0)^080h+0,f
	goto	u3317
opt asmopt_on

	line	103
	
l2507:	
;lcd.c: 103: LCD_WriteCmd(0x30);
	movlw	(030h)
	fcall	_LCD_WriteCmd
	line	104
;lcd.c: 104: _delay((unsigned long)((40)*(18432000/4000000.0)));
	opt asmopt_off
movlw	61
	bsf	status, 5	;RP0=1, select bank1
	bcf	status, 6	;RP1=0, select bank1
movwf	(??_LCD_Init+0)^080h+0,f
u3327:
decfsz	(??_LCD_Init+0)^080h+0,f
	goto	u3327
opt asmopt_on

	line	106
	
l2509:	
;lcd.c: 106: LCD_WriteCmd(0x38);
	movlw	(038h)
	fcall	_LCD_WriteCmd
	line	107
	
l2511:	
;lcd.c: 107: _delay((unsigned long)((40)*(18432000/4000000.0)));
	opt asmopt_off
movlw	61
	bsf	status, 5	;RP0=1, select bank1
	bcf	status, 6	;RP1=0, select bank1
movwf	(??_LCD_Init+0)^080h+0,f
u3337:
decfsz	(??_LCD_Init+0)^080h+0,f
	goto	u3337
opt asmopt_on

	line	109
;lcd.c: 109: LCD_WriteCmd(0x01);
	movlw	(01h)
	fcall	_LCD_WriteCmd
	line	110
	
l2513:	
;lcd.c: 110: _delay((unsigned long)((2)*(18432000/4000.0)));
	opt asmopt_off
movlw	12
	bsf	status, 5	;RP0=1, select bank1
	bcf	status, 6	;RP1=0, select bank1
movwf	((??_LCD_Init+0)^080h+0+1),f
	movlw	247
movwf	((??_LCD_Init+0)^080h+0),f
u3347:
	decfsz	((??_LCD_Init+0)^080h+0),f
	goto	u3347
	decfsz	((??_LCD_Init+0)^080h+0+1),f
	goto	u3347
opt asmopt_on

	line	112
	
l2515:	
;lcd.c: 112: LCD_WriteCmd(0x0C);
	movlw	(0Ch)
	fcall	_LCD_WriteCmd
	line	113
;lcd.c: 113: _delay((unsigned long)((40)*(18432000/4000000.0)));
	opt asmopt_off
movlw	61
	bsf	status, 5	;RP0=1, select bank1
	bcf	status, 6	;RP1=0, select bank1
movwf	(??_LCD_Init+0)^080h+0,f
u3357:
decfsz	(??_LCD_Init+0)^080h+0,f
	goto	u3357
opt asmopt_on

	line	115
	
l2517:	
;lcd.c: 115: LCD_WriteCmd(0x06);
	movlw	(06h)
	fcall	_LCD_WriteCmd
	line	116
	
l2519:	
;lcd.c: 116: _delay((unsigned long)((40)*(18432000/4000000.0)));
	opt asmopt_off
movlw	61
	bsf	status, 5	;RP0=1, select bank1
	bcf	status, 6	;RP1=0, select bank1
movwf	(??_LCD_Init+0)^080h+0,f
u3367:
decfsz	(??_LCD_Init+0)^080h+0,f
	goto	u3367
opt asmopt_on

	line	117
	
l227:	
	return
	opt stack 0
GLOBAL	__end_of_LCD_Init
	__end_of_LCD_Init:
	signat	_LCD_Init,88
	global	_LCD_Cursor

;; *************** function _LCD_Cursor *****************
;; Defined at:
;;		line 10 in file "C:\Users\332414\Documents\Fuzzy-IA2\Cdigo em C no MPLAB\lcd.c"
;; Parameters:    Size  Location     Type
;;  Row             1    wreg     unsigned char 
;;  Col             1    3[BANK1 ] unsigned char 
;; Auto vars:     Size  Location     Type
;;  Row             1    5[BANK1 ] unsigned char 
;; Return value:  Size  Location     Type
;;		None               void
;; Registers used:
;;		wreg, status,2, status,0
;; Tracked objects:
;;		On entry : 0/0
;;		On exit  : 0/0
;;		Unchanged: 0/0
;; Data sizes:     COMMON   BANK0   BANK1   BANK3   BANK2
;;      Params:         0       0       1       0       0
;;      Locals:         0       0       1       0       0
;;      Temps:          0       0       1       0       0
;;      Totals:         0       0       3       0       0
;;Total ram usage:        3 bytes
;; Hardware stack levels used:    1
;; Hardware stack levels required when called:    4
;; This function calls:
;;		Nothing
;; This function is called by:
;;		_main
;; This function uses a non-reentrant model
;;
psect	text20,local,class=CODE,delta=2,merge=1
	line	10
global __ptext20
__ptext20:	;psect for function _LCD_Cursor
psect	text20
	file	"C:\Users\332414\Documents\Fuzzy-IA2\Cdigo em C no MPLAB\lcd.c"
	line	10
	global	__size_of_LCD_Cursor
	__size_of_LCD_Cursor	equ	__end_of_LCD_Cursor-_LCD_Cursor
	
_LCD_Cursor:	
;incstack = 0
	opt	stack 3
; Regs used in _LCD_Cursor: [wreg+status,2+status,0]
;LCD_Cursor@Row stored from wreg
	bsf	status, 5	;RP0=1, select bank1
	bcf	status, 6	;RP1=0, select bank1
	movwf	(LCD_Cursor@Row)^080h
	line	12
	
l2529:	
;lcd.c: 12: PORTEbits.RE0 = 0;
	bcf	status, 5	;RP0=0, select bank0
	bcf	status, 6	;RP1=0, select bank0
	bcf	(9),0	;volatile
	line	14
	
l2531:	
;lcd.c: 14: if (Row == 0)
	bsf	status, 5	;RP0=1, select bank1
	bcf	status, 6	;RP1=0, select bank1
	movf	(LCD_Cursor@Row)^080h,f
	skipz
	goto	u2831
	goto	u2830
u2831:
	goto	l2535
u2830:
	line	16
	
l2533:	
;lcd.c: 15: {
;lcd.c: 16: PORTD = 0x80 + Col;
	movf	(LCD_Cursor@Col)^080h,w
	addlw	080h
	bcf	status, 5	;RP0=0, select bank0
	bcf	status, 6	;RP1=0, select bank0
	movwf	(8)	;volatile
	line	17
;lcd.c: 17: }
	goto	l2537
	line	18
	
l207:	
	line	20
	
l2535:	
;lcd.c: 18: else
;lcd.c: 19: {
;lcd.c: 20: PORTD = 0xC0 + Col;
	bsf	status, 5	;RP0=1, select bank1
	bcf	status, 6	;RP1=0, select bank1
	movf	(LCD_Cursor@Col)^080h,w
	addlw	0C0h
	bcf	status, 5	;RP0=0, select bank0
	bcf	status, 6	;RP1=0, select bank0
	movwf	(8)	;volatile
	goto	l2537
	line	21
	
l208:	
	line	24
	
l2537:	
;lcd.c: 21: }
;lcd.c: 24: PORTEbits.RE1 = 1;
	bsf	(9),1	;volatile
	line	26
	
l2539:	
;lcd.c: 26: _delay((unsigned long)((40)*(18432000/4000000.0)));
	opt asmopt_off
movlw	61
	bsf	status, 5	;RP0=1, select bank1
	bcf	status, 6	;RP1=0, select bank1
movwf	(??_LCD_Cursor+0)^080h+0,f
u3377:
decfsz	(??_LCD_Cursor+0)^080h+0,f
	goto	u3377
opt asmopt_on

	line	28
	
l2541:	
;lcd.c: 28: PORTEbits.RE1 = 0;
	bcf	status, 5	;RP0=0, select bank0
	bcf	status, 6	;RP1=0, select bank0
	bcf	(9),1	;volatile
	line	29
	
l209:	
	return
	opt stack 0
GLOBAL	__end_of_LCD_Cursor
	__end_of_LCD_Cursor:
	signat	_LCD_Cursor,8312
	global	_LCD_Clear

;; *************** function _LCD_Clear *****************
;; Defined at:
;;		line 71 in file "C:\Users\332414\Documents\Fuzzy-IA2\Cdigo em C no MPLAB\lcd.c"
;; Parameters:    Size  Location     Type
;;		None
;; Auto vars:     Size  Location     Type
;;		None
;; Return value:  Size  Location     Type
;;		None               void
;; Registers used:
;;		wreg, status,2, status,0, pclath, cstack
;; Tracked objects:
;;		On entry : 0/0
;;		On exit  : 0/0
;;		Unchanged: 0/0
;; Data sizes:     COMMON   BANK0   BANK1   BANK3   BANK2
;;      Params:         0       0       0       0       0
;;      Locals:         0       0       0       0       0
;;      Temps:          0       0       2       0       0
;;      Totals:         0       0       2       0       0
;;Total ram usage:        2 bytes
;; Hardware stack levels used:    1
;; Hardware stack levels required when called:    5
;; This function calls:
;;		_LCD_WriteCmd
;; This function is called by:
;;		_main
;; This function uses a non-reentrant model
;;
psect	text21,local,class=CODE,delta=2,merge=1
	line	71
global __ptext21
__ptext21:	;psect for function _LCD_Clear
psect	text21
	file	"C:\Users\332414\Documents\Fuzzy-IA2\Cdigo em C no MPLAB\lcd.c"
	line	71
	global	__size_of_LCD_Clear
	__size_of_LCD_Clear	equ	__end_of_LCD_Clear-_LCD_Clear
	
_LCD_Clear:	
;incstack = 0
	opt	stack 2
; Regs used in _LCD_Clear: [wreg+status,2+status,0+pclath+cstack]
	line	73
	
l2567:	
;lcd.c: 73: LCD_WriteCmd(0x01);
	movlw	(01h)
	fcall	_LCD_WriteCmd
	line	75
	
l2569:	
;lcd.c: 75: _delay((unsigned long)((2)*(18432000/4000.0)));
	opt asmopt_off
movlw	12
	bsf	status, 5	;RP0=1, select bank1
	bcf	status, 6	;RP1=0, select bank1
movwf	((??_LCD_Clear+0)^080h+0+1),f
	movlw	247
movwf	((??_LCD_Clear+0)^080h+0),f
u3387:
	decfsz	((??_LCD_Clear+0)^080h+0),f
	goto	u3387
	decfsz	((??_LCD_Clear+0)^080h+0+1),f
	goto	u3387
opt asmopt_on

	line	77
	
l2571:	
;lcd.c: 77: LCD_WriteCmd(0x0C);
	movlw	(0Ch)
	fcall	_LCD_WriteCmd
	line	79
;lcd.c: 79: _delay((unsigned long)((40)*(18432000/4000000.0)));
	opt asmopt_off
movlw	61
	bsf	status, 5	;RP0=1, select bank1
	bcf	status, 6	;RP1=0, select bank1
movwf	(??_LCD_Clear+0)^080h+0,f
u3397:
decfsz	(??_LCD_Clear+0)^080h+0,f
	goto	u3397
opt asmopt_on

	line	81
	
l2573:	
;lcd.c: 81: LCD_WriteCmd(0x06);
	movlw	(06h)
	fcall	_LCD_WriteCmd
	line	83
	
l2575:	
;lcd.c: 83: _delay((unsigned long)((40)*(18432000/4000000.0)));
	opt asmopt_off
movlw	61
	bsf	status, 5	;RP0=1, select bank1
	bcf	status, 6	;RP1=0, select bank1
movwf	(??_LCD_Clear+0)^080h+0,f
u3407:
decfsz	(??_LCD_Clear+0)^080h+0,f
	goto	u3407
opt asmopt_on

	line	84
	
l224:	
	return
	opt stack 0
GLOBAL	__end_of_LCD_Clear
	__end_of_LCD_Clear:
	signat	_LCD_Clear,88
	global	_LCD_WriteCmd

;; *************** function _LCD_WriteCmd *****************
;; Defined at:
;;		line 32 in file "C:\Users\332414\Documents\Fuzzy-IA2\Cdigo em C no MPLAB\lcd.c"
;; Parameters:    Size  Location     Type
;;  Byte            1    wreg     unsigned char 
;; Auto vars:     Size  Location     Type
;;  Byte            1    4[BANK1 ] unsigned char 
;; Return value:  Size  Location     Type
;;		None               void
;; Registers used:
;;		wreg
;; Tracked objects:
;;		On entry : 0/0
;;		On exit  : 0/0
;;		Unchanged: 0/0
;; Data sizes:     COMMON   BANK0   BANK1   BANK3   BANK2
;;      Params:         0       0       0       0       0
;;      Locals:         0       0       1       0       0
;;      Temps:          0       0       1       0       0
;;      Totals:         0       0       2       0       0
;;Total ram usage:        2 bytes
;; Hardware stack levels used:    1
;; Hardware stack levels required when called:    4
;; This function calls:
;;		Nothing
;; This function is called by:
;;		_LCD_Clear
;;		_LCD_Init
;; This function uses a non-reentrant model
;;
psect	text22,local,class=CODE,delta=2,merge=1
	line	32
global __ptext22
__ptext22:	;psect for function _LCD_WriteCmd
psect	text22
	file	"C:\Users\332414\Documents\Fuzzy-IA2\Cdigo em C no MPLAB\lcd.c"
	line	32
	global	__size_of_LCD_WriteCmd
	__size_of_LCD_WriteCmd	equ	__end_of_LCD_WriteCmd-_LCD_WriteCmd
	
_LCD_WriteCmd:	
;incstack = 0
	opt	stack 2
; Regs used in _LCD_WriteCmd: [wreg]
;LCD_WriteCmd@Byte stored from wreg
	bsf	status, 5	;RP0=1, select bank1
	bcf	status, 6	;RP1=0, select bank1
	movwf	(LCD_WriteCmd@Byte)^080h
	line	34
	
l2061:	
;lcd.c: 34: PORTEbits.RE0 = 0;
	bcf	status, 5	;RP0=0, select bank0
	bcf	status, 6	;RP1=0, select bank0
	bcf	(9),0	;volatile
	line	36
	
l2063:	
;lcd.c: 36: PORTD = Byte;
	bsf	status, 5	;RP0=1, select bank1
	bcf	status, 6	;RP1=0, select bank1
	movf	(LCD_WriteCmd@Byte)^080h,w
	bcf	status, 5	;RP0=0, select bank0
	bcf	status, 6	;RP1=0, select bank0
	movwf	(8)	;volatile
	line	39
	
l2065:	
;lcd.c: 39: PORTEbits.RE1 = 1;
	bsf	(9),1	;volatile
	line	41
;lcd.c: 41: _delay((unsigned long)((40)*(18432000/4000000.0)));
	opt asmopt_off
movlw	61
	bsf	status, 5	;RP0=1, select bank1
	bcf	status, 6	;RP1=0, select bank1
movwf	(??_LCD_WriteCmd+0)^080h+0,f
u3417:
decfsz	(??_LCD_WriteCmd+0)^080h+0,f
	goto	u3417
opt asmopt_on

	line	43
	
l2067:	
;lcd.c: 43: PORTEbits.RE1 = 0;
	bcf	status, 5	;RP0=0, select bank0
	bcf	status, 6	;RP1=0, select bank0
	bcf	(9),1	;volatile
	line	44
	
l212:	
	return
	opt stack 0
GLOBAL	__end_of_LCD_WriteCmd
	__end_of_LCD_WriteCmd:
	signat	_LCD_WriteCmd,4216
	global	_ADC_Init

;; *************** function _ADC_Init *****************
;; Defined at:
;;		line 6 in file "C:\Users\332414\Documents\Fuzzy-IA2\Cdigo em C no MPLAB\adc.c"
;; Parameters:    Size  Location     Type
;;		None
;; Auto vars:     Size  Location     Type
;;		None
;; Return value:  Size  Location     Type
;;		None               void
;; Registers used:
;;		None
;; Tracked objects:
;;		On entry : 0/0
;;		On exit  : 0/0
;;		Unchanged: 0/0
;; Data sizes:     COMMON   BANK0   BANK1   BANK3   BANK2
;;      Params:         0       0       0       0       0
;;      Locals:         0       0       0       0       0
;;      Temps:          0       0       0       0       0
;;      Totals:         0       0       0       0       0
;;Total ram usage:        0 bytes
;; Hardware stack levels used:    1
;; Hardware stack levels required when called:    4
;; This function calls:
;;		Nothing
;; This function is called by:
;;		_main
;; This function uses a non-reentrant model
;;
psect	text23,local,class=CODE,delta=2,merge=1
	file	"C:\Users\332414\Documents\Fuzzy-IA2\Cdigo em C no MPLAB\adc.c"
	line	6
global __ptext23
__ptext23:	;psect for function _ADC_Init
psect	text23
	file	"C:\Users\332414\Documents\Fuzzy-IA2\Cdigo em C no MPLAB\adc.c"
	line	6
	global	__size_of_ADC_Init
	__size_of_ADC_Init	equ	__end_of_ADC_Init-_ADC_Init
	
_ADC_Init:	
;incstack = 0
	opt	stack 3
; Regs used in _ADC_Init: []
	line	9
	
l2467:	
;adc.c: 9: ADCON1bits.ADFM = 1;
	bsf	status, 5	;RP0=1, select bank1
	bcf	status, 6	;RP1=0, select bank1
	bsf	(159)^080h,7	;volatile
	line	32
;adc.c: 32: ADCON1bits.PCFG3 = 1;
	bsf	(159)^080h,3	;volatile
	line	33
;adc.c: 33: ADCON1bits.PCFG2 = 1;
	bsf	(159)^080h,2	;volatile
	line	34
;adc.c: 34: ADCON1bits.PCFG1 = 1;
	bsf	(159)^080h,1	;volatile
	line	35
;adc.c: 35: ADCON1bits.PCFG0 = 0;
	bcf	(159)^080h,0	;volatile
	line	38
;adc.c: 38: ADCON0bits.ADCS1 = 1;
	bcf	status, 5	;RP0=0, select bank0
	bcf	status, 6	;RP1=0, select bank0
	bsf	(31),7	;volatile
	line	39
;adc.c: 39: ADCON0bits.ADCS0 = 0;
	bcf	(31),6	;volatile
	line	42
;adc.c: 42: PIE1bits.ADIE = 0;
	bsf	status, 5	;RP0=1, select bank1
	bcf	status, 6	;RP1=0, select bank1
	bcf	(140)^080h,6	;volatile
	line	43
;adc.c: 43: PIR1bits.ADIF = 0;
	bcf	status, 5	;RP0=0, select bank0
	bcf	status, 6	;RP1=0, select bank0
	bcf	(12),6	;volatile
	line	44
	
l164:	
	return
	opt stack 0
GLOBAL	__end_of_ADC_Init
	__end_of_ADC_Init:
	signat	_ADC_Init,88
	global	_ISR

;; *************** function _ISR *****************
;; Defined at:
;;		line 74 in file "C:\Users\332414\Documents\Fuzzy-IA2\Cdigo em C no MPLAB\main.c"
;; Parameters:    Size  Location     Type
;;		None
;; Auto vars:     Size  Location     Type
;;		None
;; Return value:  Size  Location     Type
;;		None               void
;; Registers used:
;;		wreg, status,2, status,0, pclath, cstack
;; Tracked objects:
;;		On entry : 0/0
;;		On exit  : 0/0
;;		Unchanged: 0/0
;; Data sizes:     COMMON   BANK0   BANK1   BANK3   BANK2
;;      Params:         0       0       0       0       0
;;      Locals:         0       0       3       0       0
;;      Temps:          0       4       0       0       0
;;      Totals:         0       4       3       0       0
;;Total ram usage:        7 bytes
;; Hardware stack levels used:    1
;; Hardware stack levels required when called:    3
;; This function calls:
;;		___ftadd
;;		___ftdiv
;;		___ftmul
;;		___ftneg
;;		___fttol
;;		___lwtoft
;;		_triangular
;;		i1_PWM_DutyCycle2
;;		i1_TIMER0_Set
;; This function is called by:
;;		Interrupt level 1
;; This function uses a non-reentrant model
;;
psect	text24,local,class=CODE,delta=2,merge=1
	file	"C:\Users\332414\Documents\Fuzzy-IA2\Cdigo em C no MPLAB\main.c"
	line	74
global __ptext24
__ptext24:	;psect for function _ISR
psect	text24
	file	"C:\Users\332414\Documents\Fuzzy-IA2\Cdigo em C no MPLAB\main.c"
	line	74
	global	__size_of_ISR
	__size_of_ISR	equ	__end_of_ISR-_ISR
	
_ISR:	
;incstack = 0
	opt	stack 1
; Regs used in _ISR: [wreg+status,2+status,0+pclath+cstack]
psect	intentry,class=CODE,delta=2
global __pintentry
__pintentry:
global interrupt_function
interrupt_function:
	global saved_w
	saved_w	set	btemp+0
	movwf	saved_w
	swapf	status,w
	bcf	status, 5	;RP0=0, select bank0
	bcf	status, 6	;RP1=0, select bank0
	movwf	(??_ISR+0)
	movf	fsr0,w
	movwf	(??_ISR+1)
	movf	pclath,w
	movwf	(??_ISR+2)
	movf	btemp+1,w
	movwf	(??_ISR+3)
	ljmp	_ISR
psect	text24
	line	77
	
i1l2721:	
;main.c: 77: if (PIR1bits.RCIF)
	btfss	(12),5	;volatile
	goto	u319_21
	goto	u319_20
u319_21:
	goto	i1l98
u319_20:
	line	82
	
i1l2723:	
;main.c: 78: {
;main.c: 82: PIR1bits.RCIF = 0;
	bcf	(12),5	;volatile
	line	83
	
i1l98:	
	line	86
;main.c: 83: }
;main.c: 86: if (PIR1bits.ADIF)
	btfss	(12),6	;volatile
	goto	u320_21
	goto	u320_20
u320_21:
	goto	i1l99
u320_20:
	line	91
	
i1l2725:	
;main.c: 87: {
;main.c: 91: PIR1bits.ADIF = 0;
	bcf	(12),6	;volatile
	line	92
	
i1l99:	
	line	96
;main.c: 92: }
;main.c: 96: if (INTCONbits.T0IF)
	btfss	(11),2	;volatile
	goto	u321_21
	goto	u321_20
u321_21:
	goto	i1l2753
u321_20:
	line	99
	
i1l2727:	
;main.c: 97: {
;main.c: 99: TIMER0_Set(238);
	movlw	(0EEh)
	fcall	i1_TIMER0_Set
	line	102
	
i1l2729:	
;main.c: 102: if (contagens_tm0 < 499)
	movlw	high(01F3h)
	bsf	status, 5	;RP0=1, select bank1
	bcf	status, 6	;RP1=0, select bank1
	subwf	(_contagens_tm0+1)^080h,w
	movlw	low(01F3h)
	skipnz
	subwf	(_contagens_tm0)^080h,w
	skipnc
	goto	u322_21
	goto	u322_20
u322_21:
	goto	i1l2735
u322_20:
	line	105
	
i1l2731:	
;main.c: 103: {
;main.c: 105: contagens_tm0++;
	movlw	low(01h)
	addwf	(_contagens_tm0)^080h,f
	skipnc
	incf	(_contagens_tm0+1)^080h,f
	movlw	high(01h)
	addwf	(_contagens_tm0+1)^080h,f
	line	108
	
i1l2733:	
;main.c: 108: PORTBbits.RB6 = 1;
	bcf	status, 5	;RP0=0, select bank0
	bcf	status, 6	;RP1=0, select bank0
	bsf	(6),6	;volatile
	line	109
;main.c: 109: }
	goto	i1l2751
	line	110
	
i1l101:	
	line	113
	
i1l2735:	
;main.c: 110: else
;main.c: 111: {
;main.c: 113: contagens_tm0 = 0;
	bsf	status, 5	;RP0=1, select bank1
	bcf	status, 6	;RP1=0, select bank1
	clrf	(_contagens_tm0)^080h
	clrf	(_contagens_tm0+1)^080h
	line	116
	
i1l2737:	
;main.c: 116: pulsos = (TMR1H << 8) + TMR1L;
	bcf	status, 5	;RP0=0, select bank0
	bcf	status, 6	;RP1=0, select bank0
	movf	(15),w	;volatile
	bsf	status, 5	;RP0=1, select bank1
	bcf	status, 6	;RP1=0, select bank1
	clrf	(_pulsos+1)^080h
	addwf	(_pulsos+1)^080h
	bcf	status, 5	;RP0=0, select bank0
	bcf	status, 6	;RP1=0, select bank0
	movf	(14),w	;volatile
	bsf	status, 5	;RP0=1, select bank1
	bcf	status, 6	;RP1=0, select bank1
	clrf	(_pulsos)^080h
	addwf	(_pulsos)^080h

	line	117
	
i1l2739:	
;main.c: 117: rpm = ((pulsos / 7.0) * 120);
	movf	(_pulsos+1)^080h,w
	clrf	(___lwtoft@c+1)
	addwf	(___lwtoft@c+1)
	movf	(_pulsos)^080h,w
	clrf	(___lwtoft@c)
	addwf	(___lwtoft@c)

	fcall	___lwtoft
	movf	(0+(?___lwtoft)),w
	bcf	status, 5	;RP0=0, select bank0
	bcf	status, 6	;RP1=0, select bank0
	movwf	(___ftdiv@f1)
	movf	(1+(?___lwtoft)),w
	movwf	(___ftdiv@f1+1)
	movf	(2+(?___lwtoft)),w
	movwf	(___ftdiv@f1+2)
	movlw	0x0
	movwf	(___ftdiv@f2)
	movlw	0xe0
	movwf	(___ftdiv@f2+1)
	movlw	0x40
	movwf	(___ftdiv@f2+2)
	fcall	___ftdiv
	bcf	status, 5	;RP0=0, select bank0
	bcf	status, 6	;RP1=0, select bank0
	movf	(0+(?___ftdiv)),w
	movwf	(___ftmul@f2)
	movf	(1+(?___ftdiv)),w
	movwf	(___ftmul@f2+1)
	movf	(2+(?___ftdiv)),w
	movwf	(___ftmul@f2+2)
	movlw	0x0
	movwf	(___ftmul@f1)
	movlw	0xf0
	movwf	(___ftmul@f1+1)
	movlw	0x42
	movwf	(___ftmul@f1+2)
	fcall	___ftmul
	bcf	status, 5	;RP0=0, select bank0
	bcf	status, 6	;RP1=0, select bank0
	movf	(0+(?___ftmul)),w
	movwf	(___fttol@f1)
	movf	(1+(?___ftmul)),w
	movwf	(___fttol@f1+1)
	movf	(2+(?___ftmul)),w
	movwf	(___fttol@f1+2)
	fcall	___fttol
	bcf	status, 5	;RP0=0, select bank0
	bcf	status, 6	;RP1=0, select bank0
	movf	1+(((0+(?___fttol)))),w
	bsf	status, 5	;RP0=1, select bank1
	bcf	status, 6	;RP1=0, select bank1
	clrf	(_rpm+1)^080h
	addwf	(_rpm+1)^080h
	bcf	status, 5	;RP0=0, select bank0
	bcf	status, 6	;RP1=0, select bank0
	movf	0+(((0+(?___fttol)))),w
	bsf	status, 5	;RP0=1, select bank1
	bcf	status, 6	;RP1=0, select bank1
	clrf	(_rpm)^080h
	addwf	(_rpm)^080h

	line	120
	
i1l2741:	
;main.c: 120: TMR1L = 0x00;
	bcf	status, 5	;RP0=0, select bank0
	bcf	status, 6	;RP1=0, select bank0
	clrf	(14)	;volatile
	line	121
	
i1l2743:	
;main.c: 121: TMR1H = 0x00;
	clrf	(15)	;volatile
	line	123
	
i1l2745:	
;main.c: 123: PWM_DutyCycle2((int)(1023 * (1-triangular((float)rpm, 4900.0f, 5000.0f, 5100.0f))));
	movlw	0x60
	movwf	(triangular@c)
	movlw	0x9f
	movwf	(triangular@c+1)
	movlw	0x45
	movwf	(triangular@c+2)
	movlw	0x40
	movwf	(triangular@b)
	movlw	0x9c
	movwf	(triangular@b+1)
	movlw	0x45
	movwf	(triangular@b+2)
	movlw	0x20
	movwf	(triangular@a)
	movlw	0x99
	movwf	(triangular@a+1)
	movlw	0x45
	movwf	(triangular@a+2)
	bsf	status, 5	;RP0=1, select bank1
	bcf	status, 6	;RP1=0, select bank1
	movf	(_rpm+1)^080h,w
	clrf	(___lwtoft@c+1)
	addwf	(___lwtoft@c+1)
	movf	(_rpm)^080h,w
	clrf	(___lwtoft@c)
	addwf	(___lwtoft@c)

	fcall	___lwtoft
	movf	(0+(?___lwtoft)),w
	bcf	status, 5	;RP0=0, select bank0
	bcf	status, 6	;RP1=0, select bank0
	movwf	(triangular@x)
	movf	(1+(?___lwtoft)),w
	movwf	(triangular@x+1)
	movf	(2+(?___lwtoft)),w
	movwf	(triangular@x+2)
	fcall	_triangular
	bcf	status, 5	;RP0=0, select bank0
	bcf	status, 6	;RP1=0, select bank0
	movf	(0+(?_triangular)),w
	bsf	status, 5	;RP0=1, select bank1
	bcf	status, 6	;RP1=0, select bank1
	movwf	(_ISR$1731)^080h
	bcf	status, 5	;RP0=0, select bank0
	bcf	status, 6	;RP1=0, select bank0
	movf	(1+(?_triangular)),w
	bsf	status, 5	;RP0=1, select bank1
	bcf	status, 6	;RP1=0, select bank1
	movwf	(_ISR$1731+1)^080h
	bcf	status, 5	;RP0=0, select bank0
	bcf	status, 6	;RP1=0, select bank0
	movf	(2+(?_triangular)),w
	bsf	status, 5	;RP0=1, select bank1
	bcf	status, 6	;RP1=0, select bank1
	movwf	(_ISR$1731+2)^080h
	
i1l2747:	
;main.c: 123: PWM_DutyCycle2((int)(1023 * (1-triangular((float)rpm, 4900.0f, 5000.0f, 5100.0f))));
	movf	(_ISR$1731)^080h,w
	bcf	status, 5	;RP0=0, select bank0
	bcf	status, 6	;RP1=0, select bank0
	movwf	(___ftneg@f1)
	bsf	status, 5	;RP0=1, select bank1
	bcf	status, 6	;RP1=0, select bank1
	movf	(_ISR$1731+1)^080h,w
	bcf	status, 5	;RP0=0, select bank0
	bcf	status, 6	;RP1=0, select bank0
	movwf	(___ftneg@f1+1)
	bsf	status, 5	;RP0=1, select bank1
	bcf	status, 6	;RP1=0, select bank1
	movf	(_ISR$1731+2)^080h,w
	bcf	status, 5	;RP0=0, select bank0
	bcf	status, 6	;RP1=0, select bank0
	movwf	(___ftneg@f1+2)
	fcall	___ftneg
	bcf	status, 5	;RP0=0, select bank0
	bcf	status, 6	;RP1=0, select bank0
	movf	(0+(?___ftneg)),w
	movwf	(___ftadd@f2)
	movf	(1+(?___ftneg)),w
	movwf	(___ftadd@f2+1)
	movf	(2+(?___ftneg)),w
	movwf	(___ftadd@f2+2)
	movlw	0x0
	movwf	(___ftadd@f1)
	movlw	0x80
	movwf	(___ftadd@f1+1)
	movlw	0x3f
	movwf	(___ftadd@f1+2)
	fcall	___ftadd
	bcf	status, 5	;RP0=0, select bank0
	bcf	status, 6	;RP1=0, select bank0
	movf	(0+(?___ftadd)),w
	movwf	(___ftmul@f2)
	movf	(1+(?___ftadd)),w
	movwf	(___ftmul@f2+1)
	movf	(2+(?___ftadd)),w
	movwf	(___ftmul@f2+2)
	movlw	0xc0
	movwf	(___ftmul@f1)
	movlw	0x7f
	movwf	(___ftmul@f1+1)
	movlw	0x44
	movwf	(___ftmul@f1+2)
	fcall	___ftmul
	bcf	status, 5	;RP0=0, select bank0
	bcf	status, 6	;RP1=0, select bank0
	movf	(0+(?___ftmul)),w
	movwf	(___fttol@f1)
	movf	(1+(?___ftmul)),w
	movwf	(___fttol@f1+1)
	movf	(2+(?___ftmul)),w
	movwf	(___fttol@f1+2)
	fcall	___fttol
	bcf	status, 5	;RP0=0, select bank0
	bcf	status, 6	;RP1=0, select bank0
	movf	1+(((0+(?___fttol)))),w
	clrf	(i1PWM_DutyCycle2@valor+1)
	addwf	(i1PWM_DutyCycle2@valor+1)
	movf	0+(((0+(?___fttol)))),w
	clrf	(i1PWM_DutyCycle2@valor)
	addwf	(i1PWM_DutyCycle2@valor)

	fcall	i1_PWM_DutyCycle2
	line	126
	
i1l2749:	
;main.c: 126: PORTBbits.RB6 = 0;
	bcf	status, 5	;RP0=0, select bank0
	bcf	status, 6	;RP1=0, select bank0
	bcf	(6),6	;volatile
	goto	i1l2751
	line	127
	
i1l102:	
	line	130
	
i1l2751:	
;main.c: 127: }
;main.c: 130: INTCONbits.T0IF = 0;
	bcf	(11),2	;volatile
	goto	i1l2753
	line	131
	
i1l100:	
	line	134
	
i1l2753:	
;main.c: 131: }
;main.c: 134: if (PIR1bits.TMR1IF)
	btfss	(12),0	;volatile
	goto	u323_21
	goto	u323_20
u323_21:
	goto	i1l103
u323_20:
	line	139
	
i1l2755:	
;main.c: 135: {
;main.c: 139: PIR1bits.TMR1IF = 0;
	bcf	(12),0	;volatile
	line	140
	
i1l103:	
	line	143
;main.c: 140: }
;main.c: 143: if (PIR1bits.SSPIF)
	btfss	(12),3	;volatile
	goto	u324_21
	goto	u324_20
u324_21:
	goto	i1l105
u324_20:
	line	148
	
i1l2757:	
;main.c: 144: {
;main.c: 148: PIR1bits.SSPIF = 0;
	bcf	(12),3	;volatile
	goto	i1l105
	line	149
	
i1l104:	
	line	150
	
i1l105:	
	movf	(??_ISR+3),w
	movwf	btemp+1
	movf	(??_ISR+2),w
	movwf	pclath
	movf	(??_ISR+1),w
	movwf	fsr0
	swapf	(??_ISR+0)^00h,w
	movwf	status
	swapf	saved_w,f
	swapf	saved_w,w
	retfie
	opt stack 0
GLOBAL	__end_of_ISR
	__end_of_ISR:
	signat	_ISR,88
	global	i1_TIMER0_Set

;; *************** function i1_TIMER0_Set *****************
;; Defined at:
;;		line 20 in file "C:\Users\332414\Documents\Fuzzy-IA2\Cdigo em C no MPLAB\timers.c"
;; Parameters:    Size  Location     Type
;;  contagens       1    wreg     unsigned char 
;; Auto vars:     Size  Location     Type
;;  contagens       1    0[COMMON] unsigned char 
;; Return value:  Size  Location     Type
;;		None               void
;; Registers used:
;;		wreg
;; Tracked objects:
;;		On entry : 0/0
;;		On exit  : 0/0
;;		Unchanged: 0/0
;; Data sizes:     COMMON   BANK0   BANK1   BANK3   BANK2
;;      Params:         0       0       0       0       0
;;      Locals:         1       0       0       0       0
;;      Temps:          0       0       0       0       0
;;      Totals:         1       0       0       0       0
;;Total ram usage:        1 bytes
;; Hardware stack levels used:    1
;; This function calls:
;;		Nothing
;; This function is called by:
;;		_ISR
;; This function uses a non-reentrant model
;;
psect	text25,local,class=CODE,delta=2,merge=1
	file	"C:\Users\332414\Documents\Fuzzy-IA2\Cdigo em C no MPLAB\timers.c"
	line	20
global __ptext25
__ptext25:	;psect for function i1_TIMER0_Set
psect	text25
	file	"C:\Users\332414\Documents\Fuzzy-IA2\Cdigo em C no MPLAB\timers.c"
	line	20
	global	__size_ofi1_TIMER0_Set
	__size_ofi1_TIMER0_Set	equ	__end_ofi1_TIMER0_Set-i1_TIMER0_Set
	
i1_TIMER0_Set:	
;incstack = 0
	opt	stack 3
; Regs used in i1_TIMER0_Set: [wreg]
;i1TIMER0_Set@contagens stored from wreg
	movwf	(i1TIMER0_Set@contagens)
	line	22
	
i1l2675:	
;timers.c: 22: TMR0 = contagens;
	movf	(i1TIMER0_Set@contagens),w
	bcf	status, 5	;RP0=0, select bank0
	bcf	status, 6	;RP1=0, select bank0
	movwf	(1)	;volatile
	line	23
	
i1l190:	
	return
	opt stack 0
GLOBAL	__end_ofi1_TIMER0_Set
	__end_ofi1_TIMER0_Set:
	signat	i1_TIMER0_Set,88
	global	i1_PWM_DutyCycle2

;; *************** function i1_PWM_DutyCycle2 *****************
;; Defined at:
;;		line 96 in file "C:\Users\332414\Documents\Fuzzy-IA2\Cdigo em C no MPLAB\pwm.c"
;; Parameters:    Size  Location     Type
;;  valor           2   74[BANK0 ] int 
;; Auto vars:     Size  Location     Type
;;		None
;; Return value:  Size  Location     Type
;;		None               void
;; Registers used:
;;		wreg, status,2, status,0
;; Tracked objects:
;;		On entry : 0/0
;;		On exit  : 0/0
;;		Unchanged: 0/0
;; Data sizes:     COMMON   BANK0   BANK1   BANK3   BANK2
;;      Params:         0       2       0       0       0
;;      Locals:         0       0       0       0       0
;;      Temps:          2       0       0       0       0
;;      Totals:         2       2       0       0       0
;;Total ram usage:        4 bytes
;; Hardware stack levels used:    1
;; This function calls:
;;		Nothing
;; This function is called by:
;;		_ISR
;; This function uses a non-reentrant model
;;
psect	text26,local,class=CODE,delta=2,merge=1
	file	"C:\Users\332414\Documents\Fuzzy-IA2\Cdigo em C no MPLAB\pwm.c"
	line	96
global __ptext26
__ptext26:	;psect for function i1_PWM_DutyCycle2
psect	text26
	file	"C:\Users\332414\Documents\Fuzzy-IA2\Cdigo em C no MPLAB\pwm.c"
	line	96
	global	__size_ofi1_PWM_DutyCycle2
	__size_ofi1_PWM_DutyCycle2	equ	__end_ofi1_PWM_DutyCycle2-i1_PWM_DutyCycle2
	
i1_PWM_DutyCycle2:	
;incstack = 0
	opt	stack 3
; Regs used in i1_PWM_DutyCycle2: [wreg+status,2+status,0]
	line	98
	
i1l2677:	
;pwm.c: 98: CCPR2L = valor >> 2;
	bcf	status, 5	;RP0=0, select bank0
	bcf	status, 6	;RP1=0, select bank0
	movf	(i1PWM_DutyCycle2@valor+1),w
	movwf	(??i1_PWM_DutyCycle2+0)+0+1
	movf	(i1PWM_DutyCycle2@valor),w
	movwf	(??i1_PWM_DutyCycle2+0)+0
	rlf	(??i1_PWM_DutyCycle2+0)+1,w
	rrf	(??i1_PWM_DutyCycle2+0)+1,f
	rrf	(??i1_PWM_DutyCycle2+0)+0,f
	rlf	(??i1_PWM_DutyCycle2+0)+1,w
	rrf	(??i1_PWM_DutyCycle2+0)+1,f
	rrf	(??i1_PWM_DutyCycle2+0)+0,f
	movf	0+(??i1_PWM_DutyCycle2+0)+0,w
	movwf	(27)	;volatile
	line	99
	
i1l2679:	
;pwm.c: 99: CCP2CON = (valor << 4)|0X0C;
	movf	(i1PWM_DutyCycle2@valor),w
	movwf	(??i1_PWM_DutyCycle2+0)+0
	movlw	(04h)-1
u310_25:
	clrc
	rlf	(??i1_PWM_DutyCycle2+0)+0,f
	addlw	-1
	skipz
	goto	u310_25
	clrc
	rlf	(??i1_PWM_DutyCycle2+0)+0,w
	iorlw	0Ch
	movwf	(29)	;volatile
	line	100
	
i1l344:	
	return
	opt stack 0
GLOBAL	__end_ofi1_PWM_DutyCycle2
	__end_ofi1_PWM_DutyCycle2:
	signat	i1_PWM_DutyCycle2,88
	global	_triangular

;; *************** function _triangular *****************
;; Defined at:
;;		line 56 in file "C:\Users\332414\Documents\Fuzzy-IA2\Cdigo em C no MPLAB\main.c"
;; Parameters:    Size  Location     Type
;;  x               3   32[BANK0 ] float 
;;  a               3   35[BANK0 ] float 
;;  b               3   38[BANK0 ] float 
;;  c               3   41[BANK0 ] float 
;; Auto vars:     Size  Location     Type
;;		None
;; Return value:  Size  Location     Type
;;                  3   32[BANK0 ] float 
;; Registers used:
;;		wreg, status,2, status,0, pclath, cstack
;; Tracked objects:
;;		On entry : 0/0
;;		On exit  : 0/0
;;		Unchanged: 0/0
;; Data sizes:     COMMON   BANK0   BANK1   BANK3   BANK2
;;      Params:         0      12       0       0       0
;;      Locals:         0       0       0       0       0
;;      Temps:          0       0       0       0       0
;;      Totals:         0      12       0       0       0
;;Total ram usage:       12 bytes
;; Hardware stack levels used:    1
;; Hardware stack levels required when called:    2
;; This function calls:
;;		___ftadd
;;		___ftdiv
;;		___ftge
;;		___ftneg
;; This function is called by:
;;		_ISR
;; This function uses a non-reentrant model
;;
psect	text27,local,class=CODE,delta=2,merge=1
	file	"C:\Users\332414\Documents\Fuzzy-IA2\Cdigo em C no MPLAB\main.c"
	line	56
global __ptext27
__ptext27:	;psect for function _triangular
psect	text27
	file	"C:\Users\332414\Documents\Fuzzy-IA2\Cdigo em C no MPLAB\main.c"
	line	56
	global	__size_of_triangular
	__size_of_triangular	equ	__end_of_triangular-_triangular
	
_triangular:	
;incstack = 0
	opt	stack 1
; Regs used in _triangular: [wreg+status,2+status,0+pclath+cstack]
	line	57
	
i1l2391:	
;main.c: 57: if (x <= a){
	bcf	status, 5	;RP0=0, select bank0
	bcf	status, 6	;RP1=0, select bank0
	movf	(triangular@a),w
	movwf	(___ftge@ff1)
	movf	(triangular@a+1),w
	movwf	(___ftge@ff1+1)
	movf	(triangular@a+2),w
	movwf	(___ftge@ff1+2)
	movf	(triangular@x),w
	movwf	(___ftge@ff2)
	movf	(triangular@x+1),w
	movwf	(___ftge@ff2+1)
	movf	(triangular@x+2),w
	movwf	(___ftge@ff2+2)
	fcall	___ftge
	btfss	status,0
	goto	u274_21
	goto	u274_20
u274_21:
	goto	i1l2397
u274_20:
	line	58
	
i1l2393:	
;main.c: 58: return 0.0f;
	movlw	0x0
	bcf	status, 5	;RP0=0, select bank0
	bcf	status, 6	;RP1=0, select bank0
	movwf	(?_triangular)
	movlw	0x0
	movwf	(?_triangular+1)
	movlw	0x0
	movwf	(?_triangular+2)
	goto	i1l92
	
i1l2395:	
	goto	i1l92
	line	59
	
i1l91:	
	line	60
	
i1l2397:	
;main.c: 59: }
;main.c: 60: if ((a < x) && (x <= b)){
	bcf	status, 5	;RP0=0, select bank0
	bcf	status, 6	;RP1=0, select bank0
	movf	(triangular@a),w
	movwf	(___ftge@ff1)
	movf	(triangular@a+1),w
	movwf	(___ftge@ff1+1)
	movf	(triangular@a+2),w
	movwf	(___ftge@ff1+2)
	movf	(triangular@x),w
	movwf	(___ftge@ff2)
	movf	(triangular@x+1),w
	movwf	(___ftge@ff2+1)
	movf	(triangular@x+2),w
	movwf	(___ftge@ff2+2)
	fcall	___ftge
	btfsc	status,0
	goto	u275_21
	goto	u275_20
u275_21:
	goto	i1l2405
u275_20:
	
i1l2399:	
	bcf	status, 5	;RP0=0, select bank0
	bcf	status, 6	;RP1=0, select bank0
	movf	(triangular@b),w
	movwf	(___ftge@ff1)
	movf	(triangular@b+1),w
	movwf	(___ftge@ff1+1)
	movf	(triangular@b+2),w
	movwf	(___ftge@ff1+2)
	movf	(triangular@x),w
	movwf	(___ftge@ff2)
	movf	(triangular@x+1),w
	movwf	(___ftge@ff2+1)
	movf	(triangular@x+2),w
	movwf	(___ftge@ff2+2)
	fcall	___ftge
	btfss	status,0
	goto	u276_21
	goto	u276_20
u276_21:
	goto	i1l2405
u276_20:
	line	61
	
i1l2401:	
;main.c: 61: return ((x - a) / (b - a));
	bcf	status, 5	;RP0=0, select bank0
	bcf	status, 6	;RP1=0, select bank0
	movf	(triangular@b),w
	movwf	(___ftadd@f1)
	movf	(triangular@b+1),w
	movwf	(___ftadd@f1+1)
	movf	(triangular@b+2),w
	movwf	(___ftadd@f1+2)
	movf	(triangular@a),w
	movwf	(___ftneg@f1)
	movf	(triangular@a+1),w
	movwf	(___ftneg@f1+1)
	movf	(triangular@a+2),w
	movwf	(___ftneg@f1+2)
	fcall	___ftneg
	bcf	status, 5	;RP0=0, select bank0
	bcf	status, 6	;RP1=0, select bank0
	movf	(0+(?___ftneg)),w
	movwf	(___ftadd@f2)
	movf	(1+(?___ftneg)),w
	movwf	(___ftadd@f2+1)
	movf	(2+(?___ftneg)),w
	movwf	(___ftadd@f2+2)
	fcall	___ftadd
	bcf	status, 5	;RP0=0, select bank0
	bcf	status, 6	;RP1=0, select bank0
	movf	(0+(?___ftadd)),w
	movwf	(___ftdiv@f2)
	movf	(1+(?___ftadd)),w
	movwf	(___ftdiv@f2+1)
	movf	(2+(?___ftadd)),w
	movwf	(___ftdiv@f2+2)
	movf	(triangular@x),w
	movwf	(___ftadd@f1)
	movf	(triangular@x+1),w
	movwf	(___ftadd@f1+1)
	movf	(triangular@x+2),w
	movwf	(___ftadd@f1+2)
	movf	(triangular@a),w
	movwf	(___ftneg@f1)
	movf	(triangular@a+1),w
	movwf	(___ftneg@f1+1)
	movf	(triangular@a+2),w
	movwf	(___ftneg@f1+2)
	fcall	___ftneg
	bcf	status, 5	;RP0=0, select bank0
	bcf	status, 6	;RP1=0, select bank0
	movf	(0+(?___ftneg)),w
	movwf	(___ftadd@f2)
	movf	(1+(?___ftneg)),w
	movwf	(___ftadd@f2+1)
	movf	(2+(?___ftneg)),w
	movwf	(___ftadd@f2+2)
	fcall	___ftadd
	bcf	status, 5	;RP0=0, select bank0
	bcf	status, 6	;RP1=0, select bank0
	movf	(0+(?___ftadd)),w
	movwf	(___ftdiv@f1)
	movf	(1+(?___ftadd)),w
	movwf	(___ftdiv@f1+1)
	movf	(2+(?___ftadd)),w
	movwf	(___ftdiv@f1+2)
	fcall	___ftdiv
	bcf	status, 5	;RP0=0, select bank0
	bcf	status, 6	;RP1=0, select bank0
	movf	(0+(?___ftdiv)),w
	movwf	(?_triangular)
	movf	(1+(?___ftdiv)),w
	movwf	(?_triangular+1)
	movf	(2+(?___ftdiv)),w
	movwf	(?_triangular+2)
	goto	i1l92
	
i1l2403:	
	goto	i1l92
	line	62
	
i1l93:	
	line	63
	
i1l2405:	
;main.c: 62: }
;main.c: 63: if ((b < x) && (x <= c)){
	bcf	status, 5	;RP0=0, select bank0
	bcf	status, 6	;RP1=0, select bank0
	movf	(triangular@b),w
	movwf	(___ftge@ff1)
	movf	(triangular@b+1),w
	movwf	(___ftge@ff1+1)
	movf	(triangular@b+2),w
	movwf	(___ftge@ff1+2)
	movf	(triangular@x),w
	movwf	(___ftge@ff2)
	movf	(triangular@x+1),w
	movwf	(___ftge@ff2+1)
	movf	(triangular@x+2),w
	movwf	(___ftge@ff2+2)
	fcall	___ftge
	btfsc	status,0
	goto	u277_21
	goto	u277_20
u277_21:
	goto	i1l2413
u277_20:
	
i1l2407:	
	bcf	status, 5	;RP0=0, select bank0
	bcf	status, 6	;RP1=0, select bank0
	movf	(triangular@c),w
	movwf	(___ftge@ff1)
	movf	(triangular@c+1),w
	movwf	(___ftge@ff1+1)
	movf	(triangular@c+2),w
	movwf	(___ftge@ff1+2)
	movf	(triangular@x),w
	movwf	(___ftge@ff2)
	movf	(triangular@x+1),w
	movwf	(___ftge@ff2+1)
	movf	(triangular@x+2),w
	movwf	(___ftge@ff2+2)
	fcall	___ftge
	btfss	status,0
	goto	u278_21
	goto	u278_20
u278_21:
	goto	i1l2413
u278_20:
	line	64
	
i1l2409:	
;main.c: 64: return ((x - c) / (b - c));
	bcf	status, 5	;RP0=0, select bank0
	bcf	status, 6	;RP1=0, select bank0
	movf	(triangular@b),w
	movwf	(___ftadd@f1)
	movf	(triangular@b+1),w
	movwf	(___ftadd@f1+1)
	movf	(triangular@b+2),w
	movwf	(___ftadd@f1+2)
	movf	(triangular@c),w
	movwf	(___ftneg@f1)
	movf	(triangular@c+1),w
	movwf	(___ftneg@f1+1)
	movf	(triangular@c+2),w
	movwf	(___ftneg@f1+2)
	fcall	___ftneg
	bcf	status, 5	;RP0=0, select bank0
	bcf	status, 6	;RP1=0, select bank0
	movf	(0+(?___ftneg)),w
	movwf	(___ftadd@f2)
	movf	(1+(?___ftneg)),w
	movwf	(___ftadd@f2+1)
	movf	(2+(?___ftneg)),w
	movwf	(___ftadd@f2+2)
	fcall	___ftadd
	bcf	status, 5	;RP0=0, select bank0
	bcf	status, 6	;RP1=0, select bank0
	movf	(0+(?___ftadd)),w
	movwf	(___ftdiv@f2)
	movf	(1+(?___ftadd)),w
	movwf	(___ftdiv@f2+1)
	movf	(2+(?___ftadd)),w
	movwf	(___ftdiv@f2+2)
	movf	(triangular@x),w
	movwf	(___ftadd@f1)
	movf	(triangular@x+1),w
	movwf	(___ftadd@f1+1)
	movf	(triangular@x+2),w
	movwf	(___ftadd@f1+2)
	movf	(triangular@c),w
	movwf	(___ftneg@f1)
	movf	(triangular@c+1),w
	movwf	(___ftneg@f1+1)
	movf	(triangular@c+2),w
	movwf	(___ftneg@f1+2)
	fcall	___ftneg
	bcf	status, 5	;RP0=0, select bank0
	bcf	status, 6	;RP1=0, select bank0
	movf	(0+(?___ftneg)),w
	movwf	(___ftadd@f2)
	movf	(1+(?___ftneg)),w
	movwf	(___ftadd@f2+1)
	movf	(2+(?___ftneg)),w
	movwf	(___ftadd@f2+2)
	fcall	___ftadd
	bcf	status, 5	;RP0=0, select bank0
	bcf	status, 6	;RP1=0, select bank0
	movf	(0+(?___ftadd)),w
	movwf	(___ftdiv@f1)
	movf	(1+(?___ftadd)),w
	movwf	(___ftdiv@f1+1)
	movf	(2+(?___ftadd)),w
	movwf	(___ftdiv@f1+2)
	fcall	___ftdiv
	bcf	status, 5	;RP0=0, select bank0
	bcf	status, 6	;RP1=0, select bank0
	movf	(0+(?___ftdiv)),w
	movwf	(?_triangular)
	movf	(1+(?___ftdiv)),w
	movwf	(?_triangular+1)
	movf	(2+(?___ftdiv)),w
	movwf	(?_triangular+2)
	goto	i1l92
	
i1l2411:	
	goto	i1l92
	line	65
	
i1l94:	
	line	66
	
i1l2413:	
;main.c: 65: }
;main.c: 66: if (x > c){
	bcf	status, 5	;RP0=0, select bank0
	bcf	status, 6	;RP1=0, select bank0
	movf	(triangular@c),w
	movwf	(___ftge@ff1)
	movf	(triangular@c+1),w
	movwf	(___ftge@ff1+1)
	movf	(triangular@c+2),w
	movwf	(___ftge@ff1+2)
	movf	(triangular@x),w
	movwf	(___ftge@ff2)
	movf	(triangular@x+1),w
	movwf	(___ftge@ff2+1)
	movf	(triangular@x+2),w
	movwf	(___ftge@ff2+2)
	fcall	___ftge
	btfsc	status,0
	goto	u279_21
	goto	u279_20
u279_21:
	goto	i1l92
u279_20:
	line	67
	
i1l2415:	
;main.c: 67: return 0.0f;
	movlw	0x0
	bcf	status, 5	;RP0=0, select bank0
	bcf	status, 6	;RP1=0, select bank0
	movwf	(?_triangular)
	movlw	0x0
	movwf	(?_triangular+1)
	movlw	0x0
	movwf	(?_triangular+2)
	goto	i1l92
	
i1l2417:	
	goto	i1l92
	line	68
	
i1l95:	
	line	71
	
i1l92:	
	return
	opt stack 0
GLOBAL	__end_of_triangular
	__end_of_triangular:
	signat	_triangular,16507
	global	___ftneg

;; *************** function ___ftneg *****************
;; Defined at:
;;		line 15 in file "C:\Program Files (x86)\Microchip\xc8\v1.33\sources\common\ftneg.c"
;; Parameters:    Size  Location     Type
;;  f1              3    0[BANK0 ] float 
;; Auto vars:     Size  Location     Type
;;		None
;; Return value:  Size  Location     Type
;;                  3    0[BANK0 ] float 
;; Registers used:
;;		wreg
;; Tracked objects:
;;		On entry : 0/0
;;		On exit  : 0/0
;;		Unchanged: 0/0
;; Data sizes:     COMMON   BANK0   BANK1   BANK3   BANK2
;;      Params:         0       3       0       0       0
;;      Locals:         0       0       0       0       0
;;      Temps:          0       0       0       0       0
;;      Totals:         0       3       0       0       0
;;Total ram usage:        3 bytes
;; Hardware stack levels used:    1
;; This function calls:
;;		Nothing
;; This function is called by:
;;		_triangular
;;		_ISR
;;		_trapezoidal
;; This function uses a non-reentrant model
;;
psect	text28,local,class=CODE,delta=2,merge=1
	file	"C:\Program Files (x86)\Microchip\xc8\v1.33\sources\common\ftneg.c"
	line	15
global __ptext28
__ptext28:	;psect for function ___ftneg
psect	text28
	file	"C:\Program Files (x86)\Microchip\xc8\v1.33\sources\common\ftneg.c"
	line	15
	global	__size_of___ftneg
	__size_of___ftneg	equ	__end_of___ftneg-___ftneg
	
___ftneg:	
;incstack = 0
	opt	stack 2
; Regs used in ___ftneg: [wreg]
	line	17
	
i1l2383:	
	bcf	status, 5	;RP0=0, select bank0
	bcf	status, 6	;RP1=0, select bank0
	movf	(___ftneg@f1+2),w
	iorwf	(___ftneg@f1+1),w
	iorwf	(___ftneg@f1),w
	skipnz
	goto	u273_21
	goto	u273_20
u273_21:
	goto	i1l2387
u273_20:
	line	18
	
i1l2385:	
	movlw	080h
	xorwf	(___ftneg@f1+2),f
	goto	i1l2387
	
i1l746:	
	line	19
	
i1l2387:	
	goto	i1l747
	
i1l2389:	
	line	20
	
i1l747:	
	return
	opt stack 0
GLOBAL	__end_of___ftneg
	__end_of___ftneg:
	signat	___ftneg,4219
	global	___ftge

;; *************** function ___ftge *****************
;; Defined at:
;;		line 4 in file "C:\Program Files (x86)\Microchip\xc8\v1.33\sources\common\ftge.c"
;; Parameters:    Size  Location     Type
;;  ff1             3    0[COMMON] float 
;;  ff2             3    3[COMMON] float 
;; Auto vars:     Size  Location     Type
;;		None
;; Return value:  Size  Location     Type
;;		None               void
;; Registers used:
;;		wreg, status,2, status,0
;; Tracked objects:
;;		On entry : 0/0
;;		On exit  : 0/0
;;		Unchanged: 0/0
;; Data sizes:     COMMON   BANK0   BANK1   BANK3   BANK2
;;      Params:         6       0       0       0       0
;;      Locals:         0       0       0       0       0
;;      Temps:          6       0       0       0       0
;;      Totals:        12       0       0       0       0
;;Total ram usage:       12 bytes
;; Hardware stack levels used:    1
;; This function calls:
;;		Nothing
;; This function is called by:
;;		_triangular
;;		_trapezoidal
;; This function uses a non-reentrant model
;;
psect	text29,local,class=CODE,delta=2,merge=1
	file	"C:\Program Files (x86)\Microchip\xc8\v1.33\sources\common\ftge.c"
	line	4
global __ptext29
__ptext29:	;psect for function ___ftge
psect	text29
	file	"C:\Program Files (x86)\Microchip\xc8\v1.33\sources\common\ftge.c"
	line	4
	global	__size_of___ftge
	__size_of___ftge	equ	__end_of___ftge-___ftge
	
___ftge:	
;incstack = 0
	opt	stack 2
; Regs used in ___ftge: [wreg+status,2+status,0]
	line	6
	
i1l2363:	
	btfss	(___ftge@ff1+2),(23)&7
	goto	u268_21
	goto	u268_20
u268_21:
	goto	i1l2367
u268_20:
	line	7
	
i1l2365:	
	movlw	low(0800000h)
	movwf	((??___ftge+0)+0)
	movlw	high(0800000h)
	movwf	((??___ftge+0)+0+1)
	movlw	low highword(0800000h)
	movwf	((??___ftge+0)+0+2)
	comf	(___ftge@ff1),w
	movwf	(??___ftge+3)+0
	comf	(___ftge@ff1+1),w
	movwf	((??___ftge+3)+0+1)
	comf	(___ftge@ff1+2),w
	movwf	((??___ftge+3)+0+2)
	incf	(??___ftge+3)+0,f
	skipnz
	incf	((??___ftge+3)+0+1),f
	skipnz
	incf	((??___ftge+3)+0+2),f
	movf	0+(??___ftge+3)+0,w
	addwf	(??___ftge+0)+0,f
	movf	1+(??___ftge+3)+0,w
	skipnc
	incfsz	1+(??___ftge+3)+0,w
	goto	u269_21
	goto	u269_22
u269_21:
	addwf	(??___ftge+0)+1,f
	
u269_22:
	movf	2+(??___ftge+3)+0,w
	skipnc
	incfsz	2+(??___ftge+3)+0,w
	goto	u269_23
	goto	u269_24
u269_23:
	addwf	(??___ftge+0)+2,f
	
u269_24:
	movf	0+(??___ftge+0)+0,w
	movwf	(___ftge@ff1)
	movf	1+(??___ftge+0)+0,w
	movwf	(___ftge@ff1+1)
	movf	2+(??___ftge+0)+0,w
	movwf	(___ftge@ff1+2)
	goto	i1l2367
	
i1l728:	
	line	8
	
i1l2367:	
	btfss	(___ftge@ff2+2),(23)&7
	goto	u270_21
	goto	u270_20
u270_21:
	goto	i1l2371
u270_20:
	line	9
	
i1l2369:	
	movlw	low(0800000h)
	movwf	((??___ftge+0)+0)
	movlw	high(0800000h)
	movwf	((??___ftge+0)+0+1)
	movlw	low highword(0800000h)
	movwf	((??___ftge+0)+0+2)
	comf	(___ftge@ff2),w
	movwf	(??___ftge+3)+0
	comf	(___ftge@ff2+1),w
	movwf	((??___ftge+3)+0+1)
	comf	(___ftge@ff2+2),w
	movwf	((??___ftge+3)+0+2)
	incf	(??___ftge+3)+0,f
	skipnz
	incf	((??___ftge+3)+0+1),f
	skipnz
	incf	((??___ftge+3)+0+2),f
	movf	0+(??___ftge+3)+0,w
	addwf	(??___ftge+0)+0,f
	movf	1+(??___ftge+3)+0,w
	skipnc
	incfsz	1+(??___ftge+3)+0,w
	goto	u271_21
	goto	u271_22
u271_21:
	addwf	(??___ftge+0)+1,f
	
u271_22:
	movf	2+(??___ftge+3)+0,w
	skipnc
	incfsz	2+(??___ftge+3)+0,w
	goto	u271_23
	goto	u271_24
u271_23:
	addwf	(??___ftge+0)+2,f
	
u271_24:
	movf	0+(??___ftge+0)+0,w
	movwf	(___ftge@ff2)
	movf	1+(??___ftge+0)+0,w
	movwf	(___ftge@ff2+1)
	movf	2+(??___ftge+0)+0,w
	movwf	(___ftge@ff2+2)
	goto	i1l2371
	
i1l729:	
	line	10
	
i1l2371:	
	movlw	080h
	xorwf	(___ftge@ff1+2),f
	line	11
	
i1l2373:	
	movlw	080h
	xorwf	(___ftge@ff2+2),f
	line	12
	
i1l2375:	
	movf	(___ftge@ff2+2),w
	subwf	(___ftge@ff1+2),w
	skipz
	goto	u272_25
	movf	(___ftge@ff2+1),w
	subwf	(___ftge@ff1+1),w
	skipz
	goto	u272_25
	movf	(___ftge@ff2),w
	subwf	(___ftge@ff1),w
u272_25:
	skipnc
	goto	u272_21
	goto	u272_20
u272_21:
	goto	i1l2379
u272_20:
	
i1l2377:	
	clrc
	
	goto	i1l730
	
i1l1951:	
	
i1l2379:	
	setc
	
	goto	i1l730
	
i1l1953:	
	goto	i1l730
	
i1l2381:	
	line	13
	
i1l730:	
	return
	opt stack 0
GLOBAL	__end_of___ftge
	__end_of___ftge:
	signat	___ftge,8312
	global	___ftdiv

;; *************** function ___ftdiv *****************
;; Defined at:
;;		line 49 in file "C:\Program Files (x86)\Microchip\xc8\v1.33\sources\pic\ftdiv.c"
;; Parameters:    Size  Location     Type
;;  f2              3   16[BANK0 ] float 
;;  f1              3   19[BANK0 ] float 
;; Auto vars:     Size  Location     Type
;;  f3              3   27[BANK0 ] float 
;;  sign            1   31[BANK0 ] unsigned char 
;;  exp             1   30[BANK0 ] unsigned char 
;;  cntr            1   26[BANK0 ] unsigned char 
;; Return value:  Size  Location     Type
;;                  3   16[BANK0 ] float 
;; Registers used:
;;		wreg, status,2, status,0, pclath, cstack
;; Tracked objects:
;;		On entry : 0/0
;;		On exit  : 0/0
;;		Unchanged: 0/0
;; Data sizes:     COMMON   BANK0   BANK1   BANK3   BANK2
;;      Params:         0       6       0       0       0
;;      Locals:         0       6       0       0       0
;;      Temps:          0       4       0       0       0
;;      Totals:         0      16       0       0       0
;;Total ram usage:       16 bytes
;; Hardware stack levels used:    1
;; Hardware stack levels required when called:    1
;; This function calls:
;;		___ftpack
;; This function is called by:
;;		_triangular
;;		_ISR
;;		_trapezoidal
;; This function uses a non-reentrant model
;;
psect	text30,local,class=CODE,delta=2,merge=1
	file	"C:\Program Files (x86)\Microchip\xc8\v1.33\sources\pic\ftdiv.c"
	line	49
global __ptext30
__ptext30:	;psect for function ___ftdiv
psect	text30
	file	"C:\Program Files (x86)\Microchip\xc8\v1.33\sources\pic\ftdiv.c"
	line	49
	global	__size_of___ftdiv
	__size_of___ftdiv	equ	__end_of___ftdiv-___ftdiv
	
___ftdiv:	
;incstack = 0
	opt	stack 1
; Regs used in ___ftdiv: [wreg+status,2+status,0+pclath+cstack]
	line	55
	
i1l2321:	
	bcf	status, 5	;RP0=0, select bank0
	bcf	status, 6	;RP1=0, select bank0
	movf	(___ftdiv@f1),w
	movwf	((??___ftdiv+0)+0)
	movf	(___ftdiv@f1+1),w
	movwf	((??___ftdiv+0)+0+1)
	movf	(___ftdiv@f1+2),w
	movwf	((??___ftdiv+0)+0+2)
	clrc
	rlf	(??___ftdiv+0)+1,w
	rlf	(??___ftdiv+0)+2,w
	movwf	(??___ftdiv+3)+0
	movf	(??___ftdiv+3)+0,w
	movwf	(___ftdiv@exp)
	movf	((___ftdiv@exp)),f
	skipz
	goto	u260_21
	goto	u260_20
u260_21:
	goto	i1l2327
u260_20:
	line	56
	
i1l2323:	
	movlw	0x0
	movwf	(?___ftdiv)
	movlw	0x0
	movwf	(?___ftdiv+1)
	movlw	0x0
	movwf	(?___ftdiv+2)
	goto	i1l721
	
i1l2325:	
	goto	i1l721
	
i1l720:	
	line	57
	
i1l2327:	
	movf	(___ftdiv@f2),w
	movwf	((??___ftdiv+0)+0)
	movf	(___ftdiv@f2+1),w
	movwf	((??___ftdiv+0)+0+1)
	movf	(___ftdiv@f2+2),w
	movwf	((??___ftdiv+0)+0+2)
	clrc
	rlf	(??___ftdiv+0)+1,w
	rlf	(??___ftdiv+0)+2,w
	movwf	(??___ftdiv+3)+0
	movf	(??___ftdiv+3)+0,w
	movwf	(___ftdiv@sign)
	movf	((___ftdiv@sign)),f
	skipz
	goto	u261_21
	goto	u261_20
u261_21:
	goto	i1l2333
u261_20:
	line	58
	
i1l2329:	
	movlw	0x0
	movwf	(?___ftdiv)
	movlw	0x0
	movwf	(?___ftdiv+1)
	movlw	0x0
	movwf	(?___ftdiv+2)
	goto	i1l721
	
i1l2331:	
	goto	i1l721
	
i1l722:	
	line	59
	
i1l2333:	
	movlw	0
	movwf	(___ftdiv@f3)
	movlw	0
	movwf	(___ftdiv@f3+1)
	movlw	0
	movwf	(___ftdiv@f3+2)
	line	60
	
i1l2335:	
	movlw	(089h)
	addwf	(___ftdiv@sign),w
	movwf	(??___ftdiv+0)+0
	movf	0+(??___ftdiv+0)+0,w
	subwf	(___ftdiv@exp),f
	line	61
	
i1l2337:	
	movf	(___ftdiv@f1),w
	movwf	((??___ftdiv+0)+0)
	movf	(___ftdiv@f1+1),w
	movwf	((??___ftdiv+0)+0+1)
	movf	(___ftdiv@f1+2),w
	movwf	((??___ftdiv+0)+0+2)
	movlw	010h
u262_25:
	clrc
	rrf	(??___ftdiv+0)+2,f
	rrf	(??___ftdiv+0)+1,f
	rrf	(??___ftdiv+0)+0,f
u262_20:
	addlw	-1
	skipz
	goto	u262_25
	movf	0+(??___ftdiv+0)+0,w
	movwf	(??___ftdiv+3)+0
	movf	(??___ftdiv+3)+0,w
	movwf	(___ftdiv@sign)
	line	62
	
i1l2339:	
	movf	(___ftdiv@f2),w
	movwf	((??___ftdiv+0)+0)
	movf	(___ftdiv@f2+1),w
	movwf	((??___ftdiv+0)+0+1)
	movf	(___ftdiv@f2+2),w
	movwf	((??___ftdiv+0)+0+2)
	movlw	010h
u263_25:
	clrc
	rrf	(??___ftdiv+0)+2,f
	rrf	(??___ftdiv+0)+1,f
	rrf	(??___ftdiv+0)+0,f
u263_20:
	addlw	-1
	skipz
	goto	u263_25
	movf	0+(??___ftdiv+0)+0,w
	movwf	(??___ftdiv+3)+0
	movf	(??___ftdiv+3)+0,w
	xorwf	(___ftdiv@sign),f
	line	63
	
i1l2341:	
	movlw	(080h)
	movwf	(??___ftdiv+0)+0
	movf	(??___ftdiv+0)+0,w
	andwf	(___ftdiv@sign),f
	line	64
	
i1l2343:	
	bsf	(___ftdiv@f1)+(15/8),(15)&7
	line	65
	movlw	0FFh
	andwf	(___ftdiv@f1),f
	movlw	0FFh
	andwf	(___ftdiv@f1+1),f
	movlw	0
	andwf	(___ftdiv@f1+2),f
	line	66
	
i1l2345:	
	bsf	(___ftdiv@f2)+(15/8),(15)&7
	line	67
	movlw	0FFh
	andwf	(___ftdiv@f2),f
	movlw	0FFh
	andwf	(___ftdiv@f2+1),f
	movlw	0
	andwf	(___ftdiv@f2+2),f
	line	68
	movlw	(018h)
	movwf	(??___ftdiv+0)+0
	movf	(??___ftdiv+0)+0,w
	movwf	(___ftdiv@cntr)
	goto	i1l2347
	line	69
	
i1l723:	
	line	70
	
i1l2347:	
	movlw	01h
u264_25:
	clrc
	rlf	(___ftdiv@f3),f
	rlf	(___ftdiv@f3+1),f
	rlf	(___ftdiv@f3+2),f
	addlw	-1
	skipz
	goto	u264_25
	line	71
	
i1l2349:	
	movf	(___ftdiv@f2+2),w
	subwf	(___ftdiv@f1+2),w
	skipz
	goto	u265_25
	movf	(___ftdiv@f2+1),w
	subwf	(___ftdiv@f1+1),w
	skipz
	goto	u265_25
	movf	(___ftdiv@f2),w
	subwf	(___ftdiv@f1),w
u265_25:
	skipc
	goto	u265_21
	goto	u265_20
u265_21:
	goto	i1l2355
u265_20:
	line	72
	
i1l2351:	
	movf	(___ftdiv@f2),w
	subwf	(___ftdiv@f1),f
	movf	(___ftdiv@f2+1),w
	skipc
	incfsz	(___ftdiv@f2+1),w
	subwf	(___ftdiv@f1+1),f
	movf	(___ftdiv@f2+2),w
	skipc
	incf	(___ftdiv@f2+2),w
	subwf	(___ftdiv@f1+2),f
	line	73
	
i1l2353:	
	bsf	(___ftdiv@f3)+(0/8),(0)&7
	goto	i1l2355
	line	74
	
i1l724:	
	line	75
	
i1l2355:	
	movlw	01h
u266_25:
	clrc
	rlf	(___ftdiv@f1),f
	rlf	(___ftdiv@f1+1),f
	rlf	(___ftdiv@f1+2),f
	addlw	-1
	skipz
	goto	u266_25
	line	76
	
i1l2357:	
	movlw	low(01h)
	subwf	(___ftdiv@cntr),f
	btfss	status,2
	goto	u267_21
	goto	u267_20
u267_21:
	goto	i1l2347
u267_20:
	goto	i1l2359
	
i1l725:	
	line	77
	
i1l2359:	
	movf	(___ftdiv@f3),w
	movwf	(___ftpack@arg)
	movf	(___ftdiv@f3+1),w
	movwf	(___ftpack@arg+1)
	movf	(___ftdiv@f3+2),w
	movwf	(___ftpack@arg+2)
	movf	(___ftdiv@exp),w
	movwf	(??___ftdiv+0)+0
	movf	(??___ftdiv+0)+0,w
	movwf	(___ftpack@exp)
	movf	(___ftdiv@sign),w
	movwf	(??___ftdiv+1)+0
	movf	(??___ftdiv+1)+0,w
	movwf	(___ftpack@sign)
	fcall	___ftpack
	movf	(0+(?___ftpack)),w
	bcf	status, 5	;RP0=0, select bank0
	bcf	status, 6	;RP1=0, select bank0
	movwf	(?___ftdiv)
	movf	(1+(?___ftpack)),w
	movwf	(?___ftdiv+1)
	movf	(2+(?___ftpack)),w
	movwf	(?___ftdiv+2)
	goto	i1l721
	
i1l2361:	
	line	78
	
i1l721:	
	return
	opt stack 0
GLOBAL	__end_of___ftdiv
	__end_of___ftdiv:
	signat	___ftdiv,8315
	global	___ftadd

;; *************** function ___ftadd *****************
;; Defined at:
;;		line 86 in file "C:\Program Files (x86)\Microchip\xc8\v1.33\sources\common\ftadd.c"
;; Parameters:    Size  Location     Type
;;  f1              3    3[BANK0 ] float 
;;  f2              3    6[BANK0 ] float 
;; Auto vars:     Size  Location     Type
;;  exp1            1   15[BANK0 ] unsigned char 
;;  exp2            1   14[BANK0 ] unsigned char 
;;  sign            1   13[BANK0 ] unsigned char 
;; Return value:  Size  Location     Type
;;                  3    3[BANK0 ] float 
;; Registers used:
;;		wreg, status,2, status,0, pclath, cstack
;; Tracked objects:
;;		On entry : 0/0
;;		On exit  : 0/0
;;		Unchanged: 0/0
;; Data sizes:     COMMON   BANK0   BANK1   BANK3   BANK2
;;      Params:         0       6       0       0       0
;;      Locals:         0       3       0       0       0
;;      Temps:          0       4       0       0       0
;;      Totals:         0      13       0       0       0
;;Total ram usage:       13 bytes
;; Hardware stack levels used:    1
;; Hardware stack levels required when called:    1
;; This function calls:
;;		___ftpack
;; This function is called by:
;;		_triangular
;;		_ISR
;;		_trapezoidal
;; This function uses a non-reentrant model
;;
psect	text31,local,class=CODE,delta=2,merge=1
	file	"C:\Program Files (x86)\Microchip\xc8\v1.33\sources\common\ftadd.c"
	line	86
global __ptext31
__ptext31:	;psect for function ___ftadd
psect	text31
	file	"C:\Program Files (x86)\Microchip\xc8\v1.33\sources\common\ftadd.c"
	line	86
	global	__size_of___ftadd
	__size_of___ftadd	equ	__end_of___ftadd-___ftadd
	
___ftadd:	
;incstack = 0
	opt	stack 1
; Regs used in ___ftadd: [wreg+status,2+status,0+pclath+cstack]
	line	90
	
i1l2249:	
	bcf	status, 5	;RP0=0, select bank0
	bcf	status, 6	;RP1=0, select bank0
	movf	(___ftadd@f1),w
	movwf	((??___ftadd+0)+0)
	movf	(___ftadd@f1+1),w
	movwf	((??___ftadd+0)+0+1)
	movf	(___ftadd@f1+2),w
	movwf	((??___ftadd+0)+0+2)
	clrc
	rlf	(??___ftadd+0)+1,w
	rlf	(??___ftadd+0)+2,w
	movwf	(??___ftadd+3)+0
	movf	(??___ftadd+3)+0,w
	movwf	(___ftadd@exp1)
	line	91
	movf	(___ftadd@f2),w
	movwf	((??___ftadd+0)+0)
	movf	(___ftadd@f2+1),w
	movwf	((??___ftadd+0)+0+1)
	movf	(___ftadd@f2+2),w
	movwf	((??___ftadd+0)+0+2)
	clrc
	rlf	(??___ftadd+0)+1,w
	rlf	(??___ftadd+0)+2,w
	movwf	(??___ftadd+3)+0
	movf	(??___ftadd+3)+0,w
	movwf	(___ftadd@exp2)
	line	92
	
i1l2251:	
	movf	(___ftadd@exp1),w
	skipz
	goto	u236_20
	goto	i1l2257
u236_20:
	
i1l2253:	
	movf	(___ftadd@exp2),w
	subwf	(___ftadd@exp1),w
	skipnc
	goto	u237_21
	goto	u237_20
u237_21:
	goto	i1l2261
u237_20:
	
i1l2255:	
	decf	(___ftadd@exp1),w
	xorlw	0ffh
	addwf	(___ftadd@exp2),w
	movwf	(??___ftadd+0)+0
	movlw	(019h)
	subwf	0+(??___ftadd+0)+0,w
	skipc
	goto	u238_21
	goto	u238_20
u238_21:
	goto	i1l2261
u238_20:
	goto	i1l2257
	
i1l689:	
	line	93
	
i1l2257:	
	movf	(___ftadd@f2),w
	movwf	(?___ftadd)
	movf	(___ftadd@f2+1),w
	movwf	(?___ftadd+1)
	movf	(___ftadd@f2+2),w
	movwf	(?___ftadd+2)
	goto	i1l690
	
i1l2259:	
	goto	i1l690
	
i1l687:	
	line	94
	
i1l2261:	
	movf	(___ftadd@exp2),w
	skipz
	goto	u239_20
	goto	i1l693
u239_20:
	
i1l2263:	
	movf	(___ftadd@exp1),w
	subwf	(___ftadd@exp2),w
	skipnc
	goto	u240_21
	goto	u240_20
u240_21:
	goto	i1l2267
u240_20:
	
i1l2265:	
	decf	(___ftadd@exp2),w
	xorlw	0ffh
	addwf	(___ftadd@exp1),w
	movwf	(??___ftadd+0)+0
	movlw	(019h)
	subwf	0+(??___ftadd+0)+0,w
	skipc
	goto	u241_21
	goto	u241_20
u241_21:
	goto	i1l2267
u241_20:
	
i1l693:	
	line	95
	goto	i1l690
	
i1l691:	
	line	96
	
i1l2267:	
	movlw	(06h)
	movwf	(??___ftadd+0)+0
	movf	(??___ftadd+0)+0,w
	movwf	(___ftadd@sign)
	line	97
	
i1l2269:	
	btfss	(___ftadd@f1+2),(23)&7
	goto	u242_21
	goto	u242_20
u242_21:
	goto	i1l694
u242_20:
	line	98
	
i1l2271:	
	bsf	(___ftadd@sign)+(7/8),(7)&7
	
i1l694:	
	line	99
	btfss	(___ftadd@f2+2),(23)&7
	goto	u243_21
	goto	u243_20
u243_21:
	goto	i1l695
u243_20:
	line	100
	
i1l2273:	
	bsf	(___ftadd@sign)+(6/8),(6)&7
	
i1l695:	
	line	101
	bsf	(___ftadd@f1)+(15/8),(15)&7
	line	102
	
i1l2275:	
	movlw	0FFh
	andwf	(___ftadd@f1),f
	movlw	0FFh
	andwf	(___ftadd@f1+1),f
	movlw	0
	andwf	(___ftadd@f1+2),f
	line	103
	
i1l2277:	
	bsf	(___ftadd@f2)+(15/8),(15)&7
	line	104
	movlw	0FFh
	andwf	(___ftadd@f2),f
	movlw	0FFh
	andwf	(___ftadd@f2+1),f
	movlw	0
	andwf	(___ftadd@f2+2),f
	line	106
	movf	(___ftadd@exp2),w
	subwf	(___ftadd@exp1),w
	skipnc
	goto	u244_21
	goto	u244_20
u244_21:
	goto	i1l2289
u244_20:
	goto	i1l2279
	line	109
	
i1l697:	
	line	110
	
i1l2279:	
	movlw	01h
u245_25:
	clrc
	rlf	(___ftadd@f2),f
	rlf	(___ftadd@f2+1),f
	rlf	(___ftadd@f2+2),f
	addlw	-1
	skipz
	goto	u245_25
	line	111
	movlw	low(01h)
	subwf	(___ftadd@exp2),f
	line	112
	
i1l2281:	
	movf	(___ftadd@exp2),w
	xorwf	(___ftadd@exp1),w
	skipnz
	goto	u246_21
	goto	u246_20
u246_21:
	goto	i1l2287
u246_20:
	
i1l2283:	
	movlw	low(01h)
	subwf	(___ftadd@sign),f
	movf	((___ftadd@sign)),w
	andlw	07h
	btfss	status,2
	goto	u247_21
	goto	u247_20
u247_21:
	goto	i1l2279
u247_20:
	goto	i1l2287
	
i1l699:	
	goto	i1l2287
	
i1l700:	
	line	113
	goto	i1l2287
	
i1l702:	
	line	114
	
i1l2285:	
	movlw	01h
u248_25:
	clrc
	rrf	(___ftadd@f1+2),f
	rrf	(___ftadd@f1+1),f
	rrf	(___ftadd@f1),f
	addlw	-1
	skipz
	goto	u248_25

	line	115
	movlw	(01h)
	movwf	(??___ftadd+0)+0
	movf	(??___ftadd+0)+0,w
	addwf	(___ftadd@exp1),f
	goto	i1l2287
	line	116
	
i1l701:	
	line	113
	
i1l2287:	
	movf	(___ftadd@exp1),w
	xorwf	(___ftadd@exp2),w
	skipz
	goto	u249_21
	goto	u249_20
u249_21:
	goto	i1l2285
u249_20:
	goto	i1l704
	
i1l703:	
	line	117
	goto	i1l704
	
i1l696:	
	
i1l2289:	
	movf	(___ftadd@exp1),w
	subwf	(___ftadd@exp2),w
	skipnc
	goto	u250_21
	goto	u250_20
u250_21:
	goto	i1l704
u250_20:
	goto	i1l2291
	line	120
	
i1l706:	
	line	121
	
i1l2291:	
	movlw	01h
u251_25:
	clrc
	rlf	(___ftadd@f1),f
	rlf	(___ftadd@f1+1),f
	rlf	(___ftadd@f1+2),f
	addlw	-1
	skipz
	goto	u251_25
	line	122
	movlw	low(01h)
	subwf	(___ftadd@exp1),f
	line	123
	
i1l2293:	
	movf	(___ftadd@exp2),w
	xorwf	(___ftadd@exp1),w
	skipnz
	goto	u252_21
	goto	u252_20
u252_21:
	goto	i1l2299
u252_20:
	
i1l2295:	
	movlw	low(01h)
	subwf	(___ftadd@sign),f
	movf	((___ftadd@sign)),w
	andlw	07h
	btfss	status,2
	goto	u253_21
	goto	u253_20
u253_21:
	goto	i1l2291
u253_20:
	goto	i1l2299
	
i1l708:	
	goto	i1l2299
	
i1l709:	
	line	124
	goto	i1l2299
	
i1l711:	
	line	125
	
i1l2297:	
	movlw	01h
u254_25:
	clrc
	rrf	(___ftadd@f2+2),f
	rrf	(___ftadd@f2+1),f
	rrf	(___ftadd@f2),f
	addlw	-1
	skipz
	goto	u254_25

	line	126
	movlw	(01h)
	movwf	(??___ftadd+0)+0
	movf	(??___ftadd+0)+0,w
	addwf	(___ftadd@exp2),f
	goto	i1l2299
	line	127
	
i1l710:	
	line	124
	
i1l2299:	
	movf	(___ftadd@exp1),w
	xorwf	(___ftadd@exp2),w
	skipz
	goto	u255_21
	goto	u255_20
u255_21:
	goto	i1l2297
u255_20:
	goto	i1l704
	
i1l712:	
	goto	i1l704
	line	128
	
i1l705:	
	line	129
	
i1l704:	
	btfss	(___ftadd@sign),(7)&7
	goto	u256_21
	goto	u256_20
u256_21:
	goto	i1l2303
u256_20:
	line	131
	
i1l2301:	
	movlw	0FFh
	xorwf	(___ftadd@f1),f
	movlw	0FFh
	xorwf	(___ftadd@f1+1),f
	movlw	0FFh
	xorwf	(___ftadd@f1+2),f
	line	132
	movlw	01h
	addwf	(___ftadd@f1),f
	movlw	0
	skipnc
movlw 1
	addwf	(___ftadd@f1+1),f
	movlw	0
	skipnc
movlw 1
	addwf	(___ftadd@f1+2),f
	goto	i1l2303
	line	133
	
i1l713:	
	line	134
	
i1l2303:	
	btfss	(___ftadd@sign),(6)&7
	goto	u257_21
	goto	u257_20
u257_21:
	goto	i1l2307
u257_20:
	line	136
	
i1l2305:	
	movlw	0FFh
	xorwf	(___ftadd@f2),f
	movlw	0FFh
	xorwf	(___ftadd@f2+1),f
	movlw	0FFh
	xorwf	(___ftadd@f2+2),f
	line	137
	movlw	01h
	addwf	(___ftadd@f2),f
	movlw	0
	skipnc
movlw 1
	addwf	(___ftadd@f2+1),f
	movlw	0
	skipnc
movlw 1
	addwf	(___ftadd@f2+2),f
	goto	i1l2307
	line	138
	
i1l714:	
	line	139
	
i1l2307:	
	clrf	(___ftadd@sign)
	line	140
	
i1l2309:	
	movf	(___ftadd@f1),w
	addwf	(___ftadd@f2),f
	movf	(___ftadd@f1+1),w
	clrz
	skipnc
	incf	(___ftadd@f1+1),w
	skipnz
	goto	u258_21
	addwf	(___ftadd@f2+1),f
u258_21:
	movf	(___ftadd@f1+2),w
	clrz
	skipnc
	incf	(___ftadd@f1+2),w
	skipnz
	goto	u258_22
	addwf	(___ftadd@f2+2),f
u258_22:

	line	141
	
i1l2311:	
	btfss	(___ftadd@f2+2),(23)&7
	goto	u259_21
	goto	u259_20
u259_21:
	goto	i1l2317
u259_20:
	line	142
	
i1l2313:	
	movlw	0FFh
	xorwf	(___ftadd@f2),f
	movlw	0FFh
	xorwf	(___ftadd@f2+1),f
	movlw	0FFh
	xorwf	(___ftadd@f2+2),f
	line	143
	movlw	01h
	addwf	(___ftadd@f2),f
	movlw	0
	skipnc
movlw 1
	addwf	(___ftadd@f2+1),f
	movlw	0
	skipnc
movlw 1
	addwf	(___ftadd@f2+2),f
	line	144
	
i1l2315:	
	clrf	(___ftadd@sign)
	incf	(___ftadd@sign),f
	goto	i1l2317
	line	145
	
i1l715:	
	line	146
	
i1l2317:	
	movf	(___ftadd@f2),w
	movwf	(___ftpack@arg)
	movf	(___ftadd@f2+1),w
	movwf	(___ftpack@arg+1)
	movf	(___ftadd@f2+2),w
	movwf	(___ftpack@arg+2)
	movf	(___ftadd@exp1),w
	movwf	(??___ftadd+0)+0
	movf	(??___ftadd+0)+0,w
	movwf	(___ftpack@exp)
	movf	(___ftadd@sign),w
	movwf	(??___ftadd+1)+0
	movf	(??___ftadd+1)+0,w
	movwf	(___ftpack@sign)
	fcall	___ftpack
	movf	(0+(?___ftpack)),w
	bcf	status, 5	;RP0=0, select bank0
	bcf	status, 6	;RP1=0, select bank0
	movwf	(?___ftadd)
	movf	(1+(?___ftpack)),w
	movwf	(?___ftadd+1)
	movf	(2+(?___ftpack)),w
	movwf	(?___ftadd+2)
	goto	i1l690
	
i1l2319:	
	line	148
	
i1l690:	
	return
	opt stack 0
GLOBAL	__end_of___ftadd
	__end_of___ftadd:
	signat	___ftadd,8315
	global	___lwtoft

;; *************** function ___lwtoft *****************
;; Defined at:
;;		line 28 in file "C:\Program Files (x86)\Microchip\xc8\v1.33\sources\common\lwtoft.c"
;; Parameters:    Size  Location     Type
;;  c               2    8[COMMON] unsigned int 
;; Auto vars:     Size  Location     Type
;;		None
;; Return value:  Size  Location     Type
;;                  3    8[COMMON] float 
;; Registers used:
;;		wreg, status,2, status,0, pclath, cstack
;; Tracked objects:
;;		On entry : 0/0
;;		On exit  : 0/0
;;		Unchanged: 0/0
;; Data sizes:     COMMON   BANK0   BANK1   BANK3   BANK2
;;      Params:         3       0       0       0       0
;;      Locals:         0       0       0       0       0
;;      Temps:          1       0       0       0       0
;;      Totals:         4       0       0       0       0
;;Total ram usage:        4 bytes
;; Hardware stack levels used:    1
;; Hardware stack levels required when called:    1
;; This function calls:
;;		___ftpack
;; This function is called by:
;;		_ISR
;; This function uses a non-reentrant model
;;
psect	text32,local,class=CODE,delta=2,merge=1
	file	"C:\Program Files (x86)\Microchip\xc8\v1.33\sources\common\lwtoft.c"
	line	28
global __ptext32
__ptext32:	;psect for function ___lwtoft
psect	text32
	file	"C:\Program Files (x86)\Microchip\xc8\v1.33\sources\common\lwtoft.c"
	line	28
	global	__size_of___lwtoft
	__size_of___lwtoft	equ	__end_of___lwtoft-___lwtoft
	
___lwtoft:	
;incstack = 0
	opt	stack 2
; Regs used in ___lwtoft: [wreg+status,2+status,0+pclath+cstack]
	line	30
	
i1l2671:	
	movf	(___lwtoft@c),w
	movwf	(___ftpack@arg)
	movf	(___lwtoft@c+1),w
	movwf	(___ftpack@arg+1)
	clrf	(___ftpack@arg+2)
	movlw	(08Eh)
	movwf	(??___lwtoft+0)+0
	movf	(??___lwtoft+0)+0,w
	movwf	(___ftpack@exp)
	clrf	(___ftpack@sign)
	fcall	___ftpack
	movf	(0+(?___ftpack)),w
	movwf	(?___lwtoft)
	movf	(1+(?___ftpack)),w
	movwf	(?___lwtoft+1)
	movf	(2+(?___ftpack)),w
	movwf	(?___lwtoft+2)
	goto	i1l870
	
i1l2673:	
	line	31
	
i1l870:	
	return
	opt stack 0
GLOBAL	__end_of___lwtoft
	__end_of___lwtoft:
	signat	___lwtoft,4219
	global	___fttol

;; *************** function ___fttol *****************
;; Defined at:
;;		line 44 in file "C:\Program Files (x86)\Microchip\xc8\v1.33\sources\common\fttol.c"
;; Parameters:    Size  Location     Type
;;  f1              3   60[BANK0 ] float 
;; Auto vars:     Size  Location     Type
;;  lval            4   69[BANK0 ] unsigned long 
;;  exp1            1   73[BANK0 ] unsigned char 
;;  sign1           1   68[BANK0 ] unsigned char 
;; Return value:  Size  Location     Type
;;                  4   60[BANK0 ] long 
;; Registers used:
;;		wreg, status,2, status,0
;; Tracked objects:
;;		On entry : 0/0
;;		On exit  : 0/0
;;		Unchanged: 0/0
;; Data sizes:     COMMON   BANK0   BANK1   BANK3   BANK2
;;      Params:         0       4       0       0       0
;;      Locals:         0       6       0       0       0
;;      Temps:          0       4       0       0       0
;;      Totals:         0      14       0       0       0
;;Total ram usage:       14 bytes
;; Hardware stack levels used:    1
;; This function calls:
;;		Nothing
;; This function is called by:
;;		_ISR
;; This function uses a non-reentrant model
;;
psect	text33,local,class=CODE,delta=2,merge=1
	file	"C:\Program Files (x86)\Microchip\xc8\v1.33\sources\common\fttol.c"
	line	44
global __ptext33
__ptext33:	;psect for function ___fttol
psect	text33
	file	"C:\Program Files (x86)\Microchip\xc8\v1.33\sources\common\fttol.c"
	line	44
	global	__size_of___fttol
	__size_of___fttol	equ	__end_of___fttol-___fttol
	
___fttol:	
;incstack = 0
	opt	stack 3
; Regs used in ___fttol: [wreg+status,2+status,0]
	line	49
	
i1l2627:	
	bcf	status, 5	;RP0=0, select bank0
	bcf	status, 6	;RP1=0, select bank0
	movf	(___fttol@f1),w
	movwf	((??___fttol+0)+0)
	movf	(___fttol@f1+1),w
	movwf	((??___fttol+0)+0+1)
	movf	(___fttol@f1+2),w
	movwf	((??___fttol+0)+0+2)
	clrc
	rlf	(??___fttol+0)+1,w
	rlf	(??___fttol+0)+2,w
	movwf	(??___fttol+3)+0
	movf	(??___fttol+3)+0,w
	movwf	(___fttol@exp1)
	movf	((___fttol@exp1)),f
	skipz
	goto	u300_21
	goto	u300_20
u300_21:
	goto	i1l2633
u300_20:
	line	50
	
i1l2629:	
	movlw	0
	movwf	(?___fttol+3)
	movlw	0
	movwf	(?___fttol+2)
	movlw	0
	movwf	(?___fttol+1)
	movlw	0
	movwf	(?___fttol)

	goto	i1l756
	
i1l2631:	
	goto	i1l756
	
i1l755:	
	line	51
	
i1l2633:	
	movf	(___fttol@f1),w
	movwf	((??___fttol+0)+0)
	movf	(___fttol@f1+1),w
	movwf	((??___fttol+0)+0+1)
	movf	(___fttol@f1+2),w
	movwf	((??___fttol+0)+0+2)
	movlw	017h
u301_25:
	clrc
	rrf	(??___fttol+0)+2,f
	rrf	(??___fttol+0)+1,f
	rrf	(??___fttol+0)+0,f
u301_20:
	addlw	-1
	skipz
	goto	u301_25
	movf	0+(??___fttol+0)+0,w
	movwf	(??___fttol+3)+0
	movf	(??___fttol+3)+0,w
	movwf	(___fttol@sign1)
	line	52
	
i1l2635:	
	bsf	(___fttol@f1)+(15/8),(15)&7
	line	53
	
i1l2637:	
	movlw	0FFh
	andwf	(___fttol@f1),f
	movlw	0FFh
	andwf	(___fttol@f1+1),f
	movlw	0
	andwf	(___fttol@f1+2),f
	line	54
	
i1l2639:	
	movf	(___fttol@f1),w
	movwf	(___fttol@lval)
	movf	(___fttol@f1+1),w
	movwf	((___fttol@lval))+1
	movf	(___fttol@f1+2),w
	movwf	((___fttol@lval))+2
	clrf	((___fttol@lval))+3
	line	55
	
i1l2641:	
	movlw	low(08Eh)
	subwf	(___fttol@exp1),f
	line	56
	
i1l2643:	
	btfss	(___fttol@exp1),7
	goto	u302_21
	goto	u302_20
u302_21:
	goto	i1l2653
u302_20:
	line	57
	
i1l2645:	
	movf	(___fttol@exp1),w
	xorlw	80h
	addlw	-((-15)^80h)
	skipnc
	goto	u303_21
	goto	u303_20
u303_21:
	goto	i1l2651
u303_20:
	line	58
	
i1l2647:	
	movlw	0
	movwf	(?___fttol+3)
	movlw	0
	movwf	(?___fttol+2)
	movlw	0
	movwf	(?___fttol+1)
	movlw	0
	movwf	(?___fttol)

	goto	i1l756
	
i1l2649:	
	goto	i1l756
	
i1l758:	
	goto	i1l2651
	line	59
	
i1l759:	
	line	60
	
i1l2651:	
	movlw	01h
u304_25:
	clrc
	rrf	(___fttol@lval+3),f
	rrf	(___fttol@lval+2),f
	rrf	(___fttol@lval+1),f
	rrf	(___fttol@lval),f
	addlw	-1
	skipz
	goto	u304_25

	line	61
	movlw	(01h)
	movwf	(??___fttol+0)+0
	movf	(??___fttol+0)+0,w
	addwf	(___fttol@exp1),f
	btfss	status,2
	goto	u305_21
	goto	u305_20
u305_21:
	goto	i1l2651
u305_20:
	goto	i1l2663
	
i1l760:	
	line	62
	goto	i1l2663
	
i1l757:	
	line	63
	
i1l2653:	
	movlw	(018h)
	subwf	(___fttol@exp1),w
	skipc
	goto	u306_21
	goto	u306_20
u306_21:
	goto	i1l2661
u306_20:
	line	64
	
i1l2655:	
	movlw	0
	movwf	(?___fttol+3)
	movlw	0
	movwf	(?___fttol+2)
	movlw	0
	movwf	(?___fttol+1)
	movlw	0
	movwf	(?___fttol)

	goto	i1l756
	
i1l2657:	
	goto	i1l756
	
i1l762:	
	line	65
	goto	i1l2661
	
i1l764:	
	line	66
	
i1l2659:	
	movlw	01h
	movwf	(??___fttol+0)+0
u307_25:
	clrc
	rlf	(___fttol@lval),f
	rlf	(___fttol@lval+1),f
	rlf	(___fttol@lval+2),f
	rlf	(___fttol@lval+3),f
	decfsz	(??___fttol+0)+0
	goto	u307_25
	line	67
	movlw	low(01h)
	subwf	(___fttol@exp1),f
	goto	i1l2661
	line	68
	
i1l763:	
	line	65
	
i1l2661:	
	movf	(___fttol@exp1),f
	skipz
	goto	u308_21
	goto	u308_20
u308_21:
	goto	i1l2659
u308_20:
	goto	i1l2663
	
i1l765:	
	goto	i1l2663
	line	69
	
i1l761:	
	line	70
	
i1l2663:	
	movf	(___fttol@sign1),w
	skipz
	goto	u309_20
	goto	i1l2667
u309_20:
	line	71
	
i1l2665:	
	comf	(___fttol@lval),f
	comf	(___fttol@lval+1),f
	comf	(___fttol@lval+2),f
	comf	(___fttol@lval+3),f
	incf	(___fttol@lval),f
	skipnz
	incf	(___fttol@lval+1),f
	skipnz
	incf	(___fttol@lval+2),f
	skipnz
	incf	(___fttol@lval+3),f
	goto	i1l2667
	
i1l766:	
	line	72
	
i1l2667:	
	movf	(___fttol@lval+3),w
	movwf	(?___fttol+3)
	movf	(___fttol@lval+2),w
	movwf	(?___fttol+2)
	movf	(___fttol@lval+1),w
	movwf	(?___fttol+1)
	movf	(___fttol@lval),w
	movwf	(?___fttol)

	goto	i1l756
	
i1l2669:	
	line	73
	
i1l756:	
	return
	opt stack 0
GLOBAL	__end_of___fttol
	__end_of___fttol:
	signat	___fttol,4220
	global	___ftmul

;; *************** function ___ftmul *****************
;; Defined at:
;;		line 62 in file "C:\Program Files (x86)\Microchip\xc8\v1.33\sources\common\ftmul.c"
;; Parameters:    Size  Location     Type
;;  f1              3   44[BANK0 ] float 
;;  f2              3   47[BANK0 ] float 
;; Auto vars:     Size  Location     Type
;;  f3_as_produc    3   55[BANK0 ] unsigned um
;;  sign            1   59[BANK0 ] unsigned char 
;;  cntr            1   58[BANK0 ] unsigned char 
;;  exp             1   54[BANK0 ] unsigned char 
;; Return value:  Size  Location     Type
;;                  3   44[BANK0 ] float 
;; Registers used:
;;		wreg, status,2, status,0, pclath, cstack
;; Tracked objects:
;;		On entry : 0/0
;;		On exit  : 0/0
;;		Unchanged: 0/0
;; Data sizes:     COMMON   BANK0   BANK1   BANK3   BANK2
;;      Params:         0       6       0       0       0
;;      Locals:         0       6       0       0       0
;;      Temps:          0       4       0       0       0
;;      Totals:         0      16       0       0       0
;;Total ram usage:       16 bytes
;; Hardware stack levels used:    1
;; Hardware stack levels required when called:    1
;; This function calls:
;;		___ftpack
;; This function is called by:
;;		_ISR
;; This function uses a non-reentrant model
;;
psect	text34,local,class=CODE,delta=2,merge=1
	file	"C:\Program Files (x86)\Microchip\xc8\v1.33\sources\common\ftmul.c"
	line	62
global __ptext34
__ptext34:	;psect for function ___ftmul
psect	text34
	file	"C:\Program Files (x86)\Microchip\xc8\v1.33\sources\common\ftmul.c"
	line	62
	global	__size_of___ftmul
	__size_of___ftmul	equ	__end_of___ftmul-___ftmul
	
___ftmul:	
;incstack = 0
	opt	stack 2
; Regs used in ___ftmul: [wreg+status,2+status,0+pclath+cstack]
	line	67
	
i1l2577:	
	bcf	status, 5	;RP0=0, select bank0
	bcf	status, 6	;RP1=0, select bank0
	movf	(___ftmul@f1),w
	movwf	((??___ftmul+0)+0)
	movf	(___ftmul@f1+1),w
	movwf	((??___ftmul+0)+0+1)
	movf	(___ftmul@f1+2),w
	movwf	((??___ftmul+0)+0+2)
	clrc
	rlf	(??___ftmul+0)+1,w
	rlf	(??___ftmul+0)+2,w
	movwf	(??___ftmul+3)+0
	movf	(??___ftmul+3)+0,w
	movwf	(___ftmul@exp)
	movf	((___ftmul@exp)),f
	skipz
	goto	u286_21
	goto	u286_20
u286_21:
	goto	i1l2583
u286_20:
	line	68
	
i1l2579:	
	movlw	0x0
	movwf	(?___ftmul)
	movlw	0x0
	movwf	(?___ftmul+1)
	movlw	0x0
	movwf	(?___ftmul+2)
	goto	i1l736
	
i1l2581:	
	goto	i1l736
	
i1l735:	
	line	69
	
i1l2583:	
	movf	(___ftmul@f2),w
	movwf	((??___ftmul+0)+0)
	movf	(___ftmul@f2+1),w
	movwf	((??___ftmul+0)+0+1)
	movf	(___ftmul@f2+2),w
	movwf	((??___ftmul+0)+0+2)
	clrc
	rlf	(??___ftmul+0)+1,w
	rlf	(??___ftmul+0)+2,w
	movwf	(??___ftmul+3)+0
	movf	(??___ftmul+3)+0,w
	movwf	(___ftmul@sign)
	movf	((___ftmul@sign)),f
	skipz
	goto	u287_21
	goto	u287_20
u287_21:
	goto	i1l2589
u287_20:
	line	70
	
i1l2585:	
	movlw	0x0
	movwf	(?___ftmul)
	movlw	0x0
	movwf	(?___ftmul+1)
	movlw	0x0
	movwf	(?___ftmul+2)
	goto	i1l736
	
i1l2587:	
	goto	i1l736
	
i1l737:	
	line	71
	
i1l2589:	
	movf	(___ftmul@sign),w
	addlw	07Bh
	movwf	(??___ftmul+0)+0
	movf	(??___ftmul+0)+0,w
	addwf	(___ftmul@exp),f
	line	72
	movf	(___ftmul@f1),w
	movwf	((??___ftmul+0)+0)
	movf	(___ftmul@f1+1),w
	movwf	((??___ftmul+0)+0+1)
	movf	(___ftmul@f1+2),w
	movwf	((??___ftmul+0)+0+2)
	movlw	010h
u288_25:
	clrc
	rrf	(??___ftmul+0)+2,f
	rrf	(??___ftmul+0)+1,f
	rrf	(??___ftmul+0)+0,f
u288_20:
	addlw	-1
	skipz
	goto	u288_25
	movf	0+(??___ftmul+0)+0,w
	movwf	(??___ftmul+3)+0
	movf	(??___ftmul+3)+0,w
	movwf	(___ftmul@sign)
	line	73
	movf	(___ftmul@f2),w
	movwf	((??___ftmul+0)+0)
	movf	(___ftmul@f2+1),w
	movwf	((??___ftmul+0)+0+1)
	movf	(___ftmul@f2+2),w
	movwf	((??___ftmul+0)+0+2)
	movlw	010h
u289_25:
	clrc
	rrf	(??___ftmul+0)+2,f
	rrf	(??___ftmul+0)+1,f
	rrf	(??___ftmul+0)+0,f
u289_20:
	addlw	-1
	skipz
	goto	u289_25
	movf	0+(??___ftmul+0)+0,w
	movwf	(??___ftmul+3)+0
	movf	(??___ftmul+3)+0,w
	xorwf	(___ftmul@sign),f
	line	74
	movlw	(080h)
	movwf	(??___ftmul+0)+0
	movf	(??___ftmul+0)+0,w
	andwf	(___ftmul@sign),f
	line	75
	
i1l2591:	
	bsf	(___ftmul@f1)+(15/8),(15)&7
	line	77
	
i1l2593:	
	bsf	(___ftmul@f2)+(15/8),(15)&7
	line	78
	
i1l2595:	
	movlw	0FFh
	andwf	(___ftmul@f2),f
	movlw	0FFh
	andwf	(___ftmul@f2+1),f
	movlw	0
	andwf	(___ftmul@f2+2),f
	line	79
	
i1l2597:	
	movlw	0
	movwf	(___ftmul@f3_as_product)
	movlw	0
	movwf	(___ftmul@f3_as_product+1)
	movlw	0
	movwf	(___ftmul@f3_as_product+2)
	line	134
	
i1l2599:	
	movlw	(07h)
	movwf	(??___ftmul+0)+0
	movf	(??___ftmul+0)+0,w
	movwf	(___ftmul@cntr)
	goto	i1l2601
	line	135
	
i1l738:	
	line	136
	
i1l2601:	
	btfss	(___ftmul@f1),(0)&7
	goto	u290_21
	goto	u290_20
u290_21:
	goto	i1l2605
u290_20:
	line	137
	
i1l2603:	
	movf	(___ftmul@f2),w
	addwf	(___ftmul@f3_as_product),f
	movf	(___ftmul@f2+1),w
	clrz
	skipnc
	incf	(___ftmul@f2+1),w
	skipnz
	goto	u291_21
	addwf	(___ftmul@f3_as_product+1),f
u291_21:
	movf	(___ftmul@f2+2),w
	clrz
	skipnc
	incf	(___ftmul@f2+2),w
	skipnz
	goto	u291_22
	addwf	(___ftmul@f3_as_product+2),f
u291_22:

	goto	i1l2605
	
i1l739:	
	line	138
	
i1l2605:	
	movlw	01h
u292_25:
	clrc
	rrf	(___ftmul@f1+2),f
	rrf	(___ftmul@f1+1),f
	rrf	(___ftmul@f1),f
	addlw	-1
	skipz
	goto	u292_25

	line	139
	
i1l2607:	
	movlw	01h
u293_25:
	clrc
	rlf	(___ftmul@f2),f
	rlf	(___ftmul@f2+1),f
	rlf	(___ftmul@f2+2),f
	addlw	-1
	skipz
	goto	u293_25
	line	140
	
i1l2609:	
	movlw	low(01h)
	subwf	(___ftmul@cntr),f
	btfss	status,2
	goto	u294_21
	goto	u294_20
u294_21:
	goto	i1l2601
u294_20:
	goto	i1l2611
	
i1l740:	
	line	143
	
i1l2611:	
	movlw	(09h)
	movwf	(??___ftmul+0)+0
	movf	(??___ftmul+0)+0,w
	movwf	(___ftmul@cntr)
	goto	i1l2613
	line	144
	
i1l741:	
	line	145
	
i1l2613:	
	btfss	(___ftmul@f1),(0)&7
	goto	u295_21
	goto	u295_20
u295_21:
	goto	i1l2617
u295_20:
	line	146
	
i1l2615:	
	movf	(___ftmul@f2),w
	addwf	(___ftmul@f3_as_product),f
	movf	(___ftmul@f2+1),w
	clrz
	skipnc
	incf	(___ftmul@f2+1),w
	skipnz
	goto	u296_21
	addwf	(___ftmul@f3_as_product+1),f
u296_21:
	movf	(___ftmul@f2+2),w
	clrz
	skipnc
	incf	(___ftmul@f2+2),w
	skipnz
	goto	u296_22
	addwf	(___ftmul@f3_as_product+2),f
u296_22:

	goto	i1l2617
	
i1l742:	
	line	147
	
i1l2617:	
	movlw	01h
u297_25:
	clrc
	rrf	(___ftmul@f1+2),f
	rrf	(___ftmul@f1+1),f
	rrf	(___ftmul@f1),f
	addlw	-1
	skipz
	goto	u297_25

	line	148
	
i1l2619:	
	movlw	01h
u298_25:
	clrc
	rrf	(___ftmul@f3_as_product+2),f
	rrf	(___ftmul@f3_as_product+1),f
	rrf	(___ftmul@f3_as_product),f
	addlw	-1
	skipz
	goto	u298_25

	line	149
	
i1l2621:	
	movlw	low(01h)
	subwf	(___ftmul@cntr),f
	btfss	status,2
	goto	u299_21
	goto	u299_20
u299_21:
	goto	i1l2613
u299_20:
	goto	i1l2623
	
i1l743:	
	line	156
	
i1l2623:	
	movf	(___ftmul@f3_as_product),w
	movwf	(___ftpack@arg)
	movf	(___ftmul@f3_as_product+1),w
	movwf	(___ftpack@arg+1)
	movf	(___ftmul@f3_as_product+2),w
	movwf	(___ftpack@arg+2)
	movf	(___ftmul@exp),w
	movwf	(??___ftmul+0)+0
	movf	(??___ftmul+0)+0,w
	movwf	(___ftpack@exp)
	movf	(___ftmul@sign),w
	movwf	(??___ftmul+1)+0
	movf	(??___ftmul+1)+0,w
	movwf	(___ftpack@sign)
	fcall	___ftpack
	movf	(0+(?___ftpack)),w
	bcf	status, 5	;RP0=0, select bank0
	bcf	status, 6	;RP1=0, select bank0
	movwf	(?___ftmul)
	movf	(1+(?___ftpack)),w
	movwf	(?___ftmul+1)
	movf	(2+(?___ftpack)),w
	movwf	(?___ftmul+2)
	goto	i1l736
	
i1l2625:	
	line	157
	
i1l736:	
	return
	opt stack 0
GLOBAL	__end_of___ftmul
	__end_of___ftmul:
	signat	___ftmul,8315
	global	___ftpack

;; *************** function ___ftpack *****************
;; Defined at:
;;		line 62 in file "C:\Program Files (x86)\Microchip\xc8\v1.33\sources\common\float.c"
;; Parameters:    Size  Location     Type
;;  arg             3    0[COMMON] unsigned um
;;  exp             1    3[COMMON] unsigned char 
;;  sign            1    4[COMMON] unsigned char 
;; Auto vars:     Size  Location     Type
;;		None
;; Return value:  Size  Location     Type
;;                  3    0[COMMON] float 
;; Registers used:
;;		wreg, status,2, status,0
;; Tracked objects:
;;		On entry : 0/0
;;		On exit  : 0/0
;;		Unchanged: 0/0
;; Data sizes:     COMMON   BANK0   BANK1   BANK3   BANK2
;;      Params:         5       0       0       0       0
;;      Locals:         0       0       0       0       0
;;      Temps:          3       0       0       0       0
;;      Totals:         8       0       0       0       0
;;Total ram usage:        8 bytes
;; Hardware stack levels used:    1
;; This function calls:
;;		Nothing
;; This function is called by:
;;		___ftadd
;;		___ftdiv
;;		___ftmul
;;		___lwtoft
;; This function uses a non-reentrant model
;;
psect	text35,local,class=CODE,delta=2,merge=1
	file	"C:\Program Files (x86)\Microchip\xc8\v1.33\sources\common\float.c"
	line	62
global __ptext35
__ptext35:	;psect for function ___ftpack
psect	text35
	file	"C:\Program Files (x86)\Microchip\xc8\v1.33\sources\common\float.c"
	line	62
	global	__size_of___ftpack
	__size_of___ftpack	equ	__end_of___ftpack-___ftpack
	
___ftpack:	
;incstack = 0
	opt	stack 1
; Regs used in ___ftpack: [wreg+status,2+status,0]
	line	64
	
i1l1979:	
	movf	(___ftpack@exp),w
	skipz
	goto	u176_20
	goto	i1l1983
u176_20:
	
i1l1981:	
	movf	(___ftpack@arg+2),w
	iorwf	(___ftpack@arg+1),w
	iorwf	(___ftpack@arg),w
	skipz
	goto	u177_21
	goto	u177_20
u177_21:
	goto	i1l1989
u177_20:
	goto	i1l1983
	
i1l670:	
	line	65
	
i1l1983:	
	movlw	0x0
	movwf	(?___ftpack)
	movlw	0x0
	movwf	(?___ftpack+1)
	movlw	0x0
	movwf	(?___ftpack+2)
	goto	i1l671
	
i1l1985:	
	goto	i1l671
	
i1l668:	
	line	66
	goto	i1l1989
	
i1l673:	
	line	67
	
i1l1987:	
	movlw	(01h)
	movwf	(??___ftpack+0)+0
	movf	(??___ftpack+0)+0,w
	addwf	(___ftpack@exp),f
	line	68
	movlw	01h
u178_25:
	clrc
	rrf	(___ftpack@arg+2),f
	rrf	(___ftpack@arg+1),f
	rrf	(___ftpack@arg),f
	addlw	-1
	skipz
	goto	u178_25

	goto	i1l1989
	line	69
	
i1l672:	
	line	66
	
i1l1989:	
	movlw	low highword(0FE0000h)
	andwf	(___ftpack@arg+2),w
	btfss	status,2
	goto	u179_21
	goto	u179_20
u179_21:
	goto	i1l1987
u179_20:
	goto	i1l675
	
i1l674:	
	line	70
	goto	i1l675
	
i1l676:	
	line	71
	
i1l1991:	
	movlw	(01h)
	movwf	(??___ftpack+0)+0
	movf	(??___ftpack+0)+0,w
	addwf	(___ftpack@exp),f
	line	72
	
i1l1993:	
	movlw	01h
	addwf	(___ftpack@arg),f
	movlw	0
	skipnc
movlw 1
	addwf	(___ftpack@arg+1),f
	movlw	0
	skipnc
movlw 1
	addwf	(___ftpack@arg+2),f
	line	73
	
i1l1995:	
	movlw	01h
u180_25:
	clrc
	rrf	(___ftpack@arg+2),f
	rrf	(___ftpack@arg+1),f
	rrf	(___ftpack@arg),f
	addlw	-1
	skipz
	goto	u180_25

	line	74
	
i1l675:	
	line	70
	movlw	low highword(0FF0000h)
	andwf	(___ftpack@arg+2),w
	btfss	status,2
	goto	u181_21
	goto	u181_20
u181_21:
	goto	i1l1991
u181_20:
	goto	i1l1999
	
i1l677:	
	line	75
	goto	i1l1999
	
i1l679:	
	line	76
	
i1l1997:	
	movlw	low(01h)
	subwf	(___ftpack@exp),f
	line	77
	movlw	01h
u182_25:
	clrc
	rlf	(___ftpack@arg),f
	rlf	(___ftpack@arg+1),f
	rlf	(___ftpack@arg+2),f
	addlw	-1
	skipz
	goto	u182_25
	goto	i1l1999
	line	78
	
i1l678:	
	line	75
	
i1l1999:	
	btfss	(___ftpack@arg+1),(15)&7
	goto	u183_21
	goto	u183_20
u183_21:
	goto	i1l1997
u183_20:
	
i1l680:	
	line	79
	btfsc	(___ftpack@exp),(0)&7
	goto	u184_21
	goto	u184_20
u184_21:
	goto	i1l681
u184_20:
	line	80
	
i1l2001:	
	movlw	0FFh
	andwf	(___ftpack@arg),f
	movlw	07Fh
	andwf	(___ftpack@arg+1),f
	movlw	0FFh
	andwf	(___ftpack@arg+2),f
	
i1l681:	
	line	81
	clrc
	rrf	(___ftpack@exp),f

	line	82
	
i1l2003:	
	movf	(___ftpack@exp),w
	movwf	((??___ftpack+0)+0)
	clrf	((??___ftpack+0)+0+1)
	clrf	((??___ftpack+0)+0+2)
	movlw	010h
u185_25:
	clrc
	rlf	(??___ftpack+0)+0,f
	rlf	(??___ftpack+0)+1,f
	rlf	(??___ftpack+0)+2,f
u185_20:
	addlw	-1
	skipz
	goto	u185_25
	movf	0+(??___ftpack+0)+0,w
	iorwf	(___ftpack@arg),f
	movf	1+(??___ftpack+0)+0,w
	iorwf	(___ftpack@arg+1),f
	movf	2+(??___ftpack+0)+0,w
	iorwf	(___ftpack@arg+2),f
	line	83
	
i1l2005:	
	movf	(___ftpack@sign),w
	skipz
	goto	u186_20
	goto	i1l682
u186_20:
	line	84
	
i1l2007:	
	bsf	(___ftpack@arg)+(23/8),(23)&7
	
i1l682:	
	line	85
	line	86
	
i1l671:	
	return
	opt stack 0
GLOBAL	__end_of___ftpack
	__end_of___ftpack:
	signat	___ftpack,12411
global	___latbits
___latbits	equ	2
	global	fptotal
fptotal equ 1
	file ""
	line	#
psect	functab,class=CODE,delta=2,reloc=256
global __pfunctab
__pfunctab:
	global	fptable,__fptable
__fptable:
fptable:
	movwf (btemp+1)&07Fh
	movlw high(fptable)
	movwf pclath
	movf (btemp+1)&07Fh,w
	addwf pc
	global	fpbase
fpbase:
	goto fpbase	; Call via a null pointer and you will get stuck here.
	file ""
	line	#
fp__putch:
	ljmp	_putch
	global __end_of__fptable
	__end_of__fptable:
	global __size_of__fptable
	__size_of__fptable	equ	__end_of__fptable-__fptable
	global	btemp
	btemp set 07Eh

	DABS	1,126,2	;btemp
	global	wtemp
	global	wtemp0
	wtemp set btemp
	wtemp0 set btemp
	global	wtemp1
	wtemp1 set btemp+2
	global	wtemp2
	wtemp2 set btemp+4
	global	wtemp3
	wtemp3 set btemp+6
	global	wtemp4
	wtemp4 set btemp+8
	global	wtemp5
	wtemp5 set btemp+10
	global	wtemp6
	wtemp6 set btemp+1
	global	ttemp
	global	ttemp0
	ttemp set btemp
	ttemp0 set btemp
	global	ttemp1
	ttemp1 set btemp+3
	global	ttemp2
	ttemp2 set btemp+6
	global	ttemp3
	ttemp3 set btemp+9
	global	ttemp4
	ttemp4 set btemp+1
	global	ltemp
	global	ltemp0
	ltemp set btemp
	ltemp0 set btemp
	global	ltemp1
	ltemp1 set btemp+4
	global	ltemp2
	ltemp2 set btemp+8
	global	ltemp3
	ltemp3 set btemp+2
	end
