

Microchip Technology PIC LITE Macro Assembler V1.33 build 59893 
                                                                                               Fri Nov 26 21:16:13 2021

Microchip Technology Omniscient Code Generator (Lite mode) build 59893
     1                           	processor	16F877A
     2                           	opt	pw 120
     3                           	opt	lm
     4                           	psect	idataBANK1,global,class=CODE,delta=2
     5                           	psect	strings,global,class=STRING,delta=2
     6                           	psect	cinit,global,class=CODE,merge=1,delta=2
     7                           	psect	bssBANK0,global,class=BANK0,space=1,delta=1
     8                           	psect	bssBANK1,global,class=BANK1,space=1,delta=1
     9                           	psect	dataBANK1,global,class=BANK1,space=1,delta=1
    10                           	psect	clrtext,global,class=CODE,delta=2
    11                           	psect	cstackBANK3,global,class=BANK3,space=1,delta=1
    12                           	psect	cstackBANK1,global,class=BANK1,space=1,delta=1
    13                           	psect	cstackCOMMON,global,class=COMMON,space=1,delta=1
    14                           	psect	cstackBANK0,global,class=BANK0,space=1,delta=1
    15                           	psect	maintext,global,class=CODE,split=1,delta=2
    16                           	psect	text1,local,class=CODE,merge=1,delta=2
    17                           	psect	text2,local,class=CODE,merge=1,delta=2
    18                           	psect	text3,local,class=CODE,merge=1,delta=2
    19                           	psect	text4,local,class=CODE,merge=1,delta=2
    20                           	psect	text5,local,class=CODE,merge=1,delta=2
    21                           	psect	text6,local,class=CODE,merge=1,delta=2
    22                           	psect	text7,local,class=CODE,merge=1,delta=2
    23                           	psect	text8,local,class=CODE,merge=1,delta=2
    24                           	psect	text9,local,class=CODE,merge=1,delta=2
    25                           	psect	text10,local,class=CODE,merge=1,delta=2
    26                           	psect	text11,local,class=CODE,merge=1,delta=2
    27                           	psect	text12,local,class=CODE,merge=1,delta=2
    28                           	psect	text13,local,class=CODE,merge=1,delta=2
    29                           	psect	text14,local,class=CODE,merge=1,delta=2
    30                           	psect	text15,local,class=CODE,merge=1,delta=2
    31                           	psect	text16,local,class=CODE,merge=1,delta=2
    32                           	psect	text17,local,class=CODE,merge=1,delta=2
    33                           	psect	text18,local,class=CODE,merge=1,delta=2
    34                           	psect	text19,local,class=CODE,merge=1,delta=2
    35                           	psect	text20,local,class=CODE,merge=1,delta=2
    36                           	psect	text21,local,class=CODE,merge=1,delta=2
    37                           	psect	text22,local,class=CODE,merge=1,delta=2
    38                           	psect	text23,local,class=CODE,merge=1,delta=2
    39                           	psect	text24,local,class=CODE,merge=1,delta=2
    40                           	psect	intentry,global,class=CODE,delta=2
    41                           	psect	text25,local,class=CODE,merge=1,delta=2
    42                           	psect	text26,local,class=CODE,merge=1,delta=2
    43                           	psect	text27,local,class=CODE,merge=1,delta=2
    44                           	psect	text28,local,class=CODE,merge=1,delta=2
    45                           	psect	text29,local,class=CODE,merge=1,delta=2
    46                           	psect	text30,local,class=CODE,merge=1,delta=2
    47                           	psect	text31,local,class=CODE,merge=1,delta=2
    48                           	psect	text32,local,class=CODE,merge=1,delta=2
    49                           	psect	text33,local,class=CODE,merge=1,delta=2
    50                           	psect	text34,local,class=CODE,merge=1,delta=2
    51                           	psect	text35,local,class=CODE,merge=1,delta=2
    52                           	psect	text36,local,class=CODE,merge=1,delta=2
    53                           	psect	text37,local,class=CODE,merge=1,delta=2
    54                           	psect	text38,local,class=CODE,merge=1,delta=2
    55                           	psect	text39,local,class=CODE,merge=1,delta=2
    56                           	psect	text40,local,class=CODE,merge=1,delta=2
    57                           	psect	text41,local,class=CODE,merge=1,delta=2
    58                           	psect	text42,local,class=CODE,merge=1,delta=2
    59                           	psect	functab,global,reloc=256,class=CODE,delta=2
    60                           	dabs	1,0x7E,2
    61  0000                     	;# 
    62  0001                     	;# 
    63  0002                     	;# 
    64  0003                     	;# 
    65  0004                     	;# 
    66  0005                     	;# 
    67  0006                     	;# 
    68  0007                     	;# 
    69  0008                     	;# 
    70  0009                     	;# 
    71  000A                     	;# 
    72  000B                     	;# 
    73  000C                     	;# 
    74  000D                     	;# 
    75  000E                     	;# 
    76  000E                     	;# 
    77  000F                     	;# 
    78  0010                     	;# 
    79  0011                     	;# 
    80  0012                     	;# 
    81  0013                     	;# 
    82  0014                     	;# 
    83  0015                     	;# 
    84  0015                     	;# 
    85  0016                     	;# 
    86  0017                     	;# 
    87  0018                     	;# 
    88  0019                     	;# 
    89  001A                     	;# 
    90  001B                     	;# 
    91  001B                     	;# 
    92  001C                     	;# 
    93  001D                     	;# 
    94  001E                     	;# 
    95  001F                     	;# 
    96  0081                     	;# 
    97  0085                     	;# 
    98  0086                     	;# 
    99  0087                     	;# 
   100  0088                     	;# 
   101  0089                     	;# 
   102  008C                     	;# 
   103  008D                     	;# 
   104  008E                     	;# 
   105  0091                     	;# 
   106  0092                     	;# 
   107  0093                     	;# 
   108  0094                     	;# 
   109  0098                     	;# 
   110  0099                     	;# 
   111  009C                     	;# 
   112  009D                     	;# 
   113  009E                     	;# 
   114  009F                     	;# 
   115  010C                     	;# 
   116  010D                     	;# 
   117  010E                     	;# 
   118  010F                     	;# 
   119  018C                     	;# 
   120  018D                     	;# 
   121  0000                     	;# 
   122  0001                     	;# 
   123  0002                     	;# 
   124  0003                     	;# 
   125  0004                     	;# 
   126  0005                     	;# 
   127  0006                     	;# 
   128  0007                     	;# 
   129  0008                     	;# 
   130  0009                     	;# 
   131  000A                     	;# 
   132  000B                     	;# 
   133  000C                     	;# 
   134  000D                     	;# 
   135  000E                     	;# 
   136  000E                     	;# 
   137  000F                     	;# 
   138  0010                     	;# 
   139  0011                     	;# 
   140  0012                     	;# 
   141  0013                     	;# 
   142  0014                     	;# 
   143  0015                     	;# 
   144  0015                     	;# 
   145  0016                     	;# 
   146  0017                     	;# 
   147  0018                     	;# 
   148  0019                     	;# 
   149  001A                     	;# 
   150  001B                     	;# 
   151  001B                     	;# 
   152  001C                     	;# 
   153  001D                     	;# 
   154  001E                     	;# 
   155  001F                     	;# 
   156  0081                     	;# 
   157  0085                     	;# 
   158  0086                     	;# 
   159  0087                     	;# 
   160  0088                     	;# 
   161  0089                     	;# 
   162  008C                     	;# 
   163  008D                     	;# 
   164  008E                     	;# 
   165  0091                     	;# 
   166  0092                     	;# 
   167  0093                     	;# 
   168  0094                     	;# 
   169  0098                     	;# 
   170  0099                     	;# 
   171  009C                     	;# 
   172  009D                     	;# 
   173  009E                     	;# 
   174  009F                     	;# 
   175  010C                     	;# 
   176  010D                     	;# 
   177  010E                     	;# 
   178  010F                     	;# 
   179  018C                     	;# 
   180  018D                     	;# 
   181  0000                     	;# 
   182  0001                     	;# 
   183  0002                     	;# 
   184  0003                     	;# 
   185  0004                     	;# 
   186  0005                     	;# 
   187  0006                     	;# 
   188  0007                     	;# 
   189  0008                     	;# 
   190  0009                     	;# 
   191  000A                     	;# 
   192  000B                     	;# 
   193  000C                     	;# 
   194  000D                     	;# 
   195  000E                     	;# 
   196  000E                     	;# 
   197  000F                     	;# 
   198  0010                     	;# 
   199  0011                     	;# 
   200  0012                     	;# 
   201  0013                     	;# 
   202  0014                     	;# 
   203  0015                     	;# 
   204  0015                     	;# 
   205  0016                     	;# 
   206  0017                     	;# 
   207  0018                     	;# 
   208  0019                     	;# 
   209  001A                     	;# 
   210  001B                     	;# 
   211  001B                     	;# 
   212  001C                     	;# 
   213  001D                     	;# 
   214  001E                     	;# 
   215  001F                     	;# 
   216  0081                     	;# 
   217  0085                     	;# 
   218  0086                     	;# 
   219  0087                     	;# 
   220  0088                     	;# 
   221  0089                     	;# 
   222  008C                     	;# 
   223  008D                     	;# 
   224  008E                     	;# 
   225  0091                     	;# 
   226  0092                     	;# 
   227  0093                     	;# 
   228  0094                     	;# 
   229  0098                     	;# 
   230  0099                     	;# 
   231  009C                     	;# 
   232  009D                     	;# 
   233  009E                     	;# 
   234  009F                     	;# 
   235  010C                     	;# 
   236  010D                     	;# 
   237  010E                     	;# 
   238  010F                     	;# 
   239  018C                     	;# 
   240  018D                     	;# 
   241  0000                     	;# 
   242  0001                     	;# 
   243  0002                     	;# 
   244  0003                     	;# 
   245  0004                     	;# 
   246  0005                     	;# 
   247  0006                     	;# 
   248  0007                     	;# 
   249  0008                     	;# 
   250  0009                     	;# 
   251  000A                     	;# 
   252  000B                     	;# 
   253  000C                     	;# 
   254  000D                     	;# 
   255  000E                     	;# 
   256  000E                     	;# 
   257  000F                     	;# 
   258  0010                     	;# 
   259  0011                     	;# 
   260  0012                     	;# 
   261  0013                     	;# 
   262  0014                     	;# 
   263  0015                     	;# 
   264  0015                     	;# 
   265  0016                     	;# 
   266  0017                     	;# 
   267  0018                     	;# 
   268  0019                     	;# 
   269  001A                     	;# 
   270  001B                     	;# 
   271  001B                     	;# 
   272  001C                     	;# 
   273  001D                     	;# 
   274  001E                     	;# 
   275  001F                     	;# 
   276  0081                     	;# 
   277  0085                     	;# 
   278  0086                     	;# 
   279  0087                     	;# 
   280  0088                     	;# 
   281  0089                     	;# 
   282  008C                     	;# 
   283  008D                     	;# 
   284  008E                     	;# 
   285  0091                     	;# 
   286  0092                     	;# 
   287  0093                     	;# 
   288  0094                     	;# 
   289  0098                     	;# 
   290  0099                     	;# 
   291  009C                     	;# 
   292  009D                     	;# 
   293  009E                     	;# 
   294  009F                     	;# 
   295  010C                     	;# 
   296  010D                     	;# 
   297  010E                     	;# 
   298  010F                     	;# 
   299  018C                     	;# 
   300  018D                     	;# 
   301  0000                     	;# 
   302  0001                     	;# 
   303  0002                     	;# 
   304  0003                     	;# 
   305  0004                     	;# 
   306  0005                     	;# 
   307  0006                     	;# 
   308  0007                     	;# 
   309  0008                     	;# 
   310  0009                     	;# 
   311  000A                     	;# 
   312  000B                     	;# 
   313  000C                     	;# 
   314  000D                     	;# 
   315  000E                     	;# 
   316  000E                     	;# 
   317  000F                     	;# 
   318  0010                     	;# 
   319  0011                     	;# 
   320  0012                     	;# 
   321  0013                     	;# 
   322  0014                     	;# 
   323  0015                     	;# 
   324  0015                     	;# 
   325  0016                     	;# 
   326  0017                     	;# 
   327  0018                     	;# 
   328  0019                     	;# 
   329  001A                     	;# 
   330  001B                     	;# 
   331  001B                     	;# 
   332  001C                     	;# 
   333  001D                     	;# 
   334  001E                     	;# 
   335  001F                     	;# 
   336  0081                     	;# 
   337  0085                     	;# 
   338  0086                     	;# 
   339  0087                     	;# 
   340  0088                     	;# 
   341  0089                     	;# 
   342  008C                     	;# 
   343  008D                     	;# 
   344  008E                     	;# 
   345  0091                     	;# 
   346  0092                     	;# 
   347  0093                     	;# 
   348  0094                     	;# 
   349  0098                     	;# 
   350  0099                     	;# 
   351  009C                     	;# 
   352  009D                     	;# 
   353  009E                     	;# 
   354  009F                     	;# 
   355  010C                     	;# 
   356  010D                     	;# 
   357  010E                     	;# 
   358  010F                     	;# 
   359  018C                     	;# 
   360  018D                     	;# 
   361  0000                     	;# 
   362  0001                     	;# 
   363  0002                     	;# 
   364  0003                     	;# 
   365  0004                     	;# 
   366  0005                     	;# 
   367  0006                     	;# 
   368  0007                     	;# 
   369  0008                     	;# 
   370  0009                     	;# 
   371  000A                     	;# 
   372  000B                     	;# 
   373  000C                     	;# 
   374  000D                     	;# 
   375  000E                     	;# 
   376  000E                     	;# 
   377  000F                     	;# 
   378  0010                     	;# 
   379  0011                     	;# 
   380  0012                     	;# 
   381  0013                     	;# 
   382  0014                     	;# 
   383  0015                     	;# 
   384  0015                     	;# 
   385  0016                     	;# 
   386  0017                     	;# 
   387  0018                     	;# 
   388  0019                     	;# 
   389  001A                     	;# 
   390  001B                     	;# 
   391  001B                     	;# 
   392  001C                     	;# 
   393  001D                     	;# 
   394  001E                     	;# 
   395  001F                     	;# 
   396  0081                     	;# 
   397  0085                     	;# 
   398  0086                     	;# 
   399  0087                     	;# 
   400  0088                     	;# 
   401  0089                     	;# 
   402  008C                     	;# 
   403  008D                     	;# 
   404  008E                     	;# 
   405  0091                     	;# 
   406  0092                     	;# 
   407  0093                     	;# 
   408  0094                     	;# 
   409  0098                     	;# 
   410  0099                     	;# 
   411  009C                     	;# 
   412  009D                     	;# 
   413  009E                     	;# 
   414  009F                     	;# 
   415  010C                     	;# 
   416  010D                     	;# 
   417  010E                     	;# 
   418  010F                     	;# 
   419  018C                     	;# 
   420  018D                     	;# 
   421  0000                     	;# 
   422  0001                     	;# 
   423  0002                     	;# 
   424  0003                     	;# 
   425  0004                     	;# 
   426  0005                     	;# 
   427  0006                     	;# 
   428  0007                     	;# 
   429  0008                     	;# 
   430  0009                     	;# 
   431  000A                     	;# 
   432  000B                     	;# 
   433  000C                     	;# 
   434  000D                     	;# 
   435  000E                     	;# 
   436  000E                     	;# 
   437  000F                     	;# 
   438  0010                     	;# 
   439  0011                     	;# 
   440  0012                     	;# 
   441  0013                     	;# 
   442  0014                     	;# 
   443  0015                     	;# 
   444  0015                     	;# 
   445  0016                     	;# 
   446  0017                     	;# 
   447  0018                     	;# 
   448  0019                     	;# 
   449  001A                     	;# 
   450  001B                     	;# 
   451  001B                     	;# 
   452  001C                     	;# 
   453  001D                     	;# 
   454  001E                     	;# 
   455  001F                     	;# 
   456  0081                     	;# 
   457  0085                     	;# 
   458  0086                     	;# 
   459  0087                     	;# 
   460  0088                     	;# 
   461  0089                     	;# 
   462  008C                     	;# 
   463  008D                     	;# 
   464  008E                     	;# 
   465  0091                     	;# 
   466  0092                     	;# 
   467  0093                     	;# 
   468  0094                     	;# 
   469  0098                     	;# 
   470  0099                     	;# 
   471  009C                     	;# 
   472  009D                     	;# 
   473  009E                     	;# 
   474  009F                     	;# 
   475  010C                     	;# 
   476  010D                     	;# 
   477  010E                     	;# 
   478  010F                     	;# 
   479  018C                     	;# 
   480  018D                     	;# 
   481  0000                     	;# 
   482  0001                     	;# 
   483  0002                     	;# 
   484  0003                     	;# 
   485  0004                     	;# 
   486  0005                     	;# 
   487  0006                     	;# 
   488  0007                     	;# 
   489  0008                     	;# 
   490  0009                     	;# 
   491  000A                     	;# 
   492  000B                     	;# 
   493  000C                     	;# 
   494  000D                     	;# 
   495  000E                     	;# 
   496  000E                     	;# 
   497  000F                     	;# 
   498  0010                     	;# 
   499  0011                     	;# 
   500  0012                     	;# 
   501  0013                     	;# 
   502  0014                     	;# 
   503  0015                     	;# 
   504  0015                     	;# 
   505  0016                     	;# 
   506  0017                     	;# 
   507  0018                     	;# 
   508  0019                     	;# 
   509  001A                     	;# 
   510  001B                     	;# 
   511  001B                     	;# 
   512  001C                     	;# 
   513  001D                     	;# 
   514  001E                     	;# 
   515  001F                     	;# 
   516  0081                     	;# 
   517  0085                     	;# 
   518  0086                     	;# 
   519  0087                     	;# 
   520  0088                     	;# 
   521  0089                     	;# 
   522  008C                     	;# 
   523  008D                     	;# 
   524  008E                     	;# 
   525  0091                     	;# 
   526  0092                     	;# 
   527  0093                     	;# 
   528  0094                     	;# 
   529  0098                     	;# 
   530  0099                     	;# 
   531  009C                     	;# 
   532  009D                     	;# 
   533  009E                     	;# 
   534  009F                     	;# 
   535  010C                     	;# 
   536  010D                     	;# 
   537  010E                     	;# 
   538  010F                     	;# 
   539  018C                     	;# 
   540  018D                     	;# 
   541  0000                     	;# 
   542  0001                     	;# 
   543  0002                     	;# 
   544  0003                     	;# 
   545  0004                     	;# 
   546  0005                     	;# 
   547  0006                     	;# 
   548  0007                     	;# 
   549  0008                     	;# 
   550  0009                     	;# 
   551  000A                     	;# 
   552  000B                     	;# 
   553  000C                     	;# 
   554  000D                     	;# 
   555  000E                     	;# 
   556  000E                     	;# 
   557  000F                     	;# 
   558  0010                     	;# 
   559  0011                     	;# 
   560  0012                     	;# 
   561  0013                     	;# 
   562  0014                     	;# 
   563  0015                     	;# 
   564  0015                     	;# 
   565  0016                     	;# 
   566  0017                     	;# 
   567  0018                     	;# 
   568  0019                     	;# 
   569  001A                     	;# 
   570  001B                     	;# 
   571  001B                     	;# 
   572  001C                     	;# 
   573  001D                     	;# 
   574  001E                     	;# 
   575  001F                     	;# 
   576  0081                     	;# 
   577  0085                     	;# 
   578  0086                     	;# 
   579  0087                     	;# 
   580  0088                     	;# 
   581  0089                     	;# 
   582  008C                     	;# 
   583  008D                     	;# 
   584  008E                     	;# 
   585  0091                     	;# 
   586  0092                     	;# 
   587  0093                     	;# 
   588  0094                     	;# 
   589  0098                     	;# 
   590  0099                     	;# 
   591  009C                     	;# 
   592  009D                     	;# 
   593  009E                     	;# 
   594  009F                     	;# 
   595  010C                     	;# 
   596  010D                     	;# 
   597  010E                     	;# 
   598  010F                     	;# 
   599  018C                     	;# 
   600  018D                     	;# 
   601                           
   602                           	psect	idataBANK1
   603  00FD                     __pidataBANK1:	
   604                           
   605                           ;initializer for _requiredRpm
   606  00FD  3400               	retlw	0
   607  00FE  347A               	retlw	122
   608  00FF  3444               	retlw	68
   609                           
   610                           	psect	strings
   611  0800                     __pstrings:	
   612  0800                     stringtab:	
   613  0800                     __stringtab:	
   614                           
   615                           ;	String table - string pointers are 1 byte each
   616  0800  1BFF               	btfsc	btemp+1,7
   617  0801  280A               	ljmp	stringcode
   618  0802  1383               	bcf	3,7
   619  0803  187F               	btfsc	btemp+1,0
   620  0804  1783               	bsf	3,7
   621  0805  0800               	movf	0,w
   622  0806  0A84               	incf	4,f
   623  0807  1903               	skipnz
   624  0808  0AFF               	incf	btemp+1,f
   625  0809  0008               	return
   626  080A                     stringcode:	
   627  080A                     stringdir:	
   628  080A  3008               	movlw	high stringdir
   629  080B  008A               	movwf	10
   630  080C  0804               	movf	4,w
   631  080D  0A84               	incf	4,f
   632  080E  0782               	addwf	2,f
   633  080F                     __stringbase:	
   634  080F  3400               	retlw	0
   635  0810                     __end_of__stringtab:	
   636  0810                     _dpowers:	
   637  0810  3401               	retlw	1
   638  0811  3400               	retlw	0
   639  0812  340A               	retlw	10
   640  0813  3400               	retlw	0
   641  0814  3464               	retlw	100
   642  0815  3400               	retlw	0
   643  0816  34E8               	retlw	232
   644  0817  3403               	retlw	3
   645  0818  3410               	retlw	16
   646  0819  3427               	retlw	39
   647  081A                     __end_of_dpowers:	
   648  000E                     _TMR1	set	14
   649  001F                     _ADCON0bits	set	31
   650  001E                     _ADRESH	set	30
   651  0017                     _CCP1CON	set	23
   652  0017                     _CCP1CONbits	set	23
   653  001D                     _CCP2CON	set	29
   654  001D                     _CCP2CONbits	set	29
   655  0015                     _CCPR1L	set	21
   656  001B                     _CCPR2L	set	27
   657  000B                     _INTCONbits	set	11
   658  000C                     _PIR1bits	set	12
   659  000D                     _PIR2bits	set	13
   660  0005                     _PORTA	set	5
   661  0006                     _PORTB	set	6
   662  0006                     _PORTBbits	set	6
   663  0007                     _PORTC	set	7
   664  0008                     _PORTD	set	8
   665  0009                     _PORTE	set	9
   666  0009                     _PORTEbits	set	9
   667  001A                     _RCREG	set	26
   668  0018                     _RCSTAbits	set	24
   669  0013                     _SSPBUF	set	19
   670  0014                     _SSPCONbits	set	20
   671  0010                     _T1CON	set	16
   672  0010                     _T1CONbits	set	16
   673  0012                     _T2CONbits	set	18
   674  0001                     _TMR0	set	1
   675  000F                     _TMR1H	set	15
   676  000E                     _TMR1L	set	14
   677  0019                     _TXREG	set	25
   678  00C1                     _OERR	set	193
   679  009F                     _ADCON1bits	set	159
   680  009E                     _ADRESL	set	158
   681  0081                     _OPTION_REGbits	set	129
   682  008C                     _PIE1bits	set	140
   683  008D                     _PIE2bits	set	141
   684  0092                     _PR2	set	146
   685  0099                     _SPBRG	set	153
   686  0093                     _SSPADD	set	147
   687  0091                     _SSPCON2	set	145
   688  0091                     _SSPCON2bits	set	145
   689  0094                     _SSPSTATbits	set	148
   690  0085                     _TRISA	set	133
   691  0086                     _TRISB	set	134
   692  0087                     _TRISC	set	135
   693  0088                     _TRISD	set	136
   694  0089                     _TRISE	set	137
   695  0098                     _TXSTAbits	set	152
   696  010D                     _EEADR	set	269
   697  010C                     _EEDATA	set	268
   698  018C                     _EECON1bits	set	396
   699  018D                     _EECON2	set	397
   700  081A                     __stringdata:	
   701  081A                     STR_11:	
   702  081A  340A               	retlw	10
   703  081B  340D               	retlw	13
   704  081C  3420               	retlw	32	;' '
   705  081D  342D               	retlw	45	;'-'
   706  081E  342D               	retlw	45	;'-'
   707  081F  342D               	retlw	45	;'-'
   708  0820  342D               	retlw	45	;'-'
   709  0821  342D               	retlw	45	;'-'
   710  0822  342D               	retlw	45	;'-'
   711  0823  342D               	retlw	45	;'-'
   712  0824  3420               	retlw	32	;' '
   713  0825  3445               	retlw	69	;'E'
   714  0826  3453               	retlw	83	;'S'
   715  0827  3454               	retlw	84	;'T'
   716  0828  344F               	retlw	79	;'O'
   717  0829  3455               	retlw	85	;'U'
   718  082A  3452               	retlw	82	;'R'
   719  082B  344F               	retlw	79	;'O'
   720  082C  3420               	retlw	32	;' '
   721  082D  3444               	retlw	68	;'D'
   722  082E  3445               	retlw	69	;'E'
   723  082F  3420               	retlw	32	;' '
   724  0830  3450               	retlw	80	;'P'
   725  0831  3449               	retlw	73	;'I'
   726  0832  344C               	retlw	76	;'L'
   727  0833  3448               	retlw	72	;'H'
   728  0834  3441               	retlw	65	;'A'
   729  0835  3420               	retlw	32	;' '
   730  0836  342D               	retlw	45	;'-'
   731  0837  342D               	retlw	45	;'-'
   732  0838  342D               	retlw	45	;'-'
   733  0839  342D               	retlw	45	;'-'
   734  083A  342D               	retlw	45	;'-'
   735  083B  342D               	retlw	45	;'-'
   736  083C  342D               	retlw	45	;'-'
   737  083D  3420               	retlw	32	;' '
   738  083E  340A               	retlw	10
   739  083F  340D               	retlw	13
   740  0840  3420               	retlw	32	;' '
   741  0841  3400               	retlw	0
   742  0842                     STR_6:	
   743  0842  3449               	retlw	73	;'I'
   744  0843  346E               	retlw	110	;'n'
   745  0844  3469               	retlw	105	;'i'
   746  0845  3463               	retlw	99	;'c'
   747  0846  3469               	retlw	105	;'i'
   748  0847  3461               	retlw	97	;'a'
   749  0848  346C               	retlw	108	;'l'
   750  0849  3469               	retlw	105	;'i'
   751  084A  347A               	retlw	122	;'z'
   752  084B  3461               	retlw	97	;'a'
   753  084C  346E               	retlw	110	;'n'
   754  084D  3464               	retlw	100	;'d'
   755  084E  346F               	retlw	111	;'o'
   756  084F  3420               	retlw	32	;' '
   757  0850  346F               	retlw	111	;'o'
   758  0851  3420               	retlw	32	;' '
   759  0852  3450               	retlw	80	;'P'
   760  0853  3449               	retlw	73	;'I'
   761  0854  3443               	retlw	67	;'C'
   762  0855  3431               	retlw	49	;'1'
   763  0856  3436               	retlw	54	;'6'
   764  0857  3446               	retlw	70	;'F'
   765  0858  3438               	retlw	56	;'8'
   766  0859  3437               	retlw	55	;'7'
   767  085A  3437               	retlw	55	;'7'
   768  085B  3441               	retlw	65	;'A'
   769  085C  340A               	retlw	10
   770  085D  340D               	retlw	13
   771  085E  3400               	retlw	0
   772  085F                     STR_7:	
   773  085F  3455               	retlw	85	;'U'
   774  0860  3453               	retlw	83	;'S'
   775  0861  3441               	retlw	65	;'A'
   776  0862  3452               	retlw	82	;'R'
   777  0863  3454               	retlw	84	;'T'
   778  0864  343A               	retlw	58	;':'
   779  0865  3420               	retlw	32	;' '
   780  0866  3431               	retlw	49	;'1'
   781  0867  3431               	retlw	49	;'1'
   782  0868  3435               	retlw	53	;'5'
   783  0869  342E               	retlw	46	;'.'
   784  086A  3432               	retlw	50	;'2'
   785  086B  3430               	retlw	48	;'0'
   786  086C  3430               	retlw	48	;'0'
   787  086D  3462               	retlw	98	;'b'
   788  086E  3470               	retlw	112	;'p'
   789  086F  3473               	retlw	115	;'s'
   790  0870  340A               	retlw	10
   791  0871  340D               	retlw	13
   792  0872  3400               	retlw	0
   793  0873                     STR_10:	
   794  0873  3452               	retlw	82	;'R'
   795  0874  3450               	retlw	80	;'P'
   796  0875  344D               	retlw	77	;'M'
   797  0876  343A               	retlw	58	;':'
   798  0877  3420               	retlw	32	;' '
   799  0878  3400               	retlw	0
   800  0879                     STR_8:	
   801  0879  3425               	retlw	37	;'%'
   802  087A  3430               	retlw	48	;'0'
   803  087B  3434               	retlw	52	;'4'
   804  087C  3464               	retlw	100	;'d'
   805  087D  3400               	retlw	0
   806  087E                     STR_1:	
   807  087E  3431               	retlw	49	;'1'
   808  087F  3400               	retlw	0
   809  0880                     STR_2:	
   810  0880  3432               	retlw	50	;'2'
   811  0881  3400               	retlw	0
   812  0882                     STR_3:	
   813  0882  3433               	retlw	51	;'3'
   814  0883  3400               	retlw	0
   815  0884                     STR_4:	
   816  0884  3434               	retlw	52	;'4'
   817  0885  3400               	retlw	0
   818  0886                     STR_5:	
   819  0886  3435               	retlw	53	;'5'
   820  0887  3400               	retlw	0
   821  0888                     __end_of__stringdata:	
   822                           
   823                           ; #config settings
   824  0000                     
   825                           	psect	cinit
   826  0015                     start_initialization:	
   827  0015                     __initialization:	
   828                           
   829                           ; Clear objects allocated to BANK0
   830  0015  01EC               	clrf	__pbssBANK0& (0+127)
   831  0016  01ED               	clrf	(__pbssBANK0+1)& (0+127)
   832  0017  01EE               	clrf	(__pbssBANK0+2)& (0+127)
   833  0018  01EF               	clrf	(__pbssBANK0+3)& (0+127)
   834                           
   835                           ; Clear objects allocated to BANK1
   836  0019  1383               	bcf	3,7	;select IRP bank0
   837  001A  30CD               	movlw	low __pbssBANK1
   838  001B  0084               	movwf	4
   839  001C  30E4               	movlw	low (__pbssBANK1+23)
   840  001D  160A  118A  266F  120A  118A  	fcall	clear_ram0
   841                           
   842                           ; Initialize objects allocated to BANK1
   843  0022  1683               	bsf	3,5	;RP0=1, select bank1
   844  0023  1303               	bcf	3,6	;RP1=0, select bank1
   845  0024  120A  118A  20FD  120A  118A  	fcall	__pidataBANK1	;fetch initializer
   846  0029  00E4               	movwf	__pdataBANK1& (0+127)
   847  002A  120A  118A  20FE  120A  118A  	fcall	__pidataBANK1+1	;fetch initializer
   848  002F  00E5               	movwf	(__pdataBANK1+1)& (0+127)
   849  0030  120A  118A  20FF   	fcall	__pidataBANK1+2	;fetch initializer
   850  0033  00E6               	movwf	(__pdataBANK1+2)& (0+127)
   851  0034                     end_of_initialization:	
   852                           ;End of C runtime variable initialization code
   853                           
   854  0034                     __end_of__initialization:	
   855  0034  0183               	clrf	3
   856  0035  120A  158A  2CB7   	ljmp	_main	;jump to C main() function
   857                           
   858                           	psect	bssBANK0
   859  006C                     __pbssBANK0:	
   860  006C                     _ADCResult:	
   861  006C                     	ds	2
   862  006E                     _status:	
   863  006E                     	ds	2
   864                           
   865                           	psect	bssBANK1
   866  00CD                     __pbssBANK1:	
   867  00CD                     _temp_lida:	
   868  00CD                     	ds	3
   869  00D0                     _contador_rb6:	
   870  00D0                     	ds	2
   871  00D2                     _contagens_tm0:	
   872  00D2                     	ds	2
   873  00D4                     _pulsos:	
   874  00D4                     	ds	2
   875  00D6                     _rpm:	
   876  00D6                     	ds	2
   877  00D8                     _tempo_rb6:	
   878  00D8                     	ds	2
   879  00DA                     _display:	
   880  00DA                     	ds	10
   881                           
   882                           	psect	dataBANK1
   883  00E4                     __pdataBANK1:	
   884  00E4                     _requiredRpm:	
   885  00E4                     	ds	3
   886                           
   887                           	psect	clrtext
   888  166F                     clear_ram0:	
   889                           ;	Called with FSR containing the base address, and
   890                           ;	W with the last address+1
   891                           
   892  166F  0064               	clrwdt	;clear the watchdog before getting into this loop
   893  1670                     clrloop0:	
   894  1670  0180               	clrf	0	;clear RAM location pointed to by FSR
   895  1671  0A84               	incf	4,f	;increment pointer
   896  1672  0604               	xorwf	4,w	;XOR with final address
   897  1673  1903               	btfsc	3,2	;have we reached the end yet?
   898  1674  3400               	retlw	0	;all done for this memory range, return
   899  1675  0604               	xorwf	4,w	;XOR again to restore value
   900  1676  2E70               	goto	clrloop0	;do the next byte
   901                           
   902                           	psect	cstackBANK3
   903  0190                     __pcstackBANK3:	
   904  0190                     ??_main:	
   905                           
   906                           ; 0 bytes @ 0x0
   907  0190                     	ds	3
   908                           
   909                           	psect	cstackBANK1
   910  00A0                     __pcstackBANK1:	
   911  00A0                     	ds	1
   912  00A1                     _ISR$1731:	
   913                           
   914                           ; 3 bytes @ 0x1
   915  00A1                     	ds	3
   916  00A4                     _ISR$1732:	
   917                           
   918                           ; 3 bytes @ 0x4
   919  00A4                     	ds	3
   920  00A7                     ??_TIMER0_Set:	
   921  00A7                     ?_PWM_DutyCycle2:	
   922                           ; 0 bytes @ 0x7
   923                           
   924  00A7                     ??_TIMER0_Init:	
   925                           ; 0 bytes @ 0x7
   926                           
   927  00A7                     ??_ADC_Init:	
   928                           ; 0 bytes @ 0x7
   929                           
   930  00A7                     ??_PWM_Init:	
   931                           ; 0 bytes @ 0x7
   932                           
   933  00A7                     ?_LCD_Cursor:	
   934                           ; 0 bytes @ 0x7
   935                           
   936  00A7                     ?_PWM_DutyCycle1:	
   937                           ; 0 bytes @ 0x7
   938                           
   939  00A7                     ??_isdigit:	
   940                           ; 0 bytes @ 0x7
   941                           
   942  00A7                     ?_putch:	
   943                           ; 0 bytes @ 0x7
   944                           
   945  00A7                     ??_USART_WriteChar:	
   946                           ; 0 bytes @ 0x7
   947                           
   948  00A7                     ??_LCD_WriteCmd:	
   949                           ; 0 bytes @ 0x7
   950                           
   951  00A7                     ??_LCD_WriteData:	
   952                           ; 0 bytes @ 0x7
   953                           
   954  00A7                     ?___wmul:	
   955                           ; 0 bytes @ 0x7
   956                           
   957  00A7                     ?___lwdiv:	
   958                           ; 2 bytes @ 0x7
   959                           
   960  00A7                     ?___aldiv:	
   961                           ; 2 bytes @ 0x7
   962                           
   963  00A7                     USART_WriteChar@byte:	
   964                           ; 4 bytes @ 0x7
   965                           
   966  00A7                     TIMER0_Set@contagens:	
   967                           ; 1 bytes @ 0x7
   968                           
   969  00A7                     LCD_Cursor@Col:	
   970                           ; 1 bytes @ 0x7
   971                           
   972  00A7                     _isdigit$1416:	
   973                           ; 1 bytes @ 0x7
   974                           
   975  00A7                     putch@c:	
   976                           ; 1 bytes @ 0x7
   977                           
   978  00A7                     PWM_DutyCycle1@valor:	
   979                           ; 1 bytes @ 0x7
   980                           
   981  00A7                     PWM_DutyCycle2@valor:	
   982                           ; 2 bytes @ 0x7
   983                           
   984  00A7                     ___wmul@multiplier:	
   985                           ; 2 bytes @ 0x7
   986                           
   987  00A7                     ___lwdiv@divisor:	
   988                           ; 2 bytes @ 0x7
   989                           
   990  00A7                     ___aldiv@divisor:	
   991                           ; 2 bytes @ 0x7
   992                           
   993                           
   994                           ; 4 bytes @ 0x7
   995  00A7                     	ds	1
   996  00A8                     ?_USART_WriteString:	
   997  00A8                     ??_LCD_Cursor:	
   998                           ; 0 bytes @ 0x8
   999                           
  1000  00A8                     ??_putch:	
  1001                           ; 0 bytes @ 0x8
  1002                           
  1003  00A8                     LCD_WriteCmd@Byte:	
  1004                           ; 0 bytes @ 0x8
  1005                           
  1006  00A8                     LCD_WriteData@Byte:	
  1007                           ; 1 bytes @ 0x8
  1008                           
  1009  00A8                     isdigit@c:	
  1010                           ; 1 bytes @ 0x8
  1011                           
  1012  00A8                     USART_WriteString@str:	
  1013                           ; 1 bytes @ 0x8
  1014                           
  1015                           
  1016                           ; 2 bytes @ 0x8
  1017  00A8                     	ds	1
  1018  00A9                     ??_PWM_DutyCycle2:	
  1019  00A9                     ??_LCD_Init:	
  1020                           ; 0 bytes @ 0x9
  1021                           
  1022  00A9                     ??_PWM_DutyCycle1:	
  1023                           ; 0 bytes @ 0x9
  1024                           
  1025  00A9                     ??_LCD_Clear:	
  1026                           ; 0 bytes @ 0x9
  1027                           
  1028  00A9                     ?_LCD_WriteString:	
  1029                           ; 0 bytes @ 0x9
  1030                           
  1031  00A9                     LCD_Cursor@Row:	
  1032                           ; 0 bytes @ 0x9
  1033                           
  1034  00A9                     LCD_WriteString@Str:	
  1035                           ; 1 bytes @ 0x9
  1036                           
  1037  00A9                     ___wmul@multiplicand:	
  1038                           ; 2 bytes @ 0x9
  1039                           
  1040  00A9                     ___lwdiv@dividend:	
  1041                           ; 2 bytes @ 0x9
  1042                           
  1043                           
  1044                           ; 2 bytes @ 0x9
  1045  00A9                     	ds	1
  1046  00AA                     ??_USART_WriteString:	
  1047                           
  1048                           ; 0 bytes @ 0xA
  1049  00AA                     	ds	1
  1050  00AB                     ??_LCD_WriteString:	
  1051  00AB                     ??___wmul:	
  1052                           ; 0 bytes @ 0xB
  1053                           
  1054  00AB                     ??___lwdiv:	
  1055                           ; 0 bytes @ 0xB
  1056                           
  1057  00AB                     ___wmul@product:	
  1058                           ; 0 bytes @ 0xB
  1059                           
  1060  00AB                     ___aldiv@dividend:	
  1061                           ; 2 bytes @ 0xB
  1062                           
  1063                           
  1064                           ; 4 bytes @ 0xB
  1065  00AB                     	ds	1
  1066  00AC                     ___lwdiv@quotient:	
  1067                           
  1068                           ; 2 bytes @ 0xC
  1069  00AC                     	ds	2
  1070  00AE                     ___lwdiv@counter:	
  1071                           
  1072                           ; 1 bytes @ 0xE
  1073  00AE                     	ds	1
  1074  00AF                     ??___aldiv:	
  1075  00AF                     ?___lwmod:	
  1076                           ; 0 bytes @ 0xF
  1077                           
  1078  00AF                     ___lwmod@divisor:	
  1079                           ; 2 bytes @ 0xF
  1080                           
  1081                           
  1082                           ; 2 bytes @ 0xF
  1083  00AF                     	ds	1
  1084  00B0                     ___aldiv@counter:	
  1085                           
  1086                           ; 1 bytes @ 0x10
  1087  00B0                     	ds	1
  1088  00B1                     ___aldiv@sign:	
  1089  00B1                     ___lwmod@dividend:	
  1090                           ; 1 bytes @ 0x11
  1091                           
  1092                           
  1093                           ; 2 bytes @ 0x11
  1094  00B1                     	ds	1
  1095  00B2                     ___aldiv@quotient:	
  1096                           
  1097                           ; 4 bytes @ 0x12
  1098  00B2                     	ds	1
  1099  00B3                     ??___lwmod:	
  1100                           
  1101                           ; 0 bytes @ 0x13
  1102  00B3                     	ds	1
  1103  00B4                     ___lwmod@counter:	
  1104                           
  1105                           ; 1 bytes @ 0x14
  1106  00B4                     	ds	1
  1107  00B5                     ?__doprnt:	
  1108  00B5                     __doprnt@f:	
  1109                           ; 2 bytes @ 0x15
  1110                           
  1111                           
  1112                           ; 1 bytes @ 0x15
  1113  00B5                     	ds	1
  1114  00B6                     ?_USART_Init:	
  1115  00B6                     __doprnt@ap:	
  1116                           ; 0 bytes @ 0x16
  1117                           
  1118  00B6                     USART_Init@BaudRate:	
  1119                           ; 1 bytes @ 0x16
  1120                           
  1121                           
  1122                           ; 4 bytes @ 0x16
  1123  00B6                     	ds	1
  1124  00B7                     ??__doprnt:	
  1125                           
  1126                           ; 0 bytes @ 0x17
  1127  00B7                     	ds	3
  1128  00BA                     ??_USART_Init:	
  1129  00BA                     __doprnt@prec:	
  1130                           ; 0 bytes @ 0x1A
  1131                           
  1132                           
  1133                           ; 1 bytes @ 0x1A
  1134  00BA                     	ds	1
  1135  00BB                     __doprnt@_val:	
  1136                           
  1137                           ; 4 bytes @ 0x1B
  1138  00BB                     	ds	4
  1139  00BF                     __doprnt@flag:	
  1140                           
  1141                           ; 1 bytes @ 0x1F
  1142  00BF                     	ds	1
  1143  00C0                     __doprnt@width:	
  1144                           
  1145                           ; 2 bytes @ 0x20
  1146  00C0                     	ds	2
  1147  00C2                     __doprnt@c:	
  1148                           
  1149                           ; 1 bytes @ 0x22
  1150  00C2                     	ds	1
  1151  00C3                     __doprnt@pb:	
  1152                           
  1153                           ; 1 bytes @ 0x23
  1154  00C3                     	ds	1
  1155  00C4                     ?_sprintf:	
  1156  00C4                     sprintf@f:	
  1157                           ; 2 bytes @ 0x24
  1158                           
  1159                           
  1160                           ; 1 bytes @ 0x24
  1161  00C4                     	ds	3
  1162  00C7                     ??_sprintf:	
  1163                           
  1164                           ; 0 bytes @ 0x27
  1165  00C7                     	ds	2
  1166  00C9                     sprintf@wh:	
  1167                           
  1168                           ; 1 bytes @ 0x29
  1169  00C9                     	ds	1
  1170  00CA                     sprintf@ap:	
  1171                           
  1172                           ; 1 bytes @ 0x2A
  1173  00CA                     	ds	1
  1174  00CB                     sprintf@pb:	
  1175                           
  1176                           ; 2 bytes @ 0x2B
  1177  00CB                     	ds	2
  1178                           
  1179                           	psect	cstackCOMMON
  1180  0070                     __pcstackCOMMON:	
  1181  0070                     ?_TIMER0_Set:	
  1182  0070                     ?_TIMER0_Init:	
  1183                           ; 0 bytes @ 0x0
  1184                           
  1185  0070                     ?_ADC_Init:	
  1186                           ; 0 bytes @ 0x0
  1187                           
  1188  0070                     ?_PWM_Init:	
  1189                           ; 0 bytes @ 0x0
  1190                           
  1191  0070                     ?_LCD_Init:	
  1192                           ; 0 bytes @ 0x0
  1193                           
  1194  0070                     ?_LCD_Clear:	
  1195                           ; 0 bytes @ 0x0
  1196                           
  1197  0070                     ?_isdigit:	
  1198                           ; 0 bytes @ 0x0
  1199                           
  1200  0070                     ?_ISR:	
  1201                           ; 1 bit 
  1202                           
  1203  0070                     ?_main:	
  1204                           ; 0 bytes @ 0x0
  1205                           
  1206  0070                     ?_USART_WriteChar:	
  1207                           ; 0 bytes @ 0x0
  1208                           
  1209  0070                     ?_LCD_WriteCmd:	
  1210                           ; 0 bytes @ 0x0
  1211                           
  1212  0070                     ?_LCD_WriteData:	
  1213                           ; 0 bytes @ 0x0
  1214                           
  1215  0070                     ?___ftge:	
  1216                           ; 0 bytes @ 0x0
  1217                           
  1218  0070                     ?i1_TIMER0_Set:	
  1219                           ; 1 bit 
  1220                           
  1221  0070                     ??i1_TIMER0_Set:	
  1222                           ; 0 bytes @ 0x0
  1223                           
  1224  0070                     ?i1_isdigit:	
  1225                           ; 0 bytes @ 0x0
  1226                           
  1227  0070                     ??i1_isdigit:	
  1228                           ; 1 bit 
  1229                           
  1230  0070                     ?i1_putch:	
  1231                           ; 0 bytes @ 0x0
  1232                           
  1233  0070                     ?_printf:	
  1234                           ; 0 bytes @ 0x0
  1235                           
  1236  0070                     ?i1___wmul:	
  1237                           ; 2 bytes @ 0x0
  1238                           
  1239  0070                     ?i1___lwdiv:	
  1240                           ; 2 bytes @ 0x0
  1241                           
  1242  0070                     ?___ftpack:	
  1243                           ; 2 bytes @ 0x0
  1244                           
  1245  0070                     ?___ftneg:	
  1246                           ; 3 bytes @ 0x0
  1247                           
  1248  0070                     i1TIMER0_Set@contagens:	
  1249                           ; 3 bytes @ 0x0
  1250                           
  1251  0070                     i1_isdigit$1416:	
  1252                           ; 1 bytes @ 0x0
  1253                           
  1254  0070                     i1putch@c:	
  1255                           ; 1 bytes @ 0x0
  1256                           
  1257  0070                     i1___wmul@multiplier:	
  1258                           ; 1 bytes @ 0x0
  1259                           
  1260  0070                     i1___lwdiv@divisor:	
  1261                           ; 2 bytes @ 0x0
  1262                           
  1263  0070                     ___ftpack@arg:	
  1264                           ; 2 bytes @ 0x0
  1265                           
  1266  0070                     ___ftge@ff1:	
  1267                           ; 3 bytes @ 0x0
  1268                           
  1269  0070                     ___ftneg@f1:	
  1270                           ; 3 bytes @ 0x0
  1271                           
  1272                           
  1273                           ; 3 bytes @ 0x0
  1274  0070                     	ds	1
  1275  0071                     ??i1_putch:	
  1276  0071                     i1isdigit@c:	
  1277                           ; 0 bytes @ 0x1
  1278                           
  1279                           
  1280                           ; 1 bytes @ 0x1
  1281  0071                     	ds	1
  1282  0072                     i1___wmul@multiplicand:	
  1283  0072                     i1___lwdiv@dividend:	
  1284                           ; 2 bytes @ 0x2
  1285                           
  1286                           
  1287                           ; 2 bytes @ 0x2
  1288  0072                     	ds	1
  1289  0073                     ??___ftneg:	
  1290  0073                     ___ftpack@exp:	
  1291                           ; 0 bytes @ 0x3
  1292                           
  1293  0073                     ___ftge@ff2:	
  1294                           ; 1 bytes @ 0x3
  1295                           
  1296                           
  1297                           ; 3 bytes @ 0x3
  1298  0073                     	ds	1
  1299  0074                     ??i1___wmul:	
  1300  0074                     ??i1___lwdiv:	
  1301                           ; 0 bytes @ 0x4
  1302                           
  1303  0074                     ___ftpack@sign:	
  1304                           ; 0 bytes @ 0x4
  1305                           
  1306  0074                     i1___wmul@product:	
  1307                           ; 1 bytes @ 0x4
  1308                           
  1309                           
  1310                           ; 2 bytes @ 0x4
  1311  0074                     	ds	1
  1312  0075                     ??___ftpack:	
  1313  0075                     i1___lwdiv@quotient:	
  1314                           ; 0 bytes @ 0x5
  1315                           
  1316                           
  1317                           ; 2 bytes @ 0x5
  1318  0075                     	ds	1
  1319  0076                     ??___ftge:	
  1320                           
  1321                           ; 0 bytes @ 0x6
  1322  0076                     	ds	1
  1323  0077                     i1___lwdiv@counter:	
  1324                           
  1325                           ; 1 bytes @ 0x7
  1326  0077                     	ds	1
  1327  0078                     ?i1___lwmod:	
  1328  0078                     ?___ftadd:	
  1329                           ; 2 bytes @ 0x8
  1330                           
  1331  0078                     ?___lwtoft:	
  1332                           ; 3 bytes @ 0x8
  1333                           
  1334  0078                     ___lwtoft@c:	
  1335                           ; 3 bytes @ 0x8
  1336                           
  1337  0078                     i1___lwmod@divisor:	
  1338                           ; 2 bytes @ 0x8
  1339                           
  1340  0078                     ___ftadd@f1:	
  1341                           ; 2 bytes @ 0x8
  1342                           
  1343                           
  1344                           ; 3 bytes @ 0x8
  1345  0078                     	ds	2
  1346  007A                     i1___lwmod@dividend:	
  1347                           
  1348                           ; 2 bytes @ 0xA
  1349  007A                     	ds	1
  1350  007B                     ??___lwtoft:	
  1351  007B                     ___ftadd@f2:	
  1352                           ; 0 bytes @ 0xB
  1353                           
  1354                           
  1355                           ; 3 bytes @ 0xB
  1356  007B                     	ds	1
  1357  007C                     ??i1___lwmod:	
  1358                           
  1359                           ; 0 bytes @ 0xC
  1360  007C                     	ds	1
  1361  007D                     i1___lwmod@counter:	
  1362                           
  1363                           ; 1 bytes @ 0xD
  1364  007D                     	ds	1
  1365  007E                     ??_trapezoidal:	
  1366                           
  1367                           	psect	cstackBANK0
  1368  0020                     __pcstackBANK0:	
  1369                           ; 0 bytes @ 0xE
  1370                           
  1371  0020                     ??___ftadd:	
  1372  0020                     ?i1__doprnt:	
  1373                           ; 0 bytes @ 0x0
  1374                           
  1375  0020                     i1__doprnt@f:	
  1376                           ; 2 bytes @ 0x0
  1377                           
  1378                           
  1379                           ; 1 bytes @ 0x0
  1380  0020                     	ds	1
  1381  0021                     i1__doprnt@ap:	
  1382                           
  1383                           ; 1 bytes @ 0x1
  1384  0021                     	ds	1
  1385  0022                     ??i1__doprnt:	
  1386                           
  1387                           ; 0 bytes @ 0x2
  1388  0022                     	ds	2
  1389  0024                     ___ftadd@sign:	
  1390                           
  1391                           ; 1 bytes @ 0x4
  1392  0024                     	ds	1
  1393  0025                     ___ftadd@exp2:	
  1394  0025                     i1__doprnt@prec:	
  1395                           ; 1 bytes @ 0x5
  1396                           
  1397                           
  1398                           ; 1 bytes @ 0x5
  1399  0025                     	ds	1
  1400  0026                     ___ftadd@exp1:	
  1401  0026                     i1__doprnt@_val:	
  1402                           ; 1 bytes @ 0x6
  1403                           
  1404                           
  1405                           ; 4 bytes @ 0x6
  1406  0026                     	ds	1
  1407  0027                     ?___ftdiv:	
  1408  0027                     ___ftdiv@f2:	
  1409                           ; 3 bytes @ 0x7
  1410                           
  1411                           
  1412                           ; 3 bytes @ 0x7
  1413  0027                     	ds	3
  1414  002A                     i1__doprnt@flag:	
  1415  002A                     ___ftdiv@f1:	
  1416                           ; 1 bytes @ 0xA
  1417                           
  1418                           
  1419                           ; 3 bytes @ 0xA
  1420  002A                     	ds	1
  1421  002B                     i1__doprnt@width:	
  1422                           
  1423                           ; 2 bytes @ 0xB
  1424  002B                     	ds	2
  1425  002D                     ??___ftdiv:	
  1426  002D                     i1__doprnt@c:	
  1427                           ; 0 bytes @ 0xD
  1428                           
  1429                           
  1430                           ; 1 bytes @ 0xD
  1431  002D                     	ds	1
  1432  002E                     i1__doprnt@pb:	
  1433                           
  1434                           ; 1 bytes @ 0xE
  1435  002E                     	ds	1
  1436  002F                     ??_printf:	
  1437                           
  1438                           ; 0 bytes @ 0xF
  1439  002F                     	ds	2
  1440  0031                     ___ftdiv@cntr:	
  1441  0031                     printf@f:	
  1442                           ; 1 bytes @ 0x11
  1443                           
  1444                           
  1445                           ; 1 bytes @ 0x11
  1446  0031                     	ds	1
  1447  0032                     printf@ap:	
  1448  0032                     ___ftdiv@f3:	
  1449                           ; 1 bytes @ 0x12
  1450                           
  1451                           
  1452                           ; 3 bytes @ 0x12
  1453  0032                     	ds	1
  1454  0033                     printf@pb:	
  1455                           
  1456                           ; 2 bytes @ 0x13
  1457  0033                     	ds	2
  1458  0035                     ___ftdiv@exp:	
  1459                           
  1460                           ; 1 bytes @ 0x15
  1461  0035                     	ds	1
  1462  0036                     ___ftdiv@sign:	
  1463                           
  1464                           ; 1 bytes @ 0x16
  1465  0036                     	ds	1
  1466  0037                     ?_trapezoidal:	
  1467  0037                     trapezoidal@x:	
  1468                           ; 3 bytes @ 0x17
  1469                           
  1470                           
  1471                           ; 3 bytes @ 0x17
  1472  0037                     	ds	3
  1473  003A                     trapezoidal@a:	
  1474                           
  1475                           ; 3 bytes @ 0x1A
  1476  003A                     	ds	3
  1477  003D                     trapezoidal@b:	
  1478                           
  1479                           ; 3 bytes @ 0x1D
  1480  003D                     	ds	3
  1481  0040                     trapezoidal@c:	
  1482                           
  1483                           ; 3 bytes @ 0x20
  1484  0040                     	ds	3
  1485  0043                     trapezoidal@d:	
  1486                           
  1487                           ; 3 bytes @ 0x23
  1488  0043                     	ds	3
  1489  0046                     ?___ftmul:	
  1490  0046                     ___ftmul@f1:	
  1491                           ; 3 bytes @ 0x26
  1492                           
  1493                           
  1494                           ; 3 bytes @ 0x26
  1495  0046                     	ds	3
  1496  0049                     ___ftmul@f2:	
  1497                           
  1498                           ; 3 bytes @ 0x29
  1499  0049                     	ds	3
  1500  004C                     ??___ftmul:	
  1501                           
  1502                           ; 0 bytes @ 0x2C
  1503  004C                     	ds	4
  1504  0050                     ___ftmul@exp:	
  1505                           
  1506                           ; 1 bytes @ 0x30
  1507  0050                     	ds	1
  1508  0051                     ___ftmul@f3_as_product:	
  1509                           
  1510                           ; 3 bytes @ 0x31
  1511  0051                     	ds	3
  1512  0054                     ___ftmul@cntr:	
  1513                           
  1514                           ; 1 bytes @ 0x34
  1515  0054                     	ds	1
  1516  0055                     ___ftmul@sign:	
  1517                           
  1518                           ; 1 bytes @ 0x35
  1519  0055                     	ds	1
  1520  0056                     ?___fttol:	
  1521  0056                     ___fttol@f1:	
  1522                           ; 4 bytes @ 0x36
  1523                           
  1524                           
  1525                           ; 3 bytes @ 0x36
  1526  0056                     	ds	4
  1527  005A                     ??___fttol:	
  1528                           
  1529                           ; 0 bytes @ 0x3A
  1530  005A                     	ds	4
  1531  005E                     ___fttol@sign1:	
  1532                           
  1533                           ; 1 bytes @ 0x3E
  1534  005E                     	ds	1
  1535  005F                     ___fttol@lval:	
  1536                           
  1537                           ; 4 bytes @ 0x3F
  1538  005F                     	ds	4
  1539  0063                     ___fttol@exp1:	
  1540                           
  1541                           ; 1 bytes @ 0x43
  1542  0063                     	ds	1
  1543  0064                     ?i1_PWM_DutyCycle2:	
  1544  0064                     i1PWM_DutyCycle2@valor:	
  1545                           ; 0 bytes @ 0x44
  1546                           
  1547                           
  1548                           ; 2 bytes @ 0x44
  1549  0064                     	ds	2
  1550  0066                     ??i1_PWM_DutyCycle2:	
  1551                           
  1552                           ; 0 bytes @ 0x46
  1553  0066                     	ds	2
  1554  0068                     ??_ISR:	
  1555                           
  1556                           ; 0 bytes @ 0x48
  1557  0068                     	ds	4
  1558                           
  1559                           	psect	maintext
  1560  0CB7                     __pmaintext:	
  1561 ;;
  1562 ;;Main: autosize = 0, tempsize = 3, incstack = 0, save=0
  1563 ;;
  1564 ;; *************** function _main *****************
  1565 ;; Defined at:
  1566 ;;		line 162 in file "C:\Users\332414\Desktop\Fuzzy-IA2\Cdigo em C no MPLAB\main.c"
  1567 ;; Parameters:    Size  Location     Type
  1568 ;;		None
  1569 ;; Auto vars:     Size  Location     Type
  1570 ;;		None
  1571 ;; Return value:  Size  Location     Type
  1572 ;;		None               void
  1573 ;; Registers used:
  1574 ;;		wreg, fsr0l, fsr0h, status,2, status,0, btemp+1, pclath, cstack
  1575 ;; Tracked objects:
  1576 ;;		On entry : 17F/0
  1577 ;;		On exit  : 0/0
  1578 ;;		Unchanged: 0/0
  1579 ;; Data sizes:     COMMON   BANK0   BANK1   BANK3   BANK2
  1580 ;;      Params:         0       0       0       0       0
  1581 ;;      Locals:         0       0       0       0       0
  1582 ;;      Temps:          0       0       0       3       0
  1583 ;;      Totals:         0       0       0       3       0
  1584 ;;Total ram usage:        3 bytes
  1585 ;; Hardware stack levels required when called:    8
  1586 ;; This function calls:
  1587 ;;		_ADC_Init
  1588 ;;		_LCD_Clear
  1589 ;;		_LCD_Cursor
  1590 ;;		_LCD_Init
  1591 ;;		_LCD_WriteString
  1592 ;;		_PWM_DutyCycle1
  1593 ;;		_PWM_DutyCycle2
  1594 ;;		_PWM_Init
  1595 ;;		_TIMER0_Init
  1596 ;;		_TIMER0_Set
  1597 ;;		_USART_Init
  1598 ;;		_USART_WriteString
  1599 ;;		_sprintf
  1600 ;; This function is called by:
  1601 ;;		Startup code after reset
  1602 ;; This function uses a non-reentrant model
  1603 ;;
  1604                           
  1605                           
  1606                           ;psect for function _main
  1607  0CB7                     _main:	
  1608                           
  1609                           ;main.c: 164: TRISA = 0b00000001;
  1610                           
  1611                           ;incstack = 0
  1612                           ; Regs used in _main: [wreg-fsr0h+status,2+status,0+btemp+1+pclath+cstack]
  1613  0CB7  3001               	movlw	1
  1614  0CB8  1683               	bsf	3,5	;RP0=1, select bank1
  1615  0CB9  1303               	bcf	3,6	;RP1=0, select bank1
  1616  0CBA  0085               	movwf	5	;volatile
  1617                           
  1618                           ;main.c: 165: PORTA = 0b00000001;
  1619  0CBB  3001               	movlw	1
  1620  0CBC  1283               	bcf	3,5	;RP0=0, select bank0
  1621  0CBD  1303               	bcf	3,6	;RP1=0, select bank0
  1622  0CBE  0085               	movwf	5	;volatile
  1623                           
  1624                           ;main.c: 166: TRISB = 0b00000000;
  1625  0CBF  1683               	bsf	3,5	;RP0=1, select bank1
  1626  0CC0  1303               	bcf	3,6	;RP1=0, select bank1
  1627  0CC1  0186               	clrf	6	;volatile
  1628                           
  1629                           ;main.c: 167: PORTB = 0b00000000;
  1630  0CC2  1283               	bcf	3,5	;RP0=0, select bank0
  1631  0CC3  1303               	bcf	3,6	;RP1=0, select bank0
  1632  0CC4  0186               	clrf	6	;volatile
  1633                           
  1634                           ;main.c: 168: TRISC = 0b10000001;
  1635  0CC5  3081               	movlw	129
  1636  0CC6  1683               	bsf	3,5	;RP0=1, select bank1
  1637  0CC7  1303               	bcf	3,6	;RP1=0, select bank1
  1638  0CC8  0087               	movwf	7	;volatile
  1639                           
  1640                           ;main.c: 169: PORTC = 0b11000000;
  1641  0CC9  30C0               	movlw	192
  1642  0CCA  1283               	bcf	3,5	;RP0=0, select bank0
  1643  0CCB  1303               	bcf	3,6	;RP1=0, select bank0
  1644  0CCC  0087               	movwf	7	;volatile
  1645                           
  1646                           ;main.c: 170: TRISD = 0b00000000;
  1647  0CCD  1683               	bsf	3,5	;RP0=1, select bank1
  1648  0CCE  1303               	bcf	3,6	;RP1=0, select bank1
  1649  0CCF  0188               	clrf	8	;volatile
  1650                           
  1651                           ;main.c: 171: PORTD = 0b00000000;
  1652  0CD0  1283               	bcf	3,5	;RP0=0, select bank0
  1653  0CD1  1303               	bcf	3,6	;RP1=0, select bank0
  1654  0CD2  0188               	clrf	8	;volatile
  1655                           
  1656                           ;main.c: 172: TRISE = 0b00000000;
  1657  0CD3  1683               	bsf	3,5	;RP0=1, select bank1
  1658  0CD4  1303               	bcf	3,6	;RP1=0, select bank1
  1659  0CD5  0189               	clrf	9	;volatile
  1660                           
  1661                           ;main.c: 173: PORTE = 0b00000000;
  1662  0CD6  1283               	bcf	3,5	;RP0=0, select bank0
  1663  0CD7  1303               	bcf	3,6	;RP1=0, select bank0
  1664  0CD8  0189               	clrf	9	;volatile
  1665                           
  1666                           ;main.c: 176: T1CON = 0x03;
  1667  0CD9  3003               	movlw	3
  1668  0CDA  0090               	movwf	16	;volatile
  1669                           
  1670                           ;main.c: 177: TMR1L = 0x00;
  1671  0CDB  018E               	clrf	14	;volatile
  1672                           
  1673                           ;main.c: 178: TMR1H = 0x00;
  1674  0CDC  018F               	clrf	15	;volatile
  1675                           
  1676                           ;main.c: 181: USART_Init(115200);
  1677  0CDD  3000               	movlw	0
  1678  0CDE  1683               	bsf	3,5	;RP0=1, select bank1
  1679  0CDF  1303               	bcf	3,6	;RP1=0, select bank1
  1680  0CE0  00B9               	movwf	(USART_Init@BaudRate+3)^(0+128)
  1681  0CE1  3001               	movlw	1
  1682  0CE2  00B8               	movwf	(USART_Init@BaudRate+2)^(0+128)
  1683  0CE3  30C2               	movlw	194
  1684  0CE4  00B7               	movwf	(USART_Init@BaudRate+1)^(0+128)
  1685  0CE5  3000               	movlw	0
  1686  0CE6  00B6               	movwf	USART_Init@BaudRate^(0+128)
  1687  0CE7  120A  158A  21DD  120A  158A  	fcall	_USART_Init
  1688                           
  1689                           ;main.c: 182: TIMER0_Init();
  1690  0CEC  120A  118A  27F5  120A  158A  	fcall	_TIMER0_Init
  1691                           
  1692                           ;main.c: 183: ADC_Init();
  1693  0CF1  160A  118A  26A2  120A  158A  	fcall	_ADC_Init
  1694                           
  1695                           ;main.c: 184: PWM_Init();
  1696  0CF6  160A  118A  27B7  120A  158A  	fcall	_PWM_Init
  1697                           
  1698                           ;main.c: 185: LCD_Init();
  1699  0CFB  120A  158A  22EB  120A  158A  	fcall	_LCD_Init
  1700                           
  1701                           ;main.c: 188: INTCONbits.PEIE = 1;
  1702  0D00  170B               	bsf	11,6	;volatile
  1703                           
  1704                           ;main.c: 189: INTCONbits.GIE = 1;
  1705  0D01  178B               	bsf	11,7	;volatile
  1706                           
  1707                           ;main.c: 192: USART_WriteString("Inicializando o PIC16F877A\n\r");
  1708  0D02  3033               	movlw	low (STR_6-__stringbase)
  1709  0D03  1683               	bsf	3,5	;RP0=1, select bank1
  1710  0D04  1303               	bcf	3,6	;RP1=0, select bank1
  1711  0D05  00A8               	movwf	USART_WriteString@str^(0+128)
  1712  0D06  3080               	movlw	128
  1713  0D07  00A9               	movwf	(USART_WriteString@str+1)^(0+128)
  1714  0D08  120A  158A  20FA  120A  158A  	fcall	_USART_WriteString
  1715                           
  1716                           ;main.c: 193: USART_WriteString("USART: 115.200bps\n\r");
  1717  0D0D  3050               	movlw	low (STR_7-__stringbase)
  1718  0D0E  1683               	bsf	3,5	;RP0=1, select bank1
  1719  0D0F  1303               	bcf	3,6	;RP1=0, select bank1
  1720  0D10  00A8               	movwf	USART_WriteString@str^(0+128)
  1721  0D11  3080               	movlw	128
  1722  0D12  00A9               	movwf	(USART_WriteString@str+1)^(0+128)
  1723  0D13  120A  158A  20FA  120A  158A  	fcall	_USART_WriteString
  1724                           
  1725                           ;main.c: 196: LCD_Init();
  1726  0D18  120A  158A  22EB  120A  158A  	fcall	_LCD_Init
  1727                           
  1728                           ;main.c: 197: LCD_Cursor(0,0);
  1729  0D1D  1683               	bsf	3,5	;RP0=1, select bank1
  1730  0D1E  1303               	bcf	3,6	;RP1=0, select bank1
  1731  0D1F  01A7               	clrf	LCD_Cursor@Col^(0+128)
  1732  0D20  3000               	movlw	0
  1733  0D21  160A  118A  2732  120A  158A  	fcall	_LCD_Cursor
  1734                           
  1735                           ;main.c: 201: PWM_DutyCycle1(0);
  1736  0D26  3000               	movlw	0
  1737  0D27  1683               	bsf	3,5	;RP0=1, select bank1
  1738  0D28  1303               	bcf	3,6	;RP1=0, select bank1
  1739  0D29  00A7               	movwf	PWM_DutyCycle1@valor^(0+128)
  1740  0D2A  3000               	movlw	0
  1741  0D2B  00A8               	movwf	(PWM_DutyCycle1@valor^(0+128)+1)
  1742  0D2C  160A  118A  2752  120A  158A  	fcall	_PWM_DutyCycle1
  1743                           
  1744                           ;main.c: 202: PWM_DutyCycle2(1023);
  1745  0D31  30FF               	movlw	255
  1746  0D32  1683               	bsf	3,5	;RP0=1, select bank1
  1747  0D33  1303               	bcf	3,6	;RP1=0, select bank1
  1748  0D34  00A7               	movwf	PWM_DutyCycle2@valor^(0+128)
  1749  0D35  3003               	movlw	3
  1750  0D36  00A8               	movwf	(PWM_DutyCycle2@valor^(0+128)+1)
  1751  0D37  160A  118A  2773  120A  158A  	fcall	_PWM_DutyCycle2
  1752                           
  1753                           ;main.c: 205: TIMER0_Set(238);
  1754  0D3C  30EE               	movlw	238
  1755  0D3D  160A  118A  2667  120A  158A  	fcall	_TIMER0_Set
  1756                           
  1757                           ;main.c: 208: _delay((unsigned long)((1000)*(18432000/4000.0)));
  1758  0D42  3018               	movlw	24
  1759  0D43  1683               	bsf	3,5	;RP0=1, select bank3
  1760  0D44  1703               	bsf	3,6	;RP1=1, select bank3
  1761  0D45  0092               	movwf	(??_main^(0+384)+2)
  1762  0D46  3061               	movlw	97
  1763  0D47  0091               	movwf	(??_main^(0+384)+1)
  1764  0D48  306E               	movlw	110
  1765  0D49  0090               	movwf	??_main^(0+384)
  1766  0D4A                     u6687:	
  1767  0D4A  0B90               	decfsz	??_main^(0+384),f
  1768  0D4B  2D4A               	goto	u6687
  1769  0D4C  0B91               	decfsz	(??_main^(0+384)+1),f
  1770  0D4D  2D4A               	goto	u6687
  1771  0D4E  0B92               	decfsz	(??_main^(0+384)+2),f
  1772  0D4F  2D4A               	goto	u6687
  1773  0D50  0000               	nop
  1774  0D51                     l4989:	
  1775                           ;main.c: 211: while(1)
  1776                           
  1777                           
  1778                           ;main.c: 212: {
  1779                           ;main.c: 214: sprintf(display,"%04d", rpm);
  1780  0D51  306A               	movlw	(STR_8-__stringbase)& (0+255)
  1781  0D52  1683               	bsf	3,5	;RP0=1, select bank3
  1782  0D53  1703               	bsf	3,6	;RP1=1, select bank3
  1783  0D54  0090               	movwf	??_main^(0+384)
  1784  0D55  0810               	movf	??_main^(0+384),w
  1785  0D56  1683               	bsf	3,5	;RP0=1, select bank1
  1786  0D57  1303               	bcf	3,6	;RP1=0, select bank1
  1787  0D58  00C4               	movwf	sprintf@f^(0+128)
  1788  0D59  0857               	movf	(_rpm+1)^(0+128),w
  1789  0D5A  01C6               	clrf	((?_sprintf+1)^(0+128)+1)
  1790  0D5B  07C6               	addwf	((?_sprintf+1)^(0+128)+1),f
  1791  0D5C  0856               	movf	_rpm^(0+128),w
  1792  0D5D  01C5               	clrf	(?_sprintf^(0+128)+1)
  1793  0D5E  07C5               	addwf	(?_sprintf^(0+128)+1),f
  1794  0D5F  30DA               	movlw	_display& (0+255)
  1795  0D60  160A  118A  2713  120A  158A  	fcall	_sprintf
  1796                           
  1797                           ;main.c: 217: USART_WriteString(display);
  1798  0D65  30DA               	movlw	_display& (0+255)
  1799  0D66  1683               	bsf	3,5	;RP0=1, select bank1
  1800  0D67  1303               	bcf	3,6	;RP1=0, select bank1
  1801  0D68  00A8               	movwf	USART_WriteString@str^(0+128)
  1802  0D69  3000               	movlw	0
  1803  0D6A  00A9               	movwf	(USART_WriteString@str+1)^(0+128)
  1804  0D6B  120A  158A  20FA  120A  158A  	fcall	_USART_WriteString
  1805                           
  1806                           ;main.c: 218: USART_WriteString("\n\r");
  1807  0D70  304D               	movlw	low ((STR_6+26)-__stringbase)
  1808  0D71  1683               	bsf	3,5	;RP0=1, select bank1
  1809  0D72  1303               	bcf	3,6	;RP1=0, select bank1
  1810  0D73  00A8               	movwf	USART_WriteString@str^(0+128)
  1811  0D74  3080               	movlw	128
  1812  0D75  00A9               	movwf	(USART_WriteString@str+1)^(0+128)
  1813  0D76  120A  158A  20FA  120A  158A  	fcall	_USART_WriteString
  1814                           
  1815                           ;main.c: 221: LCD_Clear();
  1816  0D7B  120A  158A  20A0  120A  158A  	fcall	_LCD_Clear
  1817                           
  1818                           ;main.c: 222: LCD_Cursor(0,0);
  1819  0D80  1683               	bsf	3,5	;RP0=1, select bank1
  1820  0D81  1303               	bcf	3,6	;RP1=0, select bank1
  1821  0D82  01A7               	clrf	LCD_Cursor@Col^(0+128)
  1822  0D83  3000               	movlw	0
  1823  0D84  160A  118A  2732  120A  158A  	fcall	_LCD_Cursor
  1824                           
  1825                           ;main.c: 223: LCD_WriteString("RPM: ");
  1826  0D89  3064               	movlw	low (STR_10-__stringbase)
  1827  0D8A  1683               	bsf	3,5	;RP0=1, select bank1
  1828  0D8B  1303               	bcf	3,6	;RP1=0, select bank1
  1829  0D8C  00A9               	movwf	LCD_WriteString@Str^(0+128)
  1830  0D8D  3080               	movlw	128
  1831  0D8E  00AA               	movwf	(LCD_WriteString@Str+1)^(0+128)
  1832  0D8F  120A  158A  20C9  120A  158A  	fcall	_LCD_WriteString
  1833                           
  1834                           ;main.c: 224: LCD_Cursor(0,6);
  1835  0D94  3006               	movlw	6
  1836  0D95  1683               	bsf	3,5	;RP0=1, select bank3
  1837  0D96  1703               	bsf	3,6	;RP1=1, select bank3
  1838  0D97  0090               	movwf	??_main^(0+384)
  1839  0D98  0810               	movf	??_main^(0+384),w
  1840  0D99  1683               	bsf	3,5	;RP0=1, select bank1
  1841  0D9A  1303               	bcf	3,6	;RP1=0, select bank1
  1842  0D9B  00A7               	movwf	LCD_Cursor@Col^(0+128)
  1843  0D9C  3000               	movlw	0
  1844  0D9D  160A  118A  2732  120A  158A  	fcall	_LCD_Cursor
  1845                           
  1846                           ;main.c: 225: LCD_WriteString(display);
  1847  0DA2  30DA               	movlw	_display& (0+255)
  1848  0DA3  1683               	bsf	3,5	;RP0=1, select bank1
  1849  0DA4  1303               	bcf	3,6	;RP1=0, select bank1
  1850  0DA5  00A9               	movwf	LCD_WriteString@Str^(0+128)
  1851  0DA6  3000               	movlw	0
  1852  0DA7  00AA               	movwf	(LCD_WriteString@Str+1)^(0+128)
  1853  0DA8  120A  158A  20C9  120A  158A  	fcall	_LCD_WriteString
  1854                           
  1855                           ;main.c: 227: _delay((unsigned long)((200)*(18432000/4000.0)));
  1856  0DAD  3005               	movlw	5
  1857  0DAE  1683               	bsf	3,5	;RP0=1, select bank3
  1858  0DAF  1703               	bsf	3,6	;RP1=1, select bank3
  1859  0DB0  0092               	movwf	(??_main^(0+384)+2)
  1860  0DB1  30AD               	movlw	173
  1861  0DB2  0091               	movwf	(??_main^(0+384)+1)
  1862  0DB3  30E0               	movlw	224
  1863  0DB4  0090               	movwf	??_main^(0+384)
  1864  0DB5                     u6697:	
  1865  0DB5  0B90               	decfsz	??_main^(0+384),f
  1866  0DB6  2DB5               	goto	u6697
  1867  0DB7  0B91               	decfsz	(??_main^(0+384)+1),f
  1868  0DB8  2DB5               	goto	u6697
  1869  0DB9  0B92               	decfsz	(??_main^(0+384)+2),f
  1870  0DBA  2DB5               	goto	u6697
  1871  0DBB  2D51               	goto	l4989
  1872  0DBC                     __end_of_main:	
  1873                           
  1874                           	psect	text1
  1875  1713                     __ptext1:	
  1876 ;; *************** function _sprintf *****************
  1877 ;; Defined at:
  1878 ;;		line 13 in file "C:\Program Files (x86)\Microchip\xc8\v1.33\sources\common\sprintf.c"
  1879 ;; Parameters:    Size  Location     Type
  1880 ;;  wh              1    wreg     PTR unsigned char 
  1881 ;;		 -> display(10), 
  1882 ;;  f               1   36[BANK1 ] PTR const unsigned char 
  1883 ;;		 -> STR_8(5), 
  1884 ;; Auto vars:     Size  Location     Type
  1885 ;;  wh              1   41[BANK1 ] PTR unsigned char 
  1886 ;;		 -> display(10), 
  1887 ;;  pb              2   43[BANK1 ] struct __prbuf
  1888 ;;  ap              1   42[BANK1 ] PTR void [1]
  1889 ;;		 -> ?_sprintf(2), ?_printf(2), 
  1890 ;; Return value:  Size  Location     Type
  1891 ;;                  2   36[BANK1 ] int 
  1892 ;; Registers used:
  1893 ;;		wreg, fsr0l, fsr0h, status,2, status,0, btemp+1, pclath, cstack
  1894 ;; Tracked objects:
  1895 ;;		On entry : 0/0
  1896 ;;		On exit  : 0/0
  1897 ;;		Unchanged: 0/0
  1898 ;; Data sizes:     COMMON   BANK0   BANK1   BANK3   BANK2
  1899 ;;      Params:         0       0       3       0       0
  1900 ;;      Locals:         0       0       4       0       0
  1901 ;;      Temps:          0       0       2       0       0
  1902 ;;      Totals:         0       0       9       0       0
  1903 ;;Total ram usage:        9 bytes
  1904 ;; Hardware stack levels used:    1
  1905 ;; Hardware stack levels required when called:    7
  1906 ;; This function calls:
  1907 ;;		__doprnt
  1908 ;; This function is called by:
  1909 ;;		_main
  1910 ;; This function uses a non-reentrant model
  1911 ;;
  1912                           
  1913                           
  1914                           ;psect for function _sprintf
  1915  1713                     _sprintf:	
  1916                           
  1917                           ;incstack = 0
  1918                           ; Regs used in _sprintf: [wreg-fsr0h+status,2+status,0+btemp+1+pclath+cstack]
  1919                           ;sprintf@wh stored from wreg
  1920  1713  1683               	bsf	3,5	;RP0=1, select bank1
  1921  1714  1303               	bcf	3,6	;RP1=0, select bank1
  1922  1715  00C9               	movwf	sprintf@wh^(0+128)
  1923  1716  0849               	movf	sprintf@wh^(0+128),w
  1924  1717  00C7               	movwf	??_sprintf^(0+128)
  1925  1718  0847               	movf	??_sprintf^(0+128),w
  1926  1719  00CB               	movwf	sprintf@pb^(0+128)
  1927  171A  01CC               	clrf	(sprintf@pb+1)^(0+128)
  1928  171B  30C5               	movlw	(?_sprintf+1)& (0+255)
  1929  171C  00C7               	movwf	??_sprintf^(0+128)
  1930  171D  0847               	movf	??_sprintf^(0+128),w
  1931  171E  00CA               	movwf	sprintf@ap^(0+128)
  1932  171F  0844               	movf	sprintf@f^(0+128),w
  1933  1720  00C7               	movwf	??_sprintf^(0+128)
  1934  1721  0847               	movf	??_sprintf^(0+128),w
  1935  1722  00B5               	movwf	__doprnt@f^(0+128)
  1936  1723  30CA               	movlw	sprintf@ap& (0+255)
  1937  1724  00C8               	movwf	(??_sprintf+1)^(0+128)
  1938  1725  0848               	movf	(??_sprintf+1)^(0+128),w
  1939  1726  00B6               	movwf	__doprnt@ap^(0+128)
  1940  1727  30CB               	movlw	sprintf@pb& (0+255)
  1941  1728  120A  118A  2112   	fcall	__doprnt
  1942  172B  1683               	bsf	3,5	;RP0=1, select bank1
  1943  172C  1303               	bcf	3,6	;RP1=0, select bank1
  1944  172D  084B               	movf	sprintf@pb^(0+128),w
  1945  172E  0084               	movwf	4
  1946  172F  1383               	bcf	3,7	;select IRP bank0
  1947  1730  0180               	clrf	0
  1948  1731  0008               	return
  1949  1732                     __end_of_sprintf:	
  1950                           ;	Return value of _sprintf is never used
  1951                           
  1952                           
  1953                           	psect	text2
  1954  0112                     __ptext2:	
  1955 ;; *************** function __doprnt *****************
  1956 ;; Defined at:
  1957 ;;		line 458 in file "C:\Program Files (x86)\Microchip\xc8\v1.33\sources\common\doprnt.c"
  1958 ;; Parameters:    Size  Location     Type
  1959 ;;  pb              1    wreg     PTR struct __prbuf
  1960 ;;		 -> sprintf@pb(2), printf@pb(2), 
  1961 ;;  f               1   21[BANK1 ] PTR const unsigned char 
  1962 ;;		 -> STR_8(5), STR_5(2), STR_4(2), STR_3(2), 
  1963 ;;		 -> STR_2(2), STR_1(2), 
  1964 ;;  ap              1   22[BANK1 ] PTR PTR void 
  1965 ;;		 -> sprintf@ap(1), printf@ap(1), 
  1966 ;; Auto vars:     Size  Location     Type
  1967 ;;  pb              1   35[BANK1 ] PTR struct __prbuf
  1968 ;;		 -> sprintf@pb(2), printf@pb(2), 
  1969 ;;  _val            4   27[BANK1 ] struct .
  1970 ;;  width           2   32[BANK1 ] int 
  1971 ;;  c               1   34[BANK1 ] char 
  1972 ;;  flag            1   31[BANK1 ] unsigned char 
  1973 ;;  prec            1   26[BANK1 ] char 
  1974 ;; Return value:  Size  Location     Type
  1975 ;;                  2   21[BANK1 ] int 
  1976 ;; Registers used:
  1977 ;;		wreg, fsr0l, fsr0h, status,2, status,0, btemp+1, pclath, cstack
  1978 ;; Tracked objects:
  1979 ;;		On entry : 0/0
  1980 ;;		On exit  : 0/0
  1981 ;;		Unchanged: 0/0
  1982 ;; Data sizes:     COMMON   BANK0   BANK1   BANK3   BANK2
  1983 ;;      Params:         0       0       2       0       0
  1984 ;;      Locals:         0       0      10       0       0
  1985 ;;      Temps:          0       0       3       0       0
  1986 ;;      Totals:         0       0      15       0       0
  1987 ;;Total ram usage:       15 bytes
  1988 ;; Hardware stack levels used:    1
  1989 ;; Hardware stack levels required when called:    6
  1990 ;; This function calls:
  1991 ;;		Absolute function
  1992 ;;		___lwdiv
  1993 ;;		___lwmod
  1994 ;;		___wmul
  1995 ;;		_isdigit
  1996 ;;		_putch
  1997 ;; This function is called by:
  1998 ;;		_sprintf
  1999 ;; This function uses a non-reentrant model
  2000 ;;
  2001                           
  2002                           
  2003                           ;psect for function __doprnt
  2004  0112                     __doprnt:	
  2005                           
  2006                           ;incstack = 0
  2007 ;; using string table level
  2008                           ; Regs used in __doprnt: [wreg-fsr0h+status,2+status,0+btemp+1+pclath+cstack]
  2009                           ;__doprnt@pb stored from wreg
  2010  0112  1683               	bsf	3,5	;RP0=1, select bank1
  2011  0113  1303               	bcf	3,6	;RP1=0, select bank1
  2012  0114  00C3               	movwf	__doprnt@pb^(0+128)
  2013  0115                     l4843:	
  2014                           ;doprnt.c: 499: signed char c;
  2015                           ;doprnt.c: 501: int width;
  2016                           ;doprnt.c: 506: signed char prec;
  2017                           ;doprnt.c: 508: unsigned char flag;
  2018                           ;doprnt.c: 527: union {
  2019                           ;doprnt.c: 528: unsigned int _val;
  2020                           ;doprnt.c: 529: struct {
  2021                           ;doprnt.c: 530: const char * _cp;
  2022                           ;doprnt.c: 531: unsigned _len;
  2023                           ;doprnt.c: 532: } _str;
  2024                           ;doprnt.c: 533: } _val;
  2025                           ;doprnt.c: 545: while(c = *f++) {
  2026                           
  2027  0115  3001               	movlw	1
  2028  0116  1683               	bsf	3,5	;RP0=1, select bank1
  2029  0117  1303               	bcf	3,6	;RP1=0, select bank1
  2030  0118  07B5               	addwf	__doprnt@f^(0+128),f
  2031  0119  30FF               	movlw	-1
  2032  011A  0735               	addwf	__doprnt@f^(0+128),w
  2033  011B  0084               	movwf	4
  2034  011C  120A  158A  200A  120A  118A  	fcall	stringdir
  2035  0121  00B7               	movwf	??__doprnt^(0+128)
  2036  0122  0837               	movf	??__doprnt^(0+128),w
  2037  0123  00C2               	movwf	__doprnt@c^(0+128)
  2038  0124  08C2               	movf	__doprnt@c^(0+128),f
  2039  0125  1903               	btfsc	3,2
  2040  0126  2B60               	goto	l4845
  2041                           
  2042                           ;doprnt.c: 547: if(c != '%')
  2043  0127  0842               	movf	__doprnt@c^(0+128),w
  2044  0128  3A25               	xorlw	37
  2045  0129  1903               	skipnz
  2046  012A  2950               	goto	l4729
  2047                           
  2048                           ;doprnt.c: 549: {
  2049                           ;doprnt.c: 550: if(pb->func) (pb->func(c)); else ((*pb->ptr++ = c));
  2050  012B  0A43               	incf	__doprnt@pb^(0+128),w
  2051  012C  0084               	movwf	4
  2052  012D  1383               	bcf	3,7	;select IRP bank0
  2053  012E  0880               	movf	0,f
  2054  012F  1903               	skipnz
  2055  0130  293E               	goto	l4725
  2056  0131  0842               	movf	__doprnt@c^(0+128),w
  2057  0132  00B7               	movwf	??__doprnt^(0+128)
  2058  0133  0837               	movf	??__doprnt^(0+128),w
  2059  0134  00A7               	movwf	putch@c^(0+128)
  2060  0135  0A43               	incf	__doprnt@pb^(0+128),w
  2061  0136  0084               	movwf	4
  2062  0137  0800               	movf	0,w
  2063  0138  120A  118A  2100  120A  118A  	fcall	fptable
  2064  013D  2915               	goto	l4843
  2065  013E                     l4725:	
  2066  013E  1683               	bsf	3,5	;RP0=1, select bank1
  2067  013F  1303               	bcf	3,6	;RP1=0, select bank1
  2068  0140  0842               	movf	__doprnt@c^(0+128),w
  2069  0141  00B7               	movwf	??__doprnt^(0+128)
  2070  0142  0843               	movf	__doprnt@pb^(0+128),w
  2071  0143  0084               	movwf	4
  2072  0144  1383               	bcf	3,7	;select IRP bank0
  2073  0145  0800               	movf	0,w
  2074  0146  0084               	movwf	4
  2075  0147  0837               	movf	??__doprnt^(0+128),w
  2076  0148  0080               	movwf	0
  2077  0149  3001               	movlw	1
  2078  014A  00B7               	movwf	??__doprnt^(0+128)
  2079  014B  0843               	movf	__doprnt@pb^(0+128),w
  2080  014C  0084               	movwf	4
  2081  014D  0837               	movf	??__doprnt^(0+128),w
  2082  014E  0780               	addwf	0,f
  2083                           
  2084                           ;doprnt.c: 551: continue;
  2085  014F  2915               	goto	l4843
  2086  0150                     l4729:	
  2087                           
  2088                           ;doprnt.c: 552: }
  2089                           ;doprnt.c: 555: width = 0;
  2090  0150  01C0               	clrf	__doprnt@width^(0+128)
  2091  0151  01C1               	clrf	(__doprnt@width+1)^(0+128)
  2092                           
  2093                           ;doprnt.c: 557: flag = 0;
  2094  0152  01BF               	clrf	__doprnt@flag^(0+128)
  2095                           
  2096                           ;doprnt.c: 560: switch(*f) {
  2097                           
  2098                           ;doprnt.c: 559: for(;;) {
  2099  0153  2959               	goto	l4735
  2100  0154                     l387:	
  2101                           ;doprnt.c: 588: case '0':
  2102                           
  2103                           
  2104                           ;doprnt.c: 589: flag |= 0x04;
  2105  0154  153F               	bsf	__doprnt@flag^(0+128),2
  2106                           
  2107                           ;doprnt.c: 590: f++;
  2108  0155  3001               	movlw	1
  2109  0156  00B7               	movwf	??__doprnt^(0+128)
  2110  0157  0837               	movf	??__doprnt^(0+128),w
  2111  0158  07B5               	addwf	__doprnt@f^(0+128),f
  2112  0159                     l4735:	
  2113                           ;doprnt.c: 593: }
  2114                           
  2115                           ;doprnt.c: 591: continue;
  2116                           
  2117  0159  0835               	movf	__doprnt@f^(0+128),w
  2118  015A  0084               	movwf	4
  2119  015B  120A  158A  200A  120A  118A  	fcall	stringdir
  2120                           
  2121                           ; Switch size 1, requested type "space"
  2122                           ; Number of cases is 1, Range of values is 48 to 48
  2123                           ; switch strategies available:
  2124                           ; Name         Instructions Cycles
  2125                           ; simple_byte            4     3 (average)
  2126                           ; direct_byte           14    11 (fixed)
  2127                           ; jumptable            263     9 (fixed)
  2128                           ;	Chosen strategy is simple_byte
  2129  0160  3A30               	xorlw	48	; case 48
  2130  0161  1903               	skipnz
  2131  0162  2954               	goto	l387
  2132  0163  2964               	goto	l4737
  2133  0164                     l4737:	
  2134                           ;doprnt.c: 595: }
  2135                           
  2136                           ;doprnt.c: 594: break;
  2137                           
  2138                           
  2139                           ;doprnt.c: 606: if(isdigit((unsigned)*f)) {
  2140  0164  0835               	movf	__doprnt@f^(0+128),w
  2141  0165  0084               	movwf	4
  2142  0166  120A  158A  200A  120A  118A  	fcall	stringdir
  2143  016B  160A  118A  2692  120A  118A  	fcall	_isdigit
  2144  0170  1C03               	btfss	3,0
  2145  0171  29B4               	goto	l4751
  2146                           
  2147                           ;doprnt.c: 607: width = 0;
  2148  0172  1683               	bsf	3,5	;RP0=1, select bank1
  2149  0173  1303               	bcf	3,6	;RP1=0, select bank1
  2150  0174  01C0               	clrf	__doprnt@width^(0+128)
  2151  0175  01C1               	clrf	(__doprnt@width+1)^(0+128)
  2152  0176                     l4741:	
  2153                           ;doprnt.c: 608: do {
  2154                           
  2155                           
  2156                           ;doprnt.c: 609: width *= 10;
  2157  0176  300A               	movlw	10
  2158  0177  1683               	bsf	3,5	;RP0=1, select bank1
  2159  0178  1303               	bcf	3,6	;RP1=0, select bank1
  2160  0179  00A7               	movwf	___wmul@multiplier^(0+128)
  2161  017A  3000               	movlw	0
  2162  017B  00A8               	movwf	(___wmul@multiplier^(0+128)+1)
  2163  017C  0841               	movf	(__doprnt@width+1)^(0+128),w
  2164  017D  01AA               	clrf	(___wmul@multiplicand+1)^(0+128)
  2165  017E  07AA               	addwf	(___wmul@multiplicand+1)^(0+128),f
  2166  017F  0840               	movf	__doprnt@width^(0+128),w
  2167  0180  01A9               	clrf	___wmul@multiplicand^(0+128)
  2168  0181  07A9               	addwf	___wmul@multiplicand^(0+128),f
  2169  0182  160A  118A  27DB  120A  118A  	fcall	___wmul
  2170  0187  1683               	bsf	3,5	;RP0=1, select bank1
  2171  0188  1303               	bcf	3,6	;RP1=0, select bank1
  2172  0189  0828               	movf	(?___wmul+1)^(0+128),w
  2173  018A  01C1               	clrf	(__doprnt@width+1)^(0+128)
  2174  018B  07C1               	addwf	(__doprnt@width+1)^(0+128),f
  2175  018C  0827               	movf	?___wmul^(0+128),w
  2176  018D  01C0               	clrf	__doprnt@width^(0+128)
  2177  018E  07C0               	addwf	__doprnt@width^(0+128),f
  2178                           
  2179                           ;doprnt.c: 610: width += *f++ - '0';
  2180  018F  0835               	movf	__doprnt@f^(0+128),w
  2181  0190  0084               	movwf	4
  2182  0191  120A  158A  200A  120A  118A  	fcall	stringdir
  2183  0196  3ED0               	addlw	208
  2184  0197  00B7               	movwf	??__doprnt^(0+128)
  2185  0198  30FF               	movlw	255
  2186  0199  1803               	skipnc
  2187  019A  3000               	movlw	0
  2188  019B  00B8               	movwf	(??__doprnt^(0+128)+1)
  2189  019C  0837               	movf	??__doprnt^(0+128),w
  2190  019D  07C0               	addwf	__doprnt@width^(0+128),f
  2191  019E  1803               	skipnc
  2192  019F  0AC1               	incf	(__doprnt@width+1)^(0+128),f
  2193  01A0  0838               	movf	(??__doprnt+1)^(0+128),w
  2194  01A1  07C1               	addwf	(__doprnt@width+1)^(0+128),f
  2195  01A2  3001               	movlw	1
  2196  01A3  00B7               	movwf	??__doprnt^(0+128)
  2197  01A4  0837               	movf	??__doprnt^(0+128),w
  2198  01A5  07B5               	addwf	__doprnt@f^(0+128),f
  2199                           
  2200                           ;doprnt.c: 611: } while(isdigit((unsigned)*f));
  2201  01A6  0835               	movf	__doprnt@f^(0+128),w
  2202  01A7  0084               	movwf	4
  2203  01A8  120A  158A  200A  120A  118A  	fcall	stringdir
  2204  01AD  160A  118A  2692  120A  118A  	fcall	_isdigit
  2205  01B2  1803               	btfsc	3,0
  2206  01B3  2976               	goto	l4741
  2207  01B4                     l4751:	
  2208                           ;doprnt.c: 831: }
  2209                           
  2210                           ;doprnt.c: 822: continue;
  2211                           
  2212                           ;doprnt.c: 811: default:
  2213                           
  2214                           ;doprnt.c: 707: case 'i':
  2215                           ;doprnt.c: 708: break;
  2216                           
  2217                           ;doprnt.c: 706: case 'd':
  2218                           
  2219                           ;doprnt.c: 647: goto alldone;
  2220                           
  2221                           ;doprnt.c: 646: case 0:
  2222                           
  2223                           ;doprnt.c: 617: }
  2224                           ;doprnt.c: 644: switch(c = *f++) {
  2225                           
  2226  01B4  3001               	movlw	1
  2227  01B5  1683               	bsf	3,5	;RP0=1, select bank1
  2228  01B6  1303               	bcf	3,6	;RP1=0, select bank1
  2229  01B7  07B5               	addwf	__doprnt@f^(0+128),f
  2230  01B8  30FF               	movlw	-1
  2231  01B9  0735               	addwf	__doprnt@f^(0+128),w
  2232  01BA  0084               	movwf	4
  2233  01BB  120A  158A  200A  120A  118A  	fcall	stringdir
  2234  01C0  00C2               	movwf	__doprnt@c^(0+128)
  2235                           
  2236                           ; Switch size 1, requested type "space"
  2237                           ; Number of cases is 3, Range of values is 0 to 105
  2238                           ; switch strategies available:
  2239                           ; Name         Instructions Cycles
  2240                           ; simple_byte           10     6 (average)
  2241                           ; jumptable            260     6 (fixed)
  2242                           ;	Chosen strategy is simple_byte
  2243  01C1  3A00               	xorlw	0	; case 0
  2244  01C2  1903               	skipnz
  2245  01C3  2B60               	goto	l4845
  2246  01C4  3A64               	xorlw	100	; case 100
  2247  01C5  1903               	skipnz
  2248  01C6  29CB               	goto	l4753
  2249  01C7  3A0D               	xorlw	13	; case 105
  2250  01C8  1903               	skipnz
  2251  01C9  29CB               	goto	l4753
  2252  01CA  2915               	goto	l4843
  2253  01CB                     l4753:	
  2254                           
  2255                           ;doprnt.c: 1262: {
  2256                           ;doprnt.c: 1268: _val._val = (int)(*(int *)__va_arg((*(int **)ap), (int)0));
  2257  01CB  1683               	bsf	3,5	;RP0=1, select bank1
  2258  01CC  1303               	bcf	3,6	;RP1=0, select bank1
  2259  01CD  0836               	movf	__doprnt@ap^(0+128),w
  2260  01CE  0084               	movwf	4
  2261  01CF  1383               	bcf	3,7	;select IRP bank0
  2262  01D0  0800               	movf	0,w
  2263  01D1  00B7               	movwf	??__doprnt^(0+128)
  2264  01D2  3002               	movlw	2
  2265  01D3  0780               	addwf	0,f
  2266  01D4  0837               	movf	??__doprnt^(0+128),w
  2267  01D5  0084               	movwf	4
  2268  01D6  0800               	movf	0,w
  2269  01D7  00BB               	movwf	__doprnt@_val^(0+128)
  2270  01D8  0A84               	incf	4,f
  2271  01D9  0800               	movf	0,w
  2272  01DA  00BC               	movwf	(__doprnt@_val+1)^(0+128)
  2273                           
  2274                           ;doprnt.c: 1270: if((int)_val._val < 0) {
  2275  01DB  1FBC               	btfss	(__doprnt@_val+1)^(0+128),7
  2276  01DC  29E6               	goto	l4761
  2277                           
  2278                           ;doprnt.c: 1271: flag |= 0x03;
  2279  01DD  3003               	movlw	3
  2280  01DE  00B7               	movwf	??__doprnt^(0+128)
  2281  01DF  0837               	movf	??__doprnt^(0+128),w
  2282  01E0  04BF               	iorwf	__doprnt@flag^(0+128),f
  2283                           
  2284                           ;doprnt.c: 1272: _val._val = -_val._val;
  2285  01E1  09BB               	comf	__doprnt@_val^(0+128),f
  2286  01E2  09BC               	comf	(__doprnt@_val+1)^(0+128),f
  2287  01E3  0ABB               	incf	__doprnt@_val^(0+128),f
  2288  01E4  1903               	skipnz
  2289  01E5  0ABC               	incf	(__doprnt@_val+1)^(0+128),f
  2290  01E6                     l4761:	
  2291                           
  2292                           ;doprnt.c: 1273: }
  2293                           ;doprnt.c: 1275: }
  2294                           ;doprnt.c: 1314: for(c = 1 ; c != sizeof dpowers/sizeof dpowers[0] ; c++)
  2295  01E6  01C2               	clrf	__doprnt@c^(0+128)
  2296  01E7  0AC2               	incf	__doprnt@c^(0+128),f
  2297  01E8  0842               	movf	__doprnt@c^(0+128),w
  2298  01E9  3A05               	xorlw	5
  2299  01EA  1903               	btfsc	3,2
  2300  01EB  2A0D               	goto	l4773
  2301  01EC                     l4765:	
  2302                           
  2303                           ;doprnt.c: 1315: if(_val._val < dpowers[c])
  2304  01EC  0842               	movf	__doprnt@c^(0+128),w
  2305  01ED  00B7               	movwf	??__doprnt^(0+128)
  2306  01EE  0737               	addwf	??__doprnt^(0+128),w
  2307  01EF  3E01               	addlw	low (_dpowers-__stringbase)
  2308  01F0  0084               	movwf	4
  2309  01F1  120A  158A  200A  120A  118A  	fcall	stringdir
  2310  01F6  00B8               	movwf	(??__doprnt+1)^(0+128)
  2311  01F7  120A  158A  200A  120A  118A  	fcall	stringdir
  2312  01FC  00B9               	movwf	((??__doprnt+1)^(0+128)+1)
  2313  01FD  0839               	movf	(??__doprnt+2)^(0+128),w
  2314  01FE  023C               	subwf	(__doprnt@_val+1)^(0+128),w
  2315  01FF  1D03               	skipz
  2316  0200  2A03               	goto	u6355
  2317  0201  0838               	movf	(??__doprnt+1)^(0+128),w
  2318  0202  023B               	subwf	__doprnt@_val^(0+128),w
  2319  0203                     u6355:	
  2320  0203  1C03               	btfss	3,0
  2321  0204  2A0D               	goto	l4773
  2322                           
  2323                           ;doprnt.c: 1316: break;
  2324  0205  3001               	movlw	1
  2325  0206  00B7               	movwf	??__doprnt^(0+128)
  2326  0207  0837               	movf	??__doprnt^(0+128),w
  2327  0208  07C2               	addwf	__doprnt@c^(0+128),f
  2328  0209  0842               	movf	__doprnt@c^(0+128),w
  2329  020A  3A05               	xorlw	5
  2330  020B  1D03               	skipz
  2331  020C  29EC               	goto	l4765
  2332  020D                     l4773:	
  2333                           
  2334                           ;doprnt.c: 1354: if(width && flag & 0x03)
  2335  020D  0841               	movf	(__doprnt@width+1)^(0+128),w
  2336  020E  0440               	iorwf	__doprnt@width^(0+128),w
  2337  020F  1903               	skipnz
  2338  0210  2A1B               	goto	l405
  2339  0211  083F               	movf	__doprnt@flag^(0+128),w
  2340  0212  3903               	andlw	3
  2341  0213  1903               	btfsc	3,2
  2342  0214  2A1B               	goto	l405
  2343                           
  2344                           ;doprnt.c: 1355: width--;
  2345  0215  30FF               	movlw	255
  2346  0216  07C0               	addwf	__doprnt@width^(0+128),f
  2347  0217  1803               	skipnc
  2348  0218  0AC1               	incf	(__doprnt@width+1)^(0+128),f
  2349  0219  30FF               	movlw	255
  2350  021A  07C1               	addwf	(__doprnt@width+1)^(0+128),f
  2351  021B                     l405:	
  2352                           
  2353                           ;doprnt.c: 1390: if(width > c)
  2354  021B  0842               	movf	__doprnt@c^(0+128),w
  2355  021C  00B7               	movwf	??__doprnt^(0+128)
  2356  021D  01B8               	clrf	(??__doprnt^(0+128)+1)
  2357  021E  1BB7               	btfsc	??__doprnt^(0+128),7
  2358  021F  03B8               	decf	(??__doprnt^(0+128)+1),f
  2359  0220  0838               	movf	(??__doprnt+1)^(0+128),w
  2360  0221  3A80               	xorlw	128
  2361  0222  00B9               	movwf	(??__doprnt+2)^(0+128)
  2362  0223  0841               	movf	(__doprnt@width+1)^(0+128),w
  2363  0224  3A80               	xorlw	128
  2364  0225  0239               	subwf	(??__doprnt+2)^(0+128),w
  2365  0226  1D03               	skipz
  2366  0227  2A2A               	goto	u6395
  2367  0228  0840               	movf	__doprnt@width^(0+128),w
  2368  0229  0237               	subwf	??__doprnt^(0+128),w
  2369  022A                     u6395:	
  2370  022A  1803               	skipnc
  2371  022B  2A3A               	goto	l4781
  2372                           
  2373                           ;doprnt.c: 1391: width -= c;
  2374  022C  1683               	bsf	3,5	;RP0=1, select bank1
  2375  022D  1303               	bcf	3,6	;RP1=0, select bank1
  2376  022E  0842               	movf	__doprnt@c^(0+128),w
  2377  022F  00B7               	movwf	??__doprnt^(0+128)
  2378  0230  01B8               	clrf	(??__doprnt^(0+128)+1)
  2379  0231  1BB7               	btfsc	??__doprnt^(0+128),7
  2380  0232  03B8               	decf	(??__doprnt^(0+128)+1),f
  2381  0233  0837               	movf	??__doprnt^(0+128),w
  2382  0234  02C0               	subwf	__doprnt@width^(0+128),f
  2383  0235  0838               	movf	(??__doprnt+1)^(0+128),w
  2384  0236  1C03               	skipc
  2385  0237  03C1               	decf	(__doprnt@width+1)^(0+128),f
  2386  0238  02C1               	subwf	(__doprnt@width+1)^(0+128),f
  2387  0239  2A3E               	goto	l4783
  2388  023A                     l4781:	
  2389                           
  2390                           ;doprnt.c: 1392: else
  2391                           ;doprnt.c: 1393: width = 0;
  2392  023A  1683               	bsf	3,5	;RP0=1, select bank1
  2393  023B  1303               	bcf	3,6	;RP1=0, select bank1
  2394  023C  01C0               	clrf	__doprnt@width^(0+128)
  2395  023D  01C1               	clrf	(__doprnt@width+1)^(0+128)
  2396  023E                     l4783:	
  2397                           
  2398                           ;doprnt.c: 1396: if(flag & 0x04) {
  2399  023E  1D3F               	btfss	__doprnt@flag^(0+128),2
  2400  023F  2A9B               	goto	l4807
  2401                           
  2402                           ;doprnt.c: 1401: if(flag & 0x03)
  2403  0240  083F               	movf	__doprnt@flag^(0+128),w
  2404  0241  3903               	andlw	3
  2405  0242  1903               	btfsc	3,2
  2406  0243  2A68               	goto	l4795
  2407                           
  2408                           ;doprnt.c: 1402: if(pb->func) (pb->func('-')); else ((*pb->ptr++ = '-'));
  2409  0244  0A43               	incf	__doprnt@pb^(0+128),w
  2410  0245  0084               	movwf	4
  2411  0246  1383               	bcf	3,7	;select IRP bank0
  2412  0247  0880               	movf	0,f
  2413  0248  1903               	skipnz
  2414  0249  2A57               	goto	l4791
  2415  024A  302D               	movlw	45
  2416  024B  00B7               	movwf	??__doprnt^(0+128)
  2417  024C  0837               	movf	??__doprnt^(0+128),w
  2418  024D  00A7               	movwf	putch@c^(0+128)
  2419  024E  0A43               	incf	__doprnt@pb^(0+128),w
  2420  024F  0084               	movwf	4
  2421  0250  0800               	movf	0,w
  2422  0251  120A  118A  2100  120A  118A  	fcall	fptable
  2423  0256  2A68               	goto	l4795
  2424  0257                     l4791:	
  2425  0257  302D               	movlw	45
  2426  0258  1683               	bsf	3,5	;RP0=1, select bank1
  2427  0259  1303               	bcf	3,6	;RP1=0, select bank1
  2428  025A  00B7               	movwf	??__doprnt^(0+128)
  2429  025B  0843               	movf	__doprnt@pb^(0+128),w
  2430  025C  0084               	movwf	4
  2431  025D  1383               	bcf	3,7	;select IRP bank0
  2432  025E  0800               	movf	0,w
  2433  025F  0084               	movwf	4
  2434  0260  0837               	movf	??__doprnt^(0+128),w
  2435  0261  0080               	movwf	0
  2436  0262  3001               	movlw	1
  2437  0263  00B7               	movwf	??__doprnt^(0+128)
  2438  0264  0843               	movf	__doprnt@pb^(0+128),w
  2439  0265  0084               	movwf	4
  2440  0266  0837               	movf	??__doprnt^(0+128),w
  2441  0267  0780               	addwf	0,f
  2442  0268                     l4795:	
  2443                           
  2444                           ;doprnt.c: 1424: if(width)
  2445  0268  1683               	bsf	3,5	;RP0=1, select bank1
  2446  0269  1303               	bcf	3,6	;RP1=0, select bank1
  2447  026A                     L2:	
  2448  026A  0841               	movf	(__doprnt@width+1)^(0+128),w
  2449  026B  0440               	iorwf	__doprnt@width^(0+128),w
  2450  026C  1903               	skipnz
  2451  026D  2AF7               	goto	l4829
  2452                           
  2453                           ;doprnt.c: 1426: if(pb->func) (pb->func('0')); else ((*pb->ptr++ = '0'));
  2454                           
  2455                           ;doprnt.c: 1425: do
  2456  026E  0A43               	incf	__doprnt@pb^(0+128),w
  2457  026F  0084               	movwf	4
  2458  0270  1383               	bcf	3,7	;select IRP bank0
  2459  0271  0880               	movf	0,f
  2460  0272  1903               	skipnz
  2461  0273  2A81               	goto	l4801
  2462  0274  3030               	movlw	48
  2463  0275  00B7               	movwf	??__doprnt^(0+128)
  2464  0276  0837               	movf	??__doprnt^(0+128),w
  2465  0277  00A7               	movwf	putch@c^(0+128)
  2466  0278  0A43               	incf	__doprnt@pb^(0+128),w
  2467  0279  0084               	movwf	4
  2468  027A  0800               	movf	0,w
  2469  027B  120A  118A  2100  120A  118A  	fcall	fptable
  2470  0280  2A92               	goto	l4805
  2471  0281                     l4801:	
  2472  0281  3030               	movlw	48
  2473  0282  1683               	bsf	3,5	;RP0=1, select bank1
  2474  0283  1303               	bcf	3,6	;RP1=0, select bank1
  2475  0284  00B7               	movwf	??__doprnt^(0+128)
  2476  0285  0843               	movf	__doprnt@pb^(0+128),w
  2477  0286  0084               	movwf	4
  2478  0287  1383               	bcf	3,7	;select IRP bank0
  2479  0288  0800               	movf	0,w
  2480  0289  0084               	movwf	4
  2481  028A  0837               	movf	??__doprnt^(0+128),w
  2482  028B  0080               	movwf	0
  2483  028C  3001               	movlw	1
  2484  028D  00B7               	movwf	??__doprnt^(0+128)
  2485  028E  0843               	movf	__doprnt@pb^(0+128),w
  2486  028F  0084               	movwf	4
  2487  0290  0837               	movf	??__doprnt^(0+128),w
  2488  0291  0780               	addwf	0,f
  2489  0292                     l4805:	
  2490                           
  2491                           ;doprnt.c: 1427: while(--width);
  2492  0292  30FF               	movlw	255
  2493  0293  1683               	bsf	3,5	;RP0=1, select bank1
  2494  0294  1303               	bcf	3,6	;RP1=0, select bank1
  2495  0295  07C0               	addwf	__doprnt@width^(0+128),f
  2496  0296  1803               	skipnc
  2497  0297  0AC1               	incf	(__doprnt@width+1)^(0+128),f
  2498  0298  30FF               	movlw	255
  2499  0299  07C1               	addwf	(__doprnt@width+1)^(0+128),f
  2500  029A  2A6A               	goto	L2
  2501  029B                     l4807:	
  2502                           ;doprnt.c: 1429: } else
  2503                           
  2504                           
  2505                           ;doprnt.c: 1431: {
  2506                           ;doprnt.c: 1433: if(width
  2507                           ;doprnt.c: 1437: )
  2508  029B  0841               	movf	(__doprnt@width+1)^(0+128),w
  2509  029C  0440               	iorwf	__doprnt@width^(0+128),w
  2510  029D  1903               	skipnz
  2511  029E  2ACF               	goto	l4819
  2512  029F                     l4809:	
  2513                           ;doprnt.c: 1438: do
  2514                           
  2515                           
  2516                           ;doprnt.c: 1439: if(pb->func) (pb->func(' ')); else ((*pb->ptr++ = ' '));
  2517  029F  0A43               	incf	__doprnt@pb^(0+128),w
  2518  02A0  0084               	movwf	4
  2519  02A1  1383               	bcf	3,7	;select IRP bank0
  2520  02A2  0880               	movf	0,f
  2521  02A3  1903               	skipnz
  2522  02A4  2AB2               	goto	l4813
  2523  02A5  3020               	movlw	32
  2524  02A6  00B7               	movwf	??__doprnt^(0+128)
  2525  02A7  0837               	movf	??__doprnt^(0+128),w
  2526  02A8  00A7               	movwf	putch@c^(0+128)
  2527  02A9  0A43               	incf	__doprnt@pb^(0+128),w
  2528  02AA  0084               	movwf	4
  2529  02AB  0800               	movf	0,w
  2530  02AC  120A  118A  2100  120A  118A  	fcall	fptable
  2531  02B1  2AC3               	goto	l4817
  2532  02B2                     l4813:	
  2533  02B2  3020               	movlw	32
  2534  02B3  1683               	bsf	3,5	;RP0=1, select bank1
  2535  02B4  1303               	bcf	3,6	;RP1=0, select bank1
  2536  02B5  00B7               	movwf	??__doprnt^(0+128)
  2537  02B6  0843               	movf	__doprnt@pb^(0+128),w
  2538  02B7  0084               	movwf	4
  2539  02B8  1383               	bcf	3,7	;select IRP bank0
  2540  02B9  0800               	movf	0,w
  2541  02BA  0084               	movwf	4
  2542  02BB  0837               	movf	??__doprnt^(0+128),w
  2543  02BC  0080               	movwf	0
  2544  02BD  3001               	movlw	1
  2545  02BE  00B7               	movwf	??__doprnt^(0+128)
  2546  02BF  0843               	movf	__doprnt@pb^(0+128),w
  2547  02C0  0084               	movwf	4
  2548  02C1  0837               	movf	??__doprnt^(0+128),w
  2549  02C2  0780               	addwf	0,f
  2550  02C3                     l4817:	
  2551                           
  2552                           ;doprnt.c: 1440: while(--width);
  2553  02C3  30FF               	movlw	255
  2554  02C4  1683               	bsf	3,5	;RP0=1, select bank1
  2555  02C5  1303               	bcf	3,6	;RP1=0, select bank1
  2556  02C6  07C0               	addwf	__doprnt@width^(0+128),f
  2557  02C7  1803               	skipnc
  2558  02C8  0AC1               	incf	(__doprnt@width+1)^(0+128),f
  2559  02C9  30FF               	movlw	255
  2560  02CA  07C1               	addwf	(__doprnt@width+1)^(0+128),f
  2561  02CB  0841               	movf	(__doprnt@width+1)^(0+128),w
  2562  02CC  0440               	iorwf	__doprnt@width^(0+128),w
  2563  02CD  1D03               	skipz
  2564  02CE  2A9F               	goto	l4809
  2565  02CF                     l4819:	
  2566                           
  2567                           ;doprnt.c: 1447: if(flag & 0x03)
  2568  02CF  083F               	movf	__doprnt@flag^(0+128),w
  2569  02D0  3903               	andlw	3
  2570  02D1  1903               	btfsc	3,2
  2571  02D2  2AF7               	goto	l4829
  2572                           
  2573                           ;doprnt.c: 1448: if(pb->func) (pb->func('-')); else ((*pb->ptr++ = '-'));
  2574  02D3  0A43               	incf	__doprnt@pb^(0+128),w
  2575  02D4  0084               	movwf	4
  2576  02D5  1383               	bcf	3,7	;select IRP bank0
  2577  02D6  0880               	movf	0,f
  2578  02D7  1903               	skipnz
  2579  02D8  2AE6               	goto	l4825
  2580  02D9  302D               	movlw	45
  2581  02DA  00B7               	movwf	??__doprnt^(0+128)
  2582  02DB  0837               	movf	??__doprnt^(0+128),w
  2583  02DC  00A7               	movwf	putch@c^(0+128)
  2584  02DD  0A43               	incf	__doprnt@pb^(0+128),w
  2585  02DE  0084               	movwf	4
  2586  02DF  0800               	movf	0,w
  2587  02E0  120A  118A  2100  120A  118A  	fcall	fptable
  2588  02E5  2AF7               	goto	l4829
  2589  02E6                     l4825:	
  2590  02E6  302D               	movlw	45
  2591  02E7  1683               	bsf	3,5	;RP0=1, select bank1
  2592  02E8  1303               	bcf	3,6	;RP1=0, select bank1
  2593  02E9  00B7               	movwf	??__doprnt^(0+128)
  2594  02EA  0843               	movf	__doprnt@pb^(0+128),w
  2595  02EB  0084               	movwf	4
  2596  02EC  1383               	bcf	3,7	;select IRP bank0
  2597  02ED  0800               	movf	0,w
  2598  02EE  0084               	movwf	4
  2599  02EF  0837               	movf	??__doprnt^(0+128),w
  2600  02F0  0080               	movwf	0
  2601  02F1  3001               	movlw	1
  2602  02F2  00B7               	movwf	??__doprnt^(0+128)
  2603  02F3  0843               	movf	__doprnt@pb^(0+128),w
  2604  02F4  0084               	movwf	4
  2605  02F5  0837               	movf	??__doprnt^(0+128),w
  2606  02F6  0780               	addwf	0,f
  2607  02F7                     l4829:	
  2608                           
  2609                           ;doprnt.c: 1478: }
  2610                           ;doprnt.c: 1481: prec = c;
  2611  02F7  1683               	bsf	3,5	;RP0=1, select bank1
  2612  02F8  1303               	bcf	3,6	;RP1=0, select bank1
  2613  02F9  0842               	movf	__doprnt@c^(0+128),w
  2614  02FA  00B7               	movwf	??__doprnt^(0+128)
  2615  02FB  0837               	movf	??__doprnt^(0+128),w
  2616  02FC  00BA               	movwf	__doprnt@prec^(0+128)
  2617  02FD                     l4841:	
  2618                           ;doprnt.c: 1483: while(prec--) {
  2619                           
  2620  02FD  30FF               	movlw	-1
  2621  02FE  1683               	bsf	3,5	;RP0=1, select bank1
  2622  02FF  1303               	bcf	3,6	;RP1=0, select bank1
  2623  0300  00B7               	movwf	??__doprnt^(0+128)
  2624  0301  0837               	movf	??__doprnt^(0+128),w
  2625  0302  07BA               	addwf	__doprnt@prec^(0+128),f
  2626  0303  083A               	movf	__doprnt@prec^(0+128),w
  2627  0304  3AFF               	xorlw	-1
  2628  0305  1903               	btfsc	3,2
  2629  0306  2915               	goto	l4843
  2630                           
  2631                           ;doprnt.c: 1487: {
  2632                           ;doprnt.c: 1498: c = (_val._val / dpowers[prec]) % 10 + '0';
  2633  0307  300A               	movlw	10
  2634  0308  00AF               	movwf	___lwmod@divisor^(0+128)
  2635  0309  3000               	movlw	0
  2636  030A  00B0               	movwf	(___lwmod@divisor^(0+128)+1)
  2637  030B  083A               	movf	__doprnt@prec^(0+128),w
  2638  030C  00B7               	movwf	??__doprnt^(0+128)
  2639  030D  0737               	addwf	??__doprnt^(0+128),w
  2640  030E  3E01               	addlw	low (_dpowers-__stringbase)
  2641  030F  0084               	movwf	4
  2642  0310  120A  158A  200A  120A  118A  	fcall	stringdir
  2643  0315  00A7               	movwf	___lwdiv@divisor^(0+128)
  2644  0316  120A  158A  200A  120A  118A  	fcall	stringdir
  2645  031B  00A8               	movwf	(___lwdiv@divisor+1)^(0+128)
  2646  031C  083C               	movf	(__doprnt@_val+1)^(0+128),w
  2647  031D  01AA               	clrf	(___lwdiv@dividend+1)^(0+128)
  2648  031E  07AA               	addwf	(___lwdiv@dividend+1)^(0+128),f
  2649  031F  083B               	movf	__doprnt@_val^(0+128),w
  2650  0320  01A9               	clrf	___lwdiv@dividend^(0+128)
  2651  0321  07A9               	addwf	___lwdiv@dividend^(0+128),f
  2652  0322  120A  158A  219D  120A  118A  	fcall	___lwdiv
  2653  0327  1683               	bsf	3,5	;RP0=1, select bank1
  2654  0328  1303               	bcf	3,6	;RP1=0, select bank1
  2655  0329  0828               	movf	(?___lwdiv+1)^(0+128),w
  2656  032A  01B2               	clrf	(___lwmod@dividend+1)^(0+128)
  2657  032B  07B2               	addwf	(___lwmod@dividend+1)^(0+128),f
  2658  032C  0827               	movf	?___lwdiv^(0+128),w
  2659  032D  01B1               	clrf	___lwmod@dividend^(0+128)
  2660  032E  07B1               	addwf	___lwmod@dividend^(0+128),f
  2661  032F  120A  118A  20C7  120A  118A  	fcall	___lwmod
  2662  0334  1683               	bsf	3,5	;RP0=1, select bank1
  2663  0335  1303               	bcf	3,6	;RP1=0, select bank1
  2664  0336  082F               	movf	?___lwmod^(0+128),w
  2665  0337  3E30               	addlw	48
  2666  0338  00B8               	movwf	(??__doprnt+1)^(0+128)
  2667  0339  0838               	movf	(??__doprnt+1)^(0+128),w
  2668  033A  00C2               	movwf	__doprnt@c^(0+128)
  2669                           
  2670                           ;doprnt.c: 1532: }
  2671                           ;doprnt.c: 1533: if(pb->func) (pb->func(c)); else ((*pb->ptr++ = c));
  2672  033B  0A43               	incf	__doprnt@pb^(0+128),w
  2673  033C  0084               	movwf	4
  2674  033D  1383               	bcf	3,7	;select IRP bank0
  2675  033E  0880               	movf	0,f
  2676  033F  1903               	skipnz
  2677  0340  2B4E               	goto	l4837
  2678  0341  0842               	movf	__doprnt@c^(0+128),w
  2679  0342  00B7               	movwf	??__doprnt^(0+128)
  2680  0343  0837               	movf	??__doprnt^(0+128),w
  2681  0344  00A7               	movwf	putch@c^(0+128)
  2682  0345  0A43               	incf	__doprnt@pb^(0+128),w
  2683  0346  0084               	movwf	4
  2684  0347  0800               	movf	0,w
  2685  0348  120A  118A  2100  120A  118A  	fcall	fptable
  2686  034D  2AFD               	goto	l4841
  2687  034E                     l4837:	
  2688  034E  1683               	bsf	3,5	;RP0=1, select bank1
  2689  034F  1303               	bcf	3,6	;RP1=0, select bank1
  2690  0350  0842               	movf	__doprnt@c^(0+128),w
  2691  0351  00B7               	movwf	??__doprnt^(0+128)
  2692  0352  0843               	movf	__doprnt@pb^(0+128),w
  2693  0353  0084               	movwf	4
  2694  0354  1383               	bcf	3,7	;select IRP bank0
  2695  0355  0800               	movf	0,w
  2696  0356  0084               	movwf	4
  2697  0357  0837               	movf	??__doprnt^(0+128),w
  2698  0358  0080               	movwf	0
  2699  0359  3001               	movlw	1
  2700  035A  00B7               	movwf	??__doprnt^(0+128)
  2701  035B  0843               	movf	__doprnt@pb^(0+128),w
  2702  035C  0084               	movwf	4
  2703  035D  0837               	movf	??__doprnt^(0+128),w
  2704  035E  0780               	addwf	0,f
  2705  035F  2AFD               	goto	l4841
  2706  0360                     l4845:	
  2707                           ;doprnt.c: 1534: }
  2708                           ;doprnt.c: 1542: }
  2709                           ;doprnt.c: 1544: alldone:
  2710                           
  2711                           
  2712                           ;doprnt.c: 1549: return 0;
  2713  0360  1683               	bsf	3,5	;RP0=1, select bank1
  2714  0361  1303               	bcf	3,6	;RP1=0, select bank1
  2715  0362  01B5               	clrf	?__doprnt^(0+128)
  2716  0363  01B6               	clrf	(?__doprnt+1)^(0+128)
  2717  0364  0008               	return
  2718  0365                     __end_of__doprnt:	
  2719                           
  2720                           	psect	text3
  2721  0003                     __ptext3:	
  2722 ;; *************** function _putch *****************
  2723 ;; Defined at:
  2724 ;;		line 7 in file "C:\Program Files (x86)\Microchip\xc8\v1.33\sources\common\putch.c"
  2725 ;; Parameters:    Size  Location     Type
  2726 ;;  c               1    7[BANK1 ] unsigned char 
  2727 ;; Auto vars:     Size  Location     Type
  2728 ;;		None
  2729 ;; Return value:  Size  Location     Type
  2730 ;;		None               void
  2731 ;; Registers used:
  2732 ;;		None
  2733 ;; Tracked objects:
  2734 ;;		On entry : 0/0
  2735 ;;		On exit  : 0/0
  2736 ;;		Unchanged: 0/0
  2737 ;; Data sizes:     COMMON   BANK0   BANK1   BANK3   BANK2
  2738 ;;      Params:         0       0       1       0       0
  2739 ;;      Locals:         0       0       0       0       0
  2740 ;;      Temps:          0       0       0       0       0
  2741 ;;      Totals:         0       0       1       0       0
  2742 ;;Total ram usage:        1 bytes
  2743 ;; Hardware stack levels used:    1
  2744 ;; Hardware stack levels required when called:    5
  2745 ;; This function calls:
  2746 ;;		Nothing
  2747 ;; This function is called by:
  2748 ;;		i1__doprnt
  2749 ;;		__doprnt
  2750 ;; This function uses a non-reentrant model
  2751 ;;
  2752                           
  2753                           
  2754                           ;psect for function _putch
  2755  0003                     _putch:	
  2756                           
  2757                           ;incstack = 0
  2758                           ; Regs used in _putch: []
  2759  0003  0008               	return
  2760  0004                     __end_of_putch:	
  2761                           
  2762                           	psect	text4
  2763  1692                     __ptext4:	
  2764 ;; *************** function _isdigit *****************
  2765 ;; Defined at:
  2766 ;;		line 8 in file "C:\Program Files (x86)\Microchip\xc8\v1.33\sources\common\isdigit.c"
  2767 ;; Parameters:    Size  Location     Type
  2768 ;;  c               1    wreg     unsigned char 
  2769 ;; Auto vars:     Size  Location     Type
  2770 ;;  c               1    8[BANK1 ] unsigned char 
  2771 ;; Return value:  Size  Location     Type
  2772 ;;		None               void
  2773 ;; Registers used:
  2774 ;;		wreg, status,2, status,0
  2775 ;; Tracked objects:
  2776 ;;		On entry : 0/0
  2777 ;;		On exit  : 0/0
  2778 ;;		Unchanged: 0/0
  2779 ;; Data sizes:     COMMON   BANK0   BANK1   BANK3   BANK2
  2780 ;;      Params:         0       0       0       0       0
  2781 ;;      Locals:         0       0       2       0       0
  2782 ;;      Temps:          0       0       0       0       0
  2783 ;;      Totals:         0       0       2       0       0
  2784 ;;Total ram usage:        2 bytes
  2785 ;; Hardware stack levels used:    1
  2786 ;; Hardware stack levels required when called:    5
  2787 ;; This function calls:
  2788 ;;		Nothing
  2789 ;; This function is called by:
  2790 ;;		__doprnt
  2791 ;; This function uses a non-reentrant model
  2792 ;;
  2793                           
  2794                           
  2795                           ;psect for function _isdigit
  2796  1692                     _isdigit:	
  2797                           
  2798                           ;incstack = 0
  2799                           ; Regs used in _isdigit: [wreg+status,2+status,0]
  2800                           ;isdigit@c stored from wreg
  2801  1692  1683               	bsf	3,5	;RP0=1, select bank1
  2802  1693  1303               	bcf	3,6	;RP1=0, select bank1
  2803  1694  00A8               	movwf	isdigit@c^(0+128)
  2804  1695  01A7               	clrf	_isdigit$1416^(0+128)
  2805  1696  303A               	movlw	58
  2806  1697  0228               	subwf	isdigit@c^(0+128),w
  2807  1698  1803               	skipnc
  2808  1699  2EA0               	goto	l2259
  2809  169A  3030               	movlw	48
  2810  169B  0228               	subwf	isdigit@c^(0+128),w
  2811  169C  1C03               	skipc
  2812  169D  2EA0               	goto	l2259
  2813  169E  01A7               	clrf	_isdigit$1416^(0+128)
  2814  169F  0AA7               	incf	_isdigit$1416^(0+128),f
  2815  16A0                     l2259:	
  2816  16A0  0C27               	rrf	_isdigit$1416^(0+128),w
  2817  16A1  0008               	return
  2818  16A2                     __end_of_isdigit:	
  2819                           
  2820                           	psect	text5
  2821  17DB                     __ptext5:	
  2822 ;; *************** function ___wmul *****************
  2823 ;; Defined at:
  2824 ;;		line 15 in file "C:\Program Files (x86)\Microchip\xc8\v1.33\sources\common\Umul16.c"
  2825 ;; Parameters:    Size  Location     Type
  2826 ;;  multiplier      2    7[BANK1 ] unsigned int 
  2827 ;;  multiplicand    2    9[BANK1 ] unsigned int 
  2828 ;; Auto vars:     Size  Location     Type
  2829 ;;  product         2   11[BANK1 ] unsigned int 
  2830 ;; Return value:  Size  Location     Type
  2831 ;;                  2    7[BANK1 ] unsigned int 
  2832 ;; Registers used:
  2833 ;;		wreg, status,2, status,0
  2834 ;; Tracked objects:
  2835 ;;		On entry : 0/0
  2836 ;;		On exit  : 0/0
  2837 ;;		Unchanged: 0/0
  2838 ;; Data sizes:     COMMON   BANK0   BANK1   BANK3   BANK2
  2839 ;;      Params:         0       0       4       0       0
  2840 ;;      Locals:         0       0       2       0       0
  2841 ;;      Temps:          0       0       0       0       0
  2842 ;;      Totals:         0       0       6       0       0
  2843 ;;Total ram usage:        6 bytes
  2844 ;; Hardware stack levels used:    1
  2845 ;; Hardware stack levels required when called:    5
  2846 ;; This function calls:
  2847 ;;		Nothing
  2848 ;; This function is called by:
  2849 ;;		__doprnt
  2850 ;; This function uses a non-reentrant model
  2851 ;;
  2852                           
  2853                           
  2854                           ;psect for function ___wmul
  2855  17DB                     ___wmul:	
  2856                           
  2857                           ;incstack = 0
  2858                           ; Regs used in ___wmul: [wreg+status,2+status,0]
  2859  17DB  1683               	bsf	3,5	;RP0=1, select bank1
  2860  17DC  1303               	bcf	3,6	;RP1=0, select bank1
  2861  17DD  01AB               	clrf	___wmul@product^(0+128)
  2862  17DE  01AC               	clrf	(___wmul@product+1)^(0+128)
  2863  17DF                     l2265:	
  2864  17DF  1C27               	btfss	___wmul@multiplier^(0+128),0
  2865  17E0  2FE7               	goto	l516
  2866  17E1  0829               	movf	___wmul@multiplicand^(0+128),w
  2867  17E2  07AB               	addwf	___wmul@product^(0+128),f
  2868  17E3  1803               	skipnc
  2869  17E4  0AAC               	incf	(___wmul@product+1)^(0+128),f
  2870  17E5  082A               	movf	(___wmul@multiplicand+1)^(0+128),w
  2871  17E6  07AC               	addwf	(___wmul@product+1)^(0+128),f
  2872  17E7                     l516:	
  2873  17E7  3001               	movlw	1
  2874  17E8                     u2355:	
  2875  17E8  1003               	clrc
  2876  17E9  0DA9               	rlf	___wmul@multiplicand^(0+128),f
  2877  17EA  0DAA               	rlf	(___wmul@multiplicand+1)^(0+128),f
  2878  17EB  3EFF               	addlw	-1
  2879  17EC  1D03               	skipz
  2880  17ED  2FE8               	goto	u2355
  2881  17EE  3001               	movlw	1
  2882  17EF                     u2365:	
  2883  17EF  1003               	clrc
  2884  17F0  0CA8               	rrf	(___wmul@multiplier+1)^(0+128),f
  2885  17F1  0CA7               	rrf	___wmul@multiplier^(0+128),f
  2886  17F2  3EFF               	addlw	-1
  2887  17F3  1D03               	skipz
  2888  17F4  2FEF               	goto	u2365
  2889  17F5  0828               	movf	(___wmul@multiplier+1)^(0+128),w
  2890  17F6  0427               	iorwf	___wmul@multiplier^(0+128),w
  2891  17F7  1D03               	skipz
  2892  17F8  2FDF               	goto	l2265
  2893  17F9  082C               	movf	(___wmul@product+1)^(0+128),w
  2894  17FA  01A8               	clrf	(?___wmul+1)^(0+128)
  2895  17FB  07A8               	addwf	(?___wmul+1)^(0+128),f
  2896  17FC  082B               	movf	___wmul@product^(0+128),w
  2897  17FD  01A7               	clrf	?___wmul^(0+128)
  2898  17FE  07A7               	addwf	?___wmul^(0+128),f
  2899  17FF  0008               	return
  2900  1800                     __end_of___wmul:	
  2901                           
  2902                           	psect	text6
  2903  00C7                     __ptext6:	
  2904 ;; *************** function ___lwmod *****************
  2905 ;; Defined at:
  2906 ;;		line 6 in file "C:\Program Files (x86)\Microchip\xc8\v1.33\sources\common\lwmod.c"
  2907 ;; Parameters:    Size  Location     Type
  2908 ;;  divisor         2   15[BANK1 ] unsigned int 
  2909 ;;  dividend        2   17[BANK1 ] unsigned int 
  2910 ;; Auto vars:     Size  Location     Type
  2911 ;;  counter         1   20[BANK1 ] unsigned char 
  2912 ;; Return value:  Size  Location     Type
  2913 ;;                  2   15[BANK1 ] unsigned int 
  2914 ;; Registers used:
  2915 ;;		wreg, status,2, status,0
  2916 ;; Tracked objects:
  2917 ;;		On entry : 0/0
  2918 ;;		On exit  : 0/0
  2919 ;;		Unchanged: 0/0
  2920 ;; Data sizes:     COMMON   BANK0   BANK1   BANK3   BANK2
  2921 ;;      Params:         0       0       4       0       0
  2922 ;;      Locals:         0       0       1       0       0
  2923 ;;      Temps:          0       0       1       0       0
  2924 ;;      Totals:         0       0       6       0       0
  2925 ;;Total ram usage:        6 bytes
  2926 ;; Hardware stack levels used:    1
  2927 ;; Hardware stack levels required when called:    5
  2928 ;; This function calls:
  2929 ;;		Nothing
  2930 ;; This function is called by:
  2931 ;;		__doprnt
  2932 ;; This function uses a non-reentrant model
  2933 ;;
  2934                           
  2935                           
  2936                           ;psect for function ___lwmod
  2937  00C7                     ___lwmod:	
  2938                           
  2939                           ;incstack = 0
  2940                           ; Regs used in ___lwmod: [wreg+status,2+status,0]
  2941  00C7  1683               	bsf	3,5	;RP0=1, select bank1
  2942  00C8  1303               	bcf	3,6	;RP1=0, select bank1
  2943  00C9  0830               	movf	(___lwmod@divisor+1)^(0+128),w
  2944  00CA  042F               	iorwf	___lwmod@divisor^(0+128),w
  2945  00CB  1903               	skipnz
  2946  00CC  28F6               	goto	l2349
  2947  00CD  01B4               	clrf	___lwmod@counter^(0+128)
  2948  00CE  0AB4               	incf	___lwmod@counter^(0+128),f
  2949  00CF                     l2339:	
  2950  00CF  1BB0               	btfsc	(___lwmod@divisor+1)^(0+128),7
  2951  00D0  28DD               	goto	l2341
  2952  00D1  3001               	movlw	1
  2953  00D2                     u2575:	
  2954  00D2  1003               	clrc
  2955  00D3  0DAF               	rlf	___lwmod@divisor^(0+128),f
  2956  00D4  0DB0               	rlf	(___lwmod@divisor+1)^(0+128),f
  2957  00D5  3EFF               	addlw	-1
  2958  00D6  1D03               	skipz
  2959  00D7  28D2               	goto	u2575
  2960  00D8  3001               	movlw	1
  2961  00D9  00B3               	movwf	??___lwmod^(0+128)
  2962  00DA  0833               	movf	??___lwmod^(0+128),w
  2963  00DB  07B4               	addwf	___lwmod@counter^(0+128),f
  2964  00DC  28CF               	goto	l2339
  2965  00DD                     l2341:	
  2966  00DD  0830               	movf	(___lwmod@divisor+1)^(0+128),w
  2967  00DE  0232               	subwf	(___lwmod@dividend+1)^(0+128),w
  2968  00DF  1D03               	skipz
  2969  00E0  28E3               	goto	u2595
  2970  00E1  082F               	movf	___lwmod@divisor^(0+128),w
  2971  00E2  0231               	subwf	___lwmod@dividend^(0+128),w
  2972  00E3                     u2595:	
  2973  00E3  1C03               	skipc
  2974  00E4  28EB               	goto	l2345
  2975  00E5  082F               	movf	___lwmod@divisor^(0+128),w
  2976  00E6  02B1               	subwf	___lwmod@dividend^(0+128),f
  2977  00E7  0830               	movf	(___lwmod@divisor+1)^(0+128),w
  2978  00E8  1C03               	skipc
  2979  00E9  03B2               	decf	(___lwmod@dividend+1)^(0+128),f
  2980  00EA  02B2               	subwf	(___lwmod@dividend+1)^(0+128),f
  2981  00EB                     l2345:	
  2982  00EB  3001               	movlw	1
  2983  00EC                     u2605:	
  2984  00EC  1003               	clrc
  2985  00ED  0CB0               	rrf	(___lwmod@divisor+1)^(0+128),f
  2986  00EE  0CAF               	rrf	___lwmod@divisor^(0+128),f
  2987  00EF  3EFF               	addlw	-1
  2988  00F0  1D03               	skipz
  2989  00F1  28EC               	goto	u2605
  2990  00F2  3001               	movlw	1
  2991  00F3  02B4               	subwf	___lwmod@counter^(0+128),f
  2992  00F4  1D03               	btfss	3,2
  2993  00F5  28DD               	goto	l2341
  2994  00F6                     l2349:	
  2995  00F6  0832               	movf	(___lwmod@dividend+1)^(0+128),w
  2996  00F7  01B0               	clrf	(?___lwmod+1)^(0+128)
  2997  00F8  07B0               	addwf	(?___lwmod+1)^(0+128),f
  2998  00F9  0831               	movf	___lwmod@dividend^(0+128),w
  2999  00FA  01AF               	clrf	?___lwmod^(0+128)
  3000  00FB  07AF               	addwf	?___lwmod^(0+128),f
  3001  00FC  0008               	return
  3002  00FD                     __end_of___lwmod:	
  3003                           
  3004                           	psect	text7
  3005  099D                     __ptext7:	
  3006 ;; *************** function ___lwdiv *****************
  3007 ;; Defined at:
  3008 ;;		line 6 in file "C:\Program Files (x86)\Microchip\xc8\v1.33\sources\common\lwdiv.c"
  3009 ;; Parameters:    Size  Location     Type
  3010 ;;  divisor         2    7[BANK1 ] unsigned int 
  3011 ;;  dividend        2    9[BANK1 ] unsigned int 
  3012 ;; Auto vars:     Size  Location     Type
  3013 ;;  quotient        2   12[BANK1 ] unsigned int 
  3014 ;;  counter         1   14[BANK1 ] unsigned char 
  3015 ;; Return value:  Size  Location     Type
  3016 ;;                  2    7[BANK1 ] unsigned int 
  3017 ;; Registers used:
  3018 ;;		wreg, status,2, status,0
  3019 ;; Tracked objects:
  3020 ;;		On entry : 0/0
  3021 ;;		On exit  : 0/0
  3022 ;;		Unchanged: 0/0
  3023 ;; Data sizes:     COMMON   BANK0   BANK1   BANK3   BANK2
  3024 ;;      Params:         0       0       4       0       0
  3025 ;;      Locals:         0       0       3       0       0
  3026 ;;      Temps:          0       0       1       0       0
  3027 ;;      Totals:         0       0       8       0       0
  3028 ;;Total ram usage:        8 bytes
  3029 ;; Hardware stack levels used:    1
  3030 ;; Hardware stack levels required when called:    5
  3031 ;; This function calls:
  3032 ;;		Nothing
  3033 ;; This function is called by:
  3034 ;;		__doprnt
  3035 ;; This function uses a non-reentrant model
  3036 ;;
  3037                           
  3038                           
  3039                           ;psect for function ___lwdiv
  3040  099D                     ___lwdiv:	
  3041                           
  3042                           ;incstack = 0
  3043                           ; Regs used in ___lwdiv: [wreg+status,2+status,0]
  3044  099D  1683               	bsf	3,5	;RP0=1, select bank1
  3045  099E  1303               	bcf	3,6	;RP1=0, select bank1
  3046  099F  01AC               	clrf	___lwdiv@quotient^(0+128)
  3047  09A0  01AD               	clrf	(___lwdiv@quotient+1)^(0+128)
  3048  09A1  0828               	movf	(___lwdiv@divisor+1)^(0+128),w
  3049  09A2  0427               	iorwf	___lwdiv@divisor^(0+128),w
  3050  09A3  1903               	skipnz
  3051  09A4  29D6               	goto	l2327
  3052  09A5  01AE               	clrf	___lwdiv@counter^(0+128)
  3053  09A6  0AAE               	incf	___lwdiv@counter^(0+128),f
  3054  09A7                     l2315:	
  3055  09A7  1BA8               	btfsc	(___lwdiv@divisor+1)^(0+128),7
  3056  09A8  29B5               	goto	l2317
  3057  09A9  3001               	movlw	1
  3058  09AA                     u2505:	
  3059  09AA  1003               	clrc
  3060  09AB  0DA7               	rlf	___lwdiv@divisor^(0+128),f
  3061  09AC  0DA8               	rlf	(___lwdiv@divisor+1)^(0+128),f
  3062  09AD  3EFF               	addlw	-1
  3063  09AE  1D03               	skipz
  3064  09AF  29AA               	goto	u2505
  3065  09B0  3001               	movlw	1
  3066  09B1  00AB               	movwf	??___lwdiv^(0+128)
  3067  09B2  082B               	movf	??___lwdiv^(0+128),w
  3068  09B3  07AE               	addwf	___lwdiv@counter^(0+128),f
  3069  09B4  29A7               	goto	l2315
  3070  09B5                     l2317:	
  3071  09B5  3001               	movlw	1
  3072  09B6                     u2525:	
  3073  09B6  1003               	clrc
  3074  09B7  0DAC               	rlf	___lwdiv@quotient^(0+128),f
  3075  09B8  0DAD               	rlf	(___lwdiv@quotient+1)^(0+128),f
  3076  09B9  3EFF               	addlw	-1
  3077  09BA  1D03               	skipz
  3078  09BB  29B6               	goto	u2525
  3079  09BC  0828               	movf	(___lwdiv@divisor+1)^(0+128),w
  3080  09BD  022A               	subwf	(___lwdiv@dividend+1)^(0+128),w
  3081  09BE  1D03               	skipz
  3082  09BF  29C2               	goto	u2535
  3083  09C0  0827               	movf	___lwdiv@divisor^(0+128),w
  3084  09C1  0229               	subwf	___lwdiv@dividend^(0+128),w
  3085  09C2                     u2535:	
  3086  09C2  1C03               	skipc
  3087  09C3  29CB               	goto	l2323
  3088  09C4  0827               	movf	___lwdiv@divisor^(0+128),w
  3089  09C5  02A9               	subwf	___lwdiv@dividend^(0+128),f
  3090  09C6  0828               	movf	(___lwdiv@divisor+1)^(0+128),w
  3091  09C7  1C03               	skipc
  3092  09C8  03AA               	decf	(___lwdiv@dividend+1)^(0+128),f
  3093  09C9  02AA               	subwf	(___lwdiv@dividend+1)^(0+128),f
  3094  09CA  142C               	bsf	___lwdiv@quotient^(0+128),0
  3095  09CB                     l2323:	
  3096  09CB  3001               	movlw	1
  3097  09CC                     u2545:	
  3098  09CC  1003               	clrc
  3099  09CD  0CA8               	rrf	(___lwdiv@divisor+1)^(0+128),f
  3100  09CE  0CA7               	rrf	___lwdiv@divisor^(0+128),f
  3101  09CF  3EFF               	addlw	-1
  3102  09D0  1D03               	skipz
  3103  09D1  29CC               	goto	u2545
  3104  09D2  3001               	movlw	1
  3105  09D3  02AE               	subwf	___lwdiv@counter^(0+128),f
  3106  09D4  1D03               	btfss	3,2
  3107  09D5  29B5               	goto	l2317
  3108  09D6                     l2327:	
  3109  09D6  082D               	movf	(___lwdiv@quotient+1)^(0+128),w
  3110  09D7  01A8               	clrf	(?___lwdiv+1)^(0+128)
  3111  09D8  07A8               	addwf	(?___lwdiv+1)^(0+128),f
  3112  09D9  082C               	movf	___lwdiv@quotient^(0+128),w
  3113  09DA  01A7               	clrf	?___lwdiv^(0+128)
  3114  09DB  07A7               	addwf	?___lwdiv^(0+128),f
  3115  09DC  0008               	return
  3116  09DD                     __end_of___lwdiv:	
  3117                           
  3118                           	psect	text8
  3119  08FA                     __ptext8:	
  3120 ;; *************** function _USART_WriteString *****************
  3121 ;; Defined at:
  3122 ;;		line 52 in file "C:\Users\332414\Desktop\Fuzzy-IA2\Cdigo em C no MPLAB\usart.c"
  3123 ;; Parameters:    Size  Location     Type
  3124 ;;  str             2    8[BANK1 ] PTR const unsigned char 
  3125 ;;		 -> STR_11(40), STR_9(3), display(10), STR_7(20), 
  3126 ;;		 -> STR_6(29), 
  3127 ;; Auto vars:     Size  Location     Type
  3128 ;;		None
  3129 ;; Return value:  Size  Location     Type
  3130 ;;		None               void
  3131 ;; Registers used:
  3132 ;;		wreg, fsr0l, fsr0h, status,2, status,0, btemp+1, pclath, cstack
  3133 ;; Tracked objects:
  3134 ;;		On entry : 0/0
  3135 ;;		On exit  : 0/0
  3136 ;;		Unchanged: 0/0
  3137 ;; Data sizes:     COMMON   BANK0   BANK1   BANK3   BANK2
  3138 ;;      Params:         0       0       2       0       0
  3139 ;;      Locals:         0       0       0       0       0
  3140 ;;      Temps:          0       0       0       0       0
  3141 ;;      Totals:         0       0       2       0       0
  3142 ;;Total ram usage:        2 bytes
  3143 ;; Hardware stack levels used:    1
  3144 ;; Hardware stack levels required when called:    6
  3145 ;; This function calls:
  3146 ;;		_USART_WriteChar
  3147 ;; This function is called by:
  3148 ;;		_main
  3149 ;;		_USART_ReceiveChar
  3150 ;; This function uses a non-reentrant model
  3151 ;;
  3152                           
  3153                           
  3154                           ;psect for function _USART_WriteString
  3155  08FA                     _USART_WriteString:	
  3156  08FA                     l2983:	
  3157                           ;usart.c: 54: while(*str != '\0')
  3158                           
  3159                           ;incstack = 0
  3160                           ; Regs used in _USART_WriteString: [wreg-fsr0h+status,2+status,0+btemp+1+pclath+cstack]
  3161                           
  3162  08FA  1683               	bsf	3,5	;RP0=1, select bank1
  3163  08FB  1303               	bcf	3,6	;RP1=0, select bank1
  3164  08FC  0829               	movf	(USART_WriteString@str+1)^(0+128),w
  3165  08FD  1283               	bcf	3,5	;RP0=0, select bank0
  3166  08FE  1303               	bcf	3,6	;RP1=0, select bank0
  3167  08FF  00FF               	movwf	127
  3168  0900  1683               	bsf	3,5	;RP0=1, select bank1
  3169  0901  1303               	bcf	3,6	;RP1=0, select bank1
  3170  0902  0828               	movf	USART_WriteString@str^(0+128),w
  3171  0903  0084               	movwf	4
  3172  0904  1283               	bcf	3,5	;RP0=0, select bank0
  3173  0905  1303               	bcf	3,6	;RP1=0, select bank0
  3174  0906  120A  158A  2000  120A  158A  	fcall	stringtab
  3175  090B  3800               	iorlw	0
  3176  090C  1903               	btfsc	3,2
  3177  090D  0008               	return
  3178                           
  3179                           ;usart.c: 55: {
  3180                           ;usart.c: 56: USART_WriteChar(*str);
  3181  090E  1683               	bsf	3,5	;RP0=1, select bank1
  3182  090F  1303               	bcf	3,6	;RP1=0, select bank1
  3183  0910  0829               	movf	(USART_WriteString@str+1)^(0+128),w
  3184  0911  1283               	bcf	3,5	;RP0=0, select bank0
  3185  0912  1303               	bcf	3,6	;RP1=0, select bank0
  3186  0913  00FF               	movwf	127
  3187  0914  1683               	bsf	3,5	;RP0=1, select bank1
  3188  0915  1303               	bcf	3,6	;RP1=0, select bank1
  3189  0916  0828               	movf	USART_WriteString@str^(0+128),w
  3190  0917  0084               	movwf	4
  3191  0918  1283               	bcf	3,5	;RP0=0, select bank0
  3192  0919  1303               	bcf	3,6	;RP1=0, select bank0
  3193  091A  120A  158A  2000  120A  158A  	fcall	stringtab
  3194  091F  160A  118A  2677  120A  158A  	fcall	_USART_WriteChar
  3195                           
  3196                           ;usart.c: 57: str++;
  3197  0924  3001               	movlw	1
  3198  0925  1683               	bsf	3,5	;RP0=1, select bank1
  3199  0926  1303               	bcf	3,6	;RP1=0, select bank1
  3200  0927  07A8               	addwf	USART_WriteString@str^(0+128),f
  3201  0928  1803               	skipnc
  3202  0929  0AA9               	incf	(USART_WriteString@str+1)^(0+128),f
  3203  092A  28FA               	goto	l2983
  3204  092B                     __end_of_USART_WriteString:	
  3205                           
  3206                           	psect	text9
  3207  1677                     __ptext9:	
  3208 ;; *************** function _USART_WriteChar *****************
  3209 ;; Defined at:
  3210 ;;		line 44 in file "C:\Users\332414\Desktop\Fuzzy-IA2\Cdigo em C no MPLAB\usart.c"
  3211 ;; Parameters:    Size  Location     Type
  3212 ;;  byte            1    wreg     unsigned char 
  3213 ;; Auto vars:     Size  Location     Type
  3214 ;;  byte            1    7[BANK1 ] unsigned char 
  3215 ;; Return value:  Size  Location     Type
  3216 ;;		None               void
  3217 ;; Registers used:
  3218 ;;		wreg
  3219 ;; Tracked objects:
  3220 ;;		On entry : 0/0
  3221 ;;		On exit  : 0/0
  3222 ;;		Unchanged: 0/0
  3223 ;; Data sizes:     COMMON   BANK0   BANK1   BANK3   BANK2
  3224 ;;      Params:         0       0       0       0       0
  3225 ;;      Locals:         0       0       1       0       0
  3226 ;;      Temps:          0       0       0       0       0
  3227 ;;      Totals:         0       0       1       0       0
  3228 ;;Total ram usage:        1 bytes
  3229 ;; Hardware stack levels used:    1
  3230 ;; Hardware stack levels required when called:    5
  3231 ;; This function calls:
  3232 ;;		Nothing
  3233 ;; This function is called by:
  3234 ;;		_USART_WriteString
  3235 ;; This function uses a non-reentrant model
  3236 ;;
  3237                           
  3238                           
  3239                           ;psect for function _USART_WriteChar
  3240  1677                     _USART_WriteChar:	
  3241                           
  3242                           ;incstack = 0
  3243                           ; Regs used in _USART_WriteChar: [wreg]
  3244                           ;USART_WriteChar@byte stored from wreg
  3245  1677  1683               	bsf	3,5	;RP0=1, select bank1
  3246  1678  1303               	bcf	3,6	;RP1=0, select bank1
  3247  1679  00A7               	movwf	USART_WriteChar@byte^(0+128)
  3248  167A                     l135:	
  3249                           ;usart.c: 46: while(!PIR1bits.TXIF);
  3250                           
  3251  167A  1283               	bcf	3,5	;RP0=0, select bank0
  3252  167B  1E0C               	btfss	12,4	;volatile
  3253  167C  2E7A               	goto	l135
  3254                           
  3255                           ;usart.c: 47: TXREG = byte;
  3256  167D  1683               	bsf	3,5	;RP0=1, select bank1
  3257  167E  1303               	bcf	3,6	;RP1=0, select bank1
  3258  167F  0827               	movf	USART_WriteChar@byte^(0+128),w
  3259  1680  1283               	bcf	3,5	;RP0=0, select bank0
  3260  1681  1303               	bcf	3,6	;RP1=0, select bank0
  3261  1682  0099               	movwf	25	;volatile
  3262  1683  0008               	return
  3263  1684                     __end_of_USART_WriteChar:	
  3264                           
  3265                           	psect	text10
  3266  09DD                     __ptext10:	
  3267 ;; *************** function _USART_Init *****************
  3268 ;; Defined at:
  3269 ;;		line 6 in file "C:\Users\332414\Desktop\Fuzzy-IA2\Cdigo em C no MPLAB\usart.c"
  3270 ;; Parameters:    Size  Location     Type
  3271 ;;  BaudRate        4   22[BANK1 ] long 
  3272 ;; Auto vars:     Size  Location     Type
  3273 ;;		None
  3274 ;; Return value:  Size  Location     Type
  3275 ;;		None               void
  3276 ;; Registers used:
  3277 ;;		wreg, status,2, status,0, pclath, cstack
  3278 ;; Tracked objects:
  3279 ;;		On entry : 0/0
  3280 ;;		On exit  : 0/0
  3281 ;;		Unchanged: 0/0
  3282 ;; Data sizes:     COMMON   BANK0   BANK1   BANK3   BANK2
  3283 ;;      Params:         0       0       4       0       0
  3284 ;;      Locals:         0       0       0       0       0
  3285 ;;      Temps:          0       0       4       0       0
  3286 ;;      Totals:         0       0       8       0       0
  3287 ;;Total ram usage:        8 bytes
  3288 ;; Hardware stack levels used:    1
  3289 ;; Hardware stack levels required when called:    6
  3290 ;; This function calls:
  3291 ;;		___aldiv
  3292 ;; This function is called by:
  3293 ;;		_main
  3294 ;; This function uses a non-reentrant model
  3295 ;;
  3296                           
  3297                           
  3298                           ;psect for function _USART_Init
  3299  09DD                     _USART_Init:	
  3300                           
  3301                           ;usart.c: 13: SPBRG = (unsigned char)(18432000 / (16 * BaudRate)) - 1;
  3302                           
  3303                           ;incstack = 0
  3304                           ; Regs used in _USART_Init: [wreg+status,2+status,0+pclath+cstack]
  3305  09DD  1683               	bsf	3,5	;RP0=1, select bank1
  3306  09DE  1303               	bcf	3,6	;RP1=0, select bank1
  3307  09DF  0836               	movf	USART_Init@BaudRate^(0+128),w
  3308  09E0  00BA               	movwf	??_USART_Init^(0+128)
  3309  09E1  0837               	movf	(USART_Init@BaudRate+1)^(0+128),w
  3310  09E2  00BB               	movwf	(??_USART_Init^(0+128)+1)
  3311  09E3  0838               	movf	(USART_Init@BaudRate+2)^(0+128),w
  3312  09E4  00BC               	movwf	(??_USART_Init^(0+128)+2)
  3313  09E5  0839               	movf	(USART_Init@BaudRate+3)^(0+128),w
  3314  09E6  00BD               	movwf	(??_USART_Init^(0+128)+3)
  3315  09E7  3004               	movlw	4
  3316  09E8                     u3705:	
  3317  09E8  1003               	clrc
  3318  09E9  0DBA               	rlf	??_USART_Init^(0+128),f
  3319  09EA  0DBB               	rlf	(??_USART_Init^(0+128)+1),f
  3320  09EB  0DBC               	rlf	(??_USART_Init^(0+128)+2),f
  3321  09EC  0DBD               	rlf	(??_USART_Init^(0+128)+3),f
  3322  09ED  3EFF               	addlw	-1
  3323  09EE  1D03               	skipz
  3324  09EF  29E8               	goto	u3705
  3325  09F0  083D               	movf	(??_USART_Init+3)^(0+128),w
  3326  09F1  00AA               	movwf	(___aldiv@divisor+3)^(0+128)
  3327  09F2  083C               	movf	(??_USART_Init+2)^(0+128),w
  3328  09F3  00A9               	movwf	(___aldiv@divisor+2)^(0+128)
  3329  09F4  083B               	movf	(??_USART_Init+1)^(0+128),w
  3330  09F5  00A8               	movwf	(___aldiv@divisor+1)^(0+128)
  3331  09F6  083A               	movf	??_USART_Init^(0+128),w
  3332  09F7  00A7               	movwf	___aldiv@divisor^(0+128)
  3333  09F8  3001               	movlw	1
  3334  09F9  00AE               	movwf	(___aldiv@dividend+3)^(0+128)
  3335  09FA  3019               	movlw	25
  3336  09FB  00AD               	movwf	(___aldiv@dividend+2)^(0+128)
  3337  09FC  3040               	movlw	64
  3338  09FD  00AC               	movwf	(___aldiv@dividend+1)^(0+128)
  3339  09FE  3000               	movlw	0
  3340  09FF  00AB               	movwf	___aldiv@dividend^(0+128)
  3341  0A00  120A  118A  2038   	fcall	___aldiv
  3342  0A03  1683               	bsf	3,5	;RP0=1, select bank1
  3343  0A04  1303               	bcf	3,6	;RP1=0, select bank1
  3344  0A05  0827               	movf	?___aldiv^(0+128),w
  3345  0A06  3EFF               	addlw	255
  3346  0A07  0099               	movwf	25	;volatile
  3347                           
  3348                           ;usart.c: 16: TXSTAbits.CSRC = 0;
  3349  0A08  1398               	bcf	24,7	;volatile
  3350                           
  3351                           ;usart.c: 17: TXSTAbits.TX9 = 0;
  3352  0A09  1318               	bcf	24,6	;volatile
  3353                           
  3354                           ;usart.c: 18: TXSTAbits.TXEN = 1;
  3355  0A0A  1698               	bsf	24,5	;volatile
  3356                           
  3357                           ;usart.c: 19: TXSTAbits.SYNC = 0;
  3358  0A0B  1218               	bcf	24,4	;volatile
  3359                           
  3360                           ;usart.c: 21: TXSTAbits.BRGH = 1;
  3361  0A0C  1518               	bsf	24,2	;volatile
  3362                           
  3363                           ;usart.c: 22: TXSTAbits.TRMT = 1;
  3364  0A0D  1498               	bsf	24,1	;volatile
  3365                           
  3366                           ;usart.c: 23: TXSTAbits.TX9D = 0;
  3367  0A0E  1018               	bcf	24,0	;volatile
  3368                           
  3369                           ;usart.c: 26: RCSTAbits.SPEN = 1;
  3370  0A0F  1283               	bcf	3,5	;RP0=0, select bank0
  3371  0A10  1303               	bcf	3,6	;RP1=0, select bank0
  3372  0A11  1798               	bsf	24,7	;volatile
  3373                           
  3374                           ;usart.c: 27: RCSTAbits.RX9 = 0;
  3375  0A12  1318               	bcf	24,6	;volatile
  3376                           
  3377                           ;usart.c: 28: RCSTAbits.SREN = 0;
  3378  0A13  1298               	bcf	24,5	;volatile
  3379                           
  3380                           ;usart.c: 29: RCSTAbits.CREN = 1;
  3381  0A14  1618               	bsf	24,4	;volatile
  3382                           
  3383                           ;usart.c: 30: RCSTAbits.ADDEN = 0;
  3384  0A15  1198               	bcf	24,3	;volatile
  3385                           
  3386                           ;usart.c: 31: RCSTAbits.FERR = 0;
  3387  0A16  1118               	bcf	24,2	;volatile
  3388                           
  3389                           ;usart.c: 32: RCSTAbits.OERR = 0;
  3390  0A17  1098               	bcf	24,1	;volatile
  3391                           
  3392                           ;usart.c: 33: RCSTAbits.RX9D = 0;
  3393  0A18  1018               	bcf	24,0	;volatile
  3394                           
  3395                           ;usart.c: 36: PIE1bits.TXIE = 0;
  3396  0A19  1683               	bsf	3,5	;RP0=1, select bank1
  3397  0A1A  1303               	bcf	3,6	;RP1=0, select bank1
  3398  0A1B  120C               	bcf	12,4	;volatile
  3399                           
  3400                           ;usart.c: 37: PIR1bits.TXIF = 0;
  3401  0A1C  1283               	bcf	3,5	;RP0=0, select bank0
  3402  0A1D  1303               	bcf	3,6	;RP1=0, select bank0
  3403  0A1E  120C               	bcf	12,4	;volatile
  3404                           
  3405                           ;usart.c: 38: PIE1bits.RCIE = 1;
  3406  0A1F  1683               	bsf	3,5	;RP0=1, select bank1
  3407  0A20  1303               	bcf	3,6	;RP1=0, select bank1
  3408  0A21  168C               	bsf	12,5	;volatile
  3409                           
  3410                           ;usart.c: 39: PIR1bits.RCIF = 0;
  3411  0A22  1283               	bcf	3,5	;RP0=0, select bank0
  3412  0A23  1303               	bcf	3,6	;RP1=0, select bank0
  3413  0A24  128C               	bcf	12,5	;volatile
  3414  0A25  0008               	return
  3415  0A26                     __end_of_USART_Init:	
  3416                           
  3417                           	psect	text11
  3418  0038                     __ptext11:	
  3419 ;; *************** function ___aldiv *****************
  3420 ;; Defined at:
  3421 ;;		line 6 in file "C:\Program Files (x86)\Microchip\xc8\v1.33\sources\common\aldiv.c"
  3422 ;; Parameters:    Size  Location     Type
  3423 ;;  divisor         4    7[BANK1 ] long 
  3424 ;;  dividend        4   11[BANK1 ] long 
  3425 ;; Auto vars:     Size  Location     Type
  3426 ;;  quotient        4   18[BANK1 ] long 
  3427 ;;  sign            1   17[BANK1 ] unsigned char 
  3428 ;;  counter         1   16[BANK1 ] unsigned char 
  3429 ;; Return value:  Size  Location     Type
  3430 ;;                  4    7[BANK1 ] long 
  3431 ;; Registers used:
  3432 ;;		wreg, status,2, status,0
  3433 ;; Tracked objects:
  3434 ;;		On entry : 0/0
  3435 ;;		On exit  : 0/0
  3436 ;;		Unchanged: 0/0
  3437 ;; Data sizes:     COMMON   BANK0   BANK1   BANK3   BANK2
  3438 ;;      Params:         0       0       8       0       0
  3439 ;;      Locals:         0       0       6       0       0
  3440 ;;      Temps:          0       0       1       0       0
  3441 ;;      Totals:         0       0      15       0       0
  3442 ;;Total ram usage:       15 bytes
  3443 ;; Hardware stack levels used:    1
  3444 ;; Hardware stack levels required when called:    5
  3445 ;; This function calls:
  3446 ;;		Nothing
  3447 ;; This function is called by:
  3448 ;;		_USART_Init
  3449 ;; This function uses a non-reentrant model
  3450 ;;
  3451                           
  3452                           
  3453                           ;psect for function ___aldiv
  3454  0038                     ___aldiv:	
  3455                           
  3456                           ;incstack = 0
  3457                           ; Regs used in ___aldiv: [wreg+status,2+status,0]
  3458  0038  1683               	bsf	3,5	;RP0=1, select bank1
  3459  0039  1303               	bcf	3,6	;RP1=0, select bank1
  3460  003A  01B1               	clrf	___aldiv@sign^(0+128)
  3461  003B  1FAA               	btfss	(___aldiv@divisor+3)^(0+128),7
  3462  003C  284A               	goto	l571
  3463  003D  09A7               	comf	___aldiv@divisor^(0+128),f
  3464  003E  09A8               	comf	(___aldiv@divisor+1)^(0+128),f
  3465  003F  09A9               	comf	(___aldiv@divisor+2)^(0+128),f
  3466  0040  09AA               	comf	(___aldiv@divisor+3)^(0+128),f
  3467  0041  0AA7               	incf	___aldiv@divisor^(0+128),f
  3468  0042  1903               	skipnz
  3469  0043  0AA8               	incf	(___aldiv@divisor+1)^(0+128),f
  3470  0044  1903               	skipnz
  3471  0045  0AA9               	incf	(___aldiv@divisor+2)^(0+128),f
  3472  0046  1903               	skipnz
  3473  0047  0AAA               	incf	(___aldiv@divisor+3)^(0+128),f
  3474  0048  01B1               	clrf	___aldiv@sign^(0+128)
  3475  0049  0AB1               	incf	___aldiv@sign^(0+128),f
  3476  004A                     l571:	
  3477  004A  1FAE               	btfss	(___aldiv@dividend+3)^(0+128),7
  3478  004B  285B               	goto	l2657
  3479  004C  09AB               	comf	___aldiv@dividend^(0+128),f
  3480  004D  09AC               	comf	(___aldiv@dividend+1)^(0+128),f
  3481  004E  09AD               	comf	(___aldiv@dividend+2)^(0+128),f
  3482  004F  09AE               	comf	(___aldiv@dividend+3)^(0+128),f
  3483  0050  0AAB               	incf	___aldiv@dividend^(0+128),f
  3484  0051  1903               	skipnz
  3485  0052  0AAC               	incf	(___aldiv@dividend+1)^(0+128),f
  3486  0053  1903               	skipnz
  3487  0054  0AAD               	incf	(___aldiv@dividend+2)^(0+128),f
  3488  0055  1903               	skipnz
  3489  0056  0AAE               	incf	(___aldiv@dividend+3)^(0+128),f
  3490  0057  3001               	movlw	1
  3491  0058  00AF               	movwf	??___aldiv^(0+128)
  3492  0059  082F               	movf	??___aldiv^(0+128),w
  3493  005A  06B1               	xorwf	___aldiv@sign^(0+128),f
  3494  005B                     l2657:	
  3495  005B  3000               	movlw	0
  3496  005C  00B5               	movwf	(___aldiv@quotient+3)^(0+128)
  3497  005D  3000               	movlw	0
  3498  005E  00B4               	movwf	(___aldiv@quotient+2)^(0+128)
  3499  005F  3000               	movlw	0
  3500  0060  00B3               	movwf	(___aldiv@quotient+1)^(0+128)
  3501  0061  3000               	movlw	0
  3502  0062  00B2               	movwf	___aldiv@quotient^(0+128)
  3503  0063  082A               	movf	(___aldiv@divisor+3)^(0+128),w
  3504  0064  0429               	iorwf	(___aldiv@divisor+2)^(0+128),w
  3505  0065  0428               	iorwf	(___aldiv@divisor+1)^(0+128),w
  3506  0066  0427               	iorwf	___aldiv@divisor^(0+128),w
  3507  0067  1903               	skipnz
  3508  0068  28B0               	goto	l2679
  3509  0069  01B0               	clrf	___aldiv@counter^(0+128)
  3510  006A  0AB0               	incf	___aldiv@counter^(0+128),f
  3511  006B                     l2665:	
  3512  006B  1BAA               	btfsc	(___aldiv@divisor+3)^(0+128),7
  3513  006C  287B               	goto	l2667
  3514  006D  3001               	movlw	1
  3515  006E  00AF               	movwf	??___aldiv^(0+128)
  3516  006F                     u3165:	
  3517  006F  1003               	clrc
  3518  0070  0DA7               	rlf	___aldiv@divisor^(0+128),f
  3519  0071  0DA8               	rlf	(___aldiv@divisor+1)^(0+128),f
  3520  0072  0DA9               	rlf	(___aldiv@divisor+2)^(0+128),f
  3521  0073  0DAA               	rlf	(___aldiv@divisor+3)^(0+128),f
  3522  0074  0BAF               	decfsz	??___aldiv^(0+128),f
  3523  0075  286F               	goto	u3165
  3524  0076  3001               	movlw	1
  3525  0077  00AF               	movwf	??___aldiv^(0+128)
  3526  0078  082F               	movf	??___aldiv^(0+128),w
  3527  0079  07B0               	addwf	___aldiv@counter^(0+128),f
  3528  007A  286B               	goto	l2665
  3529  007B                     l2667:	
  3530  007B  3001               	movlw	1
  3531  007C  00AF               	movwf	??___aldiv^(0+128)
  3532  007D                     u3185:	
  3533  007D  1003               	clrc
  3534  007E  0DB2               	rlf	___aldiv@quotient^(0+128),f
  3535  007F  0DB3               	rlf	(___aldiv@quotient+1)^(0+128),f
  3536  0080  0DB4               	rlf	(___aldiv@quotient+2)^(0+128),f
  3537  0081  0DB5               	rlf	(___aldiv@quotient+3)^(0+128),f
  3538  0082  0BAF               	decfsz	??___aldiv^(0+128),f
  3539  0083  287D               	goto	u3185
  3540  0084  082A               	movf	(___aldiv@divisor+3)^(0+128),w
  3541  0085  022E               	subwf	(___aldiv@dividend+3)^(0+128),w
  3542  0086  1D03               	skipz
  3543  0087  2892               	goto	u3195
  3544  0088  0829               	movf	(___aldiv@divisor+2)^(0+128),w
  3545  0089  022D               	subwf	(___aldiv@dividend+2)^(0+128),w
  3546  008A  1D03               	skipz
  3547  008B  2892               	goto	u3195
  3548  008C  0828               	movf	(___aldiv@divisor+1)^(0+128),w
  3549  008D  022C               	subwf	(___aldiv@dividend+1)^(0+128),w
  3550  008E  1D03               	skipz
  3551  008F  2892               	goto	u3195
  3552  0090  0827               	movf	___aldiv@divisor^(0+128),w
  3553  0091  022B               	subwf	___aldiv@dividend^(0+128),w
  3554  0092                     u3195:	
  3555  0092  1C03               	skipc
  3556  0093  28A3               	goto	l2675
  3557  0094  0827               	movf	___aldiv@divisor^(0+128),w
  3558  0095  02AB               	subwf	___aldiv@dividend^(0+128),f
  3559  0096  0828               	movf	(___aldiv@divisor+1)^(0+128),w
  3560  0097  1C03               	skipc
  3561  0098  0F28               	incfsz	(___aldiv@divisor+1)^(0+128),w
  3562  0099  02AC               	subwf	(___aldiv@dividend+1)^(0+128),f
  3563  009A  0829               	movf	(___aldiv@divisor+2)^(0+128),w
  3564  009B  1C03               	skipc
  3565  009C  0F29               	incfsz	(___aldiv@divisor+2)^(0+128),w
  3566  009D  02AD               	subwf	(___aldiv@dividend+2)^(0+128),f
  3567  009E  082A               	movf	(___aldiv@divisor+3)^(0+128),w
  3568  009F  1C03               	skipc
  3569  00A0  0F2A               	incfsz	(___aldiv@divisor+3)^(0+128),w
  3570  00A1  02AE               	subwf	(___aldiv@dividend+3)^(0+128),f
  3571  00A2  1432               	bsf	___aldiv@quotient^(0+128),0
  3572  00A3                     l2675:	
  3573  00A3  3001               	movlw	1
  3574  00A4                     u3205:	
  3575  00A4  1003               	clrc
  3576  00A5  0CAA               	rrf	(___aldiv@divisor+3)^(0+128),f
  3577  00A6  0CA9               	rrf	(___aldiv@divisor+2)^(0+128),f
  3578  00A7  0CA8               	rrf	(___aldiv@divisor+1)^(0+128),f
  3579  00A8  0CA7               	rrf	___aldiv@divisor^(0+128),f
  3580  00A9  3EFF               	addlw	-1
  3581  00AA  1D03               	skipz
  3582  00AB  28A4               	goto	u3205
  3583  00AC  3001               	movlw	1
  3584  00AD  02B0               	subwf	___aldiv@counter^(0+128),f
  3585  00AE  1D03               	btfss	3,2
  3586  00AF  287B               	goto	l2667
  3587  00B0                     l2679:	
  3588  00B0  0831               	movf	___aldiv@sign^(0+128),w
  3589  00B1  1903               	btfsc	3,2
  3590  00B2  28BE               	goto	l2683
  3591  00B3  09B2               	comf	___aldiv@quotient^(0+128),f
  3592  00B4  09B3               	comf	(___aldiv@quotient+1)^(0+128),f
  3593  00B5  09B4               	comf	(___aldiv@quotient+2)^(0+128),f
  3594  00B6  09B5               	comf	(___aldiv@quotient+3)^(0+128),f
  3595  00B7  0AB2               	incf	___aldiv@quotient^(0+128),f
  3596  00B8  1903               	skipnz
  3597  00B9  0AB3               	incf	(___aldiv@quotient+1)^(0+128),f
  3598  00BA  1903               	skipnz
  3599  00BB  0AB4               	incf	(___aldiv@quotient+2)^(0+128),f
  3600  00BC  1903               	skipnz
  3601  00BD  0AB5               	incf	(___aldiv@quotient+3)^(0+128),f
  3602  00BE                     l2683:	
  3603  00BE  0835               	movf	(___aldiv@quotient+3)^(0+128),w
  3604  00BF  00AA               	movwf	(?___aldiv+3)^(0+128)
  3605  00C0  0834               	movf	(___aldiv@quotient+2)^(0+128),w
  3606  00C1  00A9               	movwf	(?___aldiv+2)^(0+128)
  3607  00C2  0833               	movf	(___aldiv@quotient+1)^(0+128),w
  3608  00C3  00A8               	movwf	(?___aldiv+1)^(0+128)
  3609  00C4  0832               	movf	___aldiv@quotient^(0+128),w
  3610  00C5  00A7               	movwf	?___aldiv^(0+128)
  3611  00C6  0008               	return
  3612  00C7                     __end_of___aldiv:	
  3613                           
  3614                           	psect	text12
  3615  1667                     __ptext12:	
  3616 ;; *************** function _TIMER0_Set *****************
  3617 ;; Defined at:
  3618 ;;		line 20 in file "C:\Users\332414\Desktop\Fuzzy-IA2\Cdigo em C no MPLAB\timers.c"
  3619 ;; Parameters:    Size  Location     Type
  3620 ;;  contagens       1    wreg     unsigned char 
  3621 ;; Auto vars:     Size  Location     Type
  3622 ;;  contagens       1    7[BANK1 ] unsigned char 
  3623 ;; Return value:  Size  Location     Type
  3624 ;;		None               void
  3625 ;; Registers used:
  3626 ;;		wreg
  3627 ;; Tracked objects:
  3628 ;;		On entry : 0/0
  3629 ;;		On exit  : 0/0
  3630 ;;		Unchanged: 0/0
  3631 ;; Data sizes:     COMMON   BANK0   BANK1   BANK3   BANK2
  3632 ;;      Params:         0       0       0       0       0
  3633 ;;      Locals:         0       0       1       0       0
  3634 ;;      Temps:          0       0       0       0       0
  3635 ;;      Totals:         0       0       1       0       0
  3636 ;;Total ram usage:        1 bytes
  3637 ;; Hardware stack levels used:    1
  3638 ;; Hardware stack levels required when called:    5
  3639 ;; This function calls:
  3640 ;;		Nothing
  3641 ;; This function is called by:
  3642 ;;		_main
  3643 ;; This function uses a non-reentrant model
  3644 ;;
  3645                           
  3646                           
  3647                           ;psect for function _TIMER0_Set
  3648  1667                     _TIMER0_Set:	
  3649                           
  3650                           ;incstack = 0
  3651                           ; Regs used in _TIMER0_Set: [wreg]
  3652                           ;TIMER0_Set@contagens stored from wreg
  3653  1667  1683               	bsf	3,5	;RP0=1, select bank1
  3654  1668  1303               	bcf	3,6	;RP1=0, select bank1
  3655  1669  00A7               	movwf	TIMER0_Set@contagens^(0+128)
  3656                           
  3657                           ;timers.c: 22: TMR0 = contagens;
  3658  166A  0827               	movf	TIMER0_Set@contagens^(0+128),w
  3659  166B  1283               	bcf	3,5	;RP0=0, select bank0
  3660  166C  1303               	bcf	3,6	;RP1=0, select bank0
  3661  166D  0081               	movwf	1	;volatile
  3662  166E  0008               	return
  3663  166F                     __end_of_TIMER0_Set:	
  3664                           
  3665                           	psect	text13
  3666  07F5                     __ptext13:	
  3667 ;; *************** function _TIMER0_Init *****************
  3668 ;; Defined at:
  3669 ;;		line 6 in file "C:\Users\332414\Desktop\Fuzzy-IA2\Cdigo em C no MPLAB\timers.c"
  3670 ;; Parameters:    Size  Location     Type
  3671 ;;		None
  3672 ;; Auto vars:     Size  Location     Type
  3673 ;;		None
  3674 ;; Return value:  Size  Location     Type
  3675 ;;		None               void
  3676 ;; Registers used:
  3677 ;;		None
  3678 ;; Tracked objects:
  3679 ;;		On entry : 0/0
  3680 ;;		On exit  : 0/0
  3681 ;;		Unchanged: 0/0
  3682 ;; Data sizes:     COMMON   BANK0   BANK1   BANK3   BANK2
  3683 ;;      Params:         0       0       0       0       0
  3684 ;;      Locals:         0       0       0       0       0
  3685 ;;      Temps:          0       0       0       0       0
  3686 ;;      Totals:         0       0       0       0       0
  3687 ;;Total ram usage:        0 bytes
  3688 ;; Hardware stack levels used:    1
  3689 ;; Hardware stack levels required when called:    5
  3690 ;; This function calls:
  3691 ;;		Nothing
  3692 ;; This function is called by:
  3693 ;;		_main
  3694 ;; This function uses a non-reentrant model
  3695 ;;
  3696                           
  3697                           
  3698                           ;psect for function _TIMER0_Init
  3699  07F5                     _TIMER0_Init:	
  3700                           
  3701                           ;timers.c: 8: OPTION_REGbits.T0CS = 0;
  3702                           
  3703                           ;incstack = 0
  3704                           ; Regs used in _TIMER0_Init: []
  3705  07F5  1683               	bsf	3,5	;RP0=1, select bank1
  3706  07F6  1303               	bcf	3,6	;RP1=0, select bank1
  3707  07F7  1281               	bcf	1,5	;volatile
  3708                           
  3709                           ;timers.c: 9: OPTION_REGbits.T0SE = 0;
  3710  07F8  1201               	bcf	1,4	;volatile
  3711                           
  3712                           ;timers.c: 10: OPTION_REGbits.PSA = 0;
  3713  07F9  1181               	bcf	1,3	;volatile
  3714                           
  3715                           ;timers.c: 11: OPTION_REGbits.PS2 = 1;
  3716  07FA  1501               	bsf	1,2	;volatile
  3717                           
  3718                           ;timers.c: 12: OPTION_REGbits.PS1 = 1;
  3719  07FB  1481               	bsf	1,1	;volatile
  3720                           
  3721                           ;timers.c: 13: OPTION_REGbits.PS0 = 1;
  3722  07FC  1401               	bsf	1,0	;volatile
  3723                           
  3724                           ;timers.c: 14: INTCONbits.TMR0IF = 0;
  3725  07FD  110B               	bcf	11,2	;volatile
  3726                           
  3727                           ;timers.c: 15: INTCONbits.TMR0IE = 1;
  3728  07FE  168B               	bsf	11,5	;volatile
  3729  07FF  0008               	return
  3730  0800                     __end_of_TIMER0_Init:	
  3731                           
  3732                           	psect	text14
  3733  17B7                     __ptext14:	
  3734 ;; *************** function _PWM_Init *****************
  3735 ;; Defined at:
  3736 ;;		line 5 in file "C:\Users\332414\Desktop\Fuzzy-IA2\Cdigo em C no MPLAB\pwm.c"
  3737 ;; Parameters:    Size  Location     Type
  3738 ;;		None
  3739 ;; Auto vars:     Size  Location     Type
  3740 ;;		None
  3741 ;; Return value:  Size  Location     Type
  3742 ;;		None               void
  3743 ;; Registers used:
  3744 ;;		wreg
  3745 ;; Tracked objects:
  3746 ;;		On entry : 0/0
  3747 ;;		On exit  : 0/0
  3748 ;;		Unchanged: 0/0
  3749 ;; Data sizes:     COMMON   BANK0   BANK1   BANK3   BANK2
  3750 ;;      Params:         0       0       0       0       0
  3751 ;;      Locals:         0       0       0       0       0
  3752 ;;      Temps:          0       0       0       0       0
  3753 ;;      Totals:         0       0       0       0       0
  3754 ;;Total ram usage:        0 bytes
  3755 ;; Hardware stack levels used:    1
  3756 ;; Hardware stack levels required when called:    5
  3757 ;; This function calls:
  3758 ;;		Nothing
  3759 ;; This function is called by:
  3760 ;;		_main
  3761 ;; This function uses a non-reentrant model
  3762 ;;
  3763                           
  3764                           
  3765                           ;psect for function _PWM_Init
  3766  17B7                     _PWM_Init:	
  3767                           
  3768                           ;pwm.c: 14: T2CONbits.T2CKPS1 = 1;
  3769                           
  3770                           ;incstack = 0
  3771                           ; Regs used in _PWM_Init: [wreg]
  3772  17B7  1283               	bcf	3,5	;RP0=0, select bank0
  3773  17B8  1303               	bcf	3,6	;RP1=0, select bank0
  3774  17B9  1492               	bsf	18,1	;volatile
  3775                           
  3776                           ;pwm.c: 15: T2CONbits.T2CKPS0 = 0;
  3777  17BA  1012               	bcf	18,0	;volatile
  3778                           
  3779                           ;pwm.c: 18: T2CONbits.TOUTPS3 = 0;
  3780  17BB  1312               	bcf	18,6	;volatile
  3781                           
  3782                           ;pwm.c: 19: T2CONbits.TOUTPS2 = 0;
  3783  17BC  1292               	bcf	18,5	;volatile
  3784                           
  3785                           ;pwm.c: 20: T2CONbits.TOUTPS1 = 0;
  3786  17BD  1212               	bcf	18,4	;volatile
  3787                           
  3788                           ;pwm.c: 21: T2CONbits.TOUTPS0 = 0;
  3789  17BE  1192               	bcf	18,3	;volatile
  3790                           
  3791                           ;pwm.c: 24: T2CONbits.TMR2ON = 1;
  3792  17BF  1512               	bsf	18,2	;volatile
  3793                           
  3794                           ;pwm.c: 27: PR2 = 255;
  3795  17C0  30FF               	movlw	255
  3796  17C1  1683               	bsf	3,5	;RP0=1, select bank1
  3797  17C2  1303               	bcf	3,6	;RP1=0, select bank1
  3798  17C3  0092               	movwf	18	;volatile
  3799                           
  3800                           ;pwm.c: 43: CCP1CONbits.CCP1M3 = 1;
  3801  17C4  1283               	bcf	3,5	;RP0=0, select bank0
  3802  17C5  1303               	bcf	3,6	;RP1=0, select bank0
  3803  17C6  1597               	bsf	23,3	;volatile
  3804                           
  3805                           ;pwm.c: 44: CCP1CONbits.CCP1M2 = 1;
  3806  17C7  1517               	bsf	23,2	;volatile
  3807                           
  3808                           ;pwm.c: 45: CCP1CONbits.CCP1M1 = 1;
  3809  17C8  1497               	bsf	23,1	;volatile
  3810                           
  3811                           ;pwm.c: 46: CCP1CONbits.CCP1M0 = 1;
  3812  17C9  1417               	bsf	23,0	;volatile
  3813                           
  3814                           ;pwm.c: 49: PIE1bits.CCP1IE = 1;
  3815  17CA  1683               	bsf	3,5	;RP0=1, select bank1
  3816  17CB  1303               	bcf	3,6	;RP1=0, select bank1
  3817  17CC  150C               	bsf	12,2	;volatile
  3818                           
  3819                           ;pwm.c: 50: PIR1bits.CCP1IF = 0;
  3820  17CD  1283               	bcf	3,5	;RP0=0, select bank0
  3821  17CE  1303               	bcf	3,6	;RP1=0, select bank0
  3822  17CF  110C               	bcf	12,2	;volatile
  3823                           
  3824                           ;pwm.c: 53: CCP2CONbits.CCP2M3 = 1;
  3825  17D0  159D               	bsf	29,3	;volatile
  3826                           
  3827                           ;pwm.c: 54: CCP2CONbits.CCP2M2 = 1;
  3828  17D1  151D               	bsf	29,2	;volatile
  3829                           
  3830                           ;pwm.c: 55: CCP2CONbits.CCP2M1 = 1;
  3831  17D2  149D               	bsf	29,1	;volatile
  3832                           
  3833                           ;pwm.c: 56: CCP2CONbits.CCP2M0 = 1;
  3834  17D3  141D               	bsf	29,0	;volatile
  3835                           
  3836                           ;pwm.c: 59: PIE2bits.CCP2IE = 1;
  3837  17D4  1683               	bsf	3,5	;RP0=1, select bank1
  3838  17D5  1303               	bcf	3,6	;RP1=0, select bank1
  3839  17D6  140D               	bsf	13,0	;volatile
  3840                           
  3841                           ;pwm.c: 60: PIR2bits.CCP2IF = 0;
  3842  17D7  1283               	bcf	3,5	;RP0=0, select bank0
  3843  17D8  1303               	bcf	3,6	;RP1=0, select bank0
  3844  17D9  100D               	bcf	13,0	;volatile
  3845  17DA  0008               	return
  3846  17DB                     __end_of_PWM_Init:	
  3847                           
  3848                           	psect	text15
  3849  1773                     __ptext15:	
  3850 ;; *************** function _PWM_DutyCycle2 *****************
  3851 ;; Defined at:
  3852 ;;		line 96 in file "C:\Users\332414\Desktop\Fuzzy-IA2\Cdigo em C no MPLAB\pwm.c"
  3853 ;; Parameters:    Size  Location     Type
  3854 ;;  valor           2    7[BANK1 ] int 
  3855 ;; Auto vars:     Size  Location     Type
  3856 ;;		None
  3857 ;; Return value:  Size  Location     Type
  3858 ;;		None               void
  3859 ;; Registers used:
  3860 ;;		wreg, status,2, status,0
  3861 ;; Tracked objects:
  3862 ;;		On entry : 0/0
  3863 ;;		On exit  : 0/0
  3864 ;;		Unchanged: 0/0
  3865 ;; Data sizes:     COMMON   BANK0   BANK1   BANK3   BANK2
  3866 ;;      Params:         0       0       2       0       0
  3867 ;;      Locals:         0       0       0       0       0
  3868 ;;      Temps:          0       0       2       0       0
  3869 ;;      Totals:         0       0       4       0       0
  3870 ;;Total ram usage:        4 bytes
  3871 ;; Hardware stack levels used:    1
  3872 ;; Hardware stack levels required when called:    5
  3873 ;; This function calls:
  3874 ;;		Nothing
  3875 ;; This function is called by:
  3876 ;;		_main
  3877 ;; This function uses a non-reentrant model
  3878 ;;
  3879                           
  3880                           
  3881                           ;psect for function _PWM_DutyCycle2
  3882  1773                     _PWM_DutyCycle2:	
  3883                           
  3884                           ;pwm.c: 98: CCPR2L = valor >> 2;
  3885                           
  3886                           ;incstack = 0
  3887                           ; Regs used in _PWM_DutyCycle2: [wreg+status,2+status,0]
  3888  1773  1683               	bsf	3,5	;RP0=1, select bank1
  3889  1774  1303               	bcf	3,6	;RP1=0, select bank1
  3890  1775  0828               	movf	(PWM_DutyCycle2@valor+1)^(0+128),w
  3891  1776  00AA               	movwf	(??_PWM_DutyCycle2^(0+128)+1)
  3892  1777  0827               	movf	PWM_DutyCycle2@valor^(0+128),w
  3893  1778  00A9               	movwf	??_PWM_DutyCycle2^(0+128)
  3894  1779  0D2A               	rlf	(??_PWM_DutyCycle2^(0+128)+1),w
  3895  177A  0CAA               	rrf	(??_PWM_DutyCycle2^(0+128)+1),f
  3896  177B  0CA9               	rrf	??_PWM_DutyCycle2^(0+128),f
  3897  177C  0D2A               	rlf	(??_PWM_DutyCycle2^(0+128)+1),w
  3898  177D  0CAA               	rrf	(??_PWM_DutyCycle2^(0+128)+1),f
  3899  177E  0CA9               	rrf	??_PWM_DutyCycle2^(0+128),f
  3900  177F  0829               	movf	??_PWM_DutyCycle2^(0+128),w
  3901  1780  1283               	bcf	3,5	;RP0=0, select bank0
  3902  1781  1303               	bcf	3,6	;RP1=0, select bank0
  3903  1782  009B               	movwf	27	;volatile
  3904                           
  3905                           ;pwm.c: 99: CCP2CON = (valor << 4)|0X0C;
  3906  1783  1683               	bsf	3,5	;RP0=1, select bank1
  3907  1784  1303               	bcf	3,6	;RP1=0, select bank1
  3908  1785  0827               	movf	PWM_DutyCycle2@valor^(0+128),w
  3909  1786  00A9               	movwf	??_PWM_DutyCycle2^(0+128)
  3910  1787  3003               	movlw	3
  3911  1788                     u3695:	
  3912  1788  1003               	clrc
  3913  1789  0DA9               	rlf	??_PWM_DutyCycle2^(0+128),f
  3914  178A  3EFF               	addlw	-1
  3915  178B  1D03               	skipz
  3916  178C  2F88               	goto	u3695
  3917  178D  1003               	clrc
  3918  178E  0D29               	rlf	??_PWM_DutyCycle2^(0+128),w
  3919  178F  380C               	iorlw	12
  3920  1790  1283               	bcf	3,5	;RP0=0, select bank0
  3921  1791  1303               	bcf	3,6	;RP1=0, select bank0
  3922  1792  009D               	movwf	29	;volatile
  3923  1793  0008               	return
  3924  1794                     __end_of_PWM_DutyCycle2:	
  3925                           
  3926                           	psect	text16
  3927  1752                     __ptext16:	
  3928 ;; *************** function _PWM_DutyCycle1 *****************
  3929 ;; Defined at:
  3930 ;;		line 64 in file "C:\Users\332414\Desktop\Fuzzy-IA2\Cdigo em C no MPLAB\pwm.c"
  3931 ;; Parameters:    Size  Location     Type
  3932 ;;  valor           2    7[BANK1 ] int 
  3933 ;; Auto vars:     Size  Location     Type
  3934 ;;		None
  3935 ;; Return value:  Size  Location     Type
  3936 ;;		None               void
  3937 ;; Registers used:
  3938 ;;		wreg, status,2, status,0
  3939 ;; Tracked objects:
  3940 ;;		On entry : 0/0
  3941 ;;		On exit  : 0/0
  3942 ;;		Unchanged: 0/0
  3943 ;; Data sizes:     COMMON   BANK0   BANK1   BANK3   BANK2
  3944 ;;      Params:         0       0       2       0       0
  3945 ;;      Locals:         0       0       0       0       0
  3946 ;;      Temps:          0       0       2       0       0
  3947 ;;      Totals:         0       0       4       0       0
  3948 ;;Total ram usage:        4 bytes
  3949 ;; Hardware stack levels used:    1
  3950 ;; Hardware stack levels required when called:    5
  3951 ;; This function calls:
  3952 ;;		Nothing
  3953 ;; This function is called by:
  3954 ;;		_main
  3955 ;; This function uses a non-reentrant model
  3956 ;;
  3957                           
  3958                           
  3959                           ;psect for function _PWM_DutyCycle1
  3960  1752                     _PWM_DutyCycle1:	
  3961                           
  3962                           ;pwm.c: 91: CCPR1L = valor >> 2;
  3963                           
  3964                           ;incstack = 0
  3965                           ; Regs used in _PWM_DutyCycle1: [wreg+status,2+status,0]
  3966  1752  1683               	bsf	3,5	;RP0=1, select bank1
  3967  1753  1303               	bcf	3,6	;RP1=0, select bank1
  3968  1754  0828               	movf	(PWM_DutyCycle1@valor+1)^(0+128),w
  3969  1755  00AA               	movwf	(??_PWM_DutyCycle1^(0+128)+1)
  3970  1756  0827               	movf	PWM_DutyCycle1@valor^(0+128),w
  3971  1757  00A9               	movwf	??_PWM_DutyCycle1^(0+128)
  3972  1758  0D2A               	rlf	(??_PWM_DutyCycle1^(0+128)+1),w
  3973  1759  0CAA               	rrf	(??_PWM_DutyCycle1^(0+128)+1),f
  3974  175A  0CA9               	rrf	??_PWM_DutyCycle1^(0+128),f
  3975  175B  0D2A               	rlf	(??_PWM_DutyCycle1^(0+128)+1),w
  3976  175C  0CAA               	rrf	(??_PWM_DutyCycle1^(0+128)+1),f
  3977  175D  0CA9               	rrf	??_PWM_DutyCycle1^(0+128),f
  3978  175E  0829               	movf	??_PWM_DutyCycle1^(0+128),w
  3979  175F  1283               	bcf	3,5	;RP0=0, select bank0
  3980  1760  1303               	bcf	3,6	;RP1=0, select bank0
  3981  1761  0095               	movwf	21	;volatile
  3982                           
  3983                           ;pwm.c: 92: CCP1CON = (valor << 4)|0X0C;
  3984  1762  1683               	bsf	3,5	;RP0=1, select bank1
  3985  1763  1303               	bcf	3,6	;RP1=0, select bank1
  3986  1764  0827               	movf	PWM_DutyCycle1@valor^(0+128),w
  3987  1765  00A9               	movwf	??_PWM_DutyCycle1^(0+128)
  3988  1766  3003               	movlw	3
  3989  1767                     u3735:	
  3990  1767  1003               	clrc
  3991  1768  0DA9               	rlf	??_PWM_DutyCycle1^(0+128),f
  3992  1769  3EFF               	addlw	-1
  3993  176A  1D03               	skipz
  3994  176B  2F67               	goto	u3735
  3995  176C  1003               	clrc
  3996  176D  0D29               	rlf	??_PWM_DutyCycle1^(0+128),w
  3997  176E  380C               	iorlw	12
  3998  176F  1283               	bcf	3,5	;RP0=0, select bank0
  3999  1770  1303               	bcf	3,6	;RP1=0, select bank0
  4000  1771  0097               	movwf	23	;volatile
  4001  1772  0008               	return
  4002  1773                     __end_of_PWM_DutyCycle1:	
  4003                           
  4004                           	psect	text17
  4005  08C9                     __ptext17:	
  4006 ;; *************** function _LCD_WriteString *****************
  4007 ;; Defined at:
  4008 ;;		line 61 in file "C:\Users\332414\Desktop\Fuzzy-IA2\Cdigo em C no MPLAB\lcd.c"
  4009 ;; Parameters:    Size  Location     Type
  4010 ;;  Str             2    9[BANK1 ] PTR const unsigned char 
  4011 ;;		 -> STR_10(6), display(10), 
  4012 ;; Auto vars:     Size  Location     Type
  4013 ;;		None
  4014 ;; Return value:  Size  Location     Type
  4015 ;;		None               void
  4016 ;; Registers used:
  4017 ;;		wreg, fsr0l, fsr0h, status,2, status,0, btemp+1, pclath, cstack
  4018 ;; Tracked objects:
  4019 ;;		On entry : 0/0
  4020 ;;		On exit  : 0/0
  4021 ;;		Unchanged: 0/0
  4022 ;; Data sizes:     COMMON   BANK0   BANK1   BANK3   BANK2
  4023 ;;      Params:         0       0       2       0       0
  4024 ;;      Locals:         0       0       0       0       0
  4025 ;;      Temps:          0       0       0       0       0
  4026 ;;      Totals:         0       0       2       0       0
  4027 ;;Total ram usage:        2 bytes
  4028 ;; Hardware stack levels used:    1
  4029 ;; Hardware stack levels required when called:    6
  4030 ;; This function calls:
  4031 ;;		_LCD_WriteData
  4032 ;; This function is called by:
  4033 ;;		_main
  4034 ;; This function uses a non-reentrant model
  4035 ;;
  4036                           
  4037                           
  4038                           ;psect for function _LCD_WriteString
  4039  08C9                     _LCD_WriteString:	
  4040  08C9                     l3031:	
  4041                           ;lcd.c: 63: while(*Str != '\0')
  4042                           
  4043                           ;incstack = 0
  4044                           ; Regs used in _LCD_WriteString: [wreg-fsr0h+status,2+status,0+btemp+1+pclath+cstack]
  4045                           
  4046  08C9  1683               	bsf	3,5	;RP0=1, select bank1
  4047  08CA  1303               	bcf	3,6	;RP1=0, select bank1
  4048  08CB  082A               	movf	(LCD_WriteString@Str+1)^(0+128),w
  4049  08CC  1283               	bcf	3,5	;RP0=0, select bank0
  4050  08CD  1303               	bcf	3,6	;RP1=0, select bank0
  4051  08CE  00FF               	movwf	127
  4052  08CF  1683               	bsf	3,5	;RP0=1, select bank1
  4053  08D0  1303               	bcf	3,6	;RP1=0, select bank1
  4054  08D1  0829               	movf	LCD_WriteString@Str^(0+128),w
  4055  08D2  0084               	movwf	4
  4056  08D3  1283               	bcf	3,5	;RP0=0, select bank0
  4057  08D4  1303               	bcf	3,6	;RP1=0, select bank0
  4058  08D5  120A  158A  2000  120A  158A  	fcall	stringtab
  4059  08DA  3800               	iorlw	0
  4060  08DB  1903               	btfsc	3,2
  4061  08DC  0008               	return
  4062                           
  4063                           ;lcd.c: 64: {
  4064                           ;lcd.c: 65: LCD_WriteData(*Str);
  4065  08DD  1683               	bsf	3,5	;RP0=1, select bank1
  4066  08DE  1303               	bcf	3,6	;RP1=0, select bank1
  4067  08DF  082A               	movf	(LCD_WriteString@Str+1)^(0+128),w
  4068  08E0  1283               	bcf	3,5	;RP0=0, select bank0
  4069  08E1  1303               	bcf	3,6	;RP1=0, select bank0
  4070  08E2  00FF               	movwf	127
  4071  08E3  1683               	bsf	3,5	;RP0=1, select bank1
  4072  08E4  1303               	bcf	3,6	;RP1=0, select bank1
  4073  08E5  0829               	movf	LCD_WriteString@Str^(0+128),w
  4074  08E6  0084               	movwf	4
  4075  08E7  1283               	bcf	3,5	;RP0=0, select bank0
  4076  08E8  1303               	bcf	3,6	;RP1=0, select bank0
  4077  08E9  120A  158A  2000  120A  158A  	fcall	stringtab
  4078  08EE  120A  158A  2089  120A  158A  	fcall	_LCD_WriteData
  4079                           
  4080                           ;lcd.c: 66: Str++;
  4081  08F3  3001               	movlw	1
  4082  08F4  1683               	bsf	3,5	;RP0=1, select bank1
  4083  08F5  1303               	bcf	3,6	;RP1=0, select bank1
  4084  08F6  07A9               	addwf	LCD_WriteString@Str^(0+128),f
  4085  08F7  1803               	skipnc
  4086  08F8  0AAA               	incf	(LCD_WriteString@Str+1)^(0+128),f
  4087  08F9  28C9               	goto	l3031
  4088  08FA                     __end_of_LCD_WriteString:	
  4089                           
  4090                           	psect	text18
  4091  0889                     __ptext18:	
  4092 ;; *************** function _LCD_WriteData *****************
  4093 ;; Defined at:
  4094 ;;		line 47 in file "C:\Users\332414\Desktop\Fuzzy-IA2\Cdigo em C no MPLAB\lcd.c"
  4095 ;; Parameters:    Size  Location     Type
  4096 ;;  Byte            1    wreg     unsigned char 
  4097 ;; Auto vars:     Size  Location     Type
  4098 ;;  Byte            1    8[BANK1 ] unsigned char 
  4099 ;; Return value:  Size  Location     Type
  4100 ;;		None               void
  4101 ;; Registers used:
  4102 ;;		wreg
  4103 ;; Tracked objects:
  4104 ;;		On entry : 0/0
  4105 ;;		On exit  : 0/0
  4106 ;;		Unchanged: 0/0
  4107 ;; Data sizes:     COMMON   BANK0   BANK1   BANK3   BANK2
  4108 ;;      Params:         0       0       0       0       0
  4109 ;;      Locals:         0       0       1       0       0
  4110 ;;      Temps:          0       0       1       0       0
  4111 ;;      Totals:         0       0       2       0       0
  4112 ;;Total ram usage:        2 bytes
  4113 ;; Hardware stack levels used:    1
  4114 ;; Hardware stack levels required when called:    5
  4115 ;; This function calls:
  4116 ;;		Nothing
  4117 ;; This function is called by:
  4118 ;;		_LCD_WriteString
  4119 ;; This function uses a non-reentrant model
  4120 ;;
  4121                           
  4122                           
  4123                           ;psect for function _LCD_WriteData
  4124  0889                     _LCD_WriteData:	
  4125                           
  4126                           ;incstack = 0
  4127                           ; Regs used in _LCD_WriteData: [wreg]
  4128                           ;LCD_WriteData@Byte stored from wreg
  4129  0889  1683               	bsf	3,5	;RP0=1, select bank1
  4130  088A  1303               	bcf	3,6	;RP1=0, select bank1
  4131  088B  00A8               	movwf	LCD_WriteData@Byte^(0+128)
  4132                           
  4133                           ;lcd.c: 49: PORTEbits.RE0 = 1;
  4134  088C  1283               	bcf	3,5	;RP0=0, select bank0
  4135  088D  1303               	bcf	3,6	;RP1=0, select bank0
  4136  088E  1409               	bsf	9,0	;volatile
  4137                           
  4138                           ;lcd.c: 51: PORTD = Byte;
  4139  088F  1683               	bsf	3,5	;RP0=1, select bank1
  4140  0890  1303               	bcf	3,6	;RP1=0, select bank1
  4141  0891  0828               	movf	LCD_WriteData@Byte^(0+128),w
  4142  0892  1283               	bcf	3,5	;RP0=0, select bank0
  4143  0893  1303               	bcf	3,6	;RP1=0, select bank0
  4144  0894  0088               	movwf	8	;volatile
  4145                           
  4146                           ;lcd.c: 53: PORTEbits.RE1 = 1;
  4147  0895  1489               	bsf	9,1	;volatile
  4148                           
  4149                           ;lcd.c: 55: _delay((unsigned long)((40)*(18432000/4000000.0)));
  4150  0896  303D               	movlw	61
  4151  0897  1683               	bsf	3,5	;RP0=1, select bank1
  4152  0898  1303               	bcf	3,6	;RP1=0, select bank1
  4153  0899  00A7               	movwf	??_LCD_WriteData^(0+128)
  4154  089A                     u6707:	
  4155  089A  0BA7               	decfsz	??_LCD_WriteData^(0+128),f
  4156  089B  289A               	goto	u6707
  4157                           
  4158                           ;lcd.c: 57: PORTEbits.RE1 = 0;
  4159  089C  1283               	bcf	3,5	;RP0=0, select bank0
  4160  089D  1303               	bcf	3,6	;RP1=0, select bank0
  4161  089E  1089               	bcf	9,1	;volatile
  4162  089F  0008               	return
  4163  08A0                     __end_of_LCD_WriteData:	
  4164                           
  4165                           	psect	text19
  4166  0AEB                     __ptext19:	
  4167 ;; *************** function _LCD_Init *****************
  4168 ;; Defined at:
  4169 ;;		line 87 in file "C:\Users\332414\Desktop\Fuzzy-IA2\Cdigo em C no MPLAB\lcd.c"
  4170 ;; Parameters:    Size  Location     Type
  4171 ;;		None
  4172 ;; Auto vars:     Size  Location     Type
  4173 ;;		None
  4174 ;; Return value:  Size  Location     Type
  4175 ;;		None               void
  4176 ;; Registers used:
  4177 ;;		wreg, status,2, status,0, pclath, cstack
  4178 ;; Tracked objects:
  4179 ;;		On entry : 0/0
  4180 ;;		On exit  : 0/0
  4181 ;;		Unchanged: 0/0
  4182 ;; Data sizes:     COMMON   BANK0   BANK1   BANK3   BANK2
  4183 ;;      Params:         0       0       0       0       0
  4184 ;;      Locals:         0       0       0       0       0
  4185 ;;      Temps:          0       0       2       0       0
  4186 ;;      Totals:         0       0       2       0       0
  4187 ;;Total ram usage:        2 bytes
  4188 ;; Hardware stack levels used:    1
  4189 ;; Hardware stack levels required when called:    6
  4190 ;; This function calls:
  4191 ;;		_LCD_WriteCmd
  4192 ;; This function is called by:
  4193 ;;		_main
  4194 ;; This function uses a non-reentrant model
  4195 ;;
  4196                           
  4197                           
  4198                           ;psect for function _LCD_Init
  4199  0AEB                     _LCD_Init:	
  4200                           
  4201                           ;lcd.c: 90: ADCON1bits.PCFG3 = 0;
  4202                           
  4203                           ;incstack = 0
  4204                           ; Regs used in _LCD_Init: [wreg+status,2+status,0+pclath+cstack]
  4205  0AEB  1683               	bsf	3,5	;RP0=1, select bank1
  4206  0AEC  1303               	bcf	3,6	;RP1=0, select bank1
  4207  0AED  119F               	bcf	31,3	;volatile
  4208                           
  4209                           ;lcd.c: 91: ADCON1bits.PCFG2 = 1;
  4210  0AEE  151F               	bsf	31,2	;volatile
  4211                           
  4212                           ;lcd.c: 92: ADCON1bits.PCFG1 = 0;
  4213  0AEF  109F               	bcf	31,1	;volatile
  4214                           
  4215                           ;lcd.c: 93: ADCON1bits.PCFG0 = 0;
  4216  0AF0  101F               	bcf	31,0	;volatile
  4217                           
  4218                           ;lcd.c: 95: _delay((unsigned long)((15)*(18432000/4000.0)));
  4219  0AF1  305A               	movlw	90
  4220  0AF2  00AA               	movwf	(??_LCD_Init^(0+128)+1)
  4221  0AF3  30C3               	movlw	195
  4222  0AF4  00A9               	movwf	??_LCD_Init^(0+128)
  4223  0AF5                     u6717:	
  4224  0AF5  0BA9               	decfsz	??_LCD_Init^(0+128),f
  4225  0AF6  2AF5               	goto	u6717
  4226  0AF7  0BAA               	decfsz	(??_LCD_Init^(0+128)+1),f
  4227  0AF8  2AF5               	goto	u6717
  4228                           
  4229                           ;lcd.c: 97: LCD_WriteCmd(0x30);
  4230  0AF9  3030               	movlw	48
  4231  0AFA  160A  118A  26C8  120A  158A  	fcall	_LCD_WriteCmd
  4232                           
  4233                           ;lcd.c: 98: _delay((unsigned long)((4)*(18432000/4000.0)));
  4234  0AFF  3018               	movlw	24
  4235  0B00  1683               	bsf	3,5	;RP0=1, select bank1
  4236  0B01  1303               	bcf	3,6	;RP1=0, select bank1
  4237  0B02  00AA               	movwf	(??_LCD_Init^(0+128)+1)
  4238  0B03  30EF               	movlw	239
  4239  0B04  00A9               	movwf	??_LCD_Init^(0+128)
  4240  0B05                     u6727:	
  4241  0B05  0BA9               	decfsz	??_LCD_Init^(0+128),f
  4242  0B06  2B05               	goto	u6727
  4243  0B07  0BAA               	decfsz	(??_LCD_Init^(0+128)+1),f
  4244  0B08  2B05               	goto	u6727
  4245                           
  4246                           ;lcd.c: 100: LCD_WriteCmd(0x30);
  4247  0B09  3030               	movlw	48
  4248  0B0A  160A  118A  26C8  120A  158A  	fcall	_LCD_WriteCmd
  4249                           
  4250                           ;lcd.c: 101: _delay((unsigned long)((100)*(18432000/4000000.0)));
  4251  0B0F  3099               	movlw	153
  4252  0B10  1683               	bsf	3,5	;RP0=1, select bank1
  4253  0B11  1303               	bcf	3,6	;RP1=0, select bank1
  4254  0B12  00A9               	movwf	??_LCD_Init^(0+128)
  4255  0B13                     u6737:	
  4256  0B13  0BA9               	decfsz	??_LCD_Init^(0+128),f
  4257  0B14  2B13               	goto	u6737
  4258                           
  4259                           ;lcd.c: 103: LCD_WriteCmd(0x30);
  4260  0B15  3030               	movlw	48
  4261  0B16  160A  118A  26C8  120A  158A  	fcall	_LCD_WriteCmd
  4262                           
  4263                           ;lcd.c: 104: _delay((unsigned long)((40)*(18432000/4000000.0)));
  4264  0B1B  303D               	movlw	61
  4265  0B1C  1683               	bsf	3,5	;RP0=1, select bank1
  4266  0B1D  1303               	bcf	3,6	;RP1=0, select bank1
  4267  0B1E  00A9               	movwf	??_LCD_Init^(0+128)
  4268  0B1F                     u6747:	
  4269  0B1F  0BA9               	decfsz	??_LCD_Init^(0+128),f
  4270  0B20  2B1F               	goto	u6747
  4271                           
  4272                           ;lcd.c: 106: LCD_WriteCmd(0x38);
  4273  0B21  3038               	movlw	56
  4274  0B22  160A  118A  26C8  120A  158A  	fcall	_LCD_WriteCmd
  4275                           
  4276                           ;lcd.c: 107: _delay((unsigned long)((40)*(18432000/4000000.0)));
  4277  0B27  303D               	movlw	61
  4278  0B28  1683               	bsf	3,5	;RP0=1, select bank1
  4279  0B29  1303               	bcf	3,6	;RP1=0, select bank1
  4280  0B2A  00A9               	movwf	??_LCD_Init^(0+128)
  4281  0B2B                     u6757:	
  4282  0B2B  0BA9               	decfsz	??_LCD_Init^(0+128),f
  4283  0B2C  2B2B               	goto	u6757
  4284                           
  4285                           ;lcd.c: 109: LCD_WriteCmd(0x01);
  4286  0B2D  3001               	movlw	1
  4287  0B2E  160A  118A  26C8  120A  158A  	fcall	_LCD_WriteCmd
  4288                           
  4289                           ;lcd.c: 110: _delay((unsigned long)((2)*(18432000/4000.0)));
  4290  0B33  300C               	movlw	12
  4291  0B34  1683               	bsf	3,5	;RP0=1, select bank1
  4292  0B35  1303               	bcf	3,6	;RP1=0, select bank1
  4293  0B36  00AA               	movwf	(??_LCD_Init^(0+128)+1)
  4294  0B37  30F7               	movlw	247
  4295  0B38  00A9               	movwf	??_LCD_Init^(0+128)
  4296  0B39                     u6767:	
  4297  0B39  0BA9               	decfsz	??_LCD_Init^(0+128),f
  4298  0B3A  2B39               	goto	u6767
  4299  0B3B  0BAA               	decfsz	(??_LCD_Init^(0+128)+1),f
  4300  0B3C  2B39               	goto	u6767
  4301                           
  4302                           ;lcd.c: 112: LCD_WriteCmd(0x0C);
  4303  0B3D  300C               	movlw	12
  4304  0B3E  160A  118A  26C8  120A  158A  	fcall	_LCD_WriteCmd
  4305                           
  4306                           ;lcd.c: 113: _delay((unsigned long)((40)*(18432000/4000000.0)));
  4307  0B43  303D               	movlw	61
  4308  0B44  1683               	bsf	3,5	;RP0=1, select bank1
  4309  0B45  1303               	bcf	3,6	;RP1=0, select bank1
  4310  0B46  00A9               	movwf	??_LCD_Init^(0+128)
  4311  0B47                     u6777:	
  4312  0B47  0BA9               	decfsz	??_LCD_Init^(0+128),f
  4313  0B48  2B47               	goto	u6777
  4314                           
  4315                           ;lcd.c: 115: LCD_WriteCmd(0x06);
  4316  0B49  3006               	movlw	6
  4317  0B4A  160A  118A  26C8  120A  158A  	fcall	_LCD_WriteCmd
  4318                           
  4319                           ;lcd.c: 116: _delay((unsigned long)((40)*(18432000/4000000.0)));
  4320  0B4F  303D               	movlw	61
  4321  0B50  1683               	bsf	3,5	;RP0=1, select bank1
  4322  0B51  1303               	bcf	3,6	;RP1=0, select bank1
  4323  0B52  00A9               	movwf	??_LCD_Init^(0+128)
  4324  0B53                     u6787:	
  4325  0B53  0BA9               	decfsz	??_LCD_Init^(0+128),f
  4326  0B54  2B53               	goto	u6787
  4327  0B55  0008               	return
  4328  0B56                     __end_of_LCD_Init:	
  4329                           
  4330                           	psect	text20
  4331  1732                     __ptext20:	
  4332 ;; *************** function _LCD_Cursor *****************
  4333 ;; Defined at:
  4334 ;;		line 10 in file "C:\Users\332414\Desktop\Fuzzy-IA2\Cdigo em C no MPLAB\lcd.c"
  4335 ;; Parameters:    Size  Location     Type
  4336 ;;  Row             1    wreg     unsigned char 
  4337 ;;  Col             1    7[BANK1 ] unsigned char 
  4338 ;; Auto vars:     Size  Location     Type
  4339 ;;  Row             1    9[BANK1 ] unsigned char 
  4340 ;; Return value:  Size  Location     Type
  4341 ;;		None               void
  4342 ;; Registers used:
  4343 ;;		wreg, status,2, status,0
  4344 ;; Tracked objects:
  4345 ;;		On entry : 0/0
  4346 ;;		On exit  : 0/0
  4347 ;;		Unchanged: 0/0
  4348 ;; Data sizes:     COMMON   BANK0   BANK1   BANK3   BANK2
  4349 ;;      Params:         0       0       1       0       0
  4350 ;;      Locals:         0       0       1       0       0
  4351 ;;      Temps:          0       0       1       0       0
  4352 ;;      Totals:         0       0       3       0       0
  4353 ;;Total ram usage:        3 bytes
  4354 ;; Hardware stack levels used:    1
  4355 ;; Hardware stack levels required when called:    5
  4356 ;; This function calls:
  4357 ;;		Nothing
  4358 ;; This function is called by:
  4359 ;;		_main
  4360 ;; This function uses a non-reentrant model
  4361 ;;
  4362                           
  4363                           
  4364                           ;psect for function _LCD_Cursor
  4365  1732                     _LCD_Cursor:	
  4366                           
  4367                           ;incstack = 0
  4368                           ; Regs used in _LCD_Cursor: [wreg+status,2+status,0]
  4369                           ;LCD_Cursor@Row stored from wreg
  4370  1732  1683               	bsf	3,5	;RP0=1, select bank1
  4371  1733  1303               	bcf	3,6	;RP1=0, select bank1
  4372  1734  00A9               	movwf	LCD_Cursor@Row^(0+128)
  4373                           
  4374                           ;lcd.c: 12: PORTEbits.RE0 = 0;
  4375  1735  1283               	bcf	3,5	;RP0=0, select bank0
  4376  1736  1303               	bcf	3,6	;RP1=0, select bank0
  4377  1737  1009               	bcf	9,0	;volatile
  4378                           
  4379                           ;lcd.c: 14: if (Row == 0)
  4380  1738  1683               	bsf	3,5	;RP0=1, select bank1
  4381  1739  1303               	bcf	3,6	;RP1=0, select bank1
  4382  173A  08A9               	movf	LCD_Cursor@Row^(0+128),f
  4383  173B  1D03               	skipz
  4384  173C  2F40               	goto	l2991
  4385                           
  4386                           ;lcd.c: 15: {
  4387                           ;lcd.c: 16: PORTD = 0x80 + Col;
  4388  173D  0827               	movf	LCD_Cursor@Col^(0+128),w
  4389  173E  3E80               	addlw	128
  4390  173F  2F44               	goto	L3
  4391  1740                     l2991:	
  4392                           ;lcd.c: 17: }
  4393                           
  4394                           
  4395                           ;lcd.c: 18: else
  4396                           ;lcd.c: 19: {
  4397                           ;lcd.c: 20: PORTD = 0xC0 + Col;
  4398  1740  1683               	bsf	3,5	;RP0=1, select bank1
  4399  1741  1303               	bcf	3,6	;RP1=0, select bank1
  4400  1742  0827               	movf	LCD_Cursor@Col^(0+128),w
  4401  1743  3EC0               	addlw	192
  4402  1744                     L3:	
  4403  1744  1283               	bcf	3,5	;RP0=0, select bank0
  4404  1745  1303               	bcf	3,6	;RP1=0, select bank0
  4405  1746  0088               	movwf	8	;volatile
  4406                           
  4407                           ;lcd.c: 21: }
  4408                           ;lcd.c: 24: PORTEbits.RE1 = 1;
  4409  1747  1489               	bsf	9,1	;volatile
  4410                           
  4411                           ;lcd.c: 26: _delay((unsigned long)((40)*(18432000/4000000.0)));
  4412  1748  303D               	movlw	61
  4413  1749  1683               	bsf	3,5	;RP0=1, select bank1
  4414  174A  1303               	bcf	3,6	;RP1=0, select bank1
  4415  174B  00A8               	movwf	??_LCD_Cursor^(0+128)
  4416  174C                     u6797:	
  4417  174C  0BA8               	decfsz	??_LCD_Cursor^(0+128),f
  4418  174D  2F4C               	goto	u6797
  4419                           
  4420                           ;lcd.c: 28: PORTEbits.RE1 = 0;
  4421  174E  1283               	bcf	3,5	;RP0=0, select bank0
  4422  174F  1303               	bcf	3,6	;RP1=0, select bank0
  4423  1750  1089               	bcf	9,1	;volatile
  4424  1751  0008               	return
  4425  1752                     __end_of_LCD_Cursor:	
  4426                           
  4427                           	psect	text21
  4428  08A0                     __ptext21:	
  4429 ;; *************** function _LCD_Clear *****************
  4430 ;; Defined at:
  4431 ;;		line 71 in file "C:\Users\332414\Desktop\Fuzzy-IA2\Cdigo em C no MPLAB\lcd.c"
  4432 ;; Parameters:    Size  Location     Type
  4433 ;;		None
  4434 ;; Auto vars:     Size  Location     Type
  4435 ;;		None
  4436 ;; Return value:  Size  Location     Type
  4437 ;;		None               void
  4438 ;; Registers used:
  4439 ;;		wreg, status,2, status,0, pclath, cstack
  4440 ;; Tracked objects:
  4441 ;;		On entry : 0/0
  4442 ;;		On exit  : 0/0
  4443 ;;		Unchanged: 0/0
  4444 ;; Data sizes:     COMMON   BANK0   BANK1   BANK3   BANK2
  4445 ;;      Params:         0       0       0       0       0
  4446 ;;      Locals:         0       0       0       0       0
  4447 ;;      Temps:          0       0       2       0       0
  4448 ;;      Totals:         0       0       2       0       0
  4449 ;;Total ram usage:        2 bytes
  4450 ;; Hardware stack levels used:    1
  4451 ;; Hardware stack levels required when called:    6
  4452 ;; This function calls:
  4453 ;;		_LCD_WriteCmd
  4454 ;; This function is called by:
  4455 ;;		_main
  4456 ;; This function uses a non-reentrant model
  4457 ;;
  4458                           
  4459                           
  4460                           ;psect for function _LCD_Clear
  4461  08A0                     _LCD_Clear:	
  4462                           
  4463                           ;lcd.c: 73: LCD_WriteCmd(0x01);
  4464                           
  4465                           ;incstack = 0
  4466                           ; Regs used in _LCD_Clear: [wreg+status,2+status,0+pclath+cstack]
  4467  08A0  3001               	movlw	1
  4468  08A1  160A  118A  26C8  120A  158A  	fcall	_LCD_WriteCmd
  4469                           
  4470                           ;lcd.c: 75: _delay((unsigned long)((2)*(18432000/4000.0)));
  4471  08A6  300C               	movlw	12
  4472  08A7  1683               	bsf	3,5	;RP0=1, select bank1
  4473  08A8  1303               	bcf	3,6	;RP1=0, select bank1
  4474  08A9  00AA               	movwf	(??_LCD_Clear^(0+128)+1)
  4475  08AA  30F7               	movlw	247
  4476  08AB  00A9               	movwf	??_LCD_Clear^(0+128)
  4477  08AC                     u6807:	
  4478  08AC  0BA9               	decfsz	??_LCD_Clear^(0+128),f
  4479  08AD  28AC               	goto	u6807
  4480  08AE  0BAA               	decfsz	(??_LCD_Clear^(0+128)+1),f
  4481  08AF  28AC               	goto	u6807
  4482                           
  4483                           ;lcd.c: 77: LCD_WriteCmd(0x0C);
  4484  08B0  300C               	movlw	12
  4485  08B1  160A  118A  26C8  120A  158A  	fcall	_LCD_WriteCmd
  4486                           
  4487                           ;lcd.c: 79: _delay((unsigned long)((40)*(18432000/4000000.0)));
  4488  08B6  303D               	movlw	61
  4489  08B7  1683               	bsf	3,5	;RP0=1, select bank1
  4490  08B8  1303               	bcf	3,6	;RP1=0, select bank1
  4491  08B9  00A9               	movwf	??_LCD_Clear^(0+128)
  4492  08BA                     u6817:	
  4493  08BA  0BA9               	decfsz	??_LCD_Clear^(0+128),f
  4494  08BB  28BA               	goto	u6817
  4495                           
  4496                           ;lcd.c: 81: LCD_WriteCmd(0x06);
  4497  08BC  3006               	movlw	6
  4498  08BD  160A  118A  26C8  120A  158A  	fcall	_LCD_WriteCmd
  4499                           
  4500                           ;lcd.c: 83: _delay((unsigned long)((40)*(18432000/4000000.0)));
  4501  08C2  303D               	movlw	61
  4502  08C3  1683               	bsf	3,5	;RP0=1, select bank1
  4503  08C4  1303               	bcf	3,6	;RP1=0, select bank1
  4504  08C5  00A9               	movwf	??_LCD_Clear^(0+128)
  4505  08C6                     u6827:	
  4506  08C6  0BA9               	decfsz	??_LCD_Clear^(0+128),f
  4507  08C7  28C6               	goto	u6827
  4508  08C8  0008               	return
  4509  08C9                     __end_of_LCD_Clear:	
  4510                           
  4511                           	psect	text22
  4512  16C8                     __ptext22:	
  4513 ;; *************** function _LCD_WriteCmd *****************
  4514 ;; Defined at:
  4515 ;;		line 32 in file "C:\Users\332414\Desktop\Fuzzy-IA2\Cdigo em C no MPLAB\lcd.c"
  4516 ;; Parameters:    Size  Location     Type
  4517 ;;  Byte            1    wreg     unsigned char 
  4518 ;; Auto vars:     Size  Location     Type
  4519 ;;  Byte            1    8[BANK1 ] unsigned char 
  4520 ;; Return value:  Size  Location     Type
  4521 ;;		None               void
  4522 ;; Registers used:
  4523 ;;		wreg
  4524 ;; Tracked objects:
  4525 ;;		On entry : 0/0
  4526 ;;		On exit  : 0/0
  4527 ;;		Unchanged: 0/0
  4528 ;; Data sizes:     COMMON   BANK0   BANK1   BANK3   BANK2
  4529 ;;      Params:         0       0       0       0       0
  4530 ;;      Locals:         0       0       1       0       0
  4531 ;;      Temps:          0       0       1       0       0
  4532 ;;      Totals:         0       0       2       0       0
  4533 ;;Total ram usage:        2 bytes
  4534 ;; Hardware stack levels used:    1
  4535 ;; Hardware stack levels required when called:    5
  4536 ;; This function calls:
  4537 ;;		Nothing
  4538 ;; This function is called by:
  4539 ;;		_LCD_Clear
  4540 ;;		_LCD_Init
  4541 ;; This function uses a non-reentrant model
  4542 ;;
  4543                           
  4544                           
  4545                           ;psect for function _LCD_WriteCmd
  4546  16C8                     _LCD_WriteCmd:	
  4547                           
  4548                           ;incstack = 0
  4549                           ; Regs used in _LCD_WriteCmd: [wreg]
  4550                           ;LCD_WriteCmd@Byte stored from wreg
  4551  16C8  1683               	bsf	3,5	;RP0=1, select bank1
  4552  16C9  1303               	bcf	3,6	;RP1=0, select bank1
  4553  16CA  00A8               	movwf	LCD_WriteCmd@Byte^(0+128)
  4554                           
  4555                           ;lcd.c: 34: PORTEbits.RE0 = 0;
  4556  16CB  1283               	bcf	3,5	;RP0=0, select bank0
  4557  16CC  1303               	bcf	3,6	;RP1=0, select bank0
  4558  16CD  1009               	bcf	9,0	;volatile
  4559                           
  4560                           ;lcd.c: 36: PORTD = Byte;
  4561  16CE  1683               	bsf	3,5	;RP0=1, select bank1
  4562  16CF  1303               	bcf	3,6	;RP1=0, select bank1
  4563  16D0  0828               	movf	LCD_WriteCmd@Byte^(0+128),w
  4564  16D1  1283               	bcf	3,5	;RP0=0, select bank0
  4565  16D2  1303               	bcf	3,6	;RP1=0, select bank0
  4566  16D3  0088               	movwf	8	;volatile
  4567                           
  4568                           ;lcd.c: 39: PORTEbits.RE1 = 1;
  4569  16D4  1489               	bsf	9,1	;volatile
  4570                           
  4571                           ;lcd.c: 41: _delay((unsigned long)((40)*(18432000/4000000.0)));
  4572  16D5  303D               	movlw	61
  4573  16D6  1683               	bsf	3,5	;RP0=1, select bank1
  4574  16D7  1303               	bcf	3,6	;RP1=0, select bank1
  4575  16D8  00A7               	movwf	??_LCD_WriteCmd^(0+128)
  4576  16D9                     u6837:	
  4577  16D9  0BA7               	decfsz	??_LCD_WriteCmd^(0+128),f
  4578  16DA  2ED9               	goto	u6837
  4579                           
  4580                           ;lcd.c: 43: PORTEbits.RE1 = 0;
  4581  16DB  1283               	bcf	3,5	;RP0=0, select bank0
  4582  16DC  1303               	bcf	3,6	;RP1=0, select bank0
  4583  16DD  1089               	bcf	9,1	;volatile
  4584  16DE  0008               	return
  4585  16DF                     __end_of_LCD_WriteCmd:	
  4586                           
  4587                           	psect	text23
  4588  16A2                     __ptext23:	
  4589 ;; *************** function _ADC_Init *****************
  4590 ;; Defined at:
  4591 ;;		line 6 in file "C:\Users\332414\Desktop\Fuzzy-IA2\Cdigo em C no MPLAB\adc.c"
  4592 ;; Parameters:    Size  Location     Type
  4593 ;;		None
  4594 ;; Auto vars:     Size  Location     Type
  4595 ;;		None
  4596 ;; Return value:  Size  Location     Type
  4597 ;;		None               void
  4598 ;; Registers used:
  4599 ;;		None
  4600 ;; Tracked objects:
  4601 ;;		On entry : 0/0
  4602 ;;		On exit  : 0/0
  4603 ;;		Unchanged: 0/0
  4604 ;; Data sizes:     COMMON   BANK0   BANK1   BANK3   BANK2
  4605 ;;      Params:         0       0       0       0       0
  4606 ;;      Locals:         0       0       0       0       0
  4607 ;;      Temps:          0       0       0       0       0
  4608 ;;      Totals:         0       0       0       0       0
  4609 ;;Total ram usage:        0 bytes
  4610 ;; Hardware stack levels used:    1
  4611 ;; Hardware stack levels required when called:    5
  4612 ;; This function calls:
  4613 ;;		Nothing
  4614 ;; This function is called by:
  4615 ;;		_main
  4616 ;; This function uses a non-reentrant model
  4617 ;;
  4618                           
  4619                           
  4620                           ;psect for function _ADC_Init
  4621  16A2                     _ADC_Init:	
  4622                           
  4623                           ;adc.c: 9: ADCON1bits.ADFM = 1;
  4624                           
  4625                           ;incstack = 0
  4626                           ; Regs used in _ADC_Init: []
  4627  16A2  1683               	bsf	3,5	;RP0=1, select bank1
  4628  16A3  1303               	bcf	3,6	;RP1=0, select bank1
  4629  16A4  179F               	bsf	31,7	;volatile
  4630                           
  4631                           ;adc.c: 32: ADCON1bits.PCFG3 = 1;
  4632  16A5  159F               	bsf	31,3	;volatile
  4633                           
  4634                           ;adc.c: 33: ADCON1bits.PCFG2 = 1;
  4635  16A6  151F               	bsf	31,2	;volatile
  4636                           
  4637                           ;adc.c: 34: ADCON1bits.PCFG1 = 1;
  4638  16A7  149F               	bsf	31,1	;volatile
  4639                           
  4640                           ;adc.c: 35: ADCON1bits.PCFG0 = 0;
  4641  16A8  101F               	bcf	31,0	;volatile
  4642                           
  4643                           ;adc.c: 38: ADCON0bits.ADCS1 = 1;
  4644  16A9  1283               	bcf	3,5	;RP0=0, select bank0
  4645  16AA  1303               	bcf	3,6	;RP1=0, select bank0
  4646  16AB  179F               	bsf	31,7	;volatile
  4647                           
  4648                           ;adc.c: 39: ADCON0bits.ADCS0 = 0;
  4649  16AC  131F               	bcf	31,6	;volatile
  4650                           
  4651                           ;adc.c: 42: PIE1bits.ADIE = 0;
  4652  16AD  1683               	bsf	3,5	;RP0=1, select bank1
  4653  16AE  1303               	bcf	3,6	;RP1=0, select bank1
  4654  16AF  130C               	bcf	12,6	;volatile
  4655                           
  4656                           ;adc.c: 43: PIR1bits.ADIF = 0;
  4657  16B0  1283               	bcf	3,5	;RP0=0, select bank0
  4658  16B1  1303               	bcf	3,6	;RP1=0, select bank0
  4659  16B2  130C               	bcf	12,6	;volatile
  4660  16B3  0008               	return
  4661  16B4                     __end_of_ADC_Init:	
  4662                           
  4663                           	psect	text24
  4664  0EC3                     __ptext24:	
  4665 ;; *************** function _ISR *****************
  4666 ;; Defined at:
  4667 ;;		line 82 in file "C:\Users\332414\Desktop\Fuzzy-IA2\Cdigo em C no MPLAB\main.c"
  4668 ;; Parameters:    Size  Location     Type
  4669 ;;		None
  4670 ;; Auto vars:     Size  Location     Type
  4671 ;;		None
  4672 ;; Return value:  Size  Location     Type
  4673 ;;		None               void
  4674 ;; Registers used:
  4675 ;;		wreg, fsr0l, fsr0h, status,2, status,0, btemp+1, pclath, cstack
  4676 ;; Tracked objects:
  4677 ;;		On entry : 0/0
  4678 ;;		On exit  : 0/0
  4679 ;;		Unchanged: 0/0
  4680 ;; Data sizes:     COMMON   BANK0   BANK1   BANK3   BANK2
  4681 ;;      Params:         0       0       0       0       0
  4682 ;;      Locals:         0       0       6       0       0
  4683 ;;      Temps:          0       4       0       0       0
  4684 ;;      Totals:         0       4       6       0       0
  4685 ;;Total ram usage:       10 bytes
  4686 ;; Hardware stack levels used:    1
  4687 ;; Hardware stack levels required when called:    4
  4688 ;; This function calls:
  4689 ;;		___ftadd
  4690 ;;		___ftdiv
  4691 ;;		___ftmul
  4692 ;;		___fttol
  4693 ;;		___lwtoft
  4694 ;;		_trapezoidal
  4695 ;;		i1_PWM_DutyCycle2
  4696 ;;		i1_TIMER0_Set
  4697 ;; This function is called by:
  4698 ;;		Interrupt level 1
  4699 ;; This function uses a non-reentrant model
  4700 ;;
  4701                           
  4702                           
  4703                           ;psect for function _ISR
  4704  0EC3                     _ISR:	
  4705                           
  4706                           ;main.c: 85: if (PIR1bits.RCIF)
  4707  0EC3  1A8C               	btfsc	12,5	;volatile
  4708                           
  4709                           ;main.c: 86: {
  4710                           ;main.c: 90: PIR1bits.RCIF = 0;
  4711  0EC4  128C               	bcf	12,5	;volatile
  4712                           
  4713                           ;main.c: 91: }
  4714                           ;main.c: 94: if (PIR1bits.ADIF)
  4715  0EC5  1B0C               	btfsc	12,6	;volatile
  4716                           
  4717                           ;main.c: 95: {
  4718                           ;main.c: 99: PIR1bits.ADIF = 0;
  4719  0EC6  130C               	bcf	12,6	;volatile
  4720                           
  4721                           ;main.c: 100: }
  4722                           ;main.c: 104: if (INTCONbits.T0IF)
  4723  0EC7  1D0B               	btfss	11,2	;volatile
  4724  0EC8  2FF1               	goto	i1l4941
  4725                           
  4726                           ;main.c: 105: {
  4727                           ;main.c: 107: TIMER0_Set(238);
  4728  0EC9  30EE               	movlw	238
  4729  0ECA  160A  118A  2659  120A  158A  	fcall	i1_TIMER0_Set
  4730                           
  4731                           ;main.c: 110: if (contagens_tm0 < 499)
  4732  0ECF  3001               	movlw	1
  4733  0ED0  1683               	bsf	3,5	;RP0=1, select bank1
  4734  0ED1  1303               	bcf	3,6	;RP1=0, select bank1
  4735  0ED2  0253               	subwf	(_contagens_tm0+1)^(0+128),w
  4736  0ED3  30F3               	movlw	243
  4737  0ED4  1903               	skipnz
  4738  0ED5  0252               	subwf	_contagens_tm0^(0+128),w
  4739  0ED6  1803               	skipnc
  4740  0ED7  2EE2               	goto	i1l4921
  4741                           
  4742                           ;main.c: 111: {
  4743                           ;main.c: 113: contagens_tm0++;
  4744  0ED8  3001               	movlw	1
  4745  0ED9  07D2               	addwf	_contagens_tm0^(0+128),f
  4746  0EDA  1803               	skipnc
  4747  0EDB  0AD3               	incf	(_contagens_tm0+1)^(0+128),f
  4748  0EDC  3000               	movlw	0
  4749  0EDD  07D3               	addwf	(_contagens_tm0+1)^(0+128),f
  4750                           
  4751                           ;main.c: 116: PORTBbits.RB6 = 1;
  4752  0EDE  1283               	bcf	3,5	;RP0=0, select bank0
  4753  0EDF  1303               	bcf	3,6	;RP1=0, select bank0
  4754  0EE0  1706               	bsf	6,6	;volatile
  4755                           
  4756                           ;main.c: 117: }
  4757  0EE1  2FF0               	goto	i1l4939
  4758  0EE2                     i1l4921:	
  4759                           
  4760                           ;main.c: 118: else
  4761                           ;main.c: 119: {
  4762                           ;main.c: 121: contagens_tm0 = 0;
  4763  0EE2  1683               	bsf	3,5	;RP0=1, select bank1
  4764  0EE3  1303               	bcf	3,6	;RP1=0, select bank1
  4765  0EE4  01D2               	clrf	_contagens_tm0^(0+128)
  4766  0EE5  01D3               	clrf	(_contagens_tm0+1)^(0+128)
  4767                           
  4768                           ;main.c: 124: pulsos = (TMR1H << 8) + TMR1L;
  4769  0EE6  1283               	bcf	3,5	;RP0=0, select bank0
  4770  0EE7  1303               	bcf	3,6	;RP1=0, select bank0
  4771  0EE8  080F               	movf	15,w	;volatile
  4772  0EE9  1683               	bsf	3,5	;RP0=1, select bank1
  4773  0EEA  1303               	bcf	3,6	;RP1=0, select bank1
  4774  0EEB  01D5               	clrf	(_pulsos+1)^(0+128)
  4775  0EEC  07D5               	addwf	(_pulsos+1)^(0+128),f
  4776  0EED  1283               	bcf	3,5	;RP0=0, select bank0
  4777  0EEE  1303               	bcf	3,6	;RP1=0, select bank0
  4778  0EEF  080E               	movf	14,w	;volatile
  4779  0EF0  1683               	bsf	3,5	;RP0=1, select bank1
  4780  0EF1  1303               	bcf	3,6	;RP1=0, select bank1
  4781  0EF2  01D4               	clrf	_pulsos^(0+128)
  4782  0EF3  07D4               	addwf	_pulsos^(0+128),f
  4783                           
  4784                           ;main.c: 125: rpm = ((pulsos / 7.0) * 120);
  4785  0EF4  0855               	movf	(_pulsos+1)^(0+128),w
  4786  0EF5  01F9               	clrf	___lwtoft@c+1
  4787  0EF6  07F9               	addwf	___lwtoft@c+1,f
  4788  0EF7  0854               	movf	_pulsos^(0+128),w
  4789  0EF8  01F8               	clrf	___lwtoft@c
  4790  0EF9  07F8               	addwf	___lwtoft@c,f
  4791  0EFA  160A  118A  26B4  120A  158A  	fcall	___lwtoft
  4792  0EFF  0878               	movf	?___lwtoft,w
  4793  0F00  1283               	bcf	3,5	;RP0=0, select bank0
  4794  0F01  1303               	bcf	3,6	;RP1=0, select bank0
  4795  0F02  00AA               	movwf	___ftdiv@f1
  4796  0F03  0879               	movf	?___lwtoft+1,w
  4797  0F04  00AB               	movwf	___ftdiv@f1+1
  4798  0F05  087A               	movf	?___lwtoft+2,w
  4799  0F06  00AC               	movwf	___ftdiv@f1+2
  4800  0F07  3000               	movlw	0
  4801  0F08  00A7               	movwf	___ftdiv@f2
  4802  0F09  30E0               	movlw	224
  4803  0F0A  00A8               	movwf	___ftdiv@f2+1
  4804  0F0B  3040               	movlw	64
  4805  0F0C  00A9               	movwf	___ftdiv@f2+2
  4806  0F0D  120A  118A  273D  120A  158A  	fcall	___ftdiv
  4807  0F12  1283               	bcf	3,5	;RP0=0, select bank0
  4808  0F13  1303               	bcf	3,6	;RP1=0, select bank0
  4809  0F14  0827               	movf	?___ftdiv,w
  4810  0F15  00C9               	movwf	___ftmul@f2
  4811  0F16  0828               	movf	?___ftdiv+1,w
  4812  0F17  00CA               	movwf	___ftmul@f2+1
  4813  0F18  0829               	movf	?___ftdiv+2,w
  4814  0F19  00CB               	movwf	___ftmul@f2+2
  4815  0F1A  3000               	movlw	0
  4816  0F1B  00C6               	movwf	___ftmul@f1
  4817  0F1C  30F0               	movlw	240
  4818  0F1D  00C7               	movwf	___ftmul@f1+1
  4819  0F1E  3042               	movlw	66
  4820  0F1F  00C8               	movwf	___ftmul@f1+2
  4821  0F20  120A  158A  23E4  120A  158A  	fcall	___ftmul
  4822  0F25  1283               	bcf	3,5	;RP0=0, select bank0
  4823  0F26  1303               	bcf	3,6	;RP1=0, select bank0
  4824  0F27  0846               	movf	?___ftmul,w
  4825  0F28  00D6               	movwf	___fttol@f1
  4826  0F29  0847               	movf	?___ftmul+1,w
  4827  0F2A  00D7               	movwf	___fttol@f1+1
  4828  0F2B  0848               	movf	?___ftmul+2,w
  4829  0F2C  00D8               	movwf	___fttol@f1+2
  4830  0F2D  120A  158A  2356  120A  158A  	fcall	___fttol
  4831  0F32  1283               	bcf	3,5	;RP0=0, select bank0
  4832  0F33  1303               	bcf	3,6	;RP1=0, select bank0
  4833  0F34  0857               	movf	?___fttol+1,w
  4834  0F35  1683               	bsf	3,5	;RP0=1, select bank1
  4835  0F36  1303               	bcf	3,6	;RP1=0, select bank1
  4836  0F37  01D7               	clrf	(_rpm+1)^(0+128)
  4837  0F38  07D7               	addwf	(_rpm+1)^(0+128),f
  4838  0F39  1283               	bcf	3,5	;RP0=0, select bank0
  4839  0F3A  1303               	bcf	3,6	;RP1=0, select bank0
  4840  0F3B  0856               	movf	?___fttol,w
  4841  0F3C  1683               	bsf	3,5	;RP0=1, select bank1
  4842  0F3D  1303               	bcf	3,6	;RP1=0, select bank1
  4843  0F3E  01D6               	clrf	_rpm^(0+128)
  4844  0F3F  07D6               	addwf	_rpm^(0+128),f
  4845                           
  4846                           ;main.c: 128: TMR1L = 0x00;
  4847  0F40  1283               	bcf	3,5	;RP0=0, select bank0
  4848  0F41  1303               	bcf	3,6	;RP1=0, select bank0
  4849  0F42  018E               	clrf	14	;volatile
  4850                           
  4851                           ;main.c: 129: TMR1H = 0x00;
  4852  0F43  018F               	clrf	15	;volatile
  4853                           
  4854                           ;main.c: 131: PWM_DutyCycle2((int)(1023 * (trapezoidal((float)rpm, -10.0f, 0.0f, require
      +                          dRpm - 1200.0f, requiredRpm + 800.0f))));
  4855  0F44  1683               	bsf	3,5	;RP0=1, select bank1
  4856  0F45  1303               	bcf	3,6	;RP1=0, select bank1
  4857  0F46  0864               	movf	_requiredRpm^(0+128),w
  4858  0F47  00FB               	movwf	___ftadd@f2
  4859  0F48  0865               	movf	(_requiredRpm+1)^(0+128),w
  4860  0F49  00FC               	movwf	___ftadd@f2+1
  4861  0F4A  0866               	movf	(_requiredRpm+2)^(0+128),w
  4862  0F4B  00FD               	movwf	___ftadd@f2+2
  4863  0F4C  3000               	movlw	0
  4864  0F4D  00F8               	movwf	___ftadd@f1
  4865  0F4E  3048               	movlw	72
  4866  0F4F  00F9               	movwf	___ftadd@f1+1
  4867  0F50  3044               	movlw	68
  4868  0F51  00FA               	movwf	___ftadd@f1+2
  4869  0F52  120A  158A  25BC  120A  158A  	fcall	___ftadd
  4870  0F57  0878               	movf	?___ftadd,w
  4871  0F58  1683               	bsf	3,5	;RP0=1, select bank1
  4872  0F59  1303               	bcf	3,6	;RP1=0, select bank1
  4873  0F5A  00A1               	movwf	_ISR$1731^(0+128)
  4874  0F5B  0879               	movf	?___ftadd+1,w
  4875  0F5C  00A2               	movwf	(_ISR$1731+1)^(0+128)
  4876  0F5D  087A               	movf	?___ftadd+2,w
  4877  0F5E  00A3               	movwf	(_ISR$1731+2)^(0+128)
  4878                           
  4879                           ;main.c: 131: PWM_DutyCycle2((int)(1023 * (trapezoidal((float)rpm, -10.0f, 0.0f, require
      +                          dRpm - 1200.0f, requiredRpm + 800.0f))));
  4880  0F5F  0864               	movf	_requiredRpm^(0+128),w
  4881  0F60  00FB               	movwf	___ftadd@f2
  4882  0F61  0865               	movf	(_requiredRpm+1)^(0+128),w
  4883  0F62  00FC               	movwf	___ftadd@f2+1
  4884  0F63  0866               	movf	(_requiredRpm+2)^(0+128),w
  4885  0F64  00FD               	movwf	___ftadd@f2+2
  4886  0F65  3000               	movlw	0
  4887  0F66  00F8               	movwf	___ftadd@f1
  4888  0F67  3096               	movlw	150
  4889  0F68  00F9               	movwf	___ftadd@f1+1
  4890  0F69  30C4               	movlw	196
  4891  0F6A  00FA               	movwf	___ftadd@f1+2
  4892  0F6B  120A  158A  25BC  120A  158A  	fcall	___ftadd
  4893  0F70  0878               	movf	?___ftadd,w
  4894  0F71  1683               	bsf	3,5	;RP0=1, select bank1
  4895  0F72  1303               	bcf	3,6	;RP1=0, select bank1
  4896  0F73  00A4               	movwf	_ISR$1732^(0+128)
  4897  0F74  0879               	movf	?___ftadd+1,w
  4898  0F75  00A5               	movwf	(_ISR$1732+1)^(0+128)
  4899  0F76  087A               	movf	?___ftadd+2,w
  4900  0F77  00A6               	movwf	(_ISR$1732+2)^(0+128)
  4901                           
  4902                           ;main.c: 131: PWM_DutyCycle2((int)(1023 * (trapezoidal((float)rpm, -10.0f, 0.0f, require
      +                          dRpm - 1200.0f, requiredRpm + 800.0f))));
  4903  0F78  0821               	movf	_ISR$1731^(0+128),w
  4904  0F79  1283               	bcf	3,5	;RP0=0, select bank0
  4905  0F7A  1303               	bcf	3,6	;RP1=0, select bank0
  4906  0F7B  00C3               	movwf	trapezoidal@d
  4907  0F7C  1683               	bsf	3,5	;RP0=1, select bank1
  4908  0F7D  1303               	bcf	3,6	;RP1=0, select bank1
  4909  0F7E  0822               	movf	(_ISR$1731+1)^(0+128),w
  4910  0F7F  1283               	bcf	3,5	;RP0=0, select bank0
  4911  0F80  1303               	bcf	3,6	;RP1=0, select bank0
  4912  0F81  00C4               	movwf	trapezoidal@d+1
  4913  0F82  1683               	bsf	3,5	;RP0=1, select bank1
  4914  0F83  1303               	bcf	3,6	;RP1=0, select bank1
  4915  0F84  0823               	movf	(_ISR$1731+2)^(0+128),w
  4916  0F85  1283               	bcf	3,5	;RP0=0, select bank0
  4917  0F86  1303               	bcf	3,6	;RP1=0, select bank0
  4918  0F87  00C5               	movwf	trapezoidal@d+2
  4919  0F88  1683               	bsf	3,5	;RP0=1, select bank1
  4920  0F89  1303               	bcf	3,6	;RP1=0, select bank1
  4921  0F8A  0824               	movf	_ISR$1732^(0+128),w
  4922  0F8B  1283               	bcf	3,5	;RP0=0, select bank0
  4923  0F8C  1303               	bcf	3,6	;RP1=0, select bank0
  4924  0F8D  00C0               	movwf	trapezoidal@c
  4925  0F8E  1683               	bsf	3,5	;RP0=1, select bank1
  4926  0F8F  1303               	bcf	3,6	;RP1=0, select bank1
  4927  0F90  0825               	movf	(_ISR$1732+1)^(0+128),w
  4928  0F91  1283               	bcf	3,5	;RP0=0, select bank0
  4929  0F92  1303               	bcf	3,6	;RP1=0, select bank0
  4930  0F93  00C1               	movwf	trapezoidal@c+1
  4931  0F94  1683               	bsf	3,5	;RP0=1, select bank1
  4932  0F95  1303               	bcf	3,6	;RP1=0, select bank1
  4933  0F96  0826               	movf	(_ISR$1732+2)^(0+128),w
  4934  0F97  1283               	bcf	3,5	;RP0=0, select bank0
  4935  0F98  1303               	bcf	3,6	;RP1=0, select bank0
  4936  0F99  00C2               	movwf	trapezoidal@c+2
  4937  0F9A  3000               	movlw	0
  4938  0F9B  00BD               	movwf	trapezoidal@b
  4939  0F9C  3000               	movlw	0
  4940  0F9D  00BE               	movwf	trapezoidal@b+1
  4941  0F9E  3000               	movlw	0
  4942  0F9F  00BF               	movwf	trapezoidal@b+2
  4943  0FA0  3000               	movlw	0
  4944  0FA1  00BA               	movwf	trapezoidal@a
  4945  0FA2  3020               	movlw	32
  4946  0FA3  00BB               	movwf	trapezoidal@a+1
  4947  0FA4  30C1               	movlw	193
  4948  0FA5  00BC               	movwf	trapezoidal@a+2
  4949  0FA6  1683               	bsf	3,5	;RP0=1, select bank1
  4950  0FA7  1303               	bcf	3,6	;RP1=0, select bank1
  4951  0FA8  0857               	movf	(_rpm+1)^(0+128),w
  4952  0FA9  01F9               	clrf	___lwtoft@c+1
  4953  0FAA  07F9               	addwf	___lwtoft@c+1,f
  4954  0FAB  0856               	movf	_rpm^(0+128),w
  4955  0FAC  01F8               	clrf	___lwtoft@c
  4956  0FAD  07F8               	addwf	___lwtoft@c,f
  4957  0FAE  160A  118A  26B4  120A  158A  	fcall	___lwtoft
  4958  0FB3  0878               	movf	?___lwtoft,w
  4959  0FB4  1283               	bcf	3,5	;RP0=0, select bank0
  4960  0FB5  1303               	bcf	3,6	;RP1=0, select bank0
  4961  0FB6  00B7               	movwf	trapezoidal@x
  4962  0FB7  0879               	movf	?___lwtoft+1,w
  4963  0FB8  00B8               	movwf	trapezoidal@x+1
  4964  0FB9  087A               	movf	?___lwtoft+2,w
  4965  0FBA  00B9               	movwf	trapezoidal@x+2
  4966  0FBB  120A  118A  25B6  120A  158A  	fcall	_trapezoidal
  4967  0FC0  1283               	bcf	3,5	;RP0=0, select bank0
  4968  0FC1  1303               	bcf	3,6	;RP1=0, select bank0
  4969  0FC2  0837               	movf	?_trapezoidal,w
  4970  0FC3  00C9               	movwf	___ftmul@f2
  4971  0FC4  0838               	movf	?_trapezoidal+1,w
  4972  0FC5  00CA               	movwf	___ftmul@f2+1
  4973  0FC6  0839               	movf	?_trapezoidal+2,w
  4974  0FC7  00CB               	movwf	___ftmul@f2+2
  4975  0FC8  30C0               	movlw	192
  4976  0FC9  00C6               	movwf	___ftmul@f1
  4977  0FCA  307F               	movlw	127
  4978  0FCB  00C7               	movwf	___ftmul@f1+1
  4979  0FCC  3044               	movlw	68
  4980  0FCD  00C8               	movwf	___ftmul@f1+2
  4981  0FCE  120A  158A  23E4  120A  158A  	fcall	___ftmul
  4982  0FD3  1283               	bcf	3,5	;RP0=0, select bank0
  4983  0FD4  1303               	bcf	3,6	;RP1=0, select bank0
  4984  0FD5  0846               	movf	?___ftmul,w
  4985  0FD6  00D6               	movwf	___fttol@f1
  4986  0FD7  0847               	movf	?___ftmul+1,w
  4987  0FD8  00D7               	movwf	___fttol@f1+1
  4988  0FD9  0848               	movf	?___ftmul+2,w
  4989  0FDA  00D8               	movwf	___fttol@f1+2
  4990  0FDB  120A  158A  2356  120A  158A  	fcall	___fttol
  4991  0FE0  1283               	bcf	3,5	;RP0=0, select bank0
  4992  0FE1  1303               	bcf	3,6	;RP1=0, select bank0
  4993  0FE2  0857               	movf	?___fttol+1,w
  4994  0FE3  01E5               	clrf	i1PWM_DutyCycle2@valor+1
  4995  0FE4  07E5               	addwf	i1PWM_DutyCycle2@valor+1,f
  4996  0FE5  0856               	movf	?___fttol,w
  4997  0FE6  01E4               	clrf	i1PWM_DutyCycle2@valor
  4998  0FE7  07E4               	addwf	i1PWM_DutyCycle2@valor,f
  4999  0FE8  160A  118A  26F8  120A  158A  	fcall	i1_PWM_DutyCycle2
  5000                           
  5001                           ;main.c: 134: PORTBbits.RB6 = 0;
  5002  0FED  1283               	bcf	3,5	;RP0=0, select bank0
  5003  0FEE  1303               	bcf	3,6	;RP1=0, select bank0
  5004  0FEF  1306               	bcf	6,6	;volatile
  5005  0FF0                     i1l4939:	
  5006                           
  5007                           ;main.c: 135: }
  5008                           ;main.c: 138: INTCONbits.T0IF = 0;
  5009  0FF0  110B               	bcf	11,2	;volatile
  5010  0FF1                     i1l4941:	
  5011                           
  5012                           ;main.c: 139: }
  5013                           ;main.c: 142: if (PIR1bits.TMR1IF)
  5014  0FF1  180C               	btfsc	12,0	;volatile
  5015                           
  5016                           ;main.c: 143: {
  5017                           ;main.c: 147: PIR1bits.TMR1IF = 0;
  5018  0FF2  100C               	bcf	12,0	;volatile
  5019                           
  5020                           ;main.c: 148: }
  5021                           ;main.c: 151: if (PIR1bits.SSPIF)
  5022  0FF3  198C               	btfsc	12,3	;volatile
  5023                           
  5024                           ;main.c: 152: {
  5025                           ;main.c: 156: PIR1bits.SSPIF = 0;
  5026  0FF4  118C               	bcf	12,3	;volatile
  5027  0FF5  086B               	movf	??_ISR+3,w
  5028  0FF6  00FF               	movwf	127
  5029  0FF7  086A               	movf	??_ISR+2,w
  5030  0FF8  008A               	movwf	10
  5031  0FF9  0869               	movf	??_ISR+1,w
  5032  0FFA  0084               	movwf	4
  5033  0FFB  0E68               	swapf	??_ISR^0,w
  5034  0FFC  0083               	movwf	3
  5035  0FFD  0EFE               	swapf	126,f
  5036  0FFE  0E7E               	swapf	126,w
  5037  0FFF  0009               	retfie
  5038  1000                     __end_of_ISR:	
  5039                           
  5040                           	psect	intentry
  5041  0004                     __pintentry:	
  5042                           ;incstack = 0
  5043                           ; Regs used in _ISR: [wreg-fsr0h+status,2+status,0+btemp+1+pclath+cstack]
  5044                           
  5045  0004                     interrupt_function:	
  5046  007E                     saved_w	set	btemp
  5047  0004  00FE               	movwf	btemp
  5048  0005  0E03               	swapf	3,w
  5049  0006  1283               	bcf	3,5	;RP0=0, select bank0
  5050  0007  1303               	bcf	3,6	;RP1=0, select bank0
  5051  0008  00E8               	movwf	??_ISR
  5052  0009  0804               	movf	4,w
  5053  000A  00E9               	movwf	??_ISR+1
  5054  000B  080A               	movf	10,w
  5055  000C  00EA               	movwf	??_ISR+2
  5056  000D  087F               	movf	btemp+1,w
  5057  000E  00EB               	movwf	??_ISR+3
  5058  000F  120A  158A  2EC3   	ljmp	_ISR
  5059                           
  5060                           	psect	text25
  5061  1659                     __ptext25:	
  5062 ;; *************** function i1_TIMER0_Set *****************
  5063 ;; Defined at:
  5064 ;;		line 20 in file "C:\Users\332414\Desktop\Fuzzy-IA2\Cdigo em C no MPLAB\timers.c"
  5065 ;; Parameters:    Size  Location     Type
  5066 ;;  contagens       1    wreg     unsigned char 
  5067 ;; Auto vars:     Size  Location     Type
  5068 ;;  contagens       1    0[COMMON] unsigned char 
  5069 ;; Return value:  Size  Location     Type
  5070 ;;		None               void
  5071 ;; Registers used:
  5072 ;;		wreg
  5073 ;; Tracked objects:
  5074 ;;		On entry : 0/0
  5075 ;;		On exit  : 0/0
  5076 ;;		Unchanged: 0/0
  5077 ;; Data sizes:     COMMON   BANK0   BANK1   BANK3   BANK2
  5078 ;;      Params:         0       0       0       0       0
  5079 ;;      Locals:         1       0       0       0       0
  5080 ;;      Temps:          0       0       0       0       0
  5081 ;;      Totals:         1       0       0       0       0
  5082 ;;Total ram usage:        1 bytes
  5083 ;; Hardware stack levels used:    1
  5084 ;; This function calls:
  5085 ;;		Nothing
  5086 ;; This function is called by:
  5087 ;;		_ISR
  5088 ;; This function uses a non-reentrant model
  5089 ;;
  5090                           
  5091                           
  5092                           ;psect for function i1_TIMER0_Set
  5093  1659                     i1_TIMER0_Set:	
  5094                           
  5095                           ;incstack = 0
  5096                           ; Regs used in i1_TIMER0_Set: [wreg]
  5097                           ;i1TIMER0_Set@contagens stored from wreg
  5098  1659  00F0               	movwf	i1TIMER0_Set@contagens
  5099                           
  5100                           ;timers.c: 22: TMR0 = contagens;
  5101  165A  0870               	movf	i1TIMER0_Set@contagens,w
  5102  165B  1283               	bcf	3,5	;RP0=0, select bank0
  5103  165C  1303               	bcf	3,6	;RP1=0, select bank0
  5104  165D  0081               	movwf	1	;volatile
  5105  165E  0008               	return
  5106  165F                     __end_ofi1_TIMER0_Set:	
  5107                           
  5108                           	psect	text26
  5109  16F8                     __ptext26:	
  5110 ;; *************** function i1_PWM_DutyCycle2 *****************
  5111 ;; Defined at:
  5112 ;;		line 96 in file "C:\Users\332414\Desktop\Fuzzy-IA2\Cdigo em C no MPLAB\pwm.c"
  5113 ;; Parameters:    Size  Location     Type
  5114 ;;  valor           2   68[BANK0 ] int 
  5115 ;; Auto vars:     Size  Location     Type
  5116 ;;		None
  5117 ;; Return value:  Size  Location     Type
  5118 ;;		None               void
  5119 ;; Registers used:
  5120 ;;		wreg, status,2, status,0
  5121 ;; Tracked objects:
  5122 ;;		On entry : 0/0
  5123 ;;		On exit  : 0/0
  5124 ;;		Unchanged: 0/0
  5125 ;; Data sizes:     COMMON   BANK0   BANK1   BANK3   BANK2
  5126 ;;      Params:         0       2       0       0       0
  5127 ;;      Locals:         0       0       0       0       0
  5128 ;;      Temps:          0       2       0       0       0
  5129 ;;      Totals:         0       4       0       0       0
  5130 ;;Total ram usage:        4 bytes
  5131 ;; Hardware stack levels used:    1
  5132 ;; This function calls:
  5133 ;;		Nothing
  5134 ;; This function is called by:
  5135 ;;		_ISR
  5136 ;; This function uses a non-reentrant model
  5137 ;;
  5138                           
  5139                           
  5140                           ;psect for function i1_PWM_DutyCycle2
  5141  16F8                     i1_PWM_DutyCycle2:	
  5142                           
  5143                           ;pwm.c: 98: CCPR2L = valor >> 2;
  5144                           
  5145                           ;incstack = 0
  5146                           ; Regs used in i1_PWM_DutyCycle2: [wreg+status,2+status,0]
  5147  16F8  1283               	bcf	3,5	;RP0=0, select bank0
  5148  16F9  1303               	bcf	3,6	;RP1=0, select bank0
  5149  16FA  0865               	movf	i1PWM_DutyCycle2@valor+1,w
  5150  16FB  00E7               	movwf	??i1_PWM_DutyCycle2+1
  5151  16FC  0864               	movf	i1PWM_DutyCycle2@valor,w
  5152  16FD  00E6               	movwf	??i1_PWM_DutyCycle2
  5153  16FE  0D67               	rlf	??i1_PWM_DutyCycle2+1,w
  5154  16FF  0CE7               	rrf	??i1_PWM_DutyCycle2+1,f
  5155  1700  0CE6               	rrf	??i1_PWM_DutyCycle2,f
  5156  1701  0D67               	rlf	??i1_PWM_DutyCycle2+1,w
  5157  1702  0CE7               	rrf	??i1_PWM_DutyCycle2+1,f
  5158  1703  0CE6               	rrf	??i1_PWM_DutyCycle2,f
  5159  1704  0866               	movf	??i1_PWM_DutyCycle2,w
  5160  1705  009B               	movwf	27	;volatile
  5161                           
  5162                           ;pwm.c: 99: CCP2CON = (valor << 4)|0X0C;
  5163  1706  0864               	movf	i1PWM_DutyCycle2@valor,w
  5164  1707  00E6               	movwf	??i1_PWM_DutyCycle2
  5165  1708  3003               	movlw	3
  5166  1709                     u399_25:	
  5167  1709  1003               	clrc
  5168  170A  0DE6               	rlf	??i1_PWM_DutyCycle2,f
  5169  170B  3EFF               	addlw	-1
  5170  170C  1D03               	skipz
  5171  170D  2F09               	goto	u399_25
  5172  170E  1003               	clrc
  5173  170F  0D66               	rlf	??i1_PWM_DutyCycle2,w
  5174  1710  380C               	iorlw	12
  5175  1711  009D               	movwf	29	;volatile
  5176  1712  0008               	return
  5177  1713                     __end_ofi1_PWM_DutyCycle2:	
  5178                           
  5179                           	psect	text27
  5180  05B6                     __ptext27:	
  5181 ;; *************** function _trapezoidal *****************
  5182 ;; Defined at:
  5183 ;;		line 41 in file "C:\Users\332414\Desktop\Fuzzy-IA2\Cdigo em C no MPLAB\main.c"
  5184 ;; Parameters:    Size  Location     Type
  5185 ;;  x               3   23[BANK0 ] float 
  5186 ;;  a               3   26[BANK0 ] float 
  5187 ;;  b               3   29[BANK0 ] float 
  5188 ;;  c               3   32[BANK0 ] float 
  5189 ;;  d               3   35[BANK0 ] float 
  5190 ;; Auto vars:     Size  Location     Type
  5191 ;;		None
  5192 ;; Return value:  Size  Location     Type
  5193 ;;                  3   23[BANK0 ] float 
  5194 ;; Registers used:
  5195 ;;		wreg, fsr0l, fsr0h, status,2, status,0, btemp+1, pclath, cstack
  5196 ;; Tracked objects:
  5197 ;;		On entry : 0/0
  5198 ;;		On exit  : 0/0
  5199 ;;		Unchanged: 0/0
  5200 ;; Data sizes:     COMMON   BANK0   BANK1   BANK3   BANK2
  5201 ;;      Params:         0      15       0       0       0
  5202 ;;      Locals:         0       0       0       0       0
  5203 ;;      Temps:          0       0       0       0       0
  5204 ;;      Totals:         0      15       0       0       0
  5205 ;;Total ram usage:       15 bytes
  5206 ;; Hardware stack levels used:    1
  5207 ;; Hardware stack levels required when called:    3
  5208 ;; This function calls:
  5209 ;;		___ftadd
  5210 ;;		___ftdiv
  5211 ;;		___ftge
  5212 ;;		___ftneg
  5213 ;;		_printf
  5214 ;; This function is called by:
  5215 ;;		_ISR
  5216 ;; This function uses a non-reentrant model
  5217 ;;
  5218                           
  5219                           
  5220                           ;psect for function _trapezoidal
  5221  05B6                     _trapezoidal:	
  5222                           
  5223                           ;main.c: 42: if (x <= a){
  5224                           
  5225                           ;incstack = 0
  5226                           ; Regs used in _trapezoidal: [wreg-fsr0h+status,2+status,0+btemp+1+pclath+cstack]
  5227  05B6  1283               	bcf	3,5	;RP0=0, select bank0
  5228  05B7  1303               	bcf	3,6	;RP1=0, select bank0
  5229  05B8  083A               	movf	trapezoidal@a,w
  5230  05B9  00F0               	movwf	___ftge@ff1
  5231  05BA  083B               	movf	trapezoidal@a+1,w
  5232  05BB  00F1               	movwf	___ftge@ff1+1
  5233  05BC  083C               	movf	trapezoidal@a+2,w
  5234  05BD  00F2               	movwf	___ftge@ff1+2
  5235  05BE  0837               	movf	trapezoidal@x,w
  5236  05BF  00F3               	movwf	___ftge@ff2
  5237  05C0  0838               	movf	trapezoidal@x+1,w
  5238  05C1  00F4               	movwf	___ftge@ff2+1
  5239  05C2  0839               	movf	trapezoidal@x+2,w
  5240  05C3  00F5               	movwf	___ftge@ff2+2
  5241  05C4  120A  158A  2226  120A  118A  	fcall	___ftge
  5242  05C9  1C03               	btfss	3,0
  5243  05CA  2DD8               	goto	i1l4857
  5244                           
  5245                           ;main.c: 43: printf("1");
  5246  05CB  306F               	movlw	(STR_1-__stringbase)& (0+255)
  5247  05CC  160A  118A  26DF   	fcall	_printf
  5248                           
  5249                           ;main.c: 44: return 0.0f;
  5250  05CF  3000               	movlw	0
  5251  05D0  1283               	bcf	3,5	;RP0=0, select bank0
  5252  05D1  1303               	bcf	3,6	;RP1=0, select bank0
  5253  05D2  00B7               	movwf	?_trapezoidal
  5254  05D3  3000               	movlw	0
  5255  05D4  00B8               	movwf	?_trapezoidal+1
  5256  05D5  3000               	movlw	0
  5257  05D6  00B9               	movwf	?_trapezoidal+2
  5258  05D7  0008               	return
  5259  05D8                     i1l4857:	
  5260                           
  5261                           ;main.c: 45: }
  5262                           ;main.c: 46: if (a < x && x <= b){
  5263  05D8  1283               	bcf	3,5	;RP0=0, select bank0
  5264  05D9  1303               	bcf	3,6	;RP1=0, select bank0
  5265  05DA  083A               	movf	trapezoidal@a,w
  5266  05DB  00F0               	movwf	___ftge@ff1
  5267  05DC  083B               	movf	trapezoidal@a+1,w
  5268  05DD  00F1               	movwf	___ftge@ff1+1
  5269  05DE  083C               	movf	trapezoidal@a+2,w
  5270  05DF  00F2               	movwf	___ftge@ff1+2
  5271  05E0  0837               	movf	trapezoidal@x,w
  5272  05E1  00F3               	movwf	___ftge@ff2
  5273  05E2  0838               	movf	trapezoidal@x+1,w
  5274  05E3  00F4               	movwf	___ftge@ff2+1
  5275  05E4  0839               	movf	trapezoidal@x+2,w
  5276  05E5  00F5               	movwf	___ftge@ff2+2
  5277  05E6  120A  158A  2226  120A  118A  	fcall	___ftge
  5278  05EB  1803               	btfsc	3,0
  5279  05EC  2E5E               	goto	i1l4867
  5280  05ED  1283               	bcf	3,5	;RP0=0, select bank0
  5281  05EE  1303               	bcf	3,6	;RP1=0, select bank0
  5282  05EF  083D               	movf	trapezoidal@b,w
  5283  05F0  00F0               	movwf	___ftge@ff1
  5284  05F1  083E               	movf	trapezoidal@b+1,w
  5285  05F2  00F1               	movwf	___ftge@ff1+1
  5286  05F3  083F               	movf	trapezoidal@b+2,w
  5287  05F4  00F2               	movwf	___ftge@ff1+2
  5288  05F5  0837               	movf	trapezoidal@x,w
  5289  05F6  00F3               	movwf	___ftge@ff2
  5290  05F7  0838               	movf	trapezoidal@x+1,w
  5291  05F8  00F4               	movwf	___ftge@ff2+1
  5292  05F9  0839               	movf	trapezoidal@x+2,w
  5293  05FA  00F5               	movwf	___ftge@ff2+2
  5294  05FB  120A  158A  2226  120A  118A  	fcall	___ftge
  5295  0600  1C03               	btfss	3,0
  5296  0601  2E5E               	goto	i1l4867
  5297                           
  5298                           ;main.c: 47: printf("2");
  5299  0602  3071               	movlw	(STR_2-__stringbase)& (0+255)
  5300  0603  160A  118A  26DF  120A  118A  	fcall	_printf
  5301                           
  5302                           ;main.c: 48: return (x-a)/(b-a);
  5303  0608  1283               	bcf	3,5	;RP0=0, select bank0
  5304  0609  1303               	bcf	3,6	;RP1=0, select bank0
  5305  060A  083D               	movf	trapezoidal@b,w
  5306  060B  00F8               	movwf	___ftadd@f1
  5307  060C  083E               	movf	trapezoidal@b+1,w
  5308  060D  00F9               	movwf	___ftadd@f1+1
  5309  060E  083F               	movf	trapezoidal@b+2,w
  5310  060F  00FA               	movwf	___ftadd@f1+2
  5311  0610  083A               	movf	trapezoidal@a,w
  5312  0611  00F0               	movwf	___ftneg@f1
  5313  0612  083B               	movf	trapezoidal@a+1,w
  5314  0613  00F1               	movwf	___ftneg@f1+1
  5315  0614  083C               	movf	trapezoidal@a+2,w
  5316  0615  00F2               	movwf	___ftneg@f1+2
  5317  0616  160A  118A  265F  120A  118A  	fcall	___ftneg
  5318  061B  0870               	movf	?___ftneg,w
  5319  061C  00FB               	movwf	___ftadd@f2
  5320  061D  0871               	movf	?___ftneg+1,w
  5321  061E  00FC               	movwf	___ftadd@f2+1
  5322  061F  0872               	movf	?___ftneg+2,w
  5323  0620  00FD               	movwf	___ftadd@f2+2
  5324  0621  120A  158A  25BC  120A  118A  	fcall	___ftadd
  5325  0626  0878               	movf	?___ftadd,w
  5326  0627  1283               	bcf	3,5	;RP0=0, select bank0
  5327  0628  1303               	bcf	3,6	;RP1=0, select bank0
  5328  0629  00A7               	movwf	___ftdiv@f2
  5329  062A  0879               	movf	?___ftadd+1,w
  5330  062B  00A8               	movwf	___ftdiv@f2+1
  5331  062C  087A               	movf	?___ftadd+2,w
  5332  062D  00A9               	movwf	___ftdiv@f2+2
  5333  062E  0837               	movf	trapezoidal@x,w
  5334  062F  00F8               	movwf	___ftadd@f1
  5335  0630  0838               	movf	trapezoidal@x+1,w
  5336  0631  00F9               	movwf	___ftadd@f1+1
  5337  0632  0839               	movf	trapezoidal@x+2,w
  5338  0633  00FA               	movwf	___ftadd@f1+2
  5339  0634  083A               	movf	trapezoidal@a,w
  5340  0635  00F0               	movwf	___ftneg@f1
  5341  0636  083B               	movf	trapezoidal@a+1,w
  5342  0637  00F1               	movwf	___ftneg@f1+1
  5343  0638  083C               	movf	trapezoidal@a+2,w
  5344  0639  00F2               	movwf	___ftneg@f1+2
  5345  063A  160A  118A  265F  120A  118A  	fcall	___ftneg
  5346  063F  0870               	movf	?___ftneg,w
  5347  0640  00FB               	movwf	___ftadd@f2
  5348  0641  0871               	movf	?___ftneg+1,w
  5349  0642  00FC               	movwf	___ftadd@f2+1
  5350  0643  0872               	movf	?___ftneg+2,w
  5351  0644  00FD               	movwf	___ftadd@f2+2
  5352  0645  120A  158A  25BC  120A  118A  	fcall	___ftadd
  5353  064A  0878               	movf	?___ftadd,w
  5354  064B  1283               	bcf	3,5	;RP0=0, select bank0
  5355  064C  1303               	bcf	3,6	;RP1=0, select bank0
  5356  064D  00AA               	movwf	___ftdiv@f1
  5357  064E  0879               	movf	?___ftadd+1,w
  5358  064F  00AB               	movwf	___ftdiv@f1+1
  5359  0650  087A               	movf	?___ftadd+2,w
  5360  0651  00AC               	movwf	___ftdiv@f1+2
  5361  0652  120A  118A  273D   	fcall	___ftdiv
  5362  0655  1283               	bcf	3,5	;RP0=0, select bank0
  5363  0656  1303               	bcf	3,6	;RP1=0, select bank0
  5364  0657  0827               	movf	?___ftdiv,w
  5365  0658  00B7               	movwf	?_trapezoidal
  5366  0659  0828               	movf	?___ftdiv+1,w
  5367  065A  00B8               	movwf	?_trapezoidal+1
  5368  065B  0829               	movf	?___ftdiv+2,w
  5369  065C  00B9               	movwf	?_trapezoidal+2
  5370  065D  0008               	return
  5371  065E                     i1l4867:	
  5372                           
  5373                           ;main.c: 49: }
  5374                           ;main.c: 50: if (b < x && x <= c){
  5375  065E  1283               	bcf	3,5	;RP0=0, select bank0
  5376  065F  1303               	bcf	3,6	;RP1=0, select bank0
  5377  0660  083D               	movf	trapezoidal@b,w
  5378  0661  00F0               	movwf	___ftge@ff1
  5379  0662  083E               	movf	trapezoidal@b+1,w
  5380  0663  00F1               	movwf	___ftge@ff1+1
  5381  0664  083F               	movf	trapezoidal@b+2,w
  5382  0665  00F2               	movwf	___ftge@ff1+2
  5383  0666  0837               	movf	trapezoidal@x,w
  5384  0667  00F3               	movwf	___ftge@ff2
  5385  0668  0838               	movf	trapezoidal@x+1,w
  5386  0669  00F4               	movwf	___ftge@ff2+1
  5387  066A  0839               	movf	trapezoidal@x+2,w
  5388  066B  00F5               	movwf	___ftge@ff2+2
  5389  066C  120A  158A  2226  120A  118A  	fcall	___ftge
  5390  0671  1803               	btfsc	3,0
  5391  0672  2E95               	goto	i1l4877
  5392  0673  1283               	bcf	3,5	;RP0=0, select bank0
  5393  0674  1303               	bcf	3,6	;RP1=0, select bank0
  5394  0675  0840               	movf	trapezoidal@c,w
  5395  0676  00F0               	movwf	___ftge@ff1
  5396  0677  0841               	movf	trapezoidal@c+1,w
  5397  0678  00F1               	movwf	___ftge@ff1+1
  5398  0679  0842               	movf	trapezoidal@c+2,w
  5399  067A  00F2               	movwf	___ftge@ff1+2
  5400  067B  0837               	movf	trapezoidal@x,w
  5401  067C  00F3               	movwf	___ftge@ff2
  5402  067D  0838               	movf	trapezoidal@x+1,w
  5403  067E  00F4               	movwf	___ftge@ff2+1
  5404  067F  0839               	movf	trapezoidal@x+2,w
  5405  0680  00F5               	movwf	___ftge@ff2+2
  5406  0681  120A  158A  2226  120A  118A  	fcall	___ftge
  5407  0686  1C03               	btfss	3,0
  5408  0687  2E95               	goto	i1l4877
  5409                           
  5410                           ;main.c: 51: printf("3");
  5411  0688  3073               	movlw	(STR_3-__stringbase)& (0+255)
  5412  0689  160A  118A  26DF   	fcall	_printf
  5413                           
  5414                           ;main.c: 52: return 1.0f;
  5415  068C  3000               	movlw	0
  5416  068D  1283               	bcf	3,5	;RP0=0, select bank0
  5417  068E  1303               	bcf	3,6	;RP1=0, select bank0
  5418  068F  00B7               	movwf	?_trapezoidal
  5419  0690  3080               	movlw	128
  5420  0691  00B8               	movwf	?_trapezoidal+1
  5421  0692  303F               	movlw	63
  5422  0693  00B9               	movwf	?_trapezoidal+2
  5423  0694  0008               	return
  5424  0695                     i1l4877:	
  5425                           
  5426                           ;main.c: 53: }
  5427                           ;main.c: 54: if (c < x && x <= d){
  5428  0695  1283               	bcf	3,5	;RP0=0, select bank0
  5429  0696  1303               	bcf	3,6	;RP1=0, select bank0
  5430  0697  0840               	movf	trapezoidal@c,w
  5431  0698  00F0               	movwf	___ftge@ff1
  5432  0699  0841               	movf	trapezoidal@c+1,w
  5433  069A  00F1               	movwf	___ftge@ff1+1
  5434  069B  0842               	movf	trapezoidal@c+2,w
  5435  069C  00F2               	movwf	___ftge@ff1+2
  5436  069D  0837               	movf	trapezoidal@x,w
  5437  069E  00F3               	movwf	___ftge@ff2
  5438  069F  0838               	movf	trapezoidal@x+1,w
  5439  06A0  00F4               	movwf	___ftge@ff2+1
  5440  06A1  0839               	movf	trapezoidal@x+2,w
  5441  06A2  00F5               	movwf	___ftge@ff2+2
  5442  06A3  120A  158A  2226  120A  118A  	fcall	___ftge
  5443  06A8  1803               	btfsc	3,0
  5444  06A9  2F1B               	goto	i1l4887
  5445  06AA  1283               	bcf	3,5	;RP0=0, select bank0
  5446  06AB  1303               	bcf	3,6	;RP1=0, select bank0
  5447  06AC  0843               	movf	trapezoidal@d,w
  5448  06AD  00F0               	movwf	___ftge@ff1
  5449  06AE  0844               	movf	trapezoidal@d+1,w
  5450  06AF  00F1               	movwf	___ftge@ff1+1
  5451  06B0  0845               	movf	trapezoidal@d+2,w
  5452  06B1  00F2               	movwf	___ftge@ff1+2
  5453  06B2  0837               	movf	trapezoidal@x,w
  5454  06B3  00F3               	movwf	___ftge@ff2
  5455  06B4  0838               	movf	trapezoidal@x+1,w
  5456  06B5  00F4               	movwf	___ftge@ff2+1
  5457  06B6  0839               	movf	trapezoidal@x+2,w
  5458  06B7  00F5               	movwf	___ftge@ff2+2
  5459  06B8  120A  158A  2226  120A  118A  	fcall	___ftge
  5460  06BD  1C03               	btfss	3,0
  5461  06BE  2F1B               	goto	i1l4887
  5462                           
  5463                           ;main.c: 55: printf("4");
  5464  06BF  3075               	movlw	(STR_4-__stringbase)& (0+255)
  5465  06C0  160A  118A  26DF  120A  118A  	fcall	_printf
  5466                           
  5467                           ;main.c: 56: return ((d-x)/(d-c));
  5468  06C5  1283               	bcf	3,5	;RP0=0, select bank0
  5469  06C6  1303               	bcf	3,6	;RP1=0, select bank0
  5470  06C7  0843               	movf	trapezoidal@d,w
  5471  06C8  00F8               	movwf	___ftadd@f1
  5472  06C9  0844               	movf	trapezoidal@d+1,w
  5473  06CA  00F9               	movwf	___ftadd@f1+1
  5474  06CB  0845               	movf	trapezoidal@d+2,w
  5475  06CC  00FA               	movwf	___ftadd@f1+2
  5476  06CD  0840               	movf	trapezoidal@c,w
  5477  06CE  00F0               	movwf	___ftneg@f1
  5478  06CF  0841               	movf	trapezoidal@c+1,w
  5479  06D0  00F1               	movwf	___ftneg@f1+1
  5480  06D1  0842               	movf	trapezoidal@c+2,w
  5481  06D2  00F2               	movwf	___ftneg@f1+2
  5482  06D3  160A  118A  265F  120A  118A  	fcall	___ftneg
  5483  06D8  0870               	movf	?___ftneg,w
  5484  06D9  00FB               	movwf	___ftadd@f2
  5485  06DA  0871               	movf	?___ftneg+1,w
  5486  06DB  00FC               	movwf	___ftadd@f2+1
  5487  06DC  0872               	movf	?___ftneg+2,w
  5488  06DD  00FD               	movwf	___ftadd@f2+2
  5489  06DE  120A  158A  25BC  120A  118A  	fcall	___ftadd
  5490  06E3  0878               	movf	?___ftadd,w
  5491  06E4  1283               	bcf	3,5	;RP0=0, select bank0
  5492  06E5  1303               	bcf	3,6	;RP1=0, select bank0
  5493  06E6  00A7               	movwf	___ftdiv@f2
  5494  06E7  0879               	movf	?___ftadd+1,w
  5495  06E8  00A8               	movwf	___ftdiv@f2+1
  5496  06E9  087A               	movf	?___ftadd+2,w
  5497  06EA  00A9               	movwf	___ftdiv@f2+2
  5498  06EB  0843               	movf	trapezoidal@d,w
  5499  06EC  00F8               	movwf	___ftadd@f1
  5500  06ED  0844               	movf	trapezoidal@d+1,w
  5501  06EE  00F9               	movwf	___ftadd@f1+1
  5502  06EF  0845               	movf	trapezoidal@d+2,w
  5503  06F0  00FA               	movwf	___ftadd@f1+2
  5504  06F1  0837               	movf	trapezoidal@x,w
  5505  06F2  00F0               	movwf	___ftneg@f1
  5506  06F3  0838               	movf	trapezoidal@x+1,w
  5507  06F4  00F1               	movwf	___ftneg@f1+1
  5508  06F5  0839               	movf	trapezoidal@x+2,w
  5509  06F6  00F2               	movwf	___ftneg@f1+2
  5510  06F7  160A  118A  265F  120A  118A  	fcall	___ftneg
  5511  06FC  0870               	movf	?___ftneg,w
  5512  06FD  00FB               	movwf	___ftadd@f2
  5513  06FE  0871               	movf	?___ftneg+1,w
  5514  06FF  00FC               	movwf	___ftadd@f2+1
  5515  0700  0872               	movf	?___ftneg+2,w
  5516  0701  00FD               	movwf	___ftadd@f2+2
  5517  0702  120A  158A  25BC  120A  118A  	fcall	___ftadd
  5518  0707  0878               	movf	?___ftadd,w
  5519  0708  1283               	bcf	3,5	;RP0=0, select bank0
  5520  0709  1303               	bcf	3,6	;RP1=0, select bank0
  5521  070A  00AA               	movwf	___ftdiv@f1
  5522  070B  0879               	movf	?___ftadd+1,w
  5523  070C  00AB               	movwf	___ftdiv@f1+1
  5524  070D  087A               	movf	?___ftadd+2,w
  5525  070E  00AC               	movwf	___ftdiv@f1+2
  5526  070F  120A  118A  273D   	fcall	___ftdiv
  5527  0712  1283               	bcf	3,5	;RP0=0, select bank0
  5528  0713  1303               	bcf	3,6	;RP1=0, select bank0
  5529  0714  0827               	movf	?___ftdiv,w
  5530  0715  00B7               	movwf	?_trapezoidal
  5531  0716  0828               	movf	?___ftdiv+1,w
  5532  0717  00B8               	movwf	?_trapezoidal+1
  5533  0718  0829               	movf	?___ftdiv+2,w
  5534  0719  00B9               	movwf	?_trapezoidal+2
  5535  071A  0008               	return
  5536  071B                     i1l4887:	
  5537                           
  5538                           ;main.c: 57: }
  5539                           ;main.c: 58: if (x > d){
  5540  071B  1283               	bcf	3,5	;RP0=0, select bank0
  5541  071C  1303               	bcf	3,6	;RP1=0, select bank0
  5542  071D  0843               	movf	trapezoidal@d,w
  5543  071E  00F0               	movwf	___ftge@ff1
  5544  071F  0844               	movf	trapezoidal@d+1,w
  5545  0720  00F1               	movwf	___ftge@ff1+1
  5546  0721  0845               	movf	trapezoidal@d+2,w
  5547  0722  00F2               	movwf	___ftge@ff1+2
  5548  0723  0837               	movf	trapezoidal@x,w
  5549  0724  00F3               	movwf	___ftge@ff2
  5550  0725  0838               	movf	trapezoidal@x+1,w
  5551  0726  00F4               	movwf	___ftge@ff2+1
  5552  0727  0839               	movf	trapezoidal@x+2,w
  5553  0728  00F5               	movwf	___ftge@ff2+2
  5554  0729  120A  158A  2226  120A  118A  	fcall	___ftge
  5555  072E  1803               	btfsc	3,0
  5556  072F  0008               	return
  5557                           
  5558                           ;main.c: 59: printf("5");
  5559  0730  3077               	movlw	(STR_5-__stringbase)& (0+255)
  5560  0731  160A  118A  26DF   	fcall	_printf
  5561                           
  5562                           ;main.c: 60: return 0.0f;
  5563  0734  3000               	movlw	0
  5564  0735  1283               	bcf	3,5	;RP0=0, select bank0
  5565  0736  1303               	bcf	3,6	;RP1=0, select bank0
  5566  0737  00B7               	movwf	?_trapezoidal
  5567  0738  3000               	movlw	0
  5568  0739  00B8               	movwf	?_trapezoidal+1
  5569  073A  3000               	movlw	0
  5570  073B  00B9               	movwf	?_trapezoidal+2
  5571  073C  0008               	return
  5572  073D                     __end_of_trapezoidal:	
  5573                           
  5574                           	psect	text28
  5575  16DF                     __ptext28:	
  5576 ;; *************** function _printf *****************
  5577 ;; Defined at:
  5578 ;;		line 13 in file "C:\Program Files (x86)\Microchip\xc8\v1.33\sources\common\printf.c"
  5579 ;; Parameters:    Size  Location     Type
  5580 ;;  f               1    wreg     PTR const unsigned char 
  5581 ;;		 -> STR_5(2), STR_4(2), STR_3(2), STR_2(2), 
  5582 ;;		 -> STR_1(2), 
  5583 ;; Auto vars:     Size  Location     Type
  5584 ;;  f               1   17[BANK0 ] PTR const unsigned char 
  5585 ;;		 -> STR_5(2), STR_4(2), STR_3(2), STR_2(2), 
  5586 ;;		 -> STR_1(2), 
  5587 ;;  pb              2   19[BANK0 ] struct __prbuf
  5588 ;;  ap              1   18[BANK0 ] PTR void [1]
  5589 ;;		 -> ?_sprintf(2), ?_printf(2), 
  5590 ;; Return value:  Size  Location     Type
  5591 ;;                  2    2[COMMON] int 
  5592 ;; Registers used:
  5593 ;;		wreg, fsr0l, fsr0h, status,2, status,0, btemp+1, pclath, cstack
  5594 ;; Tracked objects:
  5595 ;;		On entry : 0/0
  5596 ;;		On exit  : 0/0
  5597 ;;		Unchanged: 0/0
  5598 ;; Data sizes:     COMMON   BANK0   BANK1   BANK3   BANK2
  5599 ;;      Params:         0       0       0       0       0
  5600 ;;      Locals:         0       4       0       0       0
  5601 ;;      Temps:          0       2       0       0       0
  5602 ;;      Totals:         0       6       0       0       0
  5603 ;;Total ram usage:        6 bytes
  5604 ;; Hardware stack levels used:    1
  5605 ;; Hardware stack levels required when called:    2
  5606 ;; This function calls:
  5607 ;;		i1__doprnt
  5608 ;; This function is called by:
  5609 ;;		_trapezoidal
  5610 ;; This function uses a non-reentrant model
  5611 ;;
  5612                           
  5613                           
  5614                           ;psect for function _printf
  5615  16DF                     _printf:	
  5616                           
  5617                           ;incstack = 0
  5618                           ; Regs used in _printf: [wreg-fsr0h+status,2+status,0+btemp+1+pclath+cstack]
  5619                           ;printf@f stored from wreg
  5620  16DF  1283               	bcf	3,5	;RP0=0, select bank0
  5621  16E0  1303               	bcf	3,6	;RP1=0, select bank0
  5622  16E1  00B1               	movwf	printf@f
  5623  16E2  01B3               	clrf	printf@pb
  5624  16E3  3001               	movlw	(fp_i1_putch-i1fpbase)& (0+255)
  5625  16E4  00AF               	movwf	??_printf
  5626  16E5  082F               	movf	??_printf,w
  5627  16E6  00B4               	movwf	printf@pb+1
  5628  16E7  3070               	movlw	?_printf& (0+255)
  5629  16E8  00AF               	movwf	??_printf
  5630  16E9  082F               	movf	??_printf,w
  5631  16EA  00B2               	movwf	printf@ap
  5632                           
  5633                           ;	Return value of _printf is never used
  5634  16EB  0831               	movf	printf@f,w
  5635  16EC  00AF               	movwf	??_printf
  5636  16ED  082F               	movf	??_printf,w
  5637  16EE  00A0               	movwf	i1__doprnt@f
  5638  16EF  3032               	movlw	printf@ap& (0+255)
  5639  16F0  00B0               	movwf	??_printf+1
  5640  16F1  0830               	movf	??_printf+1,w
  5641  16F2  00A1               	movwf	i1__doprnt@ap
  5642  16F3  3033               	movlw	printf@pb& (0+255)
  5643  16F4  120A  118A  2365   	fcall	i1__doprnt
  5644  16F7  0008               	return
  5645  16F8                     __end_of_printf:	
  5646                           
  5647                           	psect	text29
  5648  0365                     __ptext29:	
  5649 ;; *************** function i1__doprnt *****************
  5650 ;; Defined at:
  5651 ;;		line 458 in file "C:\Program Files (x86)\Microchip\xc8\v1.33\sources\common\doprnt.c"
  5652 ;; Parameters:    Size  Location     Type
  5653 ;;  pb              1    wreg     PTR struct __prbuf
  5654 ;;		 -> sprintf@pb(2), printf@pb(2), 
  5655 ;;  f               1    0[BANK0 ] PTR const unsigned char 
  5656 ;;		 -> STR_8(5), STR_5(2), STR_4(2), STR_3(2), 
  5657 ;;		 -> STR_2(2), STR_1(2), 
  5658 ;;  ap              1    1[BANK0 ] PTR PTR void 
  5659 ;;		 -> sprintf@ap(1), printf@ap(1), 
  5660 ;; Auto vars:     Size  Location     Type
  5661 ;;  pb              1   14[BANK0 ] PTR struct __prbuf
  5662 ;;		 -> sprintf@pb(2), printf@pb(2), 
  5663 ;;  _doprnt         4    6[BANK0 ] struct .
  5664 ;;  _doprnt         2   11[BANK0 ] int 
  5665 ;;  _doprnt         1   13[BANK0 ] char 
  5666 ;;  _doprnt         1   10[BANK0 ] unsigned char 
  5667 ;;  _doprnt         1    5[BANK0 ] char 
  5668 ;; Return value:  Size  Location     Type
  5669 ;;                  2    0[BANK0 ] int 
  5670 ;; Registers used:
  5671 ;;		wreg, fsr0l, fsr0h, status,2, status,0, btemp+1, pclath, cstack
  5672 ;; Tracked objects:
  5673 ;;		On entry : 0/0
  5674 ;;		On exit  : 0/0
  5675 ;;		Unchanged: 0/0
  5676 ;; Data sizes:     COMMON   BANK0   BANK1   BANK3   BANK2
  5677 ;;      Params:         0       2       0       0       0
  5678 ;;      Locals:         0      10       0       0       0
  5679 ;;      Temps:          0       3       0       0       0
  5680 ;;      Totals:         0      15       0       0       0
  5681 ;;Total ram usage:       15 bytes
  5682 ;; Hardware stack levels used:    1
  5683 ;; Hardware stack levels required when called:    1
  5684 ;; This function calls:
  5685 ;;		Absolute function
  5686 ;;		i1___lwdiv
  5687 ;;		i1___lwmod
  5688 ;;		i1___wmul
  5689 ;;		i1_isdigit
  5690 ;;		i1_putch
  5691 ;; This function is called by:
  5692 ;;		_printf
  5693 ;; This function uses a non-reentrant model
  5694 ;;
  5695                           
  5696                           
  5697                           ;psect for function i1__doprnt
  5698  0365                     i1__doprnt:	
  5699                           
  5700                           ;incstack = 0
  5701 ;; using string table level
  5702                           ; Regs used in i1__doprnt: [wreg-fsr0h+status,2+status,0+btemp+1+pclath+cstack]
  5703                           ;i1__doprnt@pb stored from wreg
  5704  0365  1283               	bcf	3,5	;RP0=0, select bank0
  5705  0366  1303               	bcf	3,6	;RP1=0, select bank0
  5706  0367  00AE               	movwf	i1__doprnt@pb
  5707  0368                     i1l4701:	
  5708                           ;doprnt.c: 499: signed char c;
  5709                           ;doprnt.c: 501: int width;
  5710                           ;doprnt.c: 506: signed char prec;
  5711                           ;doprnt.c: 508: unsigned char flag;
  5712                           ;doprnt.c: 527: union {
  5713                           ;doprnt.c: 528: unsigned int _val;
  5714                           ;doprnt.c: 529: struct {
  5715                           ;doprnt.c: 530: const char * _cp;
  5716                           ;doprnt.c: 531: unsigned _len;
  5717                           ;doprnt.c: 532: } _str;
  5718                           ;doprnt.c: 533: } _val;
  5719                           ;doprnt.c: 545: while(c = *f++) {
  5720                           
  5721  0368  3001               	movlw	1
  5722  0369  1283               	bcf	3,5	;RP0=0, select bank0
  5723  036A  1303               	bcf	3,6	;RP1=0, select bank0
  5724  036B  07A0               	addwf	i1__doprnt@f,f
  5725  036C  30FF               	movlw	-1
  5726  036D  0720               	addwf	i1__doprnt@f,w
  5727  036E  0084               	movwf	4
  5728  036F  120A  158A  200A  120A  118A  	fcall	stringdir
  5729  0374  00A2               	movwf	??i1__doprnt
  5730  0375  0822               	movf	??i1__doprnt,w
  5731  0376  00AD               	movwf	i1__doprnt@c
  5732  0377  08AD               	movf	i1__doprnt@c,f
  5733  0378  1903               	btfsc	3,2
  5734  0379  2DB1               	goto	i1l4703
  5735                           
  5736                           ;doprnt.c: 547: if(c != '%')
  5737  037A  082D               	movf	i1__doprnt@c,w
  5738  037B  3A25               	xorlw	37
  5739  037C  1903               	skipnz
  5740  037D  2BA3               	goto	i1l4587
  5741                           
  5742                           ;doprnt.c: 549: {
  5743                           ;doprnt.c: 550: if(pb->func) (pb->func(c)); else ((*pb->ptr++ = c));
  5744  037E  0A2E               	incf	i1__doprnt@pb,w
  5745  037F  0084               	movwf	4
  5746  0380  1383               	bcf	3,7	;select IRP bank0
  5747  0381  0880               	movf	0,f
  5748  0382  1903               	skipnz
  5749  0383  2B91               	goto	i1l4583
  5750  0384  082D               	movf	i1__doprnt@c,w
  5751  0385  00A2               	movwf	??i1__doprnt
  5752  0386  0822               	movf	??i1__doprnt,w
  5753  0387  00F0               	movwf	i1putch@c
  5754  0388  0A2E               	incf	i1__doprnt@pb,w
  5755  0389  0084               	movwf	4
  5756  038A  0800               	movf	0,w
  5757  038B  120A  118A  2109  120A  118A  	fcall	i1fptable
  5758  0390  2B68               	goto	i1l4701
  5759  0391                     i1l4583:	
  5760  0391  1283               	bcf	3,5	;RP0=0, select bank0
  5761  0392  1303               	bcf	3,6	;RP1=0, select bank0
  5762  0393  082D               	movf	i1__doprnt@c,w
  5763  0394  00A2               	movwf	??i1__doprnt
  5764  0395  082E               	movf	i1__doprnt@pb,w
  5765  0396  0084               	movwf	4
  5766  0397  1383               	bcf	3,7	;select IRP bank0
  5767  0398  0800               	movf	0,w
  5768  0399  0084               	movwf	4
  5769  039A  0822               	movf	??i1__doprnt,w
  5770  039B  0080               	movwf	0
  5771  039C  3001               	movlw	1
  5772  039D  00A2               	movwf	??i1__doprnt
  5773  039E  082E               	movf	i1__doprnt@pb,w
  5774  039F  0084               	movwf	4
  5775  03A0  0822               	movf	??i1__doprnt,w
  5776  03A1  0780               	addwf	0,f
  5777                           
  5778                           ;doprnt.c: 551: continue;
  5779  03A2  2B68               	goto	i1l4701
  5780  03A3                     i1l4587:	
  5781                           
  5782                           ;doprnt.c: 552: }
  5783                           ;doprnt.c: 555: width = 0;
  5784  03A3  01AB               	clrf	i1__doprnt@width
  5785  03A4  01AC               	clrf	i1__doprnt@width+1
  5786                           
  5787                           ;doprnt.c: 557: flag = 0;
  5788  03A5  01AA               	clrf	i1__doprnt@flag
  5789                           
  5790                           ;doprnt.c: 560: switch(*f) {
  5791                           
  5792                           ;doprnt.c: 559: for(;;) {
  5793  03A6  2BAC               	goto	i1l4593
  5794  03A7                     i1l387:	
  5795                           ;doprnt.c: 588: case '0':
  5796                           
  5797                           
  5798                           ;doprnt.c: 589: flag |= 0x04;
  5799  03A7  152A               	bsf	i1__doprnt@flag,2
  5800                           
  5801                           ;doprnt.c: 590: f++;
  5802  03A8  3001               	movlw	1
  5803  03A9  00A2               	movwf	??i1__doprnt
  5804  03AA  0822               	movf	??i1__doprnt,w
  5805  03AB  07A0               	addwf	i1__doprnt@f,f
  5806  03AC                     i1l4593:	
  5807                           ;doprnt.c: 593: }
  5808                           
  5809                           ;doprnt.c: 591: continue;
  5810                           
  5811  03AC  0820               	movf	i1__doprnt@f,w
  5812  03AD  0084               	movwf	4
  5813  03AE  120A  158A  200A  120A  118A  	fcall	stringdir
  5814                           
  5815                           ; Switch size 1, requested type "space"
  5816                           ; Number of cases is 1, Range of values is 48 to 48
  5817                           ; switch strategies available:
  5818                           ; Name         Instructions Cycles
  5819                           ; simple_byte            4     3 (average)
  5820                           ; direct_byte           14    11 (fixed)
  5821                           ; jumptable            263     9 (fixed)
  5822                           ;	Chosen strategy is simple_byte
  5823  03B3  3A30               	xorlw	48	; case 48
  5824  03B4  1903               	skipnz
  5825  03B5  2BA7               	goto	i1l387
  5826  03B6  2BB7               	goto	i1l4595
  5827  03B7                     i1l4595:	
  5828                           ;doprnt.c: 595: }
  5829                           
  5830                           ;doprnt.c: 594: break;
  5831                           
  5832                           
  5833                           ;doprnt.c: 606: if(isdigit((unsigned)*f)) {
  5834  03B7  0820               	movf	i1__doprnt@f,w
  5835  03B8  0084               	movwf	4
  5836  03B9  120A  158A  200A  120A  118A  	fcall	stringdir
  5837  03BE  160A  118A  2684  120A  118A  	fcall	i1_isdigit
  5838  03C3  1C03               	btfss	3,0
  5839  03C4  2C07               	goto	i1l4609
  5840                           
  5841                           ;doprnt.c: 607: width = 0;
  5842  03C5  1283               	bcf	3,5	;RP0=0, select bank0
  5843  03C6  1303               	bcf	3,6	;RP1=0, select bank0
  5844  03C7  01AB               	clrf	i1__doprnt@width
  5845  03C8  01AC               	clrf	i1__doprnt@width+1
  5846  03C9                     i1l4599:	
  5847                           ;doprnt.c: 608: do {
  5848                           
  5849                           
  5850                           ;doprnt.c: 609: width *= 10;
  5851  03C9  300A               	movlw	10
  5852  03CA  00F0               	movwf	i1___wmul@multiplier
  5853  03CB  3000               	movlw	0
  5854  03CC  00F1               	movwf	i1___wmul@multiplier+1
  5855  03CD  1283               	bcf	3,5	;RP0=0, select bank0
  5856  03CE  1303               	bcf	3,6	;RP1=0, select bank0
  5857  03CF  082C               	movf	i1__doprnt@width+1,w
  5858  03D0  01F3               	clrf	i1___wmul@multiplicand+1
  5859  03D1  07F3               	addwf	i1___wmul@multiplicand+1,f
  5860  03D2  082B               	movf	i1__doprnt@width,w
  5861  03D3  01F2               	clrf	i1___wmul@multiplicand
  5862  03D4  07F2               	addwf	i1___wmul@multiplicand,f
  5863  03D5  160A  118A  2794  120A  118A  	fcall	i1___wmul
  5864  03DA  0871               	movf	?i1___wmul+1,w
  5865  03DB  1283               	bcf	3,5	;RP0=0, select bank0
  5866  03DC  1303               	bcf	3,6	;RP1=0, select bank0
  5867  03DD  01AC               	clrf	i1__doprnt@width+1
  5868  03DE  07AC               	addwf	i1__doprnt@width+1,f
  5869  03DF  0870               	movf	?i1___wmul,w
  5870  03E0  01AB               	clrf	i1__doprnt@width
  5871  03E1  07AB               	addwf	i1__doprnt@width,f
  5872                           
  5873                           ;doprnt.c: 610: width += *f++ - '0';
  5874  03E2  0820               	movf	i1__doprnt@f,w
  5875  03E3  0084               	movwf	4
  5876  03E4  120A  158A  200A  120A  118A  	fcall	stringdir
  5877  03E9  3ED0               	addlw	208
  5878  03EA  00A2               	movwf	??i1__doprnt
  5879  03EB  30FF               	movlw	255
  5880  03EC  1803               	skipnc
  5881  03ED  3000               	movlw	0
  5882  03EE  00A3               	movwf	??i1__doprnt+1
  5883  03EF  0822               	movf	??i1__doprnt,w
  5884  03F0  07AB               	addwf	i1__doprnt@width,f
  5885  03F1  1803               	skipnc
  5886  03F2  0AAC               	incf	i1__doprnt@width+1,f
  5887  03F3  0823               	movf	??i1__doprnt+1,w
  5888  03F4  07AC               	addwf	i1__doprnt@width+1,f
  5889  03F5  3001               	movlw	1
  5890  03F6  00A2               	movwf	??i1__doprnt
  5891  03F7  0822               	movf	??i1__doprnt,w
  5892  03F8  07A0               	addwf	i1__doprnt@f,f
  5893                           
  5894                           ;doprnt.c: 611: } while(isdigit((unsigned)*f));
  5895  03F9  0820               	movf	i1__doprnt@f,w
  5896  03FA  0084               	movwf	4
  5897  03FB  120A  158A  200A  120A  118A  	fcall	stringdir
  5898  0400  160A  118A  2684  120A  118A  	fcall	i1_isdigit
  5899  0405  1803               	btfsc	3,0
  5900  0406  2BC9               	goto	i1l4599
  5901  0407                     i1l4609:	
  5902                           ;doprnt.c: 831: }
  5903                           
  5904                           ;doprnt.c: 822: continue;
  5905                           
  5906                           ;doprnt.c: 811: default:
  5907                           
  5908                           ;doprnt.c: 707: case 'i':
  5909                           ;doprnt.c: 708: break;
  5910                           
  5911                           ;doprnt.c: 706: case 'd':
  5912                           
  5913                           ;doprnt.c: 647: goto alldone;
  5914                           
  5915                           ;doprnt.c: 646: case 0:
  5916                           
  5917                           ;doprnt.c: 617: }
  5918                           ;doprnt.c: 644: switch(c = *f++) {
  5919                           
  5920  0407  3001               	movlw	1
  5921  0408  1283               	bcf	3,5	;RP0=0, select bank0
  5922  0409  1303               	bcf	3,6	;RP1=0, select bank0
  5923  040A  07A0               	addwf	i1__doprnt@f,f
  5924  040B  30FF               	movlw	-1
  5925  040C  0720               	addwf	i1__doprnt@f,w
  5926  040D  0084               	movwf	4
  5927  040E  120A  158A  200A  120A  118A  	fcall	stringdir
  5928  0413  00AD               	movwf	i1__doprnt@c
  5929                           
  5930                           ; Switch size 1, requested type "space"
  5931                           ; Number of cases is 3, Range of values is 0 to 105
  5932                           ; switch strategies available:
  5933                           ; Name         Instructions Cycles
  5934                           ; simple_byte           10     6 (average)
  5935                           ; jumptable            260     6 (fixed)
  5936                           ;	Chosen strategy is simple_byte
  5937  0414  3A00               	xorlw	0	; case 0
  5938  0415  1903               	skipnz
  5939  0416  2DB1               	goto	i1l4703
  5940  0417  3A64               	xorlw	100	; case 100
  5941  0418  1903               	skipnz
  5942  0419  2C1E               	goto	i1l4611
  5943  041A  3A0D               	xorlw	13	; case 105
  5944  041B  1903               	skipnz
  5945  041C  2C1E               	goto	i1l4611
  5946  041D  2B68               	goto	i1l4701
  5947  041E                     i1l4611:	
  5948                           
  5949                           ;doprnt.c: 1262: {
  5950                           ;doprnt.c: 1268: _val._val = (int)(*(int *)__va_arg((*(int **)ap), (int)0));
  5951  041E  1283               	bcf	3,5	;RP0=0, select bank0
  5952  041F  1303               	bcf	3,6	;RP1=0, select bank0
  5953  0420  0821               	movf	i1__doprnt@ap,w
  5954  0421  0084               	movwf	4
  5955  0422  1383               	bcf	3,7	;select IRP bank0
  5956  0423  0800               	movf	0,w
  5957  0424  00A2               	movwf	??i1__doprnt
  5958  0425  3002               	movlw	2
  5959  0426  0780               	addwf	0,f
  5960  0427  0822               	movf	??i1__doprnt,w
  5961  0428  0084               	movwf	4
  5962  0429  0800               	movf	0,w
  5963  042A  00A6               	movwf	i1__doprnt@_val
  5964  042B  0A84               	incf	4,f
  5965  042C  0800               	movf	0,w
  5966  042D  00A7               	movwf	i1__doprnt@_val+1
  5967                           
  5968                           ;doprnt.c: 1270: if((int)_val._val < 0) {
  5969  042E  1FA7               	btfss	i1__doprnt@_val+1,7
  5970  042F  2C39               	goto	i1l4619
  5971                           
  5972                           ;doprnt.c: 1271: flag |= 0x03;
  5973  0430  3003               	movlw	3
  5974  0431  00A2               	movwf	??i1__doprnt
  5975  0432  0822               	movf	??i1__doprnt,w
  5976  0433  04AA               	iorwf	i1__doprnt@flag,f
  5977                           
  5978                           ;doprnt.c: 1272: _val._val = -_val._val;
  5979  0434  09A6               	comf	i1__doprnt@_val,f
  5980  0435  09A7               	comf	i1__doprnt@_val+1,f
  5981  0436  0AA6               	incf	i1__doprnt@_val,f
  5982  0437  1903               	skipnz
  5983  0438  0AA7               	incf	i1__doprnt@_val+1,f
  5984  0439                     i1l4619:	
  5985                           
  5986                           ;doprnt.c: 1273: }
  5987                           ;doprnt.c: 1275: }
  5988                           ;doprnt.c: 1314: for(c = 1 ; c != sizeof dpowers/sizeof dpowers[0] ; c++)
  5989  0439  01AD               	clrf	i1__doprnt@c
  5990  043A  0AAD               	incf	i1__doprnt@c,f
  5991  043B  082D               	movf	i1__doprnt@c,w
  5992  043C  3A05               	xorlw	5
  5993  043D  1903               	btfsc	3,2
  5994  043E  2C60               	goto	i1l4631
  5995  043F                     i1l4623:	
  5996                           
  5997                           ;doprnt.c: 1315: if(_val._val < dpowers[c])
  5998  043F  082D               	movf	i1__doprnt@c,w
  5999  0440  00A2               	movwf	??i1__doprnt
  6000  0441  0722               	addwf	??i1__doprnt,w
  6001  0442  3E01               	addlw	low (_dpowers-__stringbase)
  6002  0443  0084               	movwf	4
  6003  0444  120A  158A  200A  120A  118A  	fcall	stringdir
  6004  0449  00A3               	movwf	??i1__doprnt+1
  6005  044A  120A  158A  200A  120A  118A  	fcall	stringdir
  6006  044F  00A4               	movwf	??i1__doprnt+2
  6007  0450  0824               	movf	??i1__doprnt+2,w
  6008  0451  0227               	subwf	i1__doprnt@_val+1,w
  6009  0452  1D03               	skipz
  6010  0453  2C56               	goto	u610_25
  6011  0454  0823               	movf	??i1__doprnt+1,w
  6012  0455  0226               	subwf	i1__doprnt@_val,w
  6013  0456                     u610_25:	
  6014  0456  1C03               	btfss	3,0
  6015  0457  2C60               	goto	i1l4631
  6016                           
  6017                           ;doprnt.c: 1316: break;
  6018  0458  3001               	movlw	1
  6019  0459  00A2               	movwf	??i1__doprnt
  6020  045A  0822               	movf	??i1__doprnt,w
  6021  045B  07AD               	addwf	i1__doprnt@c,f
  6022  045C  082D               	movf	i1__doprnt@c,w
  6023  045D  3A05               	xorlw	5
  6024  045E  1D03               	skipz
  6025  045F  2C3F               	goto	i1l4623
  6026  0460                     i1l4631:	
  6027                           
  6028                           ;doprnt.c: 1354: if(width && flag & 0x03)
  6029  0460  082C               	movf	i1__doprnt@width+1,w
  6030  0461  042B               	iorwf	i1__doprnt@width,w
  6031  0462  1903               	skipnz
  6032  0463  2C6E               	goto	i1l405
  6033  0464  082A               	movf	i1__doprnt@flag,w
  6034  0465  3903               	andlw	3
  6035  0466  1903               	btfsc	3,2
  6036  0467  2C6E               	goto	i1l405
  6037                           
  6038                           ;doprnt.c: 1355: width--;
  6039  0468  30FF               	movlw	255
  6040  0469  07AB               	addwf	i1__doprnt@width,f
  6041  046A  1803               	skipnc
  6042  046B  0AAC               	incf	i1__doprnt@width+1,f
  6043  046C  30FF               	movlw	255
  6044  046D  07AC               	addwf	i1__doprnt@width+1,f
  6045  046E                     i1l405:	
  6046                           
  6047                           ;doprnt.c: 1390: if(width > c)
  6048  046E  082D               	movf	i1__doprnt@c,w
  6049  046F  00A2               	movwf	??i1__doprnt
  6050  0470  01A3               	clrf	??i1__doprnt+1
  6051  0471  1BA2               	btfsc	??i1__doprnt,7
  6052  0472  03A3               	decf	??i1__doprnt+1,f
  6053  0473  0823               	movf	??i1__doprnt+1,w
  6054  0474  3A80               	xorlw	128
  6055  0475  00A4               	movwf	??i1__doprnt+2
  6056  0476  082C               	movf	i1__doprnt@width+1,w
  6057  0477  3A80               	xorlw	128
  6058  0478  0224               	subwf	??i1__doprnt+2,w
  6059  0479  1D03               	skipz
  6060  047A  2C7D               	goto	u614_25
  6061  047B  082B               	movf	i1__doprnt@width,w
  6062  047C  0222               	subwf	??i1__doprnt,w
  6063  047D                     u614_25:	
  6064  047D  1803               	skipnc
  6065  047E  2C8D               	goto	i1l4639
  6066                           
  6067                           ;doprnt.c: 1391: width -= c;
  6068  047F  1283               	bcf	3,5	;RP0=0, select bank0
  6069  0480  1303               	bcf	3,6	;RP1=0, select bank0
  6070  0481  082D               	movf	i1__doprnt@c,w
  6071  0482  00A2               	movwf	??i1__doprnt
  6072  0483  01A3               	clrf	??i1__doprnt+1
  6073  0484  1BA2               	btfsc	??i1__doprnt,7
  6074  0485  03A3               	decf	??i1__doprnt+1,f
  6075  0486  0822               	movf	??i1__doprnt,w
  6076  0487  02AB               	subwf	i1__doprnt@width,f
  6077  0488  0823               	movf	??i1__doprnt+1,w
  6078  0489  1C03               	skipc
  6079  048A  03AC               	decf	i1__doprnt@width+1,f
  6080  048B  02AC               	subwf	i1__doprnt@width+1,f
  6081  048C  2C91               	goto	i1l4641
  6082  048D                     i1l4639:	
  6083                           
  6084                           ;doprnt.c: 1392: else
  6085                           ;doprnt.c: 1393: width = 0;
  6086  048D  1283               	bcf	3,5	;RP0=0, select bank0
  6087  048E  1303               	bcf	3,6	;RP1=0, select bank0
  6088  048F  01AB               	clrf	i1__doprnt@width
  6089  0490  01AC               	clrf	i1__doprnt@width+1
  6090  0491                     i1l4641:	
  6091                           
  6092                           ;doprnt.c: 1396: if(flag & 0x04) {
  6093  0491  1D2A               	btfss	i1__doprnt@flag,2
  6094  0492  2CEE               	goto	i1l4665
  6095                           
  6096                           ;doprnt.c: 1401: if(flag & 0x03)
  6097  0493  082A               	movf	i1__doprnt@flag,w
  6098  0494  3903               	andlw	3
  6099  0495  1903               	btfsc	3,2
  6100  0496  2CBB               	goto	i1l4653
  6101                           
  6102                           ;doprnt.c: 1402: if(pb->func) (pb->func('-')); else ((*pb->ptr++ = '-'));
  6103  0497  0A2E               	incf	i1__doprnt@pb,w
  6104  0498  0084               	movwf	4
  6105  0499  1383               	bcf	3,7	;select IRP bank0
  6106  049A  0880               	movf	0,f
  6107  049B  1903               	skipnz
  6108  049C  2CAA               	goto	i1l4649
  6109  049D  302D               	movlw	45
  6110  049E  00A2               	movwf	??i1__doprnt
  6111  049F  0822               	movf	??i1__doprnt,w
  6112  04A0  00F0               	movwf	i1putch@c
  6113  04A1  0A2E               	incf	i1__doprnt@pb,w
  6114  04A2  0084               	movwf	4
  6115  04A3  0800               	movf	0,w
  6116  04A4  120A  118A  2109  120A  118A  	fcall	i1fptable
  6117  04A9  2CBB               	goto	i1l4653
  6118  04AA                     i1l4649:	
  6119  04AA  302D               	movlw	45
  6120  04AB  1283               	bcf	3,5	;RP0=0, select bank0
  6121  04AC  1303               	bcf	3,6	;RP1=0, select bank0
  6122  04AD  00A2               	movwf	??i1__doprnt
  6123  04AE  082E               	movf	i1__doprnt@pb,w
  6124  04AF  0084               	movwf	4
  6125  04B0  1383               	bcf	3,7	;select IRP bank0
  6126  04B1  0800               	movf	0,w
  6127  04B2  0084               	movwf	4
  6128  04B3  0822               	movf	??i1__doprnt,w
  6129  04B4  0080               	movwf	0
  6130  04B5  3001               	movlw	1
  6131  04B6  00A2               	movwf	??i1__doprnt
  6132  04B7  082E               	movf	i1__doprnt@pb,w
  6133  04B8  0084               	movwf	4
  6134  04B9  0822               	movf	??i1__doprnt,w
  6135  04BA  0780               	addwf	0,f
  6136  04BB                     i1l4653:	
  6137                           
  6138                           ;doprnt.c: 1424: if(width)
  6139  04BB  1283               	bcf	3,5	;RP0=0, select bank0
  6140  04BC  1303               	bcf	3,6	;RP1=0, select bank0
  6141  04BD                     L5:	
  6142  04BD  082C               	movf	i1__doprnt@width+1,w
  6143  04BE  042B               	iorwf	i1__doprnt@width,w
  6144  04BF  1903               	skipnz
  6145  04C0  2D4A               	goto	i1l4687
  6146                           
  6147                           ;doprnt.c: 1426: if(pb->func) (pb->func('0')); else ((*pb->ptr++ = '0'));
  6148                           
  6149                           ;doprnt.c: 1425: do
  6150  04C1  0A2E               	incf	i1__doprnt@pb,w
  6151  04C2  0084               	movwf	4
  6152  04C3  1383               	bcf	3,7	;select IRP bank0
  6153  04C4  0880               	movf	0,f
  6154  04C5  1903               	skipnz
  6155  04C6  2CD4               	goto	i1l4659
  6156  04C7  3030               	movlw	48
  6157  04C8  00A2               	movwf	??i1__doprnt
  6158  04C9  0822               	movf	??i1__doprnt,w
  6159  04CA  00F0               	movwf	i1putch@c
  6160  04CB  0A2E               	incf	i1__doprnt@pb,w
  6161  04CC  0084               	movwf	4
  6162  04CD  0800               	movf	0,w
  6163  04CE  120A  118A  2109  120A  118A  	fcall	i1fptable
  6164  04D3  2CE5               	goto	i1l4663
  6165  04D4                     i1l4659:	
  6166  04D4  3030               	movlw	48
  6167  04D5  1283               	bcf	3,5	;RP0=0, select bank0
  6168  04D6  1303               	bcf	3,6	;RP1=0, select bank0
  6169  04D7  00A2               	movwf	??i1__doprnt
  6170  04D8  082E               	movf	i1__doprnt@pb,w
  6171  04D9  0084               	movwf	4
  6172  04DA  1383               	bcf	3,7	;select IRP bank0
  6173  04DB  0800               	movf	0,w
  6174  04DC  0084               	movwf	4
  6175  04DD  0822               	movf	??i1__doprnt,w
  6176  04DE  0080               	movwf	0
  6177  04DF  3001               	movlw	1
  6178  04E0  00A2               	movwf	??i1__doprnt
  6179  04E1  082E               	movf	i1__doprnt@pb,w
  6180  04E2  0084               	movwf	4
  6181  04E3  0822               	movf	??i1__doprnt,w
  6182  04E4  0780               	addwf	0,f
  6183  04E5                     i1l4663:	
  6184                           
  6185                           ;doprnt.c: 1427: while(--width);
  6186  04E5  30FF               	movlw	255
  6187  04E6  1283               	bcf	3,5	;RP0=0, select bank0
  6188  04E7  1303               	bcf	3,6	;RP1=0, select bank0
  6189  04E8  07AB               	addwf	i1__doprnt@width,f
  6190  04E9  1803               	skipnc
  6191  04EA  0AAC               	incf	i1__doprnt@width+1,f
  6192  04EB  30FF               	movlw	255
  6193  04EC  07AC               	addwf	i1__doprnt@width+1,f
  6194  04ED  2CBD               	goto	L5
  6195  04EE                     i1l4665:	
  6196                           ;doprnt.c: 1429: } else
  6197                           
  6198                           
  6199                           ;doprnt.c: 1431: {
  6200                           ;doprnt.c: 1433: if(width
  6201                           ;doprnt.c: 1437: )
  6202  04EE  082C               	movf	i1__doprnt@width+1,w
  6203  04EF  042B               	iorwf	i1__doprnt@width,w
  6204  04F0  1903               	skipnz
  6205  04F1  2D22               	goto	i1l4677
  6206  04F2                     i1l4667:	
  6207                           ;doprnt.c: 1438: do
  6208                           
  6209                           
  6210                           ;doprnt.c: 1439: if(pb->func) (pb->func(' ')); else ((*pb->ptr++ = ' '));
  6211  04F2  0A2E               	incf	i1__doprnt@pb,w
  6212  04F3  0084               	movwf	4
  6213  04F4  1383               	bcf	3,7	;select IRP bank0
  6214  04F5  0880               	movf	0,f
  6215  04F6  1903               	skipnz
  6216  04F7  2D05               	goto	i1l4671
  6217  04F8  3020               	movlw	32
  6218  04F9  00A2               	movwf	??i1__doprnt
  6219  04FA  0822               	movf	??i1__doprnt,w
  6220  04FB  00F0               	movwf	i1putch@c
  6221  04FC  0A2E               	incf	i1__doprnt@pb,w
  6222  04FD  0084               	movwf	4
  6223  04FE  0800               	movf	0,w
  6224  04FF  120A  118A  2109  120A  118A  	fcall	i1fptable
  6225  0504  2D16               	goto	i1l4675
  6226  0505                     i1l4671:	
  6227  0505  3020               	movlw	32
  6228  0506  1283               	bcf	3,5	;RP0=0, select bank0
  6229  0507  1303               	bcf	3,6	;RP1=0, select bank0
  6230  0508  00A2               	movwf	??i1__doprnt
  6231  0509  082E               	movf	i1__doprnt@pb,w
  6232  050A  0084               	movwf	4
  6233  050B  1383               	bcf	3,7	;select IRP bank0
  6234  050C  0800               	movf	0,w
  6235  050D  0084               	movwf	4
  6236  050E  0822               	movf	??i1__doprnt,w
  6237  050F  0080               	movwf	0
  6238  0510  3001               	movlw	1
  6239  0511  00A2               	movwf	??i1__doprnt
  6240  0512  082E               	movf	i1__doprnt@pb,w
  6241  0513  0084               	movwf	4
  6242  0514  0822               	movf	??i1__doprnt,w
  6243  0515  0780               	addwf	0,f
  6244  0516                     i1l4675:	
  6245                           
  6246                           ;doprnt.c: 1440: while(--width);
  6247  0516  30FF               	movlw	255
  6248  0517  1283               	bcf	3,5	;RP0=0, select bank0
  6249  0518  1303               	bcf	3,6	;RP1=0, select bank0
  6250  0519  07AB               	addwf	i1__doprnt@width,f
  6251  051A  1803               	skipnc
  6252  051B  0AAC               	incf	i1__doprnt@width+1,f
  6253  051C  30FF               	movlw	255
  6254  051D  07AC               	addwf	i1__doprnt@width+1,f
  6255  051E  082C               	movf	i1__doprnt@width+1,w
  6256  051F  042B               	iorwf	i1__doprnt@width,w
  6257  0520  1D03               	skipz
  6258  0521  2CF2               	goto	i1l4667
  6259  0522                     i1l4677:	
  6260                           
  6261                           ;doprnt.c: 1447: if(flag & 0x03)
  6262  0522  082A               	movf	i1__doprnt@flag,w
  6263  0523  3903               	andlw	3
  6264  0524  1903               	btfsc	3,2
  6265  0525  2D4A               	goto	i1l4687
  6266                           
  6267                           ;doprnt.c: 1448: if(pb->func) (pb->func('-')); else ((*pb->ptr++ = '-'));
  6268  0526  0A2E               	incf	i1__doprnt@pb,w
  6269  0527  0084               	movwf	4
  6270  0528  1383               	bcf	3,7	;select IRP bank0
  6271  0529  0880               	movf	0,f
  6272  052A  1903               	skipnz
  6273  052B  2D39               	goto	i1l4683
  6274  052C  302D               	movlw	45
  6275  052D  00A2               	movwf	??i1__doprnt
  6276  052E  0822               	movf	??i1__doprnt,w
  6277  052F  00F0               	movwf	i1putch@c
  6278  0530  0A2E               	incf	i1__doprnt@pb,w
  6279  0531  0084               	movwf	4
  6280  0532  0800               	movf	0,w
  6281  0533  120A  118A  2109  120A  118A  	fcall	i1fptable
  6282  0538  2D4A               	goto	i1l4687
  6283  0539                     i1l4683:	
  6284  0539  302D               	movlw	45
  6285  053A  1283               	bcf	3,5	;RP0=0, select bank0
  6286  053B  1303               	bcf	3,6	;RP1=0, select bank0
  6287  053C  00A2               	movwf	??i1__doprnt
  6288  053D  082E               	movf	i1__doprnt@pb,w
  6289  053E  0084               	movwf	4
  6290  053F  1383               	bcf	3,7	;select IRP bank0
  6291  0540  0800               	movf	0,w
  6292  0541  0084               	movwf	4
  6293  0542  0822               	movf	??i1__doprnt,w
  6294  0543  0080               	movwf	0
  6295  0544  3001               	movlw	1
  6296  0545  00A2               	movwf	??i1__doprnt
  6297  0546  082E               	movf	i1__doprnt@pb,w
  6298  0547  0084               	movwf	4
  6299  0548  0822               	movf	??i1__doprnt,w
  6300  0549  0780               	addwf	0,f
  6301  054A                     i1l4687:	
  6302                           
  6303                           ;doprnt.c: 1478: }
  6304                           ;doprnt.c: 1481: prec = c;
  6305  054A  1283               	bcf	3,5	;RP0=0, select bank0
  6306  054B  1303               	bcf	3,6	;RP1=0, select bank0
  6307  054C  082D               	movf	i1__doprnt@c,w
  6308  054D  00A2               	movwf	??i1__doprnt
  6309  054E  0822               	movf	??i1__doprnt,w
  6310  054F  00A5               	movwf	i1__doprnt@prec
  6311  0550                     i1l4699:	
  6312                           ;doprnt.c: 1483: while(prec--) {
  6313                           
  6314  0550  30FF               	movlw	-1
  6315  0551  1283               	bcf	3,5	;RP0=0, select bank0
  6316  0552  1303               	bcf	3,6	;RP1=0, select bank0
  6317  0553  00A2               	movwf	??i1__doprnt
  6318  0554  0822               	movf	??i1__doprnt,w
  6319  0555  07A5               	addwf	i1__doprnt@prec,f
  6320  0556  0825               	movf	i1__doprnt@prec,w
  6321  0557  3AFF               	xorlw	-1
  6322  0558  1903               	btfsc	3,2
  6323  0559  2B68               	goto	i1l4701
  6324                           
  6325                           ;doprnt.c: 1487: {
  6326                           ;doprnt.c: 1498: c = (_val._val / dpowers[prec]) % 10 + '0';
  6327  055A  300A               	movlw	10
  6328  055B  00F8               	movwf	i1___lwmod@divisor
  6329  055C  3000               	movlw	0
  6330  055D  00F9               	movwf	i1___lwmod@divisor+1
  6331  055E  0825               	movf	i1__doprnt@prec,w
  6332  055F  00A2               	movwf	??i1__doprnt
  6333  0560  0722               	addwf	??i1__doprnt,w
  6334  0561  3E01               	addlw	low (_dpowers-__stringbase)
  6335  0562  0084               	movwf	4
  6336  0563  120A  158A  200A  120A  118A  	fcall	stringdir
  6337  0568  00F0               	movwf	i1___lwdiv@divisor
  6338  0569  120A  158A  200A  120A  118A  	fcall	stringdir
  6339  056E  00F1               	movwf	i1___lwdiv@divisor+1
  6340  056F  0827               	movf	i1__doprnt@_val+1,w
  6341  0570  01F3               	clrf	i1___lwdiv@dividend+1
  6342  0571  07F3               	addwf	i1___lwdiv@dividend+1,f
  6343  0572  0826               	movf	i1__doprnt@_val,w
  6344  0573  01F2               	clrf	i1___lwdiv@dividend
  6345  0574  07F2               	addwf	i1___lwdiv@dividend,f
  6346  0575  120A  158A  215F  120A  118A  	fcall	i1___lwdiv
  6347  057A  0871               	movf	?i1___lwdiv+1,w
  6348  057B  01FB               	clrf	i1___lwmod@dividend+1
  6349  057C  07FB               	addwf	i1___lwmod@dividend+1,f
  6350  057D  0870               	movf	?i1___lwdiv,w
  6351  057E  01FA               	clrf	i1___lwmod@dividend
  6352  057F  07FA               	addwf	i1___lwmod@dividend,f
  6353  0580  120A  158A  212B  120A  118A  	fcall	i1___lwmod
  6354  0585  0878               	movf	?i1___lwmod,w
  6355  0586  3E30               	addlw	48
  6356  0587  1283               	bcf	3,5	;RP0=0, select bank0
  6357  0588  1303               	bcf	3,6	;RP1=0, select bank0
  6358  0589  00A3               	movwf	??i1__doprnt+1
  6359  058A  0823               	movf	??i1__doprnt+1,w
  6360  058B  00AD               	movwf	i1__doprnt@c
  6361                           
  6362                           ;doprnt.c: 1532: }
  6363                           ;doprnt.c: 1533: if(pb->func) (pb->func(c)); else ((*pb->ptr++ = c));
  6364  058C  0A2E               	incf	i1__doprnt@pb,w
  6365  058D  0084               	movwf	4
  6366  058E  1383               	bcf	3,7	;select IRP bank0
  6367  058F  0880               	movf	0,f
  6368  0590  1903               	skipnz
  6369  0591  2D9F               	goto	i1l4695
  6370  0592  082D               	movf	i1__doprnt@c,w
  6371  0593  00A2               	movwf	??i1__doprnt
  6372  0594  0822               	movf	??i1__doprnt,w
  6373  0595  00F0               	movwf	i1putch@c
  6374  0596  0A2E               	incf	i1__doprnt@pb,w
  6375  0597  0084               	movwf	4
  6376  0598  0800               	movf	0,w
  6377  0599  120A  118A  2109  120A  118A  	fcall	i1fptable
  6378  059E  2D50               	goto	i1l4699
  6379  059F                     i1l4695:	
  6380  059F  1283               	bcf	3,5	;RP0=0, select bank0
  6381  05A0  1303               	bcf	3,6	;RP1=0, select bank0
  6382  05A1  082D               	movf	i1__doprnt@c,w
  6383  05A2  00A2               	movwf	??i1__doprnt
  6384  05A3  082E               	movf	i1__doprnt@pb,w
  6385  05A4  0084               	movwf	4
  6386  05A5  1383               	bcf	3,7	;select IRP bank0
  6387  05A6  0800               	movf	0,w
  6388  05A7  0084               	movwf	4
  6389  05A8  0822               	movf	??i1__doprnt,w
  6390  05A9  0080               	movwf	0
  6391  05AA  3001               	movlw	1
  6392  05AB  00A2               	movwf	??i1__doprnt
  6393  05AC  082E               	movf	i1__doprnt@pb,w
  6394  05AD  0084               	movwf	4
  6395  05AE  0822               	movf	??i1__doprnt,w
  6396  05AF  0780               	addwf	0,f
  6397  05B0  2D50               	goto	i1l4699
  6398  05B1                     i1l4703:	
  6399                           ;doprnt.c: 1534: }
  6400                           ;doprnt.c: 1542: }
  6401                           ;doprnt.c: 1544: alldone:
  6402                           
  6403                           
  6404                           ;doprnt.c: 1549: return 0;
  6405  05B1  1283               	bcf	3,5	;RP0=0, select bank0
  6406  05B2  1303               	bcf	3,6	;RP1=0, select bank0
  6407  05B3  01A0               	clrf	?i1__doprnt
  6408  05B4  01A1               	clrf	?i1__doprnt+1
  6409  05B5  0008               	return
  6410  05B6                     __end_ofi1__doprnt:	
  6411                           
  6412                           	psect	text30
  6413  0888                     __ptext30:	
  6414 ;; *************** function i1_putch *****************
  6415 ;; Defined at:
  6416 ;;		line 7 in file "C:\Program Files (x86)\Microchip\xc8\v1.33\sources\common\putch.c"
  6417 ;; Parameters:    Size  Location     Type
  6418 ;;  c               1    0[COMMON] unsigned char 
  6419 ;; Auto vars:     Size  Location     Type
  6420 ;;		None
  6421 ;; Return value:  Size  Location     Type
  6422 ;;		None               void
  6423 ;; Registers used:
  6424 ;;		None
  6425 ;; Tracked objects:
  6426 ;;		On entry : 0/0
  6427 ;;		On exit  : 0/0
  6428 ;;		Unchanged: 0/0
  6429 ;; Data sizes:     COMMON   BANK0   BANK1   BANK3   BANK2
  6430 ;;      Params:         1       0       0       0       0
  6431 ;;      Locals:         0       0       0       0       0
  6432 ;;      Temps:          0       0       0       0       0
  6433 ;;      Totals:         1       0       0       0       0
  6434 ;;Total ram usage:        1 bytes
  6435 ;; Hardware stack levels used:    1
  6436 ;; This function calls:
  6437 ;;		Nothing
  6438 ;; This function is called by:
  6439 ;;		_printf
  6440 ;; This function uses a non-reentrant model
  6441 ;;
  6442                           
  6443                           
  6444                           ;psect for function i1_putch
  6445  0888                     i1_putch:	
  6446                           
  6447                           ;incstack = 0
  6448                           ; Regs used in i1_putch: []
  6449  0888  0008               	return
  6450  0889                     __end_ofi1_putch:	
  6451                           
  6452                           	psect	text31
  6453  1684                     __ptext31:	
  6454 ;; *************** function i1_isdigit *****************
  6455 ;; Defined at:
  6456 ;;		line 8 in file "C:\Program Files (x86)\Microchip\xc8\v1.33\sources\common\isdigit.c"
  6457 ;; Parameters:    Size  Location     Type
  6458 ;;  c               1    wreg     unsigned char 
  6459 ;; Auto vars:     Size  Location     Type
  6460 ;;  c               1    1[COMMON] unsigned char 
  6461 ;; Return value:  Size  Location     Type
  6462 ;;		None               void
  6463 ;; Registers used:
  6464 ;;		wreg, status,2, status,0
  6465 ;; Tracked objects:
  6466 ;;		On entry : 0/0
  6467 ;;		On exit  : 0/0
  6468 ;;		Unchanged: 0/0
  6469 ;; Data sizes:     COMMON   BANK0   BANK1   BANK3   BANK2
  6470 ;;      Params:         0       0       0       0       0
  6471 ;;      Locals:         2       0       0       0       0
  6472 ;;      Temps:          0       0       0       0       0
  6473 ;;      Totals:         2       0       0       0       0
  6474 ;;Total ram usage:        2 bytes
  6475 ;; Hardware stack levels used:    1
  6476 ;; This function calls:
  6477 ;;		Nothing
  6478 ;; This function is called by:
  6479 ;;		i1__doprnt
  6480 ;; This function uses a non-reentrant model
  6481 ;;
  6482                           
  6483                           
  6484                           ;psect for function i1_isdigit
  6485  1684                     i1_isdigit:	
  6486                           
  6487                           ;incstack = 0
  6488                           ; Regs used in i1_isdigit: [wreg+status,2+status,0]
  6489                           ;i1isdigit@c stored from wreg
  6490  1684  00F1               	movwf	i1isdigit@c
  6491  1685  01F0               	clrf	i1_isdigit$1416
  6492  1686  303A               	movlw	58
  6493  1687  0271               	subwf	i1isdigit@c,w
  6494  1688  1803               	skipnc
  6495  1689  2E90               	goto	i1l2199
  6496  168A  3030               	movlw	48
  6497  168B  0271               	subwf	i1isdigit@c,w
  6498  168C  1C03               	skipc
  6499  168D  2E90               	goto	i1l2199
  6500  168E  01F0               	clrf	i1_isdigit$1416
  6501  168F  0AF0               	incf	i1_isdigit$1416,f
  6502  1690                     i1l2199:	
  6503  1690  0C70               	rrf	i1_isdigit$1416,w
  6504  1691  0008               	return
  6505  1692                     __end_ofi1_isdigit:	
  6506                           
  6507                           	psect	text32
  6508  1794                     __ptext32:	
  6509 ;; *************** function i1___wmul *****************
  6510 ;; Defined at:
  6511 ;;		line 15 in file "C:\Program Files (x86)\Microchip\xc8\v1.33\sources\common\Umul16.c"
  6512 ;; Parameters:    Size  Location     Type
  6513 ;;  multiplier      2    0[COMMON] unsigned int 
  6514 ;;  multiplicand    2    2[COMMON] unsigned int 
  6515 ;; Auto vars:     Size  Location     Type
  6516 ;;  __wmul          2    4[COMMON] unsigned int 
  6517 ;; Return value:  Size  Location     Type
  6518 ;;                  2    0[COMMON] unsigned int 
  6519 ;; Registers used:
  6520 ;;		wreg, status,2, status,0
  6521 ;; Tracked objects:
  6522 ;;		On entry : 0/0
  6523 ;;		On exit  : 0/0
  6524 ;;		Unchanged: 0/0
  6525 ;; Data sizes:     COMMON   BANK0   BANK1   BANK3   BANK2
  6526 ;;      Params:         4       0       0       0       0
  6527 ;;      Locals:         2       0       0       0       0
  6528 ;;      Temps:          0       0       0       0       0
  6529 ;;      Totals:         6       0       0       0       0
  6530 ;;Total ram usage:        6 bytes
  6531 ;; Hardware stack levels used:    1
  6532 ;; This function calls:
  6533 ;;		Nothing
  6534 ;; This function is called by:
  6535 ;;		i1__doprnt
  6536 ;; This function uses a non-reentrant model
  6537 ;;
  6538                           
  6539                           
  6540                           ;psect for function i1___wmul
  6541  1794                     i1___wmul:	
  6542                           
  6543                           ;incstack = 0
  6544                           ; Regs used in i1___wmul: [wreg+status,2+status,0]
  6545  1794  01F4               	clrf	i1___wmul@product
  6546  1795  01F5               	clrf	i1___wmul@product+1
  6547  1796                     i1l2181:	
  6548  1796  1C70               	btfss	i1___wmul@multiplier,0
  6549  1797  2F9E               	goto	i1l516
  6550  1798  0872               	movf	i1___wmul@multiplicand,w
  6551  1799  07F4               	addwf	i1___wmul@product,f
  6552  179A  1803               	skipnc
  6553  179B  0AF5               	incf	i1___wmul@product+1,f
  6554  179C  0873               	movf	i1___wmul@multiplicand+1,w
  6555  179D  07F5               	addwf	i1___wmul@product+1,f
  6556  179E                     i1l516:	
  6557  179E  3001               	movlw	1
  6558  179F                     u214_25:	
  6559  179F  1003               	clrc
  6560  17A0  0DF2               	rlf	i1___wmul@multiplicand,f
  6561  17A1  0DF3               	rlf	i1___wmul@multiplicand+1,f
  6562  17A2  3EFF               	addlw	-1
  6563  17A3  1D03               	skipz
  6564  17A4  2F9F               	goto	u214_25
  6565  17A5  3001               	movlw	1
  6566  17A6                     u215_25:	
  6567  17A6  1003               	clrc
  6568  17A7  0CF1               	rrf	i1___wmul@multiplier+1,f
  6569  17A8  0CF0               	rrf	i1___wmul@multiplier,f
  6570  17A9  3EFF               	addlw	-1
  6571  17AA  1D03               	skipz
  6572  17AB  2FA6               	goto	u215_25
  6573  17AC  0871               	movf	i1___wmul@multiplier+1,w
  6574  17AD  0470               	iorwf	i1___wmul@multiplier,w
  6575  17AE  1D03               	skipz
  6576  17AF  2F96               	goto	i1l2181
  6577  17B0  0875               	movf	i1___wmul@product+1,w
  6578  17B1  01F1               	clrf	?i1___wmul+1
  6579  17B2  07F1               	addwf	?i1___wmul+1,f
  6580  17B3  0874               	movf	i1___wmul@product,w
  6581  17B4  01F0               	clrf	?i1___wmul
  6582  17B5  07F0               	addwf	?i1___wmul,f
  6583  17B6  0008               	return
  6584  17B7                     __end_ofi1___wmul:	
  6585                           
  6586                           	psect	text33
  6587  092B                     __ptext33:	
  6588 ;; *************** function i1___lwmod *****************
  6589 ;; Defined at:
  6590 ;;		line 6 in file "C:\Program Files (x86)\Microchip\xc8\v1.33\sources\common\lwmod.c"
  6591 ;; Parameters:    Size  Location     Type
  6592 ;;  divisor         2    8[COMMON] unsigned int 
  6593 ;;  dividend        2   10[COMMON] unsigned int 
  6594 ;; Auto vars:     Size  Location     Type
  6595 ;;  __lwmod         1   13[COMMON] unsigned char 
  6596 ;; Return value:  Size  Location     Type
  6597 ;;                  2    8[COMMON] unsigned int 
  6598 ;; Registers used:
  6599 ;;		wreg, status,2, status,0
  6600 ;; Tracked objects:
  6601 ;;		On entry : 0/0
  6602 ;;		On exit  : 0/0
  6603 ;;		Unchanged: 0/0
  6604 ;; Data sizes:     COMMON   BANK0   BANK1   BANK3   BANK2
  6605 ;;      Params:         4       0       0       0       0
  6606 ;;      Locals:         1       0       0       0       0
  6607 ;;      Temps:          1       0       0       0       0
  6608 ;;      Totals:         6       0       0       0       0
  6609 ;;Total ram usage:        6 bytes
  6610 ;; Hardware stack levels used:    1
  6611 ;; This function calls:
  6612 ;;		Nothing
  6613 ;; This function is called by:
  6614 ;;		i1__doprnt
  6615 ;; This function uses a non-reentrant model
  6616 ;;
  6617                           
  6618                           
  6619                           ;psect for function i1___lwmod
  6620  092B                     i1___lwmod:	
  6621                           
  6622                           ;incstack = 0
  6623                           ; Regs used in i1___lwmod: [wreg+status,2+status,0]
  6624  092B  0879               	movf	i1___lwmod@divisor+1,w
  6625  092C  0478               	iorwf	i1___lwmod@divisor,w
  6626  092D  1903               	skipnz
  6627  092E  2958               	goto	i1l2247
  6628  092F  01FD               	clrf	i1___lwmod@counter
  6629  0930  0AFD               	incf	i1___lwmod@counter,f
  6630  0931                     i1l2237:	
  6631  0931  1BF9               	btfsc	i1___lwmod@divisor+1,7
  6632  0932  293F               	goto	i1l2239
  6633  0933  3001               	movlw	1
  6634  0934                     u227_25:	
  6635  0934  1003               	clrc
  6636  0935  0DF8               	rlf	i1___lwmod@divisor,f
  6637  0936  0DF9               	rlf	i1___lwmod@divisor+1,f
  6638  0937  3EFF               	addlw	-1
  6639  0938  1D03               	skipz
  6640  0939  2934               	goto	u227_25
  6641  093A  3001               	movlw	1
  6642  093B  00FC               	movwf	??i1___lwmod
  6643  093C  087C               	movf	??i1___lwmod,w
  6644  093D  07FD               	addwf	i1___lwmod@counter,f
  6645  093E  2931               	goto	i1l2237
  6646  093F                     i1l2239:	
  6647  093F  0879               	movf	i1___lwmod@divisor+1,w
  6648  0940  027B               	subwf	i1___lwmod@dividend+1,w
  6649  0941  1D03               	skipz
  6650  0942  2945               	goto	u229_25
  6651  0943  0878               	movf	i1___lwmod@divisor,w
  6652  0944  027A               	subwf	i1___lwmod@dividend,w
  6653  0945                     u229_25:	
  6654  0945  1C03               	skipc
  6655  0946  294D               	goto	i1l2243
  6656  0947  0878               	movf	i1___lwmod@divisor,w
  6657  0948  02FA               	subwf	i1___lwmod@dividend,f
  6658  0949  0879               	movf	i1___lwmod@divisor+1,w
  6659  094A  1C03               	skipc
  6660  094B  03FB               	decf	i1___lwmod@dividend+1,f
  6661  094C  02FB               	subwf	i1___lwmod@dividend+1,f
  6662  094D                     i1l2243:	
  6663  094D  3001               	movlw	1
  6664  094E                     u230_25:	
  6665  094E  1003               	clrc
  6666  094F  0CF9               	rrf	i1___lwmod@divisor+1,f
  6667  0950  0CF8               	rrf	i1___lwmod@divisor,f
  6668  0951  3EFF               	addlw	-1
  6669  0952  1D03               	skipz
  6670  0953  294E               	goto	u230_25
  6671  0954  3001               	movlw	1
  6672  0955  02FD               	subwf	i1___lwmod@counter,f
  6673  0956  1D03               	btfss	3,2
  6674  0957  293F               	goto	i1l2239
  6675  0958                     i1l2247:	
  6676  0958  087B               	movf	i1___lwmod@dividend+1,w
  6677  0959  01F9               	clrf	?i1___lwmod+1
  6678  095A  07F9               	addwf	?i1___lwmod+1,f
  6679  095B  087A               	movf	i1___lwmod@dividend,w
  6680  095C  01F8               	clrf	?i1___lwmod
  6681  095D  07F8               	addwf	?i1___lwmod,f
  6682  095E  0008               	return
  6683  095F                     __end_ofi1___lwmod:	
  6684                           
  6685                           	psect	text34
  6686  095F                     __ptext34:	
  6687 ;; *************** function i1___lwdiv *****************
  6688 ;; Defined at:
  6689 ;;		line 6 in file "C:\Program Files (x86)\Microchip\xc8\v1.33\sources\common\lwdiv.c"
  6690 ;; Parameters:    Size  Location     Type
  6691 ;;  divisor         2    0[COMMON] unsigned int 
  6692 ;;  dividend        2    2[COMMON] unsigned int 
  6693 ;; Auto vars:     Size  Location     Type
  6694 ;;  __lwdiv         2    5[COMMON] unsigned int 
  6695 ;;  __lwdiv         1    7[COMMON] unsigned char 
  6696 ;; Return value:  Size  Location     Type
  6697 ;;                  2    0[COMMON] unsigned int 
  6698 ;; Registers used:
  6699 ;;		wreg, status,2, status,0
  6700 ;; Tracked objects:
  6701 ;;		On entry : 0/0
  6702 ;;		On exit  : 0/0
  6703 ;;		Unchanged: 0/0
  6704 ;; Data sizes:     COMMON   BANK0   BANK1   BANK3   BANK2
  6705 ;;      Params:         4       0       0       0       0
  6706 ;;      Locals:         3       0       0       0       0
  6707 ;;      Temps:          1       0       0       0       0
  6708 ;;      Totals:         8       0       0       0       0
  6709 ;;Total ram usage:        8 bytes
  6710 ;; Hardware stack levels used:    1
  6711 ;; This function calls:
  6712 ;;		Nothing
  6713 ;; This function is called by:
  6714 ;;		i1__doprnt
  6715 ;; This function uses a non-reentrant model
  6716 ;;
  6717                           
  6718                           
  6719                           ;psect for function i1___lwdiv
  6720  095F                     i1___lwdiv:	
  6721                           
  6722                           ;incstack = 0
  6723                           ; Regs used in i1___lwdiv: [wreg+status,2+status,0]
  6724  095F  01F5               	clrf	i1___lwdiv@quotient
  6725  0960  01F6               	clrf	i1___lwdiv@quotient+1
  6726  0961  0871               	movf	i1___lwdiv@divisor+1,w
  6727  0962  0470               	iorwf	i1___lwdiv@divisor,w
  6728  0963  1903               	skipnz
  6729  0964  2996               	goto	i1l2225
  6730  0965  01F7               	clrf	i1___lwdiv@counter
  6731  0966  0AF7               	incf	i1___lwdiv@counter,f
  6732  0967                     i1l2213:	
  6733  0967  1BF1               	btfsc	i1___lwdiv@divisor+1,7
  6734  0968  2975               	goto	i1l2215
  6735  0969  3001               	movlw	1
  6736  096A                     u220_25:	
  6737  096A  1003               	clrc
  6738  096B  0DF0               	rlf	i1___lwdiv@divisor,f
  6739  096C  0DF1               	rlf	i1___lwdiv@divisor+1,f
  6740  096D  3EFF               	addlw	-1
  6741  096E  1D03               	skipz
  6742  096F  296A               	goto	u220_25
  6743  0970  3001               	movlw	1
  6744  0971  00F4               	movwf	??i1___lwdiv
  6745  0972  0874               	movf	??i1___lwdiv,w
  6746  0973  07F7               	addwf	i1___lwdiv@counter,f
  6747  0974  2967               	goto	i1l2213
  6748  0975                     i1l2215:	
  6749  0975  3001               	movlw	1
  6750  0976                     u222_25:	
  6751  0976  1003               	clrc
  6752  0977  0DF5               	rlf	i1___lwdiv@quotient,f
  6753  0978  0DF6               	rlf	i1___lwdiv@quotient+1,f
  6754  0979  3EFF               	addlw	-1
  6755  097A  1D03               	skipz
  6756  097B  2976               	goto	u222_25
  6757  097C  0871               	movf	i1___lwdiv@divisor+1,w
  6758  097D  0273               	subwf	i1___lwdiv@dividend+1,w
  6759  097E  1D03               	skipz
  6760  097F  2982               	goto	u223_25
  6761  0980  0870               	movf	i1___lwdiv@divisor,w
  6762  0981  0272               	subwf	i1___lwdiv@dividend,w
  6763  0982                     u223_25:	
  6764  0982  1C03               	skipc
  6765  0983  298B               	goto	i1l2221
  6766  0984  0870               	movf	i1___lwdiv@divisor,w
  6767  0985  02F2               	subwf	i1___lwdiv@dividend,f
  6768  0986  0871               	movf	i1___lwdiv@divisor+1,w
  6769  0987  1C03               	skipc
  6770  0988  03F3               	decf	i1___lwdiv@dividend+1,f
  6771  0989  02F3               	subwf	i1___lwdiv@dividend+1,f
  6772  098A  1475               	bsf	i1___lwdiv@quotient,0
  6773  098B                     i1l2221:	
  6774  098B  3001               	movlw	1
  6775  098C                     u224_25:	
  6776  098C  1003               	clrc
  6777  098D  0CF1               	rrf	i1___lwdiv@divisor+1,f
  6778  098E  0CF0               	rrf	i1___lwdiv@divisor,f
  6779  098F  3EFF               	addlw	-1
  6780  0990  1D03               	skipz
  6781  0991  298C               	goto	u224_25
  6782  0992  3001               	movlw	1
  6783  0993  02F7               	subwf	i1___lwdiv@counter,f
  6784  0994  1D03               	btfss	3,2
  6785  0995  2975               	goto	i1l2215
  6786  0996                     i1l2225:	
  6787  0996  0876               	movf	i1___lwdiv@quotient+1,w
  6788  0997  01F1               	clrf	?i1___lwdiv+1
  6789  0998  07F1               	addwf	?i1___lwdiv+1,f
  6790  0999  0875               	movf	i1___lwdiv@quotient,w
  6791  099A  01F0               	clrf	?i1___lwdiv
  6792  099B  07F0               	addwf	?i1___lwdiv,f
  6793  099C  0008               	return
  6794  099D                     __end_ofi1___lwdiv:	
  6795                           
  6796                           	psect	text35
  6797  165F                     __ptext35:	
  6798 ;; *************** function ___ftneg *****************
  6799 ;; Defined at:
  6800 ;;		line 15 in file "C:\Program Files (x86)\Microchip\xc8\v1.33\sources\common\ftneg.c"
  6801 ;; Parameters:    Size  Location     Type
  6802 ;;  f1              3    0[COMMON] float 
  6803 ;; Auto vars:     Size  Location     Type
  6804 ;;		None
  6805 ;; Return value:  Size  Location     Type
  6806 ;;                  3    0[COMMON] float 
  6807 ;; Registers used:
  6808 ;;		wreg
  6809 ;; Tracked objects:
  6810 ;;		On entry : 0/0
  6811 ;;		On exit  : 0/0
  6812 ;;		Unchanged: 0/0
  6813 ;; Data sizes:     COMMON   BANK0   BANK1   BANK3   BANK2
  6814 ;;      Params:         3       0       0       0       0
  6815 ;;      Locals:         0       0       0       0       0
  6816 ;;      Temps:          0       0       0       0       0
  6817 ;;      Totals:         3       0       0       0       0
  6818 ;;Total ram usage:        3 bytes
  6819 ;; Hardware stack levels used:    1
  6820 ;; This function calls:
  6821 ;;		Nothing
  6822 ;; This function is called by:
  6823 ;;		_trapezoidal
  6824 ;;		_triangular
  6825 ;; This function uses a non-reentrant model
  6826 ;;
  6827                           
  6828                           
  6829                           ;psect for function ___ftneg
  6830  165F                     ___ftneg:	
  6831                           
  6832                           ;incstack = 0
  6833                           ; Regs used in ___ftneg: [wreg]
  6834  165F  0872               	movf	___ftneg@f1+2,w
  6835  1660  0471               	iorwf	___ftneg@f1+1,w
  6836  1661  0470               	iorwf	___ftneg@f1,w
  6837  1662  1903               	skipnz
  6838  1663  0008               	return
  6839  1664  3080               	movlw	128
  6840  1665  06F2               	xorwf	___ftneg@f1+2,f
  6841  1666  0008               	return
  6842  1667                     __end_of___ftneg:	
  6843                           
  6844                           	psect	text36
  6845  0A26                     __ptext36:	
  6846 ;; *************** function ___ftge *****************
  6847 ;; Defined at:
  6848 ;;		line 4 in file "C:\Program Files (x86)\Microchip\xc8\v1.33\sources\common\ftge.c"
  6849 ;; Parameters:    Size  Location     Type
  6850 ;;  ff1             3    0[COMMON] float 
  6851 ;;  ff2             3    3[COMMON] float 
  6852 ;; Auto vars:     Size  Location     Type
  6853 ;;		None
  6854 ;; Return value:  Size  Location     Type
  6855 ;;		None               void
  6856 ;; Registers used:
  6857 ;;		wreg, status,2, status,0
  6858 ;; Tracked objects:
  6859 ;;		On entry : 0/0
  6860 ;;		On exit  : 0/0
  6861 ;;		Unchanged: 0/0
  6862 ;; Data sizes:     COMMON   BANK0   BANK1   BANK3   BANK2
  6863 ;;      Params:         6       0       0       0       0
  6864 ;;      Locals:         0       0       0       0       0
  6865 ;;      Temps:          6       0       0       0       0
  6866 ;;      Totals:        12       0       0       0       0
  6867 ;;Total ram usage:       12 bytes
  6868 ;; Hardware stack levels used:    1
  6869 ;; This function calls:
  6870 ;;		Nothing
  6871 ;; This function is called by:
  6872 ;;		_trapezoidal
  6873 ;;		_triangular
  6874 ;; This function uses a non-reentrant model
  6875 ;;
  6876                           
  6877                           
  6878                           ;psect for function ___ftge
  6879  0A26                     ___ftge:	
  6880                           
  6881                           ;incstack = 0
  6882                           ; Regs used in ___ftge: [wreg+status,2+status,0]
  6883  0A26  1FF2               	btfss	___ftge@ff1+2,7
  6884  0A27  2A4D               	goto	i1l2805
  6885  0A28  3000               	movlw	0
  6886  0A29  00F6               	movwf	??___ftge
  6887  0A2A  3000               	movlw	0
  6888  0A2B  00F7               	movwf	??___ftge+1
  6889  0A2C  3080               	movlw	128
  6890  0A2D  00F8               	movwf	??___ftge+2
  6891  0A2E  0970               	comf	___ftge@ff1,w
  6892  0A2F  00F9               	movwf	??___ftge+3
  6893  0A30  0971               	comf	___ftge@ff1+1,w
  6894  0A31  00FA               	movwf	??___ftge+4
  6895  0A32  0972               	comf	___ftge@ff1+2,w
  6896  0A33  00FB               	movwf	??___ftge+5
  6897  0A34  0AF9               	incf	??___ftge+3,f
  6898  0A35  1903               	skipnz
  6899  0A36  0AFA               	incf	??___ftge+4,f
  6900  0A37  1903               	skipnz
  6901  0A38  0AFB               	incf	??___ftge+5,f
  6902  0A39  0879               	movf	??___ftge+3,w
  6903  0A3A  07F6               	addwf	??___ftge,f
  6904  0A3B  087A               	movf	??___ftge+4,w
  6905  0A3C  1803               	skipnc
  6906  0A3D  0F7A               	incfsz	??___ftge+4,w
  6907  0A3E  2A40               	goto	u356_21
  6908  0A3F  2A41               	goto	u356_22
  6909  0A40                     u356_21:	
  6910  0A40  07F7               	addwf	??___ftge+1,f
  6911  0A41                     u356_22:	
  6912  0A41  087B               	movf	??___ftge+5,w
  6913  0A42  1803               	skipnc
  6914  0A43  0F7B               	incfsz	??___ftge+5,w
  6915  0A44  2A46               	goto	u356_23
  6916  0A45  2A47               	goto	u356_24
  6917  0A46                     u356_23:	
  6918  0A46  07F8               	addwf	??___ftge+2,f
  6919  0A47                     u356_24:	
  6920  0A47  0876               	movf	??___ftge,w
  6921  0A48  00F0               	movwf	___ftge@ff1
  6922  0A49  0877               	movf	??___ftge+1,w
  6923  0A4A  00F1               	movwf	___ftge@ff1+1
  6924  0A4B  0878               	movf	??___ftge+2,w
  6925  0A4C  00F2               	movwf	___ftge@ff1+2
  6926  0A4D                     i1l2805:	
  6927  0A4D  1FF5               	btfss	___ftge@ff2+2,7
  6928  0A4E  2A74               	goto	i1l2809
  6929  0A4F  3000               	movlw	0
  6930  0A50  00F6               	movwf	??___ftge
  6931  0A51  3000               	movlw	0
  6932  0A52  00F7               	movwf	??___ftge+1
  6933  0A53  3080               	movlw	128
  6934  0A54  00F8               	movwf	??___ftge+2
  6935  0A55  0973               	comf	___ftge@ff2,w
  6936  0A56  00F9               	movwf	??___ftge+3
  6937  0A57  0974               	comf	___ftge@ff2+1,w
  6938  0A58  00FA               	movwf	??___ftge+4
  6939  0A59  0975               	comf	___ftge@ff2+2,w
  6940  0A5A  00FB               	movwf	??___ftge+5
  6941  0A5B  0AF9               	incf	??___ftge+3,f
  6942  0A5C  1903               	skipnz
  6943  0A5D  0AFA               	incf	??___ftge+4,f
  6944  0A5E  1903               	skipnz
  6945  0A5F  0AFB               	incf	??___ftge+5,f
  6946  0A60  0879               	movf	??___ftge+3,w
  6947  0A61  07F6               	addwf	??___ftge,f
  6948  0A62  087A               	movf	??___ftge+4,w
  6949  0A63  1803               	skipnc
  6950  0A64  0F7A               	incfsz	??___ftge+4,w
  6951  0A65  2A67               	goto	u358_21
  6952  0A66  2A68               	goto	u358_22
  6953  0A67                     u358_21:	
  6954  0A67  07F7               	addwf	??___ftge+1,f
  6955  0A68                     u358_22:	
  6956  0A68  087B               	movf	??___ftge+5,w
  6957  0A69  1803               	skipnc
  6958  0A6A  0F7B               	incfsz	??___ftge+5,w
  6959  0A6B  2A6D               	goto	u358_23
  6960  0A6C  2A6E               	goto	u358_24
  6961  0A6D                     u358_23:	
  6962  0A6D  07F8               	addwf	??___ftge+2,f
  6963  0A6E                     u358_24:	
  6964  0A6E  0876               	movf	??___ftge,w
  6965  0A6F  00F3               	movwf	___ftge@ff2
  6966  0A70  0877               	movf	??___ftge+1,w
  6967  0A71  00F4               	movwf	___ftge@ff2+1
  6968  0A72  0878               	movf	??___ftge+2,w
  6969  0A73  00F5               	movwf	___ftge@ff2+2
  6970  0A74                     i1l2809:	
  6971  0A74  3080               	movlw	128
  6972  0A75  06F2               	xorwf	___ftge@ff1+2,f
  6973  0A76  3080               	movlw	128
  6974  0A77  06F5               	xorwf	___ftge@ff2+2,f
  6975  0A78  0875               	movf	___ftge@ff2+2,w
  6976  0A79  0272               	subwf	___ftge@ff1+2,w
  6977  0A7A  1D03               	skipz
  6978  0A7B  0008               	return
  6979  0A7C  0874               	movf	___ftge@ff2+1,w
  6980  0A7D  0271               	subwf	___ftge@ff1+1,w
  6981  0A7E  1D03               	skipz
  6982  0A7F  0008               	return
  6983  0A80  0873               	movf	___ftge@ff2,w
  6984  0A81  0270               	subwf	___ftge@ff1,w
  6985  0A82  0008               	return
  6986  0A83                     __end_of___ftge:	
  6987                           
  6988                           	psect	text37
  6989  073D                     __ptext37:	
  6990 ;; *************** function ___ftdiv *****************
  6991 ;; Defined at:
  6992 ;;		line 49 in file "C:\Program Files (x86)\Microchip\xc8\v1.33\sources\pic\ftdiv.c"
  6993 ;; Parameters:    Size  Location     Type
  6994 ;;  f2              3    7[BANK0 ] float 
  6995 ;;  f1              3   10[BANK0 ] float 
  6996 ;; Auto vars:     Size  Location     Type
  6997 ;;  f3              3   18[BANK0 ] float 
  6998 ;;  sign            1   22[BANK0 ] unsigned char 
  6999 ;;  exp             1   21[BANK0 ] unsigned char 
  7000 ;;  cntr            1   17[BANK0 ] unsigned char 
  7001 ;; Return value:  Size  Location     Type
  7002 ;;                  3    7[BANK0 ] float 
  7003 ;; Registers used:
  7004 ;;		wreg, status,2, status,0, pclath, cstack
  7005 ;; Tracked objects:
  7006 ;;		On entry : 0/0
  7007 ;;		On exit  : 0/0
  7008 ;;		Unchanged: 0/0
  7009 ;; Data sizes:     COMMON   BANK0   BANK1   BANK3   BANK2
  7010 ;;      Params:         0       6       0       0       0
  7011 ;;      Locals:         0       6       0       0       0
  7012 ;;      Temps:          0       4       0       0       0
  7013 ;;      Totals:         0      16       0       0       0
  7014 ;;Total ram usage:       16 bytes
  7015 ;; Hardware stack levels used:    1
  7016 ;; Hardware stack levels required when called:    1
  7017 ;; This function calls:
  7018 ;;		___ftpack
  7019 ;; This function is called by:
  7020 ;;		_trapezoidal
  7021 ;;		_ISR
  7022 ;;		_triangular
  7023 ;; This function uses a non-reentrant model
  7024 ;;
  7025                           
  7026                           
  7027                           ;psect for function ___ftdiv
  7028  073D                     ___ftdiv:	
  7029                           
  7030                           ;incstack = 0
  7031                           ; Regs used in ___ftdiv: [wreg+status,2+status,0+pclath+cstack]
  7032  073D  1283               	bcf	3,5	;RP0=0, select bank0
  7033  073E  1303               	bcf	3,6	;RP1=0, select bank0
  7034  073F  082A               	movf	___ftdiv@f1,w
  7035  0740  00AD               	movwf	??___ftdiv
  7036  0741  082B               	movf	___ftdiv@f1+1,w
  7037  0742  00AE               	movwf	??___ftdiv+1
  7038  0743  082C               	movf	___ftdiv@f1+2,w
  7039  0744  00AF               	movwf	??___ftdiv+2
  7040  0745  1003               	clrc
  7041  0746  0D2E               	rlf	??___ftdiv+1,w
  7042  0747  0D2F               	rlf	??___ftdiv+2,w
  7043  0748  00B0               	movwf	??___ftdiv+3
  7044  0749  0830               	movf	??___ftdiv+3,w
  7045  074A  00B5               	movwf	___ftdiv@exp
  7046  074B  08B5               	movf	___ftdiv@exp,f
  7047  074C  1D03               	skipz
  7048  074D  2F55               	goto	i1l2765
  7049  074E  3000               	movlw	0
  7050  074F  00A7               	movwf	?___ftdiv
  7051  0750  3000               	movlw	0
  7052  0751  00A8               	movwf	?___ftdiv+1
  7053  0752  3000               	movlw	0
  7054  0753  00A9               	movwf	?___ftdiv+2
  7055  0754  0008               	return
  7056  0755                     i1l2765:	
  7057  0755  0827               	movf	___ftdiv@f2,w
  7058  0756  00AD               	movwf	??___ftdiv
  7059  0757  0828               	movf	___ftdiv@f2+1,w
  7060  0758  00AE               	movwf	??___ftdiv+1
  7061  0759  0829               	movf	___ftdiv@f2+2,w
  7062  075A  00AF               	movwf	??___ftdiv+2
  7063  075B  1003               	clrc
  7064  075C  0D2E               	rlf	??___ftdiv+1,w
  7065  075D  0D2F               	rlf	??___ftdiv+2,w
  7066  075E  00B0               	movwf	??___ftdiv+3
  7067  075F  0830               	movf	??___ftdiv+3,w
  7068  0760  00B6               	movwf	___ftdiv@sign
  7069  0761  08B6               	movf	___ftdiv@sign,f
  7070  0762  1D03               	skipz
  7071  0763  2F6B               	goto	i1l2771
  7072  0764  3000               	movlw	0
  7073  0765  00A7               	movwf	?___ftdiv
  7074  0766  3000               	movlw	0
  7075  0767  00A8               	movwf	?___ftdiv+1
  7076  0768  3000               	movlw	0
  7077  0769  00A9               	movwf	?___ftdiv+2
  7078  076A  0008               	return
  7079  076B                     i1l2771:	
  7080  076B  3000               	movlw	0
  7081  076C  00B2               	movwf	___ftdiv@f3
  7082  076D  3000               	movlw	0
  7083  076E  00B3               	movwf	___ftdiv@f3+1
  7084  076F  3000               	movlw	0
  7085  0770  00B4               	movwf	___ftdiv@f3+2
  7086  0771  3089               	movlw	137
  7087  0772  0736               	addwf	___ftdiv@sign,w
  7088  0773  00AD               	movwf	??___ftdiv
  7089  0774  082D               	movf	??___ftdiv,w
  7090  0775  02B5               	subwf	___ftdiv@exp,f
  7091  0776  082A               	movf	___ftdiv@f1,w
  7092  0777  00AD               	movwf	??___ftdiv
  7093  0778  082B               	movf	___ftdiv@f1+1,w
  7094  0779  00AE               	movwf	??___ftdiv+1
  7095  077A  082C               	movf	___ftdiv@f1+2,w
  7096  077B  00AF               	movwf	??___ftdiv+2
  7097  077C  3010               	movlw	16
  7098  077D                     u349_25:	
  7099  077D  1003               	clrc
  7100  077E  0CAF               	rrf	??___ftdiv+2,f
  7101  077F  0CAE               	rrf	??___ftdiv+1,f
  7102  0780  0CAD               	rrf	??___ftdiv,f
  7103  0781  3EFF               	addlw	-1
  7104  0782  1D03               	skipz
  7105  0783  2F7D               	goto	u349_25
  7106  0784  082D               	movf	??___ftdiv,w
  7107  0785  00B0               	movwf	??___ftdiv+3
  7108  0786  0830               	movf	??___ftdiv+3,w
  7109  0787  00B6               	movwf	___ftdiv@sign
  7110  0788  0827               	movf	___ftdiv@f2,w
  7111  0789  00AD               	movwf	??___ftdiv
  7112  078A  0828               	movf	___ftdiv@f2+1,w
  7113  078B  00AE               	movwf	??___ftdiv+1
  7114  078C  0829               	movf	___ftdiv@f2+2,w
  7115  078D  00AF               	movwf	??___ftdiv+2
  7116  078E  3010               	movlw	16
  7117  078F                     u350_25:	
  7118  078F  1003               	clrc
  7119  0790  0CAF               	rrf	??___ftdiv+2,f
  7120  0791  0CAE               	rrf	??___ftdiv+1,f
  7121  0792  0CAD               	rrf	??___ftdiv,f
  7122  0793  3EFF               	addlw	-1
  7123  0794  1D03               	skipz
  7124  0795  2F8F               	goto	u350_25
  7125  0796  082D               	movf	??___ftdiv,w
  7126  0797  00B0               	movwf	??___ftdiv+3
  7127  0798  0830               	movf	??___ftdiv+3,w
  7128  0799  06B6               	xorwf	___ftdiv@sign,f
  7129  079A  3080               	movlw	128
  7130  079B  00AD               	movwf	??___ftdiv
  7131  079C  082D               	movf	??___ftdiv,w
  7132  079D  05B6               	andwf	___ftdiv@sign,f
  7133  079E  17AB               	bsf	___ftdiv@f1+1,7
  7134  079F  30FF               	movlw	255
  7135  07A0  05AA               	andwf	___ftdiv@f1,f
  7136  07A1  30FF               	movlw	255
  7137  07A2  05AB               	andwf	___ftdiv@f1+1,f
  7138  07A3  3000               	movlw	0
  7139  07A4  05AC               	andwf	___ftdiv@f1+2,f
  7140  07A5  17A8               	bsf	___ftdiv@f2+1,7
  7141  07A6  30FF               	movlw	255
  7142  07A7  05A7               	andwf	___ftdiv@f2,f
  7143  07A8  30FF               	movlw	255
  7144  07A9  05A8               	andwf	___ftdiv@f2+1,f
  7145  07AA  3000               	movlw	0
  7146  07AB  05A9               	andwf	___ftdiv@f2+2,f
  7147  07AC  3018               	movlw	24
  7148  07AD  00AD               	movwf	??___ftdiv
  7149  07AE  082D               	movf	??___ftdiv,w
  7150  07AF  00B1               	movwf	___ftdiv@cntr
  7151  07B0                     i1l2785:	
  7152  07B0  3001               	movlw	1
  7153  07B1                     u351_25:	
  7154  07B1  1003               	clrc
  7155  07B2  0DB2               	rlf	___ftdiv@f3,f
  7156  07B3  0DB3               	rlf	___ftdiv@f3+1,f
  7157  07B4  0DB4               	rlf	___ftdiv@f3+2,f
  7158  07B5  3EFF               	addlw	-1
  7159  07B6  1D03               	skipz
  7160  07B7  2FB1               	goto	u351_25
  7161  07B8  0829               	movf	___ftdiv@f2+2,w
  7162  07B9  022C               	subwf	___ftdiv@f1+2,w
  7163  07BA  1D03               	skipz
  7164  07BB  2FC2               	goto	u352_25
  7165  07BC  0828               	movf	___ftdiv@f2+1,w
  7166  07BD  022B               	subwf	___ftdiv@f1+1,w
  7167  07BE  1D03               	skipz
  7168  07BF  2FC2               	goto	u352_25
  7169  07C0  0827               	movf	___ftdiv@f2,w
  7170  07C1  022A               	subwf	___ftdiv@f1,w
  7171  07C2                     u352_25:	
  7172  07C2  1C03               	skipc
  7173  07C3  2FCF               	goto	i1l2793
  7174  07C4  0827               	movf	___ftdiv@f2,w
  7175  07C5  02AA               	subwf	___ftdiv@f1,f
  7176  07C6  0828               	movf	___ftdiv@f2+1,w
  7177  07C7  1C03               	skipc
  7178  07C8  0F28               	incfsz	___ftdiv@f2+1,w
  7179  07C9  02AB               	subwf	___ftdiv@f1+1,f
  7180  07CA  0829               	movf	___ftdiv@f2+2,w
  7181  07CB  1C03               	skipc
  7182  07CC  0A29               	incf	___ftdiv@f2+2,w
  7183  07CD  02AC               	subwf	___ftdiv@f1+2,f
  7184  07CE  1432               	bsf	___ftdiv@f3,0
  7185  07CF                     i1l2793:	
  7186  07CF  3001               	movlw	1
  7187  07D0                     u353_25:	
  7188  07D0  1003               	clrc
  7189  07D1  0DAA               	rlf	___ftdiv@f1,f
  7190  07D2  0DAB               	rlf	___ftdiv@f1+1,f
  7191  07D3  0DAC               	rlf	___ftdiv@f1+2,f
  7192  07D4  3EFF               	addlw	-1
  7193  07D5  1D03               	skipz
  7194  07D6  2FD0               	goto	u353_25
  7195  07D7  3001               	movlw	1
  7196  07D8  02B1               	subwf	___ftdiv@cntr,f
  7197  07D9  1D03               	btfss	3,2
  7198  07DA  2FB0               	goto	i1l2785
  7199  07DB  0832               	movf	___ftdiv@f3,w
  7200  07DC  00F0               	movwf	___ftpack@arg
  7201  07DD  0833               	movf	___ftdiv@f3+1,w
  7202  07DE  00F1               	movwf	___ftpack@arg+1
  7203  07DF  0834               	movf	___ftdiv@f3+2,w
  7204  07E0  00F2               	movwf	___ftpack@arg+2
  7205  07E1  0835               	movf	___ftdiv@exp,w
  7206  07E2  00AD               	movwf	??___ftdiv
  7207  07E3  082D               	movf	??___ftdiv,w
  7208  07E4  00F3               	movwf	___ftpack@exp
  7209  07E5  0836               	movf	___ftdiv@sign,w
  7210  07E6  00AE               	movwf	??___ftdiv+1
  7211  07E7  082E               	movf	??___ftdiv+1,w
  7212  07E8  00F4               	movwf	___ftpack@sign
  7213  07E9  120A  158A  2283   	fcall	___ftpack
  7214  07EC  0870               	movf	?___ftpack,w
  7215  07ED  1283               	bcf	3,5	;RP0=0, select bank0
  7216  07EE  1303               	bcf	3,6	;RP1=0, select bank0
  7217  07EF  00A7               	movwf	?___ftdiv
  7218  07F0  0871               	movf	?___ftpack+1,w
  7219  07F1  00A8               	movwf	?___ftdiv+1
  7220  07F2  0872               	movf	?___ftpack+2,w
  7221  07F3  00A9               	movwf	?___ftdiv+2
  7222  07F4  0008               	return
  7223  07F5                     __end_of___ftdiv:	
  7224                           
  7225                           	psect	text38
  7226  0DBC                     __ptext38:	
  7227 ;; *************** function ___ftadd *****************
  7228 ;; Defined at:
  7229 ;;		line 86 in file "C:\Program Files (x86)\Microchip\xc8\v1.33\sources\common\ftadd.c"
  7230 ;; Parameters:    Size  Location     Type
  7231 ;;  f1              3    8[COMMON] float 
  7232 ;;  f2              3   11[COMMON] float 
  7233 ;; Auto vars:     Size  Location     Type
  7234 ;;  exp1            1    6[BANK0 ] unsigned char 
  7235 ;;  exp2            1    5[BANK0 ] unsigned char 
  7236 ;;  sign            1    4[BANK0 ] unsigned char 
  7237 ;; Return value:  Size  Location     Type
  7238 ;;                  3    8[COMMON] float 
  7239 ;; Registers used:
  7240 ;;		wreg, status,2, status,0, pclath, cstack
  7241 ;; Tracked objects:
  7242 ;;		On entry : 0/0
  7243 ;;		On exit  : 0/0
  7244 ;;		Unchanged: 0/0
  7245 ;; Data sizes:     COMMON   BANK0   BANK1   BANK3   BANK2
  7246 ;;      Params:         6       0       0       0       0
  7247 ;;      Locals:         0       3       0       0       0
  7248 ;;      Temps:          0       4       0       0       0
  7249 ;;      Totals:         6       7       0       0       0
  7250 ;;Total ram usage:       13 bytes
  7251 ;; Hardware stack levels used:    1
  7252 ;; Hardware stack levels required when called:    1
  7253 ;; This function calls:
  7254 ;;		___ftpack
  7255 ;; This function is called by:
  7256 ;;		_trapezoidal
  7257 ;;		_ISR
  7258 ;;		_triangular
  7259 ;; This function uses a non-reentrant model
  7260 ;;
  7261                           
  7262                           
  7263                           ;psect for function ___ftadd
  7264  0DBC                     ___ftadd:	
  7265                           
  7266                           ;incstack = 0
  7267                           ; Regs used in ___ftadd: [wreg+status,2+status,0+pclath+cstack]
  7268  0DBC  0878               	movf	___ftadd@f1,w
  7269  0DBD  1283               	bcf	3,5	;RP0=0, select bank0
  7270  0DBE  1303               	bcf	3,6	;RP1=0, select bank0
  7271  0DBF  00A0               	movwf	??___ftadd
  7272  0DC0  0879               	movf	___ftadd@f1+1,w
  7273  0DC1  00A1               	movwf	??___ftadd+1
  7274  0DC2  087A               	movf	___ftadd@f1+2,w
  7275  0DC3  00A2               	movwf	??___ftadd+2
  7276  0DC4  1003               	clrc
  7277  0DC5  0D21               	rlf	??___ftadd+1,w
  7278  0DC6  0D22               	rlf	??___ftadd+2,w
  7279  0DC7  00A3               	movwf	??___ftadd+3
  7280  0DC8  0823               	movf	??___ftadd+3,w
  7281  0DC9  00A6               	movwf	___ftadd@exp1
  7282  0DCA  087B               	movf	___ftadd@f2,w
  7283  0DCB  00A0               	movwf	??___ftadd
  7284  0DCC  087C               	movf	___ftadd@f2+1,w
  7285  0DCD  00A1               	movwf	??___ftadd+1
  7286  0DCE  087D               	movf	___ftadd@f2+2,w
  7287  0DCF  00A2               	movwf	??___ftadd+2
  7288  0DD0  1003               	clrc
  7289  0DD1  0D21               	rlf	??___ftadd+1,w
  7290  0DD2  0D22               	rlf	??___ftadd+2,w
  7291  0DD3  00A3               	movwf	??___ftadd+3
  7292  0DD4  0823               	movf	??___ftadd+3,w
  7293  0DD5  00A5               	movwf	___ftadd@exp2
  7294  0DD6  0826               	movf	___ftadd@exp1,w
  7295  0DD7  1903               	btfsc	3,2
  7296  0DD8  2DE5               	goto	i1l2695
  7297  0DD9  0825               	movf	___ftadd@exp2,w
  7298  0DDA  0226               	subwf	___ftadd@exp1,w
  7299  0DDB  1803               	skipnc
  7300  0DDC  2DEC               	goto	i1l2699
  7301  0DDD  0326               	decf	___ftadd@exp1,w
  7302  0DDE  3AFF               	xorlw	255
  7303  0DDF  0725               	addwf	___ftadd@exp2,w
  7304  0DE0  00A0               	movwf	??___ftadd
  7305  0DE1  3019               	movlw	25
  7306  0DE2  0220               	subwf	??___ftadd,w
  7307  0DE3  1C03               	skipc
  7308  0DE4  2DEC               	goto	i1l2699
  7309  0DE5                     i1l2695:	
  7310  0DE5  087B               	movf	___ftadd@f2,w
  7311  0DE6  00F8               	movwf	?___ftadd
  7312  0DE7  087C               	movf	___ftadd@f2+1,w
  7313  0DE8  00F9               	movwf	?___ftadd+1
  7314  0DE9  087D               	movf	___ftadd@f2+2,w
  7315  0DEA  00FA               	movwf	?___ftadd+2
  7316  0DEB  0008               	return
  7317  0DEC                     i1l2699:	
  7318  0DEC  0825               	movf	___ftadd@exp2,w
  7319  0DED  1903               	btfsc	3,2
  7320  0DEE  0008               	return
  7321  0DEF  0826               	movf	___ftadd@exp1,w
  7322  0DF0  0225               	subwf	___ftadd@exp2,w
  7323  0DF1  1803               	skipnc
  7324  0DF2  2DFB               	goto	i1l2705
  7325  0DF3  0325               	decf	___ftadd@exp2,w
  7326  0DF4  3AFF               	xorlw	255
  7327  0DF5  0726               	addwf	___ftadd@exp1,w
  7328  0DF6  00A0               	movwf	??___ftadd
  7329  0DF7  3019               	movlw	25
  7330  0DF8  0220               	subwf	??___ftadd,w
  7331  0DF9  1803               	btfsc	3,0
  7332  0DFA  0008               	return
  7333  0DFB                     i1l2705:	
  7334  0DFB  3006               	movlw	6
  7335  0DFC  00A0               	movwf	??___ftadd
  7336  0DFD  0820               	movf	??___ftadd,w
  7337  0DFE  00A4               	movwf	___ftadd@sign
  7338  0DFF  1BFA               	btfsc	___ftadd@f1+2,7
  7339  0E00  17A4               	bsf	___ftadd@sign,7
  7340  0E01  1BFD               	btfsc	___ftadd@f2+2,7
  7341  0E02  1724               	bsf	___ftadd@sign,6
  7342  0E03  17F9               	bsf	___ftadd@f1+1,7
  7343  0E04  30FF               	movlw	255
  7344  0E05  05F8               	andwf	___ftadd@f1,f
  7345  0E06  30FF               	movlw	255
  7346  0E07  05F9               	andwf	___ftadd@f1+1,f
  7347  0E08  3000               	movlw	0
  7348  0E09  05FA               	andwf	___ftadd@f1+2,f
  7349  0E0A  17FC               	bsf	___ftadd@f2+1,7
  7350  0E0B  30FF               	movlw	255
  7351  0E0C  05FB               	andwf	___ftadd@f2,f
  7352  0E0D  30FF               	movlw	255
  7353  0E0E  05FC               	andwf	___ftadd@f2+1,f
  7354  0E0F  3000               	movlw	0
  7355  0E10  05FD               	andwf	___ftadd@f2+2,f
  7356  0E11  0825               	movf	___ftadd@exp2,w
  7357  0E12  0226               	subwf	___ftadd@exp1,w
  7358  0E13  1803               	skipnc
  7359  0E14  2E3B               	goto	i1l2727
  7360  0E15                     i1l2717:	
  7361  0E15  3001               	movlw	1
  7362  0E16                     u332_25:	
  7363  0E16  1003               	clrc
  7364  0E17  0DFB               	rlf	___ftadd@f2,f
  7365  0E18  0DFC               	rlf	___ftadd@f2+1,f
  7366  0E19  0DFD               	rlf	___ftadd@f2+2,f
  7367  0E1A  3EFF               	addlw	-1
  7368  0E1B  1D03               	skipz
  7369  0E1C  2E16               	goto	u332_25
  7370  0E1D  3001               	movlw	1
  7371  0E1E  02A5               	subwf	___ftadd@exp2,f
  7372  0E1F  0825               	movf	___ftadd@exp2,w
  7373  0E20  0626               	xorwf	___ftadd@exp1,w
  7374  0E21  1903               	skipnz
  7375  0E22  2E36               	goto	i1l2725
  7376  0E23  3001               	movlw	1
  7377  0E24  02A4               	subwf	___ftadd@sign,f
  7378  0E25  0824               	movf	___ftadd@sign,w
  7379  0E26  3907               	andlw	7
  7380  0E27  1903               	btfsc	3,2
  7381  0E28  2E36               	goto	i1l2725
  7382  0E29  2E15               	goto	i1l2717
  7383  0E2A                     i1l2723:	
  7384  0E2A  3001               	movlw	1
  7385  0E2B                     u335_25:	
  7386  0E2B  1003               	clrc
  7387  0E2C  0CFA               	rrf	___ftadd@f1+2,f
  7388  0E2D  0CF9               	rrf	___ftadd@f1+1,f
  7389  0E2E  0CF8               	rrf	___ftadd@f1,f
  7390  0E2F  3EFF               	addlw	-1
  7391  0E30  1D03               	skipz
  7392  0E31  2E2B               	goto	u335_25
  7393  0E32  3001               	movlw	1
  7394  0E33  00A0               	movwf	??___ftadd
  7395  0E34  0820               	movf	??___ftadd,w
  7396  0E35  07A6               	addwf	___ftadd@exp1,f
  7397  0E36                     i1l2725:	
  7398  0E36  0826               	movf	___ftadd@exp1,w
  7399  0E37  0625               	xorwf	___ftadd@exp2,w
  7400  0E38  1903               	btfsc	3,2
  7401  0E39  2E64               	goto	i1l706
  7402  0E3A  2E2A               	goto	i1l2723
  7403  0E3B                     i1l2727:	
  7404  0E3B  0826               	movf	___ftadd@exp1,w
  7405  0E3C  0225               	subwf	___ftadd@exp2,w
  7406  0E3D  1803               	skipnc
  7407  0E3E  2E64               	goto	i1l706
  7408  0E3F                     i1l2729:	
  7409  0E3F  3001               	movlw	1
  7410  0E40                     u338_25:	
  7411  0E40  1003               	clrc
  7412  0E41  0DF8               	rlf	___ftadd@f1,f
  7413  0E42  0DF9               	rlf	___ftadd@f1+1,f
  7414  0E43  0DFA               	rlf	___ftadd@f1+2,f
  7415  0E44  3EFF               	addlw	-1
  7416  0E45  1D03               	skipz
  7417  0E46  2E40               	goto	u338_25
  7418  0E47  3001               	movlw	1
  7419  0E48  02A6               	subwf	___ftadd@exp1,f
  7420  0E49  0825               	movf	___ftadd@exp2,w
  7421  0E4A  0626               	xorwf	___ftadd@exp1,w
  7422  0E4B  1903               	skipnz
  7423  0E4C  2E60               	goto	i1l2737
  7424  0E4D  3001               	movlw	1
  7425  0E4E  02A4               	subwf	___ftadd@sign,f
  7426  0E4F  0824               	movf	___ftadd@sign,w
  7427  0E50  3907               	andlw	7
  7428  0E51  1903               	btfsc	3,2
  7429  0E52  2E60               	goto	i1l2737
  7430  0E53  2E3F               	goto	i1l2729
  7431  0E54                     i1l2735:	
  7432  0E54  3001               	movlw	1
  7433  0E55                     u341_25:	
  7434  0E55  1003               	clrc
  7435  0E56  0CFD               	rrf	___ftadd@f2+2,f
  7436  0E57  0CFC               	rrf	___ftadd@f2+1,f
  7437  0E58  0CFB               	rrf	___ftadd@f2,f
  7438  0E59  3EFF               	addlw	-1
  7439  0E5A  1D03               	skipz
  7440  0E5B  2E55               	goto	u341_25
  7441  0E5C  3001               	movlw	1
  7442  0E5D  00A0               	movwf	??___ftadd
  7443  0E5E  0820               	movf	??___ftadd,w
  7444  0E5F  07A5               	addwf	___ftadd@exp2,f
  7445  0E60                     i1l2737:	
  7446  0E60  0826               	movf	___ftadd@exp1,w
  7447  0E61  0625               	xorwf	___ftadd@exp2,w
  7448  0E62  1D03               	skipz
  7449  0E63  2E54               	goto	i1l2735
  7450  0E64                     i1l706:	
  7451  0E64  1FA4               	btfss	___ftadd@sign,7
  7452  0E65  2E76               	goto	i1l2741
  7453  0E66  30FF               	movlw	255
  7454  0E67  06F8               	xorwf	___ftadd@f1,f
  7455  0E68  30FF               	movlw	255
  7456  0E69  06F9               	xorwf	___ftadd@f1+1,f
  7457  0E6A  30FF               	movlw	255
  7458  0E6B  06FA               	xorwf	___ftadd@f1+2,f
  7459  0E6C  3001               	movlw	1
  7460  0E6D  07F8               	addwf	___ftadd@f1,f
  7461  0E6E  3000               	movlw	0
  7462  0E6F  1803               	skipnc
  7463  0E70  3001               	movlw	1
  7464  0E71  07F9               	addwf	___ftadd@f1+1,f
  7465  0E72  3000               	movlw	0
  7466  0E73  1803               	skipnc
  7467  0E74  3001               	movlw	1
  7468  0E75  07FA               	addwf	___ftadd@f1+2,f
  7469  0E76                     i1l2741:	
  7470  0E76  1F24               	btfss	___ftadd@sign,6
  7471  0E77  2E88               	goto	i1l2745
  7472  0E78  30FF               	movlw	255
  7473  0E79  06FB               	xorwf	___ftadd@f2,f
  7474  0E7A  30FF               	movlw	255
  7475  0E7B  06FC               	xorwf	___ftadd@f2+1,f
  7476  0E7C  30FF               	movlw	255
  7477  0E7D  06FD               	xorwf	___ftadd@f2+2,f
  7478  0E7E  3001               	movlw	1
  7479  0E7F  07FB               	addwf	___ftadd@f2,f
  7480  0E80  3000               	movlw	0
  7481  0E81  1803               	skipnc
  7482  0E82  3001               	movlw	1
  7483  0E83  07FC               	addwf	___ftadd@f2+1,f
  7484  0E84  3000               	movlw	0
  7485  0E85  1803               	skipnc
  7486  0E86  3001               	movlw	1
  7487  0E87  07FD               	addwf	___ftadd@f2+2,f
  7488  0E88                     i1l2745:	
  7489  0E88  01A4               	clrf	___ftadd@sign
  7490  0E89  0878               	movf	___ftadd@f1,w
  7491  0E8A  07FB               	addwf	___ftadd@f2,f
  7492  0E8B  0879               	movf	___ftadd@f1+1,w
  7493  0E8C  1103               	clrz
  7494  0E8D  1803               	skipnc
  7495  0E8E  0A79               	incf	___ftadd@f1+1,w
  7496  0E8F  1D03               	btfss	3,2
  7497  0E90  07FC               	addwf	___ftadd@f2+1,f
  7498  0E91  087A               	movf	___ftadd@f1+2,w
  7499  0E92  1103               	clrz
  7500  0E93  1803               	skipnc
  7501  0E94  0A7A               	incf	___ftadd@f1+2,w
  7502  0E95  1D03               	btfss	3,2
  7503  0E96  07FD               	addwf	___ftadd@f2+2,f
  7504  0E97  1FFD               	btfss	___ftadd@f2+2,7
  7505  0E98  2EAB               	goto	i1l2755
  7506  0E99  30FF               	movlw	255
  7507  0E9A  06FB               	xorwf	___ftadd@f2,f
  7508  0E9B  30FF               	movlw	255
  7509  0E9C  06FC               	xorwf	___ftadd@f2+1,f
  7510  0E9D  30FF               	movlw	255
  7511  0E9E  06FD               	xorwf	___ftadd@f2+2,f
  7512  0E9F  3001               	movlw	1
  7513  0EA0  07FB               	addwf	___ftadd@f2,f
  7514  0EA1  3000               	movlw	0
  7515  0EA2  1803               	skipnc
  7516  0EA3  3001               	movlw	1
  7517  0EA4  07FC               	addwf	___ftadd@f2+1,f
  7518  0EA5  3000               	movlw	0
  7519  0EA6  1803               	skipnc
  7520  0EA7  3001               	movlw	1
  7521  0EA8  07FD               	addwf	___ftadd@f2+2,f
  7522  0EA9  01A4               	clrf	___ftadd@sign
  7523  0EAA  0AA4               	incf	___ftadd@sign,f
  7524  0EAB                     i1l2755:	
  7525  0EAB  087B               	movf	___ftadd@f2,w
  7526  0EAC  00F0               	movwf	___ftpack@arg
  7527  0EAD  087C               	movf	___ftadd@f2+1,w
  7528  0EAE  00F1               	movwf	___ftpack@arg+1
  7529  0EAF  087D               	movf	___ftadd@f2+2,w
  7530  0EB0  00F2               	movwf	___ftpack@arg+2
  7531  0EB1  0826               	movf	___ftadd@exp1,w
  7532  0EB2  00A0               	movwf	??___ftadd
  7533  0EB3  0820               	movf	??___ftadd,w
  7534  0EB4  00F3               	movwf	___ftpack@exp
  7535  0EB5  0824               	movf	___ftadd@sign,w
  7536  0EB6  00A1               	movwf	??___ftadd+1
  7537  0EB7  0821               	movf	??___ftadd+1,w
  7538  0EB8  00F4               	movwf	___ftpack@sign
  7539  0EB9  120A  158A  2283   	fcall	___ftpack
  7540  0EBC  0870               	movf	?___ftpack,w
  7541  0EBD  00F8               	movwf	?___ftadd
  7542  0EBE  0871               	movf	?___ftpack+1,w
  7543  0EBF  00F9               	movwf	?___ftadd+1
  7544  0EC0  0872               	movf	?___ftpack+2,w
  7545  0EC1  00FA               	movwf	?___ftadd+2
  7546  0EC2  0008               	return
  7547  0EC3                     __end_of___ftadd:	
  7548                           
  7549                           	psect	text39
  7550  16B4                     __ptext39:	
  7551 ;; *************** function ___lwtoft *****************
  7552 ;; Defined at:
  7553 ;;		line 28 in file "C:\Program Files (x86)\Microchip\xc8\v1.33\sources\common\lwtoft.c"
  7554 ;; Parameters:    Size  Location     Type
  7555 ;;  c               2    8[COMMON] unsigned int 
  7556 ;; Auto vars:     Size  Location     Type
  7557 ;;		None
  7558 ;; Return value:  Size  Location     Type
  7559 ;;                  3    8[COMMON] float 
  7560 ;; Registers used:
  7561 ;;		wreg, status,2, status,0, pclath, cstack
  7562 ;; Tracked objects:
  7563 ;;		On entry : 0/0
  7564 ;;		On exit  : 0/0
  7565 ;;		Unchanged: 0/0
  7566 ;; Data sizes:     COMMON   BANK0   BANK1   BANK3   BANK2
  7567 ;;      Params:         3       0       0       0       0
  7568 ;;      Locals:         0       0       0       0       0
  7569 ;;      Temps:          1       0       0       0       0
  7570 ;;      Totals:         4       0       0       0       0
  7571 ;;Total ram usage:        4 bytes
  7572 ;; Hardware stack levels used:    1
  7573 ;; Hardware stack levels required when called:    1
  7574 ;; This function calls:
  7575 ;;		___ftpack
  7576 ;; This function is called by:
  7577 ;;		_ISR
  7578 ;; This function uses a non-reentrant model
  7579 ;;
  7580                           
  7581                           
  7582                           ;psect for function ___lwtoft
  7583  16B4                     ___lwtoft:	
  7584                           
  7585                           ;incstack = 0
  7586                           ; Regs used in ___lwtoft: [wreg+status,2+status,0+pclath+cstack]
  7587  16B4  0878               	movf	___lwtoft@c,w
  7588  16B5  00F0               	movwf	___ftpack@arg
  7589  16B6  0879               	movf	___lwtoft@c+1,w
  7590  16B7  00F1               	movwf	___ftpack@arg+1
  7591  16B8  01F2               	clrf	___ftpack@arg+2
  7592  16B9  308E               	movlw	142
  7593  16BA  00FB               	movwf	??___lwtoft
  7594  16BB  087B               	movf	??___lwtoft,w
  7595  16BC  00F3               	movwf	___ftpack@exp
  7596  16BD  01F4               	clrf	___ftpack@sign
  7597  16BE  120A  158A  2283   	fcall	___ftpack
  7598  16C1  0870               	movf	?___ftpack,w
  7599  16C2  00F8               	movwf	?___lwtoft
  7600  16C3  0871               	movf	?___ftpack+1,w
  7601  16C4  00F9               	movwf	?___lwtoft+1
  7602  16C5  0872               	movf	?___ftpack+2,w
  7603  16C6  00FA               	movwf	?___lwtoft+2
  7604  16C7  0008               	return
  7605  16C8                     __end_of___lwtoft:	
  7606                           
  7607                           	psect	text40
  7608  0B56                     __ptext40:	
  7609 ;; *************** function ___fttol *****************
  7610 ;; Defined at:
  7611 ;;		line 44 in file "C:\Program Files (x86)\Microchip\xc8\v1.33\sources\common\fttol.c"
  7612 ;; Parameters:    Size  Location     Type
  7613 ;;  f1              3   54[BANK0 ] float 
  7614 ;; Auto vars:     Size  Location     Type
  7615 ;;  lval            4   63[BANK0 ] unsigned long 
  7616 ;;  exp1            1   67[BANK0 ] unsigned char 
  7617 ;;  sign1           1   62[BANK0 ] unsigned char 
  7618 ;; Return value:  Size  Location     Type
  7619 ;;                  4   54[BANK0 ] long 
  7620 ;; Registers used:
  7621 ;;		wreg, status,2, status,0
  7622 ;; Tracked objects:
  7623 ;;		On entry : 0/0
  7624 ;;		On exit  : 0/0
  7625 ;;		Unchanged: 0/0
  7626 ;; Data sizes:     COMMON   BANK0   BANK1   BANK3   BANK2
  7627 ;;      Params:         0       4       0       0       0
  7628 ;;      Locals:         0       6       0       0       0
  7629 ;;      Temps:          0       4       0       0       0
  7630 ;;      Totals:         0      14       0       0       0
  7631 ;;Total ram usage:       14 bytes
  7632 ;; Hardware stack levels used:    1
  7633 ;; This function calls:
  7634 ;;		Nothing
  7635 ;; This function is called by:
  7636 ;;		_ISR
  7637 ;; This function uses a non-reentrant model
  7638 ;;
  7639                           
  7640                           
  7641                           ;psect for function ___fttol
  7642  0B56                     ___fttol:	
  7643                           
  7644                           ;incstack = 0
  7645                           ; Regs used in ___fttol: [wreg+status,2+status,0]
  7646  0B56  1283               	bcf	3,5	;RP0=0, select bank0
  7647  0B57  1303               	bcf	3,6	;RP1=0, select bank0
  7648  0B58  0856               	movf	___fttol@f1,w
  7649  0B59  00DA               	movwf	??___fttol
  7650  0B5A  0857               	movf	___fttol@f1+1,w
  7651  0B5B  00DB               	movwf	??___fttol+1
  7652  0B5C  0858               	movf	___fttol@f1+2,w
  7653  0B5D  00DC               	movwf	??___fttol+2
  7654  0B5E  1003               	clrc
  7655  0B5F  0D5B               	rlf	??___fttol+1,w
  7656  0B60  0D5C               	rlf	??___fttol+2,w
  7657  0B61  00DD               	movwf	??___fttol+3
  7658  0B62  085D               	movf	??___fttol+3,w
  7659  0B63  00E3               	movwf	___fttol@exp1
  7660  0B64  08E3               	movf	___fttol@exp1,f
  7661  0B65  1D03               	skipz
  7662  0B66  2B70               	goto	i1l3089
  7663  0B67  3000               	movlw	0
  7664  0B68  00D9               	movwf	?___fttol+3
  7665  0B69  3000               	movlw	0
  7666  0B6A  00D8               	movwf	?___fttol+2
  7667  0B6B  3000               	movlw	0
  7668  0B6C  00D7               	movwf	?___fttol+1
  7669  0B6D  3000               	movlw	0
  7670  0B6E  00D6               	movwf	?___fttol
  7671  0B6F  0008               	return
  7672  0B70                     i1l3089:	
  7673  0B70  0856               	movf	___fttol@f1,w
  7674  0B71  00DA               	movwf	??___fttol
  7675  0B72  0857               	movf	___fttol@f1+1,w
  7676  0B73  00DB               	movwf	??___fttol+1
  7677  0B74  0858               	movf	___fttol@f1+2,w
  7678  0B75  00DC               	movwf	??___fttol+2
  7679  0B76  3017               	movlw	23
  7680  0B77                     u390_25:	
  7681  0B77  1003               	clrc
  7682  0B78  0CDC               	rrf	??___fttol+2,f
  7683  0B79  0CDB               	rrf	??___fttol+1,f
  7684  0B7A  0CDA               	rrf	??___fttol,f
  7685  0B7B  3EFF               	addlw	-1
  7686  0B7C  1D03               	skipz
  7687  0B7D  2B77               	goto	u390_25
  7688  0B7E  085A               	movf	??___fttol,w
  7689  0B7F  00DD               	movwf	??___fttol+3
  7690  0B80  085D               	movf	??___fttol+3,w
  7691  0B81  00DE               	movwf	___fttol@sign1
  7692  0B82  17D7               	bsf	___fttol@f1+1,7
  7693  0B83  30FF               	movlw	255
  7694  0B84  05D6               	andwf	___fttol@f1,f
  7695  0B85  30FF               	movlw	255
  7696  0B86  05D7               	andwf	___fttol@f1+1,f
  7697  0B87  3000               	movlw	0
  7698  0B88  05D8               	andwf	___fttol@f1+2,f
  7699  0B89  0856               	movf	___fttol@f1,w
  7700  0B8A  00DF               	movwf	___fttol@lval
  7701  0B8B  0857               	movf	___fttol@f1+1,w
  7702  0B8C  00E0               	movwf	___fttol@lval+1
  7703  0B8D  0858               	movf	___fttol@f1+2,w
  7704  0B8E  00E1               	movwf	___fttol@lval+2
  7705  0B8F  01E2               	clrf	___fttol@lval+3
  7706  0B90  308E               	movlw	142
  7707  0B91  02E3               	subwf	___fttol@exp1,f
  7708  0B92  1FE3               	btfss	___fttol@exp1,7
  7709  0B93  2BB2               	goto	i1l3109
  7710  0B94  0863               	movf	___fttol@exp1,w
  7711  0B95  3A80               	xorlw	128
  7712  0B96  3E8F               	addlw	143
  7713  0B97  1803               	skipnc
  7714  0B98  2BA2               	goto	i1l3107
  7715  0B99  3000               	movlw	0
  7716  0B9A  00D9               	movwf	?___fttol+3
  7717  0B9B  3000               	movlw	0
  7718  0B9C  00D8               	movwf	?___fttol+2
  7719  0B9D  3000               	movlw	0
  7720  0B9E  00D7               	movwf	?___fttol+1
  7721  0B9F  3000               	movlw	0
  7722  0BA0  00D6               	movwf	?___fttol
  7723  0BA1  0008               	return
  7724  0BA2                     i1l3107:	
  7725  0BA2  3001               	movlw	1
  7726  0BA3                     u393_25:	
  7727  0BA3  1003               	clrc
  7728  0BA4  0CE2               	rrf	___fttol@lval+3,f
  7729  0BA5  0CE1               	rrf	___fttol@lval+2,f
  7730  0BA6  0CE0               	rrf	___fttol@lval+1,f
  7731  0BA7  0CDF               	rrf	___fttol@lval,f
  7732  0BA8  3EFF               	addlw	-1
  7733  0BA9  1D03               	skipz
  7734  0BAA  2BA3               	goto	u393_25
  7735  0BAB  3001               	movlw	1
  7736  0BAC  00DA               	movwf	??___fttol
  7737  0BAD  085A               	movf	??___fttol,w
  7738  0BAE  07E3               	addwf	___fttol@exp1,f
  7739  0BAF  1903               	btfsc	3,2
  7740  0BB0  2BCD               	goto	i1l3119
  7741  0BB1  2BA2               	goto	i1l3107
  7742  0BB2                     i1l3109:	
  7743  0BB2  3018               	movlw	24
  7744  0BB3  0263               	subwf	___fttol@exp1,w
  7745  0BB4  1C03               	skipc
  7746  0BB5  2BCA               	goto	i1l3117
  7747  0BB6  3000               	movlw	0
  7748  0BB7  00D9               	movwf	?___fttol+3
  7749  0BB8  3000               	movlw	0
  7750  0BB9  00D8               	movwf	?___fttol+2
  7751  0BBA  3000               	movlw	0
  7752  0BBB  00D7               	movwf	?___fttol+1
  7753  0BBC  3000               	movlw	0
  7754  0BBD  00D6               	movwf	?___fttol
  7755  0BBE  0008               	return
  7756  0BBF                     i1l3115:	
  7757  0BBF  3001               	movlw	1
  7758  0BC0  00DA               	movwf	??___fttol
  7759  0BC1                     u396_25:	
  7760  0BC1  1003               	clrc
  7761  0BC2  0DDF               	rlf	___fttol@lval,f
  7762  0BC3  0DE0               	rlf	___fttol@lval+1,f
  7763  0BC4  0DE1               	rlf	___fttol@lval+2,f
  7764  0BC5  0DE2               	rlf	___fttol@lval+3,f
  7765  0BC6  0BDA               	decfsz	??___fttol,f
  7766  0BC7  2BC1               	goto	u396_25
  7767  0BC8  3001               	movlw	1
  7768  0BC9  02E3               	subwf	___fttol@exp1,f
  7769  0BCA                     i1l3117:	
  7770  0BCA  08E3               	movf	___fttol@exp1,f
  7771  0BCB  1D03               	skipz
  7772  0BCC  2BBF               	goto	i1l3115
  7773  0BCD                     i1l3119:	
  7774  0BCD  085E               	movf	___fttol@sign1,w
  7775  0BCE  1903               	btfsc	3,2
  7776  0BCF  2BDB               	goto	i1l3123
  7777  0BD0  09DF               	comf	___fttol@lval,f
  7778  0BD1  09E0               	comf	___fttol@lval+1,f
  7779  0BD2  09E1               	comf	___fttol@lval+2,f
  7780  0BD3  09E2               	comf	___fttol@lval+3,f
  7781  0BD4  0ADF               	incf	___fttol@lval,f
  7782  0BD5  1903               	skipnz
  7783  0BD6  0AE0               	incf	___fttol@lval+1,f
  7784  0BD7  1903               	skipnz
  7785  0BD8  0AE1               	incf	___fttol@lval+2,f
  7786  0BD9  1903               	skipnz
  7787  0BDA  0AE2               	incf	___fttol@lval+3,f
  7788  0BDB                     i1l3123:	
  7789  0BDB  0862               	movf	___fttol@lval+3,w
  7790  0BDC  00D9               	movwf	?___fttol+3
  7791  0BDD  0861               	movf	___fttol@lval+2,w
  7792  0BDE  00D8               	movwf	?___fttol+2
  7793  0BDF  0860               	movf	___fttol@lval+1,w
  7794  0BE0  00D7               	movwf	?___fttol+1
  7795  0BE1  085F               	movf	___fttol@lval,w
  7796  0BE2  00D6               	movwf	?___fttol
  7797  0BE3  0008               	return
  7798  0BE4                     __end_of___fttol:	
  7799                           
  7800                           	psect	text41
  7801  0BE4                     __ptext41:	
  7802 ;; *************** function ___ftmul *****************
  7803 ;; Defined at:
  7804 ;;		line 62 in file "C:\Program Files (x86)\Microchip\xc8\v1.33\sources\common\ftmul.c"
  7805 ;; Parameters:    Size  Location     Type
  7806 ;;  f1              3   38[BANK0 ] float 
  7807 ;;  f2              3   41[BANK0 ] float 
  7808 ;; Auto vars:     Size  Location     Type
  7809 ;;  f3_as_produc    3   49[BANK0 ] unsigned um
  7810 ;;  sign            1   53[BANK0 ] unsigned char 
  7811 ;;  cntr            1   52[BANK0 ] unsigned char 
  7812 ;;  exp             1   48[BANK0 ] unsigned char 
  7813 ;; Return value:  Size  Location     Type
  7814 ;;                  3   38[BANK0 ] float 
  7815 ;; Registers used:
  7816 ;;		wreg, status,2, status,0, pclath, cstack
  7817 ;; Tracked objects:
  7818 ;;		On entry : 0/0
  7819 ;;		On exit  : 0/0
  7820 ;;		Unchanged: 0/0
  7821 ;; Data sizes:     COMMON   BANK0   BANK1   BANK3   BANK2
  7822 ;;      Params:         0       6       0       0       0
  7823 ;;      Locals:         0       6       0       0       0
  7824 ;;      Temps:          0       4       0       0       0
  7825 ;;      Totals:         0      16       0       0       0
  7826 ;;Total ram usage:       16 bytes
  7827 ;; Hardware stack levels used:    1
  7828 ;; Hardware stack levels required when called:    1
  7829 ;; This function calls:
  7830 ;;		___ftpack
  7831 ;; This function is called by:
  7832 ;;		_ISR
  7833 ;; This function uses a non-reentrant model
  7834 ;;
  7835                           
  7836                           
  7837                           ;psect for function ___ftmul
  7838  0BE4                     ___ftmul:	
  7839                           
  7840                           ;incstack = 0
  7841                           ; Regs used in ___ftmul: [wreg+status,2+status,0+pclath+cstack]
  7842  0BE4  1283               	bcf	3,5	;RP0=0, select bank0
  7843  0BE5  1303               	bcf	3,6	;RP1=0, select bank0
  7844  0BE6  0846               	movf	___ftmul@f1,w
  7845  0BE7  00CC               	movwf	??___ftmul
  7846  0BE8  0847               	movf	___ftmul@f1+1,w
  7847  0BE9  00CD               	movwf	??___ftmul+1
  7848  0BEA  0848               	movf	___ftmul@f1+2,w
  7849  0BEB  00CE               	movwf	??___ftmul+2
  7850  0BEC  1003               	clrc
  7851  0BED  0D4D               	rlf	??___ftmul+1,w
  7852  0BEE  0D4E               	rlf	??___ftmul+2,w
  7853  0BEF  00CF               	movwf	??___ftmul+3
  7854  0BF0  084F               	movf	??___ftmul+3,w
  7855  0BF1  00D0               	movwf	___ftmul@exp
  7856  0BF2  08D0               	movf	___ftmul@exp,f
  7857  0BF3  1D03               	skipz
  7858  0BF4  2BFC               	goto	i1l3039
  7859  0BF5  3000               	movlw	0
  7860  0BF6  00C6               	movwf	?___ftmul
  7861  0BF7  3000               	movlw	0
  7862  0BF8  00C7               	movwf	?___ftmul+1
  7863  0BF9  3000               	movlw	0
  7864  0BFA  00C8               	movwf	?___ftmul+2
  7865  0BFB  0008               	return
  7866  0BFC                     i1l3039:	
  7867  0BFC  0849               	movf	___ftmul@f2,w
  7868  0BFD  00CC               	movwf	??___ftmul
  7869  0BFE  084A               	movf	___ftmul@f2+1,w
  7870  0BFF  00CD               	movwf	??___ftmul+1
  7871  0C00  084B               	movf	___ftmul@f2+2,w
  7872  0C01  00CE               	movwf	??___ftmul+2
  7873  0C02  1003               	clrc
  7874  0C03  0D4D               	rlf	??___ftmul+1,w
  7875  0C04  0D4E               	rlf	??___ftmul+2,w
  7876  0C05  00CF               	movwf	??___ftmul+3
  7877  0C06  084F               	movf	??___ftmul+3,w
  7878  0C07  00D5               	movwf	___ftmul@sign
  7879  0C08  08D5               	movf	___ftmul@sign,f
  7880  0C09  1D03               	skipz
  7881  0C0A  2C12               	goto	i1l3045
  7882  0C0B  3000               	movlw	0
  7883  0C0C  00C6               	movwf	?___ftmul
  7884  0C0D  3000               	movlw	0
  7885  0C0E  00C7               	movwf	?___ftmul+1
  7886  0C0F  3000               	movlw	0
  7887  0C10  00C8               	movwf	?___ftmul+2
  7888  0C11  0008               	return
  7889  0C12                     i1l3045:	
  7890  0C12  0855               	movf	___ftmul@sign,w
  7891  0C13  3E7B               	addlw	123
  7892  0C14  00CC               	movwf	??___ftmul
  7893  0C15  084C               	movf	??___ftmul,w
  7894  0C16  07D0               	addwf	___ftmul@exp,f
  7895  0C17  0846               	movf	___ftmul@f1,w
  7896  0C18  00CC               	movwf	??___ftmul
  7897  0C19  0847               	movf	___ftmul@f1+1,w
  7898  0C1A  00CD               	movwf	??___ftmul+1
  7899  0C1B  0848               	movf	___ftmul@f1+2,w
  7900  0C1C  00CE               	movwf	??___ftmul+2
  7901  0C1D  3010               	movlw	16
  7902  0C1E                     u377_25:	
  7903  0C1E  1003               	clrc
  7904  0C1F  0CCE               	rrf	??___ftmul+2,f
  7905  0C20  0CCD               	rrf	??___ftmul+1,f
  7906  0C21  0CCC               	rrf	??___ftmul,f
  7907  0C22  3EFF               	addlw	-1
  7908  0C23  1D03               	skipz
  7909  0C24  2C1E               	goto	u377_25
  7910  0C25  084C               	movf	??___ftmul,w
  7911  0C26  00CF               	movwf	??___ftmul+3
  7912  0C27  084F               	movf	??___ftmul+3,w
  7913  0C28  00D5               	movwf	___ftmul@sign
  7914  0C29  0849               	movf	___ftmul@f2,w
  7915  0C2A  00CC               	movwf	??___ftmul
  7916  0C2B  084A               	movf	___ftmul@f2+1,w
  7917  0C2C  00CD               	movwf	??___ftmul+1
  7918  0C2D  084B               	movf	___ftmul@f2+2,w
  7919  0C2E  00CE               	movwf	??___ftmul+2
  7920  0C2F  3010               	movlw	16
  7921  0C30                     u378_25:	
  7922  0C30  1003               	clrc
  7923  0C31  0CCE               	rrf	??___ftmul+2,f
  7924  0C32  0CCD               	rrf	??___ftmul+1,f
  7925  0C33  0CCC               	rrf	??___ftmul,f
  7926  0C34  3EFF               	addlw	-1
  7927  0C35  1D03               	skipz
  7928  0C36  2C30               	goto	u378_25
  7929  0C37  084C               	movf	??___ftmul,w
  7930  0C38  00CF               	movwf	??___ftmul+3
  7931  0C39  084F               	movf	??___ftmul+3,w
  7932  0C3A  06D5               	xorwf	___ftmul@sign,f
  7933  0C3B  3080               	movlw	128
  7934  0C3C  00CC               	movwf	??___ftmul
  7935  0C3D  084C               	movf	??___ftmul,w
  7936  0C3E  05D5               	andwf	___ftmul@sign,f
  7937  0C3F  17C7               	bsf	___ftmul@f1+1,7
  7938  0C40  17CA               	bsf	___ftmul@f2+1,7
  7939  0C41  30FF               	movlw	255
  7940  0C42  05C9               	andwf	___ftmul@f2,f
  7941  0C43  30FF               	movlw	255
  7942  0C44  05CA               	andwf	___ftmul@f2+1,f
  7943  0C45  3000               	movlw	0
  7944  0C46  05CB               	andwf	___ftmul@f2+2,f
  7945  0C47  3000               	movlw	0
  7946  0C48  00D1               	movwf	___ftmul@f3_as_product
  7947  0C49  3000               	movlw	0
  7948  0C4A  00D2               	movwf	___ftmul@f3_as_product+1
  7949  0C4B  3000               	movlw	0
  7950  0C4C  00D3               	movwf	___ftmul@f3_as_product+2
  7951  0C4D  3007               	movlw	7
  7952  0C4E  00CC               	movwf	??___ftmul
  7953  0C4F  084C               	movf	??___ftmul,w
  7954  0C50  00D4               	movwf	___ftmul@cntr
  7955  0C51                     i1l3057:	
  7956  0C51  1C46               	btfss	___ftmul@f1,0
  7957  0C52  2C61               	goto	i1l3061
  7958  0C53  0849               	movf	___ftmul@f2,w
  7959  0C54  07D1               	addwf	___ftmul@f3_as_product,f
  7960  0C55  084A               	movf	___ftmul@f2+1,w
  7961  0C56  1103               	clrz
  7962  0C57  1803               	skipnc
  7963  0C58  0A4A               	incf	___ftmul@f2+1,w
  7964  0C59  1D03               	btfss	3,2
  7965  0C5A  07D2               	addwf	___ftmul@f3_as_product+1,f
  7966  0C5B  084B               	movf	___ftmul@f2+2,w
  7967  0C5C  1103               	clrz
  7968  0C5D  1803               	skipnc
  7969  0C5E  0A4B               	incf	___ftmul@f2+2,w
  7970  0C5F  1D03               	btfss	3,2
  7971  0C60  07D3               	addwf	___ftmul@f3_as_product+2,f
  7972  0C61                     i1l3061:	
  7973  0C61  3001               	movlw	1
  7974  0C62                     u381_25:	
  7975  0C62  1003               	clrc
  7976  0C63  0CC8               	rrf	___ftmul@f1+2,f
  7977  0C64  0CC7               	rrf	___ftmul@f1+1,f
  7978  0C65  0CC6               	rrf	___ftmul@f1,f
  7979  0C66  3EFF               	addlw	-1
  7980  0C67  1D03               	skipz
  7981  0C68  2C62               	goto	u381_25
  7982  0C69  3001               	movlw	1
  7983  0C6A                     u382_25:	
  7984  0C6A  1003               	clrc
  7985  0C6B  0DC9               	rlf	___ftmul@f2,f
  7986  0C6C  0DCA               	rlf	___ftmul@f2+1,f
  7987  0C6D  0DCB               	rlf	___ftmul@f2+2,f
  7988  0C6E  3EFF               	addlw	-1
  7989  0C6F  1D03               	skipz
  7990  0C70  2C6A               	goto	u382_25
  7991  0C71  3001               	movlw	1
  7992  0C72  02D4               	subwf	___ftmul@cntr,f
  7993  0C73  1D03               	btfss	3,2
  7994  0C74  2C51               	goto	i1l3057
  7995  0C75  3009               	movlw	9
  7996  0C76  00CC               	movwf	??___ftmul
  7997  0C77  084C               	movf	??___ftmul,w
  7998  0C78  00D4               	movwf	___ftmul@cntr
  7999  0C79                     i1l3069:	
  8000  0C79  1C46               	btfss	___ftmul@f1,0
  8001  0C7A  2C89               	goto	i1l3073
  8002  0C7B  0849               	movf	___ftmul@f2,w
  8003  0C7C  07D1               	addwf	___ftmul@f3_as_product,f
  8004  0C7D  084A               	movf	___ftmul@f2+1,w
  8005  0C7E  1103               	clrz
  8006  0C7F  1803               	skipnc
  8007  0C80  0A4A               	incf	___ftmul@f2+1,w
  8008  0C81  1D03               	btfss	3,2
  8009  0C82  07D2               	addwf	___ftmul@f3_as_product+1,f
  8010  0C83  084B               	movf	___ftmul@f2+2,w
  8011  0C84  1103               	clrz
  8012  0C85  1803               	skipnc
  8013  0C86  0A4B               	incf	___ftmul@f2+2,w
  8014  0C87  1D03               	btfss	3,2
  8015  0C88  07D3               	addwf	___ftmul@f3_as_product+2,f
  8016  0C89                     i1l3073:	
  8017  0C89  3001               	movlw	1
  8018  0C8A                     u386_25:	
  8019  0C8A  1003               	clrc
  8020  0C8B  0CC8               	rrf	___ftmul@f1+2,f
  8021  0C8C  0CC7               	rrf	___ftmul@f1+1,f
  8022  0C8D  0CC6               	rrf	___ftmul@f1,f
  8023  0C8E  3EFF               	addlw	-1
  8024  0C8F  1D03               	skipz
  8025  0C90  2C8A               	goto	u386_25
  8026  0C91  3001               	movlw	1
  8027  0C92                     u387_25:	
  8028  0C92  1003               	clrc
  8029  0C93  0CD3               	rrf	___ftmul@f3_as_product+2,f
  8030  0C94  0CD2               	rrf	___ftmul@f3_as_product+1,f
  8031  0C95  0CD1               	rrf	___ftmul@f3_as_product,f
  8032  0C96  3EFF               	addlw	-1
  8033  0C97  1D03               	skipz
  8034  0C98  2C92               	goto	u387_25
  8035  0C99  3001               	movlw	1
  8036  0C9A  02D4               	subwf	___ftmul@cntr,f
  8037  0C9B  1D03               	btfss	3,2
  8038  0C9C  2C79               	goto	i1l3069
  8039  0C9D  0851               	movf	___ftmul@f3_as_product,w
  8040  0C9E  00F0               	movwf	___ftpack@arg
  8041  0C9F  0852               	movf	___ftmul@f3_as_product+1,w
  8042  0CA0  00F1               	movwf	___ftpack@arg+1
  8043  0CA1  0853               	movf	___ftmul@f3_as_product+2,w
  8044  0CA2  00F2               	movwf	___ftpack@arg+2
  8045  0CA3  0850               	movf	___ftmul@exp,w
  8046  0CA4  00CC               	movwf	??___ftmul
  8047  0CA5  084C               	movf	??___ftmul,w
  8048  0CA6  00F3               	movwf	___ftpack@exp
  8049  0CA7  0855               	movf	___ftmul@sign,w
  8050  0CA8  00CD               	movwf	??___ftmul+1
  8051  0CA9  084D               	movf	??___ftmul+1,w
  8052  0CAA  00F4               	movwf	___ftpack@sign
  8053  0CAB  120A  158A  2283   	fcall	___ftpack
  8054  0CAE  0870               	movf	?___ftpack,w
  8055  0CAF  1283               	bcf	3,5	;RP0=0, select bank0
  8056  0CB0  1303               	bcf	3,6	;RP1=0, select bank0
  8057  0CB1  00C6               	movwf	?___ftmul
  8058  0CB2  0871               	movf	?___ftpack+1,w
  8059  0CB3  00C7               	movwf	?___ftmul+1
  8060  0CB4  0872               	movf	?___ftpack+2,w
  8061  0CB5  00C8               	movwf	?___ftmul+2
  8062  0CB6  0008               	return
  8063  0CB7                     __end_of___ftmul:	
  8064                           
  8065                           	psect	text42
  8066  0A83                     __ptext42:	
  8067 ;; *************** function ___ftpack *****************
  8068 ;; Defined at:
  8069 ;;		line 62 in file "C:\Program Files (x86)\Microchip\xc8\v1.33\sources\common\float.c"
  8070 ;; Parameters:    Size  Location     Type
  8071 ;;  arg             3    0[COMMON] unsigned um
  8072 ;;  exp             1    3[COMMON] unsigned char 
  8073 ;;  sign            1    4[COMMON] unsigned char 
  8074 ;; Auto vars:     Size  Location     Type
  8075 ;;		None
  8076 ;; Return value:  Size  Location     Type
  8077 ;;                  3    0[COMMON] float 
  8078 ;; Registers used:
  8079 ;;		wreg, status,2, status,0
  8080 ;; Tracked objects:
  8081 ;;		On entry : 0/0
  8082 ;;		On exit  : 0/0
  8083 ;;		Unchanged: 0/0
  8084 ;; Data sizes:     COMMON   BANK0   BANK1   BANK3   BANK2
  8085 ;;      Params:         5       0       0       0       0
  8086 ;;      Locals:         0       0       0       0       0
  8087 ;;      Temps:          3       0       0       0       0
  8088 ;;      Totals:         8       0       0       0       0
  8089 ;;Total ram usage:        8 bytes
  8090 ;; Hardware stack levels used:    1
  8091 ;; This function calls:
  8092 ;;		Nothing
  8093 ;; This function is called by:
  8094 ;;		___ftadd
  8095 ;;		___ftdiv
  8096 ;;		___ftmul
  8097 ;;		___lwtoft
  8098 ;; This function uses a non-reentrant model
  8099 ;;
  8100                           
  8101                           
  8102                           ;psect for function ___ftpack
  8103  0A83                     ___ftpack:	
  8104                           
  8105                           ;incstack = 0
  8106                           ; Regs used in ___ftpack: [wreg+status,2+status,0]
  8107  0A83  0873               	movf	___ftpack@exp,w
  8108  0A84  1903               	btfsc	3,2
  8109  0A85  2A8B               	goto	i1l2279
  8110  0A86  0872               	movf	___ftpack@arg+2,w
  8111  0A87  0471               	iorwf	___ftpack@arg+1,w
  8112  0A88  0470               	iorwf	___ftpack@arg,w
  8113  0A89  1D03               	skipz
  8114  0A8A  2A9E               	goto	i1l2285
  8115  0A8B                     i1l2279:	
  8116  0A8B  3000               	movlw	0
  8117  0A8C  00F0               	movwf	?___ftpack
  8118  0A8D  3000               	movlw	0
  8119  0A8E  00F1               	movwf	?___ftpack+1
  8120  0A8F  3000               	movlw	0
  8121  0A90  00F2               	movwf	?___ftpack+2
  8122  0A91  0008               	return
  8123  0A92                     i1l2283:	
  8124  0A92  3001               	movlw	1
  8125  0A93  00F5               	movwf	??___ftpack
  8126  0A94  0875               	movf	??___ftpack,w
  8127  0A95  07F3               	addwf	___ftpack@exp,f
  8128  0A96  3001               	movlw	1
  8129  0A97                     u240_25:	
  8130  0A97  1003               	clrc
  8131  0A98  0CF2               	rrf	___ftpack@arg+2,f
  8132  0A99  0CF1               	rrf	___ftpack@arg+1,f
  8133  0A9A  0CF0               	rrf	___ftpack@arg,f
  8134  0A9B  3EFF               	addlw	-1
  8135  0A9C  1D03               	skipz
  8136  0A9D  2A97               	goto	u240_25
  8137  0A9E                     i1l2285:	
  8138  0A9E  30FE               	movlw	254
  8139  0A9F  0572               	andwf	___ftpack@arg+2,w
  8140  0AA0  1903               	btfsc	3,2
  8141  0AA1  2AB9               	goto	i1l677
  8142  0AA2  2A92               	goto	i1l2283
  8143  0AA3                     i1l2287:	
  8144  0AA3  3001               	movlw	1
  8145  0AA4  00F5               	movwf	??___ftpack
  8146  0AA5  0875               	movf	??___ftpack,w
  8147  0AA6  07F3               	addwf	___ftpack@exp,f
  8148  0AA7  3001               	movlw	1
  8149  0AA8  07F0               	addwf	___ftpack@arg,f
  8150  0AA9  3000               	movlw	0
  8151  0AAA  1803               	skipnc
  8152  0AAB  3001               	movlw	1
  8153  0AAC  07F1               	addwf	___ftpack@arg+1,f
  8154  0AAD  3000               	movlw	0
  8155  0AAE  1803               	skipnc
  8156  0AAF  3001               	movlw	1
  8157  0AB0  07F2               	addwf	___ftpack@arg+2,f
  8158  0AB1  3001               	movlw	1
  8159  0AB2                     u242_25:	
  8160  0AB2  1003               	clrc
  8161  0AB3  0CF2               	rrf	___ftpack@arg+2,f
  8162  0AB4  0CF1               	rrf	___ftpack@arg+1,f
  8163  0AB5  0CF0               	rrf	___ftpack@arg,f
  8164  0AB6  3EFF               	addlw	-1
  8165  0AB7  1D03               	skipz
  8166  0AB8  2AB2               	goto	u242_25
  8167  0AB9                     i1l677:	
  8168  0AB9  30FF               	movlw	255
  8169  0ABA  0572               	andwf	___ftpack@arg+2,w
  8170  0ABB  1903               	btfsc	3,2
  8171  0ABC  2AC8               	goto	i1l2295
  8172  0ABD  2AA3               	goto	i1l2287
  8173  0ABE                     i1l2293:	
  8174  0ABE  3001               	movlw	1
  8175  0ABF  02F3               	subwf	___ftpack@exp,f
  8176  0AC0  3001               	movlw	1
  8177  0AC1                     u244_25:	
  8178  0AC1  1003               	clrc
  8179  0AC2  0DF0               	rlf	___ftpack@arg,f
  8180  0AC3  0DF1               	rlf	___ftpack@arg+1,f
  8181  0AC4  0DF2               	rlf	___ftpack@arg+2,f
  8182  0AC5  3EFF               	addlw	-1
  8183  0AC6  1D03               	skipz
  8184  0AC7  2AC1               	goto	u244_25
  8185  0AC8                     i1l2295:	
  8186  0AC8  1FF1               	btfss	___ftpack@arg+1,7
  8187  0AC9  2ABE               	goto	i1l2293
  8188  0ACA  1873               	btfsc	___ftpack@exp,0
  8189  0ACB  2AD2               	goto	i1l683
  8190  0ACC  30FF               	movlw	255
  8191  0ACD  05F0               	andwf	___ftpack@arg,f
  8192  0ACE  307F               	movlw	127
  8193  0ACF  05F1               	andwf	___ftpack@arg+1,f
  8194  0AD0  30FF               	movlw	255
  8195  0AD1  05F2               	andwf	___ftpack@arg+2,f
  8196  0AD2                     i1l683:	
  8197  0AD2  1003               	clrc
  8198  0AD3  0CF3               	rrf	___ftpack@exp,f
  8199  0AD4  0873               	movf	___ftpack@exp,w
  8200  0AD5  00F5               	movwf	??___ftpack
  8201  0AD6  01F6               	clrf	??___ftpack+1
  8202  0AD7  01F7               	clrf	??___ftpack+2
  8203  0AD8  3010               	movlw	16
  8204  0AD9                     u247_25:	
  8205  0AD9  1003               	clrc
  8206  0ADA  0DF5               	rlf	??___ftpack,f
  8207  0ADB  0DF6               	rlf	??___ftpack+1,f
  8208  0ADC  0DF7               	rlf	??___ftpack+2,f
  8209  0ADD  3EFF               	addlw	-1
  8210  0ADE  1D03               	skipz
  8211  0ADF  2AD9               	goto	u247_25
  8212  0AE0  0875               	movf	??___ftpack,w
  8213  0AE1  04F0               	iorwf	___ftpack@arg,f
  8214  0AE2  0876               	movf	??___ftpack+1,w
  8215  0AE3  04F1               	iorwf	___ftpack@arg+1,f
  8216  0AE4  0877               	movf	??___ftpack+2,w
  8217  0AE5  04F2               	iorwf	___ftpack@arg+2,f
  8218  0AE6  0874               	movf	___ftpack@sign,w
  8219  0AE7  1903               	btfsc	3,2
  8220  0AE8  0008               	return
  8221  0AE9  17F2               	bsf	___ftpack@arg+2,7
  8222  0AEA  0008               	return
  8223  0AEB                     __end_of___ftpack:	
  8224  0001                     
  8225                           	psect	functab
  8226  0100                     __pfunctab:	
  8227  0100                     __fptable:	
  8228  0100                     fptable:	
  8229  0100  00FF               	movwf	(btemp+1)& (0+127)
  8230  0101  3001               	movlw	high fptable
  8231  0102  008A               	movwf	10
  8232  0103  087F               	movf	(btemp+1)& (0+127),w
  8233  0104  0782               	addwf	2,f
  8234  0105                     fpbase:	
  8235  0105  2905               	goto	fpbase	; Call via a null pointer and you will get stuck here.
  8236  0106                     fp__putch:	
  8237  0106  120A  118A  2803   	ljmp	_putch
  8238  0109                     __end_of__fptable:	
  8239  0109                     __i1fptable:	
  8240  0109                     i1fptable:	
  8241  0109  00FF               	movwf	(btemp+1)& (0+127)
  8242  010A  3001               	movlw	high i1fptable
  8243  010B  008A               	movwf	10
  8244  010C  087F               	movf	(btemp+1)& (0+127),w
  8245  010D  0782               	addwf	2,f
  8246  010E                     i1fpbase:	
  8247  010E  290E               	goto	i1fpbase	; Call via a null pointer and you will get stuck here.
  8248  010F                     fp_i1_putch:	
  8249  010F  120A  158A  2888   	ljmp	i1_putch
  8250  0112                     __end_of__i1fptable:	
  8251  007E                     btemp	set	126	;btemp
  8252  007E                     wtemp	set	126
  8253  007E                     wtemp0	set	126
  8254  0080                     wtemp1	set	128
  8255  0082                     wtemp2	set	130
  8256  0084                     wtemp3	set	132
  8257  0086                     wtemp4	set	134
  8258  0088                     wtemp5	set	136
  8259  007F                     wtemp6	set	127
  8260  007E                     ttemp	set	126
  8261  007E                     ttemp0	set	126
  8262  0081                     ttemp1	set	129
  8263  0084                     ttemp2	set	132
  8264  0087                     ttemp3	set	135
  8265  007F                     ttemp4	set	127
  8266  007E                     ltemp	set	126
  8267  007E                     ltemp0	set	126
  8268  0082                     ltemp1	set	130
  8269  0086                     ltemp2	set	134
  8270  0080                     ltemp3	set	128


Data Sizes:
    Strings     110
    Constant    10
    Data        3
    BSS         27
    Persistent  0
    Stack       0

Auto Spaces:
    Space          Size  Autos    Used
    COMMON           14     14      14
    BANK0            80     76      80
    BANK1            80     45      71
    BANK3            96      3       3
    BANK2            96      0       0

Pointer List with Targets:

    sprintf@f	PTR const unsigned char  size(1) Largest target is 5
		 -> STR_8(CODE[5]), 

    sprintf@ap	PTR void [1] size(1) Largest target is 2
		 -> ?_sprintf(BANK1[2]), ?_printf(COMMON[2]), 

    sprintf@wh	PTR unsigned char  size(1) Largest target is 10
		 -> display(BANK1[10]), 

    pb.func	PTR FTN(unsigned char ,)void  size(1) Largest target is 0
		 -> putch(), Absolute function(), 

    pb.ptr	PTR unsigned char  size(1) Largest target is 10
		 -> NULL(NULL[0]), display(BANK1[10]), 

    printf@f	PTR const unsigned char  size(1) Largest target is 2
		 -> STR_5(CODE[2]), STR_4(CODE[2]), STR_3(CODE[2]), STR_2(CODE[2]), 
		 -> STR_1(CODE[2]), 

    printf@ap	PTR void [1] size(1) Largest target is 2
		 -> ?_sprintf(BANK1[2]), ?_printf(COMMON[2]), 

    pb.func	PTR FTN(unsigned char ,)void  size(1) Largest target is 0
		 -> i1_putch(), putch(), Absolute function(), 

    pb.ptr	PTR unsigned char  size(1) Largest target is 10
		 -> NULL(NULL[0]), display(BANK1[10]), 

    _doprnt@ap	PTR PTR void  size(1) Largest target is 2
		 -> sprintf@ap(BANK1[1]), printf@ap(BANK0[1]), 

    _doprnt@f	PTR const unsigned char  size(1) Largest target is 5
		 -> STR_8(CODE[5]), STR_5(CODE[2]), STR_4(CODE[2]), STR_3(CODE[2]), 
		 -> STR_2(CODE[2]), STR_1(CODE[2]), 

    S1187__prbuf$func	PTR FTN(unsigned char ,)void  size(1) Largest target is 0
		 -> putch(), Absolute function(), 

    _doprnt@pb.func	PTR FTN(unsigned char ,)void  size(1) Largest target is 0
		 -> putch(), Absolute function(), 

    S1187__prbuf$ptr	PTR unsigned char  size(1) Largest target is 10
		 -> NULL(NULL[0]), display(BANK1[10]), 

    _doprnt@pb.ptr	PTR unsigned char  size(1) Largest target is 10
		 -> NULL(NULL[0]), display(BANK1[10]), 

    _doprnt@pb	PTR struct __prbuf size(1) Largest target is 3
		 -> sprintf@pb(BANK1[2]), printf@pb(BANK0[2]), 

    S1213$_cp	PTR const unsigned char  size(1) Largest target is 0

    _val._str._cp	PTR const unsigned char  size(1) Largest target is 0

    LCD_WriteString@Str	PTR const unsigned char  size(2) Largest target is 10
		 -> STR_10(CODE[6]), display(BANK1[10]), 

    USART_WriteString@str	PTR const unsigned char  size(2) Largest target is 40
		 -> STR_11(CODE[40]), STR_9(CODE[3]), display(BANK1[10]), STR_7(CODE[20]), 
		 -> STR_6(CODE[29]), 


Critical Paths under _main in COMMON

    None.

Critical Paths under _ISR in COMMON

    _ISR->___ftadd
    i1_PWM_DutyCycle2->___ftadd
    _trapezoidal->___ftadd
    i1__doprnt->i1___lwmod
    i1___lwmod->i1___lwdiv
    ___ftdiv->___ftadd
    ___ftadd->___ftpack
    ___lwtoft->___ftpack
    ___fttol->___ftadd
    ___ftmul->___ftadd

Critical Paths under _main in BANK0

    None.

Critical Paths under _ISR in BANK0

    _ISR->i1_PWM_DutyCycle2
    i1_PWM_DutyCycle2->___fttol
    _trapezoidal->___ftdiv
    _printf->i1__doprnt
    ___ftdiv->___ftadd
    ___fttol->___ftmul
    ___ftmul->_trapezoidal

Critical Paths under _main in BANK1

    _main->_sprintf
    _sprintf->__doprnt
    __doprnt->___lwmod
    ___lwmod->___lwdiv
    _USART_WriteString->_USART_WriteChar
    _USART_Init->___aldiv
    _LCD_WriteString->_LCD_WriteData
    _LCD_Init->_LCD_WriteCmd
    _LCD_Clear->_LCD_WriteCmd

Critical Paths under _ISR in BANK1

    None.

Critical Paths under _main in BANK3

    None.

Critical Paths under _ISR in BANK3

    None.

Critical Paths under _main in BANK2

    None.

Critical Paths under _ISR in BANK2

    None.

Call Graph Tables:

 ---------------------------------------------------------------------------------
 (Depth) Function   	        Calls       Base Space   Used Autos Params    Refs
 ---------------------------------------------------------------------------------
 (0) _main                                                 3     3      0    9341
                                              0 BANK3      3     3      0
                           _ADC_Init
                          _LCD_Clear
                         _LCD_Cursor
                           _LCD_Init
                    _LCD_WriteString
                     _PWM_DutyCycle1
                     _PWM_DutyCycle2
                           _PWM_Init
                        _TIMER0_Init
                         _TIMER0_Set
                         _USART_Init
                  _USART_WriteString
                            _sprintf
 ---------------------------------------------------------------------------------
 (1) _sprintf                                              9     6      3    7667
                                             36 BANK1      9     6      3
                            __doprnt
 ---------------------------------------------------------------------------------
 (2) __doprnt                                             15    13      2    6025
                                             21 BANK1     15    13      2
                   Absolute function *
                            ___lwdiv
                            ___lwmod
                             ___wmul
                            _isdigit
                              _putch *
 ---------------------------------------------------------------------------------
 (3) _putch                                                1     0      1     258
                                              7 BANK1      1     0      1
 ---------------------------------------------------------------------------------
 (3) _isdigit                                              2     2      0      68
                                              7 BANK1      2     2      0
 ---------------------------------------------------------------------------------
 (3) ___wmul                                               6     2      4     220
                                              7 BANK1      6     2      4
 ---------------------------------------------------------------------------------
 (3) ___lwmod                                              6     2      4     287
                                             15 BANK1      6     2      4
                            ___lwdiv (ARG)
 ---------------------------------------------------------------------------------
 (3) ___lwdiv                                              8     4      4     290
                                              7 BANK1      8     4      4
 ---------------------------------------------------------------------------------
 (8) Absolute function(Fake)                               1     0      1       0
                                              7 BANK1      1     0      1
 ---------------------------------------------------------------------------------
 (1) _USART_WriteString                                    2     0      2     387
                                              8 BANK1      2     0      2
                    _USART_WriteChar
 ---------------------------------------------------------------------------------
 (2) _USART_WriteChar                                      1     1      0      22
                                              7 BANK1      1     1      0
 ---------------------------------------------------------------------------------
 (1) _USART_Init                                           8     4      4     514
                                             22 BANK1      8     4      4
                            ___aldiv
 ---------------------------------------------------------------------------------
 (2) ___aldiv                                             15     7      8     428
                                              7 BANK1     15     7      8
 ---------------------------------------------------------------------------------
 (1) _TIMER0_Set                                           1     1      0      22
                                              7 BANK1      1     1      0
 ---------------------------------------------------------------------------------
 (1) _TIMER0_Init                                          0     0      0       0
 ---------------------------------------------------------------------------------
 (1) _PWM_Init                                             0     0      0       0
 ---------------------------------------------------------------------------------
 (1) _PWM_DutyCycle2                                       4     2      2     146
                                              7 BANK1      4     2      2
 ---------------------------------------------------------------------------------
 (1) _PWM_DutyCycle1                                       4     2      2     108
                                              7 BANK1      4     2      2
 ---------------------------------------------------------------------------------
 (1) _LCD_WriteString                                      2     0      2     195
                                              9 BANK1      2     0      2
                      _LCD_WriteData
 ---------------------------------------------------------------------------------
 (2) _LCD_WriteData                                        2     2      0      22
                                              7 BANK1      2     2      0
 ---------------------------------------------------------------------------------
 (1) _LCD_Init                                             2     2      0      22
                                              9 BANK1      2     2      0
                       _LCD_WriteCmd
 ---------------------------------------------------------------------------------
 (1) _LCD_Cursor                                           3     2      1     258
                                              7 BANK1      3     2      1
 ---------------------------------------------------------------------------------
 (1) _LCD_Clear                                            2     2      0      22
                                              9 BANK1      2     2      0
                       _LCD_WriteCmd
 ---------------------------------------------------------------------------------
 (2) _LCD_WriteCmd                                         2     2      0      22
                                              7 BANK1      2     2      0
 ---------------------------------------------------------------------------------
 (1) _ADC_Init                                             0     0      0       0
 ---------------------------------------------------------------------------------
 Estimated maximum stack depth 8
 ---------------------------------------------------------------------------------
 (Depth) Function   	        Calls       Base Space   Used Autos Params    Refs
 ---------------------------------------------------------------------------------
 (4) _ISR                                                 10    10      0   31632
                                             72 BANK0      4     4      0
                                              1 BANK1      6     6      0
                            ___ftadd
                            ___ftdiv
                            ___ftmul
                            ___fttol
                           ___lwtoft
                        _trapezoidal
                   i1_PWM_DutyCycle2
                       i1_TIMER0_Set
 ---------------------------------------------------------------------------------
 (5) i1_TIMER0_Set                                         1     1      0      22
                                              0 COMMON     1     1      0
 ---------------------------------------------------------------------------------
 (5) i1_PWM_DutyCycle2                                     4     2      2      70
                                             68 BANK0      4     2      2
                            ___ftadd (ARG)
                            ___ftmul (ARG)
                            ___fttol (ARG)
                           ___lwtoft (ARG)
                        _trapezoidal (ARG)
 ---------------------------------------------------------------------------------
 (5) _trapezoidal                                         15     0     15   18924
                                             23 BANK0     15     0     15
                            ___ftadd
                            ___ftdiv
                             ___ftge
                            ___ftneg
                           ___lwtoft (ARG)
                             _printf
 ---------------------------------------------------------------------------------
 (6) _printf                                               6     6      0    6881
                                             15 BANK0      6     6      0
                          i1__doprnt
 ---------------------------------------------------------------------------------
 (7) i1__doprnt                                           15    13      2    5371
                                              0 BANK0     15    13      2
                   Absolute function *
                          i1___lwdiv
                          i1___lwmod
                           i1___wmul
                          i1_isdigit
                            i1_putch *
 ---------------------------------------------------------------------------------
 (8) i1_putch                                              1     0      1     156
                                              0 COMMON     1     0      1
 ---------------------------------------------------------------------------------
 (8) i1_isdigit                                            2     2      0      68
                                              0 COMMON     2     2      0
 ---------------------------------------------------------------------------------
 (8) i1___wmul                                             6     2      4     144
                                              0 COMMON     6     2      4
 ---------------------------------------------------------------------------------
 (8) i1___lwmod                                            6     2      4     211
                                              8 COMMON     6     2      4
                          i1___lwdiv (ARG)
 ---------------------------------------------------------------------------------
 (8) i1___lwdiv                                            8     4      4     214
                                              0 COMMON     8     4      4
 ---------------------------------------------------------------------------------
 (8) Absolute function(Fake)                               1     0      1       0
                                              7 BANK1      1     0      1
 ---------------------------------------------------------------------------------
 (6) ___ftneg                                              3     0      3     557
                                              0 COMMON     3     0      3
 ---------------------------------------------------------------------------------
 (6) ___ftge                                              12     6      6    1928
                                              0 COMMON    12     6      6
 ---------------------------------------------------------------------------------
 (6) ___ftdiv                                             16    10      6    2968
                                              7 BANK0     16    10      6
                            ___ftadd (ARG)
                            ___ftneg (ARG)
                           ___ftpack
                           ___lwtoft (ARG)
 ---------------------------------------------------------------------------------
 (6) ___ftadd                                             13     7      6    4270
                                              8 COMMON     6     0      6
                                              0 BANK0      7     7      0
                            ___ftneg (ARG)
                           ___ftpack
 ---------------------------------------------------------------------------------
 (5) ___lwtoft                                             4     1      3    2198
                                              8 COMMON     4     1      3
                           ___ftpack
 ---------------------------------------------------------------------------------
 (5) ___fttol                                             14    10      4     380
                                             54 BANK0     14    10      4
                            ___ftadd (ARG)
                            ___ftdiv (ARG)
                            ___ftmul (ARG)
                           ___lwtoft (ARG)
                        _trapezoidal (ARG)
 ---------------------------------------------------------------------------------
 (5) ___ftmul                                             16    10      6    2630
                                             38 BANK0     16    10      6
                            ___ftadd (ARG)
                            ___ftdiv (ARG)
                           ___ftpack
                           ___lwtoft (ARG)
                        _trapezoidal (ARG)
 ---------------------------------------------------------------------------------
 (7) ___ftpack                                             8     3      5    2048
                                              0 COMMON     8     3      5
 ---------------------------------------------------------------------------------
 Estimated maximum stack depth 8
 ---------------------------------------------------------------------------------

 Call Graph Graphs:

 _main (ROOT)
   _ADC_Init
   _LCD_Clear
     _LCD_WriteCmd
   _LCD_Cursor
   _LCD_Init
     _LCD_WriteCmd
   _LCD_WriteString
     _LCD_WriteData
   _PWM_DutyCycle1
   _PWM_DutyCycle2
   _PWM_Init
   _TIMER0_Init
   _TIMER0_Set
   _USART_Init
     ___aldiv
   _USART_WriteString
     _USART_WriteChar
   _sprintf
     __doprnt
       Absolute function(Fake) *
       ___lwdiv *
       ___lwmod *
         ___lwdiv (ARG)
       ___wmul *
       _isdigit *
       _putch *

 _ISR (ROOT)
   ___ftadd
     ___ftneg (ARG)
     ___ftpack (ARG)
   ___ftdiv
     ___ftadd (ARG)
       ___ftneg (ARG)
       ___ftpack (ARG)
     ___ftneg (ARG)
     ___ftpack (ARG)
     ___lwtoft (ARG)
       ___ftpack
   ___ftmul
     ___ftadd (ARG)
       ___ftneg (ARG)
       ___ftpack (ARG)
     ___ftdiv (ARG)
       ___ftadd (ARG)
         ___ftneg (ARG)
         ___ftpack (ARG)
       ___ftneg (ARG)
       ___ftpack (ARG)
       ___lwtoft (ARG)
         ___ftpack
     ___ftpack (ARG)
     ___lwtoft (ARG)
       ___ftpack
     _trapezoidal (ARG)
       ___ftadd
         ___ftneg (ARG)
         ___ftpack (ARG)
       ___ftdiv
         ___ftadd (ARG)
           ___ftneg (ARG)
           ___ftpack (ARG)
         ___ftneg (ARG)
         ___ftpack (ARG)
         ___lwtoft (ARG)
           ___ftpack
       ___ftge
       ___ftneg
       ___lwtoft (ARG)
         ___ftpack
       _printf (ARG)
         i1__doprnt
           Absolute function(Fake) *
           i1___lwdiv *
           i1___lwmod *
             i1___lwdiv (ARG)
           i1___wmul *
           i1_isdigit *
           i1_putch *
   ___fttol
     ___ftadd (ARG)
       ___ftneg (ARG)
       ___ftpack (ARG)
     ___ftdiv (ARG)
       ___ftadd (ARG)
         ___ftneg (ARG)
         ___ftpack (ARG)
       ___ftneg (ARG)
       ___ftpack (ARG)
       ___lwtoft (ARG)
         ___ftpack
     ___ftmul (ARG)
       ___ftadd (ARG)
         ___ftneg (ARG)
         ___ftpack (ARG)
       ___ftdiv (ARG)
         ___ftadd (ARG)
           ___ftneg (ARG)
           ___ftpack (ARG)
         ___ftneg (ARG)
         ___ftpack (ARG)
         ___lwtoft (ARG)
           ___ftpack
       ___ftpack (ARG)
       ___lwtoft (ARG)
         ___ftpack
       _trapezoidal (ARG)
         ___ftadd
           ___ftneg (ARG)
           ___ftpack (ARG)
         ___ftdiv
           ___ftadd (ARG)
             ___ftneg (ARG)
             ___ftpack (ARG)
           ___ftneg (ARG)
           ___ftpack (ARG)
           ___lwtoft (ARG)
             ___ftpack
         ___ftge
         ___ftneg
         ___lwtoft (ARG)
           ___ftpack
         _printf (ARG)
           i1__doprnt
             Absolute function(Fake) *
             i1___lwdiv *
             i1___lwmod *
               i1___lwdiv (ARG)
             i1___wmul *
             i1_isdigit *
             i1_putch *
     ___lwtoft (ARG)
       ___ftpack
     _trapezoidal (ARG)
       ___ftadd
         ___ftneg (ARG)
         ___ftpack (ARG)
       ___ftdiv
         ___ftadd (ARG)
           ___ftneg (ARG)
           ___ftpack (ARG)
         ___ftneg (ARG)
         ___ftpack (ARG)
         ___lwtoft (ARG)
           ___ftpack
       ___ftge
       ___ftneg
       ___lwtoft (ARG)
         ___ftpack
       _printf (ARG)
         i1__doprnt
           Absolute function(Fake) *
           i1___lwdiv *
           i1___lwmod *
             i1___lwdiv (ARG)
           i1___wmul *
           i1_isdigit *
           i1_putch *
   ___lwtoft
     ___ftpack
   _trapezoidal
     ___ftadd
       ___ftneg (ARG)
       ___ftpack (ARG)
     ___ftdiv
       ___ftadd (ARG)
         ___ftneg (ARG)
         ___ftpack (ARG)
       ___ftneg (ARG)
       ___ftpack (ARG)
       ___lwtoft (ARG)
         ___ftpack
     ___ftge
     ___ftneg
     ___lwtoft (ARG)
       ___ftpack
     _printf (ARG)
       i1__doprnt
         Absolute function(Fake) *
         i1___lwdiv *
         i1___lwmod *
           i1___lwdiv (ARG)
         i1___wmul *
         i1_isdigit *
         i1_putch *
   i1_PWM_DutyCycle2
     ___ftadd (ARG)
       ___ftneg (ARG)
       ___ftpack (ARG)
     ___ftmul (ARG)
       ___ftadd (ARG)
         ___ftneg (ARG)
         ___ftpack (ARG)
       ___ftdiv (ARG)
         ___ftadd (ARG)
           ___ftneg (ARG)
           ___ftpack (ARG)
         ___ftneg (ARG)
         ___ftpack (ARG)
         ___lwtoft (ARG)
           ___ftpack
       ___ftpack (ARG)
       ___lwtoft (ARG)
         ___ftpack
       _trapezoidal (ARG)
         ___ftadd
           ___ftneg (ARG)
           ___ftpack (ARG)
         ___ftdiv
           ___ftadd (ARG)
             ___ftneg (ARG)
             ___ftpack (ARG)
           ___ftneg (ARG)
           ___ftpack (ARG)
           ___lwtoft (ARG)
             ___ftpack
         ___ftge
         ___ftneg
         ___lwtoft (ARG)
           ___ftpack
         _printf (ARG)
           i1__doprnt
             Absolute function(Fake) *
             i1___lwdiv *
             i1___lwmod *
               i1___lwdiv (ARG)
             i1___wmul *
             i1_isdigit *
             i1_putch *
     ___fttol (ARG)
       ___ftadd (ARG)
         ___ftneg (ARG)
         ___ftpack (ARG)
       ___ftdiv (ARG)
         ___ftadd (ARG)
           ___ftneg (ARG)
           ___ftpack (ARG)
         ___ftneg (ARG)
         ___ftpack (ARG)
         ___lwtoft (ARG)
           ___ftpack
       ___ftmul (ARG)
         ___ftadd (ARG)
           ___ftneg (ARG)
           ___ftpack (ARG)
         ___ftdiv (ARG)
           ___ftadd (ARG)
             ___ftneg (ARG)
             ___ftpack (ARG)
           ___ftneg (ARG)
           ___ftpack (ARG)
           ___lwtoft (ARG)
             ___ftpack
         ___ftpack (ARG)
         ___lwtoft (ARG)
           ___ftpack
         _trapezoidal (ARG)
           ___ftadd
             ___ftneg (ARG)
             ___ftpack (ARG)
           ___ftdiv
             ___ftadd (ARG)
               ___ftneg (ARG)
               ___ftpack (ARG)
             ___ftneg (ARG)
             ___ftpack (ARG)
             ___lwtoft (ARG)
               ___ftpack
           ___ftge
           ___ftneg
           ___lwtoft (ARG)
             ___ftpack
           _printf (ARG)
             i1__doprnt
               Absolute function(Fake) *
               i1___lwdiv *
               i1___lwmod *
                 i1___lwdiv (ARG)
               i1___wmul *
               i1_isdigit *
               i1_putch *
       ___lwtoft (ARG)
         ___ftpack
       _trapezoidal (ARG)
         ___ftadd
           ___ftneg (ARG)
           ___ftpack (ARG)
         ___ftdiv
           ___ftadd (ARG)
             ___ftneg (ARG)
             ___ftpack (ARG)
           ___ftneg (ARG)
           ___ftpack (ARG)
           ___lwtoft (ARG)
             ___ftpack
         ___ftge
         ___ftneg
         ___lwtoft (ARG)
           ___ftpack
         _printf (ARG)
           i1__doprnt
             Absolute function(Fake) *
             i1___lwdiv *
             i1___lwmod *
               i1___lwdiv (ARG)
             i1___wmul *
             i1_isdigit *
             i1_putch *
     ___lwtoft (ARG)
       ___ftpack
     _trapezoidal (ARG)
       ___ftadd
         ___ftneg (ARG)
         ___ftpack (ARG)
       ___ftdiv
         ___ftadd (ARG)
           ___ftneg (ARG)
           ___ftpack (ARG)
         ___ftneg (ARG)
         ___ftpack (ARG)
         ___lwtoft (ARG)
           ___ftpack
       ___ftge
       ___ftneg
       ___lwtoft (ARG)
         ___ftpack
       _printf (ARG)
         i1__doprnt
           Absolute function(Fake) *
           i1___lwdiv *
           i1___lwmod *
             i1___lwdiv (ARG)
           i1___wmul *
           i1_isdigit *
           i1_putch *
   i1_TIMER0_Set

 Address spaces:
Name               Size   Autos  Total    Cost      Usage
BANK3               60      3       3       9        3.1%
BITBANK3            60      0       0       8        0.0%
SFR3                 0      0       0       4        0.0%
BITSFR3              0      0       0       4        0.0%
BANK2               60      0       0      11        0.0%
BITBANK2            60      0       0      10        0.0%
SFR2                 0      0       0       5        0.0%
BITSFR2              0      0       0       5        0.0%
BANK1               50     2D      47       7       88.8%
BITBANK1            50      0       0       6        0.0%
SFR1                 0      0       0       2        0.0%
BITSFR1              0      0       0       2        0.0%
BANK0               50     4C      50       5      100.0%
BITBANK0            50      0       0       4        0.0%
SFR0                 0      0       0       1        0.0%
BITSFR0              0      0       0       1        0.0%
COMMON               E      E       E       1      100.0%
BITCOMMON            E      0       0       0        0.0%
CODE                 0      0       0       0        0.0%
DATA                 0      0      A8      12        0.0%
ABS                  0      0      A8       3        0.0%
NULL                 0      0       0       0        0.0%
STACK                0      0       0       2        0.0%
EEDATA             100      0       0       0        0.0%


Microchip Technology PIC Macro Assembler V1.33 build 59893 
Symbol Table                                                                                   Fri Nov 26 21:16:13 2021

         ?i1_PWM_DutyCycle2 0064                           pc 0002                 ?_LCD_Cursor 00A7  
   __size_of_PWM_DutyCycle1 0021     __size_of_PWM_DutyCycle2 0021                 __CFG_CP$OFF 0000  
               _SSPSTATbits 0094                          fsr 0004         ___wmul@multiplicand 00A9  
        ??i1_PWM_DutyCycle2 0066            i1___wmul@product 0074                ___ftadd@exp1 0026  
              ___ftadd@exp2 0025                 _trapezoidal 05B6               _contagens_tm0 00D2  
              ___ftadd@sign 0024                         l135 167A                         l405 021B  
                       l516 17E7                         l571 004A                         l387 0154  
                       _PR2 0092                __CFG_CPD$OFF 0000                         _ISR 0EC3  
                       _rpm 00D6                         fsr0 0004  __size_of_USART_WriteString 0031  
                       indf 0000                __CFG_FOSC$HS 0000           ??_LCD_WriteString 00AB  
               i1__doprnt@c 002D                 i1__doprnt@f 0020                __CFG_LVP$OFF 0000  
                      ?_ISR 0070                ___ftdiv@cntr 0031                ___ftdiv@sign 0036  
        LCD_WriteString@Str 00A9                        l3031 08C9                        l2323 09CB  
                      l2315 09A7                        l2317 09B5                        l2341 00DD  
                      l2327 09D6                        l2345 00EB                        l2265 17DF  
                      l2339 00CF                        l2259 16A0                        l2349 00F6  
                      l2665 006B                        l2657 005B                        l2683 00BE  
                      l2675 00A3                        l2667 007B                        l2679 00B0  
                      l4801 0281                        l4813 02B2                        l4805 0292  
                      l4741 0176                        l4725 013E                        l2991 1740  
                      l2983 08FA                        l4807 029B                        l4751 01B4  
                      l4735 0159                        l4841 02FD                        l4825 02E6  
                      l4817 02C3                        l4809 029F                        l4761 01E6  
                      l4753 01CB                        l4737 0164                        l4729 0150  
                      l4819 02CF                        l4843 0115                        l4837 034E  
                      l4829 02F7                        l4781 023A                        l4773 020D  
                      l4765 01EC                        l4845 0360                        l4791 0257  
                      l4783 023E                        l4795 0268                        l4989 0D51  
                      STR_1 087E                        STR_2 0880                        STR_3 0882  
                      STR_4 0884                        STR_5 0886                        STR_6 0842  
                      STR_7 085F                        STR_8 0879                        STR_9 085C  
                      u3205 00A4                        u2505 09AA                        u2355 17E8  
                      u3165 006F                        u2525 09B6                        u2605 00EC  
                      u2365 17EF                        u2535 09C2                        u3185 007D  
                      u2545 09CC                        u3195 0092                        u2575 00D2  
                      u3705 09E8                        u2595 00E3                        u3735 1767  
                      u3695 1788                        u6355 0203                        _OERR 00C1  
                      u6707 089A                        u6395 022A                        u6717 0AF5  
                      u6807 08AC                        u6727 0B05                        u6817 08BA  
                      u6737 0B13                        u6827 08C6                        u6747 0B1F  
                      u6837 16D9                        u6757 0B2B                        u6767 0B39  
                      u6687 0D4A                        u6777 0B47                        u6697 0DB5  
                      u6787 0B53                        u6797 174C                        _TMR0 0001  
                      _TMR1 000E                        _main 0CB7                ___ftpack@arg 0070  
        __size_of_LCD_Clear 0029                ___ftpack@exp 0073                        btemp 007E  
          __end_of_ADC_Init 16B4                        ltemp 007E                        start 0012  
                      ttemp 007E                        wtemp 007E             __end_ofi1_putch 0889  
             ?_LCD_WriteCmd 0070               _LCD_WriteData 0889                ___ftmul@cntr 0054  
              ___ftmul@sign 0055     __end_of_USART_WriteChar 1684                i1__doprnt@ap 0021  
                     ??_ISR 0068                i1__doprnt@pb 002E                ___fttol@exp1 0063  
              ___fttol@lval 005F                 ?_TIMER0_Set 0070            __end_of_LCD_Init 0B56  
           __end_of___aldiv 00C7                       ?_main 0070                       _EEADR 010D  
           __end_of___ftadd 0EC3                       STR_10 0873                       STR_11 081A  
             __CFG_WDTE$OFF 0000             __end_of___ftdiv 07F5             __end_of___ftneg 1667  
           __end_of___ftmul 0CB7                       _T1CON 0010             __end_of___fttol 0BE4  
           __end_of___lwdiv 09DD                       i1l405 046E             __end_of___lwmod 00FD  
                     i1l516 179E                       i1l706 0E64                       i1l387 03A7  
                     i1l683 0AD2                       i1l677 0AB9                       _RCREG 001A  
                     _TMR1H 000F                       _TMR1L 000E                       _SPBRG 0099  
                     _PORTA 0005                       _PORTB 0006                       _PORTC 0007  
                     _PORTD 0008                       _PORTE 0009             __end_of__doprnt 0365  
                     _TRISA 0085                       _TRISB 0086                       _TRISC 0087  
                     _TRISD 0088                       _TRISE 0089                       _TXREG 0019  
                i1isdigit@c 0071               __CFG_PWRTE$ON 0000          i1___lwmod@dividend 007A  
           __end_of_dpowers 081A             __end_of_isdigit 16A2               ___ftpack@sign 0074  
                     _putch 0003                       fpbase 0105              __CFG_BOREN$OFF 0000  
       __size_of_LCD_Cursor 0020                       pclath 000A            __end_of_PWM_Init 17DB  
          __end_ofi1___wmul 17B7                       ltemp0 007E                       ltemp1 0082  
                     ltemp2 0086                       ltemp3 0080                       ttemp0 007E  
                     ttemp1 0081                       ttemp2 0084                       ttemp3 0087  
                     ttemp4 007F                       status 0003         i1___wmul@multiplier 0070  
                     wtemp0 007E                       wtemp1 0080                       wtemp2 0082  
                     wtemp3 0084                       wtemp4 0086                       wtemp5 0088  
                     wtemp6 007F             __end_of_sprintf 1732          __size_ofi1___lwdiv 003E  
        __size_ofi1___lwmod 0034              ??_LCD_WriteCmd 00A7          __size_ofi1__doprnt 0251  
            ?_LCD_WriteData 0070                 ?_USART_Init 00B6       i1TIMER0_Set@contagens 0070  
           __initialization 0015                __end_of_main 0DBC          __size_ofi1_isdigit 000E  
                    ??_main 0190               ___fttol@sign1 005E                ?_TIMER0_Init 0070  
         __end_of_LCD_Clear 08C9                      _ADRESH 001E                      _ADRESL 009E  
                    _EEDATA 010C                      _CCPR1L 0015                      _CCPR2L 001B  
                    _EECON2 018D                      ?_putch 00A7            __end_of___ftpack 0AEB  
                    i1l2221 098B                      i1l2213 0967                      i1l2215 0975  
                    i1l2225 0996                      i1l3123 0BDB                      i1l3115 0BBF  
                    i1l3107 0BA2                      i1l2243 094D                      i1l3061 0C61  
                    i1l3045 0C12                      i1l3117 0BCA                      i1l3109 0BB2  
                    i1l2237 0931                      i1l2181 1796                      i1l3039 0BFC  
                    i1l3119 0BCD                      i1l2239 093F                      i1l2247 0958  
                    i1l3073 0C89                      i1l3057 0C51                      i1l2283 0A92  
                    i1l2293 0ABE                      i1l2285 0A9E                      i1l3069 0C79  
                    i1l2295 0AC8                      i1l2287 0AA3                      i1l2279 0A8B  
                    i1l2199 1690                      i1l3089 0B70                      i1l2705 0DFB  
                    i1l2723 0E2A                      i1l2741 0E76                      i1l2725 0E36  
                    i1l2717 0E15                      i1l2805 0A4D                      i1l2735 0E54  
                    i1l2727 0E3B                      i1l2745 0E88                      i1l2737 0E60  
                    i1l2729 0E3F                      i1l2809 0A74                      i1l2755 0EAB  
                    i1l2771 076B                      i1l4611 041E                      i1l2765 0755  
                    i1l4701 0368                      i1l2695 0DE5                      i1l4631 0460  
                    i1l4623 043F                      i1l4703 05B1                      i1l2793 07CF  
                    i1l2785 07B0                      i1l4641 0491                      i1l4609 0407  
                    i1l2699 0DEC                      i1l4619 0439                      u220_25 096A  
                    i1l4653 04BB                      i1l4671 0505                      i1l4663 04E5  
                    i1l4639 048D                      i1l4583 0391                      i1l4649 04AA  
                    i1l4665 04EE                      i1l4593 03AC                      i1l4921 0EE2  
                    i1l4683 0539                      i1l4675 0516                      i1l4667 04F2  
                    i1l4659 04D4                      i1l4595 03B7                      i1l4587 03A3  
                    i1l4677 0522                      i1l4941 0FF1                      i1l4695 059F  
                    i1l4687 054A                      i1l4599 03C9                      i1l4857 05D8  
                    i1l4699 0550                      i1l4867 065E                      i1l4939 0FF0  
                    u222_25 0976                      u230_25 094E                      u214_25 179F  
                    i1l4877 0695                      i1l4887 071B                      u223_25 0982  
                    u215_25 17A6                      u240_25 0A97                      u224_25 098C  
                    u242_25 0AB2                      u227_25 0934                      u244_25 0AC1  
                    u332_25 0E16                      u341_25 0E55                      u229_25 0945  
                    u350_25 078F                      u247_25 0AD9                      u335_25 0E2B  
                    u351_25 07B1                      u352_25 07C2                      u353_25 07D0  
          __end_of___lwtoft 16C8                      u338_25 0E40                      u610_25 0456  
                    u356_21 0A40                      u356_22 0A41                      u356_23 0A46  
                    u356_24 0A47                      u381_25 0C62                      u349_25 077D  
                    u358_21 0A67                      u358_22 0A68                      u358_23 0A6D  
                    u358_24 0A6E         __size_of_TIMER0_Set 0008                      u382_25 0C6A  
                    u390_25 0B77                      u614_25 047D                      u377_25 0C1E  
                    u393_25 0BA3                      u386_25 0C8A                      u378_25 0C30  
                    u387_25 0C92                      u396_25 0BC1                   ??i1_putch 0071  
                    u399_25 1709                  __i1fptable 0109                      _SSPADD 0093  
                    _SSPBUF 0013            __end_of__fptable 0109            LCD_WriteCmd@Byte 00A8  
                    ___ftge 0A26                   ??___aldiv 00AF                      ___wmul 17DB  
                 ??___ftadd 0020              _PWM_DutyCycle1 1752              _PWM_DutyCycle2 1773  
          ?_USART_WriteChar 0070                   ??___ftdiv 002D                   ??___ftneg 0073  
                 ??___ftmul 004C                   ??___fttol 005A                   ??___lwdiv 00AB  
                 ??___lwmod 00B3                   ??__doprnt 00B7                trapezoidal@a 003A  
              trapezoidal@b 003D                trapezoidal@c 0040                trapezoidal@d 0043  
              trapezoidal@x 0037                __doprnt@_val 00BB                __doprnt@flag 00BF  
                    _printf 16DF                __doprnt@prec 00BA                      _pulsos 00D4  
                    _status 006E       ___ftmul@f3_as_product 0051                      fptable 0100  
         __end_ofi1___lwdiv 099D                      fptotal 0001           __end_ofi1___lwmod 095F  
                 ??_isdigit 00A7                   ?_ADC_Init 0070           __end_ofi1__doprnt 05B6  
                    saved_w 007E         __size_of_USART_Init 0049                      putch@c 00A7  
                 ??_sprintf 00C7           __end_ofi1_isdigit 1692               ?i1_TIMER0_Set 0070  
   __end_of__initialization 0034                   ?_LCD_Init 0070                  ___ftadd@f1 0078  
                ___ftadd@f2 007B             ??_LCD_WriteData 00A7                  ___ftge@ff1 0070  
                ___ftge@ff2 0073                  ___ftdiv@f1 002A                  ___ftdiv@f2 0027  
                ___ftdiv@f3 0032                  ___ftneg@f1 0070      __end_of_PWM_DutyCycle1 1773  
    __end_of_PWM_DutyCycle2 1794                  ___ftmul@f1 0046                  ___ftmul@f2 0049  
                ___fttol@f1 0056              __pcstackCOMMON 0070                __pidataBANK1 00FD  
             LCD_Cursor@Col 00A7               LCD_Cursor@Row 00A9                ??_LCD_Cursor 00A8  
           _LCD_WriteString 08C9               __end_of_putch 0004                ?_trapezoidal 0037  
                ___lwtoft@c 0078                   ?_PWM_Init 0070                   ?i1___wmul 0070  
            i1__doprnt@_val 0026              i1__doprnt@flag 002A              _OPTION_REGbits 0081  
            i1__doprnt@prec 0025                  ??_ADC_Init 00A7        __end_of_LCD_WriteCmd 16DF  
 __size_ofi1_PWM_DutyCycle2 001B                  __doprnt@ap 00B6                  __doprnt@pb 00C3  
            ??i1_TIMER0_Set 0070                     ??_putch 00A8                  __pbssBANK0 006C  
                __pbssBANK1 00CD          __end_of_LCD_Cursor 1752                  ??_LCD_Init 00A9  
           ?_PWM_DutyCycle1 00A7             ?_PWM_DutyCycle2 00A7                  __pmaintext 0CB7  
                   ?___ftge 0070                     ?___wmul 00A7                  __pintentry 0004  
              ??_TIMER0_Set 00A7                     _CCP1CON 0017                     _CCP2CON 001D  
                 ?___ftpack 0070                     ?_printf 0070                  ??_PWM_Init 00A7  
                ??i1___wmul 0074                   ?___lwtoft 0078        __size_of_TIMER0_Init 000B  
                   _SSPCON2 0091                  __stringtab 0800                     i1_putch 0888  
                   i1fpbase 010E          __end_of_TIMER0_Set 166F     __end_of_LCD_WriteString 08FA  
                 _ADCResult 006C                ??_USART_Init 00BA           LCD_WriteData@Byte 00A8  
                   ___aldiv 0038             __size_of___ftge 005D                     ___ftadd 0DBC  
                   ___ftdiv 073D                     ___ftneg 165F             __size_of___wmul 0025  
                   ___ftmul 0BE4                     ___fttol 0B56                     ___lwdiv 099D  
                   ___lwmod 00C7                     __doprnt 0112                  ??___ftpack 0075  
                   __ptext1 1713                     __ptext2 0112                     __ptext3 0003  
                   __ptext4 1692                     __ptext5 17DB                     __ptext6 00C7  
                   __ptext7 099D                     __ptext8 08FA                     __ptext9 1677  
           __size_of_printf 0019                  ??___lwtoft 007B                     _display 00DA  
       __size_of__i1fptable 0009                __size_of_ISR 013D                   _T1CONbits 0010  
                   _dpowers 0810           i1___lwdiv@divisor 0070                   _T2CONbits 0012  
                   _isdigit 1692           i1___lwdiv@counter 0077            ___aldiv@dividend 00AB  
                 _LCD_Clear 08A0          __end_of_USART_Init 0A26                     _sprintf 1713  
                   clrloop0 1670               __doprnt@width 00C0        end_of_initialization 0034  
                fp_i1_putch 010F                   _RCSTAbits 0018                     printf@f 0031  
          ___aldiv@quotient 00B2        __end_ofi1_TIMER0_Set 165F       i1___wmul@multiplicand 0072  
     __size_of_LCD_WriteCmd 0017                   _PORTBbits 0006                   _PORTEbits 0009  
      __size_of_trapezoidal 0187                  ?_LCD_Clear 0070            i1_PWM_DutyCycle2 16F8  
         __size_of_ADC_Init 0012                   i1___lwdiv 095F                   i1___lwmod 092B  
                 i1__doprnt 0365                _contador_rb6 00D0         PWM_DutyCycle1@valor 00A7  
       PWM_DutyCycle2@valor 00A7                 _CCP1CONbits 0017                 ___ftdiv@exp 0035  
               _CCP2CONbits 001D                   _TXSTAbits 0098                   i1_isdigit 1684  
          ?_LCD_WriteString 00A9           __size_of_LCD_Init 006B                _LCD_WriteCmd 16C8  
               ___ftmul@exp 0050              __end_of___ftge 0A83              __end_of___wmul 1800  
         i1___lwmod@divisor 0078           i1___lwmod@counter 007D              __end_of_printf 16F8  
  __size_of_USART_WriteChar 000D           __size_of_PWM_Init 0024         start_initialization 0015  
         __size_ofi1___wmul 0023                 __end_of_ISR 1000                  ?i1___lwdiv 0070  
                ?i1___lwmod 0078                  ?i1__doprnt 0020            ??_PWM_DutyCycle1 00A9  
          ??_PWM_DutyCycle2 00A9             i1__doprnt@width 002B                  ?i1_isdigit 0070  
     __end_of_LCD_WriteData 08A0                    ??___ftge 0076                    ??___wmul 00AB  
               __pdataBANK1 00E4                    ??_printf 002F          __end_of__i1fptable 0112  
         __size_of___ftpack 0068                   ___latbits 0002           __size_of___lwtoft 0014  
             __pcstackBANK0 0020               __pcstackBANK1 00A0               __pcstackBANK3 0190  
               ??_LCD_Clear 00A9         __end_of__stringdata 0888           __size_of__fptable 0009  
              _isdigit$1416 00A7                    ?i1_putch 0070                   __doprnt@c 00C2  
                 __doprnt@f 00B5       __size_ofi1_TIMER0_Set 0006            ___lwdiv@dividend 00A9  
       TIMER0_Set@contagens 00A7                   __pfunctab 0100                    ?___aldiv 00A7  
                  ?___ftadd 0078                    ?___ftdiv 0027                    ?___ftneg 0070  
                  ?___ftmul 0046                    ?___fttol 0056                    ?___lwdiv 00A7  
                  ?___lwmod 00AF                    ?__doprnt 00B5                   __pstrings 0800  
             ??_TIMER0_Init 00A7          USART_Init@BaudRate 00B6                    ?_isdigit 0070  
                  _ADC_Init 16A2            ___lwdiv@quotient 00AC                 ??i1___lwdiv 0074  
               ??i1___lwmod 007C                    ?_sprintf 00C4                 ??i1__doprnt 0022  
            __size_of_putch 0001                    _ISR$1731 00A1                    _ISR$1732 00A4  
         ??_USART_WriteChar 00A7              i1_isdigit$1416 0070                i1_TIMER0_Set 1659  
           ___aldiv@divisor 00A7           interrupt_function 0004             ___aldiv@counter 00B0  
                  _LCD_Init 0AEB              ___wmul@product 00AB                 ??i1_isdigit 0070  
                 clear_ram0 166F                    _PIE1bits 008C                    _PIE2bits 008D  
                  _PIR1bits 000C                    _PIR2bits 000D                   _temp_lida 00CD  
  __end_ofi1_PWM_DutyCycle2 1713                   _tempo_rb6 00D8                  _ADCON0bits 001F  
               __stringbase 080F                  _ADCON1bits 009F                 __stringdata 081A  
                  _PWM_Init 17B7           ___wmul@multiplier 00A7                    i1___wmul 1794  
       __end_of_TIMER0_Init 0800                    i1fptable 0109                    i1fptotal 0001  
                  i1putch@c 0070            __size_ofi1_putch 0001                  _EECON1bits 018C  
          __size_of___aldiv 008F            __size_of___ftadd 0107            __size_of___ftdiv 00B8  
          __size_of___ftneg 0008            __size_of___ftmul 00D3            __size_of___fttol 008E  
          __size_of___lwdiv 0040            __size_of___lwmod 0036                    ___ftpack 0A83  
             ??_trapezoidal 007E            __size_of__doprnt 0253          __end_of__stringtab 0810  
                  ___lwtoft 16B4                    __fptable 0100            __size_of_isdigit 0010  
           ___lwdiv@divisor 00A7             ___lwdiv@counter 00AE           _USART_WriteString 08FA  
                  __ptext10 09DD                    __ptext11 0038                    __ptext20 1732  
                  __ptext12 1667                    __ptext21 08A0                    __ptext13 07F5  
                  __ptext30 0888                    __ptext22 16C8                    __ptext14 17B7  
                  __ptext31 1684                    __ptext23 16A2                    __ptext15 1773  
                  __ptext40 0B56                    __ptext32 1794                    __ptext24 0EC3  
                  __ptext16 1752                    __ptext41 0BE4                    __ptext33 092B  
                  __ptext25 1659                    __ptext17 08C9                    __ptext42 0A83  
                  __ptext34 095F                    __ptext26 16F8                    __ptext18 0889  
                  __ptext35 165F                    __ptext27 05B6                    __ptext19 0AEB  
                  __ptext36 0A26                    __ptext28 16DF                    __ptext37 073D  
                  __ptext29 0365                    __ptext38 0DBC                    __ptext39 16B4  
        ?_USART_WriteString 00A8            __size_of_sprintf 001F          i1___lwdiv@dividend 0072  
             __size_of_main 0105         USART_WriteChar@byte 00A7         ??_USART_WriteString 00AA  
                _LCD_Cursor 1732                    fp__putch 0106    __size_of_LCD_WriteString 0031  
        i1___lwdiv@quotient 0075                 _TIMER0_Init 07F5                  _INTCONbits 000B  
 __end_of_USART_WriteString 092B         __end_of_trapezoidal 073D                    isdigit@c 00A8  
                  intlevel1 0100                   sprintf@ap 00CA                   sprintf@pb 00CB  
                 sprintf@wh 00C9            ___lwmod@dividend 00B1                   stringcode 080A  
                  printf@ap 0032                    printf@pb 0033        USART_WriteString@str 00A8  
                _TIMER0_Set 1667                 _requiredRpm 00E4             _USART_WriteChar 1677  
                  sprintf@f 00C4             ___lwmod@divisor 00AF             ___lwmod@counter 00B4  
                  stringdir 080A                    stringtab 0800                ___aldiv@sign 00B1  
    __size_of_LCD_WriteData 0017                 _SSPCON2bits 0091       i1PWM_DutyCycle2@valor 0064  
                _SSPCONbits 0014                  _USART_Init 09DD  
