

Microchip Technology PIC LITE Macro Assembler V1.33 build 59893 
                                                                                               Fri Nov 19 21:30:31 2021

Microchip Technology Omniscient Code Generator (Lite mode) build 59893
     1                           	processor	16F877A
     2                           	opt	pw 120
     3                           	opt	lm
     4                           	psect	idataBANK1,global,class=CODE,delta=2
     5                           	psect	strings,global,class=STRING,delta=2
     6                           	psect	cinit,global,class=CODE,merge=1,delta=2
     7                           	psect	bssBANK0,global,class=BANK0,space=1,delta=1
     8                           	psect	bssBANK1,global,class=BANK1,space=1,delta=1
     9                           	psect	dataBANK1,global,class=BANK1,space=1,delta=1
    10                           	psect	clrtext,global,class=CODE,delta=2
    11                           	psect	cstackBANK3,global,class=BANK3,space=1,delta=1
    12                           	psect	cstackBANK1,global,class=BANK1,space=1,delta=1
    13                           	psect	cstackCOMMON,global,class=COMMON,space=1,delta=1
    14                           	psect	cstackBANK0,global,class=BANK0,space=1,delta=1
    15                           	psect	maintext,global,class=CODE,split=1,delta=2
    16                           	psect	text1,local,class=CODE,merge=1,delta=2
    17                           	psect	text2,local,class=CODE,merge=1,delta=2
    18                           	psect	text3,local,class=CODE,merge=1,delta=2
    19                           	psect	text4,local,class=CODE,merge=1,delta=2
    20                           	psect	text5,local,class=CODE,merge=1,delta=2
    21                           	psect	text6,local,class=CODE,merge=1,delta=2
    22                           	psect	text7,local,class=CODE,merge=1,delta=2
    23                           	psect	text8,local,class=CODE,merge=1,delta=2
    24                           	psect	text9,local,class=CODE,merge=1,delta=2
    25                           	psect	text10,local,class=CODE,merge=1,delta=2
    26                           	psect	text11,local,class=CODE,merge=1,delta=2
    27                           	psect	text12,local,class=CODE,merge=1,delta=2
    28                           	psect	text13,local,class=CODE,merge=1,delta=2
    29                           	psect	text14,local,class=CODE,merge=1,delta=2
    30                           	psect	text15,local,class=CODE,merge=1,delta=2
    31                           	psect	text16,local,class=CODE,merge=1,delta=2
    32                           	psect	text17,local,class=CODE,merge=1,delta=2
    33                           	psect	text18,local,class=CODE,merge=1,delta=2
    34                           	psect	text19,local,class=CODE,merge=1,delta=2
    35                           	psect	text20,local,class=CODE,merge=1,delta=2
    36                           	psect	text21,local,class=CODE,merge=1,delta=2
    37                           	psect	text22,local,class=CODE,merge=1,delta=2
    38                           	psect	text23,local,class=CODE,merge=1,delta=2
    39                           	psect	text24,local,class=CODE,merge=1,delta=2
    40                           	psect	intentry,global,class=CODE,delta=2
    41                           	psect	text25,local,class=CODE,merge=1,delta=2
    42                           	psect	text26,local,class=CODE,merge=1,delta=2
    43                           	psect	text27,local,class=CODE,merge=1,delta=2
    44                           	psect	text28,local,class=CODE,merge=1,delta=2
    45                           	psect	text29,local,class=CODE,merge=1,delta=2
    46                           	psect	text30,local,class=CODE,merge=1,delta=2
    47                           	psect	text31,local,class=CODE,merge=1,delta=2
    48                           	psect	text32,local,class=CODE,merge=1,delta=2
    49                           	psect	text33,local,class=CODE,merge=1,delta=2
    50                           	psect	text34,local,class=CODE,merge=1,delta=2
    51                           	psect	text35,local,class=CODE,merge=1,delta=2
    52                           	psect	text36,local,class=CODE,merge=1,delta=2
    53                           	psect	text37,local,class=CODE,merge=1,delta=2
    54                           	psect	text38,local,class=CODE,merge=1,delta=2
    55                           	psect	text39,local,class=CODE,merge=1,delta=2
    56                           	psect	text40,local,class=CODE,merge=1,delta=2
    57                           	psect	text41,local,class=CODE,merge=1,delta=2
    58                           	psect	text42,local,class=CODE,merge=1,delta=2
    59                           	psect	functab,global,reloc=256,class=CODE,delta=2
    60                           	dabs	1,0x7E,2
    61  0000                     	;# 
    62  0001                     	;# 
    63  0002                     	;# 
    64  0003                     	;# 
    65  0004                     	;# 
    66  0005                     	;# 
    67  0006                     	;# 
    68  0007                     	;# 
    69  0008                     	;# 
    70  0009                     	;# 
    71  000A                     	;# 
    72  000B                     	;# 
    73  000C                     	;# 
    74  000D                     	;# 
    75  000E                     	;# 
    76  000E                     	;# 
    77  000F                     	;# 
    78  0010                     	;# 
    79  0011                     	;# 
    80  0012                     	;# 
    81  0013                     	;# 
    82  0014                     	;# 
    83  0015                     	;# 
    84  0015                     	;# 
    85  0016                     	;# 
    86  0017                     	;# 
    87  0018                     	;# 
    88  0019                     	;# 
    89  001A                     	;# 
    90  001B                     	;# 
    91  001B                     	;# 
    92  001C                     	;# 
    93  001D                     	;# 
    94  001E                     	;# 
    95  001F                     	;# 
    96  0081                     	;# 
    97  0085                     	;# 
    98  0086                     	;# 
    99  0087                     	;# 
   100  0088                     	;# 
   101  0089                     	;# 
   102  008C                     	;# 
   103  008D                     	;# 
   104  008E                     	;# 
   105  0091                     	;# 
   106  0092                     	;# 
   107  0093                     	;# 
   108  0094                     	;# 
   109  0098                     	;# 
   110  0099                     	;# 
   111  009C                     	;# 
   112  009D                     	;# 
   113  009E                     	;# 
   114  009F                     	;# 
   115  010C                     	;# 
   116  010D                     	;# 
   117  010E                     	;# 
   118  010F                     	;# 
   119  018C                     	;# 
   120  018D                     	;# 
   121  0000                     	;# 
   122  0001                     	;# 
   123  0002                     	;# 
   124  0003                     	;# 
   125  0004                     	;# 
   126  0005                     	;# 
   127  0006                     	;# 
   128  0007                     	;# 
   129  0008                     	;# 
   130  0009                     	;# 
   131  000A                     	;# 
   132  000B                     	;# 
   133  000C                     	;# 
   134  000D                     	;# 
   135  000E                     	;# 
   136  000E                     	;# 
   137  000F                     	;# 
   138  0010                     	;# 
   139  0011                     	;# 
   140  0012                     	;# 
   141  0013                     	;# 
   142  0014                     	;# 
   143  0015                     	;# 
   144  0015                     	;# 
   145  0016                     	;# 
   146  0017                     	;# 
   147  0018                     	;# 
   148  0019                     	;# 
   149  001A                     	;# 
   150  001B                     	;# 
   151  001B                     	;# 
   152  001C                     	;# 
   153  001D                     	;# 
   154  001E                     	;# 
   155  001F                     	;# 
   156  0081                     	;# 
   157  0085                     	;# 
   158  0086                     	;# 
   159  0087                     	;# 
   160  0088                     	;# 
   161  0089                     	;# 
   162  008C                     	;# 
   163  008D                     	;# 
   164  008E                     	;# 
   165  0091                     	;# 
   166  0092                     	;# 
   167  0093                     	;# 
   168  0094                     	;# 
   169  0098                     	;# 
   170  0099                     	;# 
   171  009C                     	;# 
   172  009D                     	;# 
   173  009E                     	;# 
   174  009F                     	;# 
   175  010C                     	;# 
   176  010D                     	;# 
   177  010E                     	;# 
   178  010F                     	;# 
   179  018C                     	;# 
   180  018D                     	;# 
   181  0000                     	;# 
   182  0001                     	;# 
   183  0002                     	;# 
   184  0003                     	;# 
   185  0004                     	;# 
   186  0005                     	;# 
   187  0006                     	;# 
   188  0007                     	;# 
   189  0008                     	;# 
   190  0009                     	;# 
   191  000A                     	;# 
   192  000B                     	;# 
   193  000C                     	;# 
   194  000D                     	;# 
   195  000E                     	;# 
   196  000E                     	;# 
   197  000F                     	;# 
   198  0010                     	;# 
   199  0011                     	;# 
   200  0012                     	;# 
   201  0013                     	;# 
   202  0014                     	;# 
   203  0015                     	;# 
   204  0015                     	;# 
   205  0016                     	;# 
   206  0017                     	;# 
   207  0018                     	;# 
   208  0019                     	;# 
   209  001A                     	;# 
   210  001B                     	;# 
   211  001B                     	;# 
   212  001C                     	;# 
   213  001D                     	;# 
   214  001E                     	;# 
   215  001F                     	;# 
   216  0081                     	;# 
   217  0085                     	;# 
   218  0086                     	;# 
   219  0087                     	;# 
   220  0088                     	;# 
   221  0089                     	;# 
   222  008C                     	;# 
   223  008D                     	;# 
   224  008E                     	;# 
   225  0091                     	;# 
   226  0092                     	;# 
   227  0093                     	;# 
   228  0094                     	;# 
   229  0098                     	;# 
   230  0099                     	;# 
   231  009C                     	;# 
   232  009D                     	;# 
   233  009E                     	;# 
   234  009F                     	;# 
   235  010C                     	;# 
   236  010D                     	;# 
   237  010E                     	;# 
   238  010F                     	;# 
   239  018C                     	;# 
   240  018D                     	;# 
   241  0000                     	;# 
   242  0001                     	;# 
   243  0002                     	;# 
   244  0003                     	;# 
   245  0004                     	;# 
   246  0005                     	;# 
   247  0006                     	;# 
   248  0007                     	;# 
   249  0008                     	;# 
   250  0009                     	;# 
   251  000A                     	;# 
   252  000B                     	;# 
   253  000C                     	;# 
   254  000D                     	;# 
   255  000E                     	;# 
   256  000E                     	;# 
   257  000F                     	;# 
   258  0010                     	;# 
   259  0011                     	;# 
   260  0012                     	;# 
   261  0013                     	;# 
   262  0014                     	;# 
   263  0015                     	;# 
   264  0015                     	;# 
   265  0016                     	;# 
   266  0017                     	;# 
   267  0018                     	;# 
   268  0019                     	;# 
   269  001A                     	;# 
   270  001B                     	;# 
   271  001B                     	;# 
   272  001C                     	;# 
   273  001D                     	;# 
   274  001E                     	;# 
   275  001F                     	;# 
   276  0081                     	;# 
   277  0085                     	;# 
   278  0086                     	;# 
   279  0087                     	;# 
   280  0088                     	;# 
   281  0089                     	;# 
   282  008C                     	;# 
   283  008D                     	;# 
   284  008E                     	;# 
   285  0091                     	;# 
   286  0092                     	;# 
   287  0093                     	;# 
   288  0094                     	;# 
   289  0098                     	;# 
   290  0099                     	;# 
   291  009C                     	;# 
   292  009D                     	;# 
   293  009E                     	;# 
   294  009F                     	;# 
   295  010C                     	;# 
   296  010D                     	;# 
   297  010E                     	;# 
   298  010F                     	;# 
   299  018C                     	;# 
   300  018D                     	;# 
   301  0000                     	;# 
   302  0001                     	;# 
   303  0002                     	;# 
   304  0003                     	;# 
   305  0004                     	;# 
   306  0005                     	;# 
   307  0006                     	;# 
   308  0007                     	;# 
   309  0008                     	;# 
   310  0009                     	;# 
   311  000A                     	;# 
   312  000B                     	;# 
   313  000C                     	;# 
   314  000D                     	;# 
   315  000E                     	;# 
   316  000E                     	;# 
   317  000F                     	;# 
   318  0010                     	;# 
   319  0011                     	;# 
   320  0012                     	;# 
   321  0013                     	;# 
   322  0014                     	;# 
   323  0015                     	;# 
   324  0015                     	;# 
   325  0016                     	;# 
   326  0017                     	;# 
   327  0018                     	;# 
   328  0019                     	;# 
   329  001A                     	;# 
   330  001B                     	;# 
   331  001B                     	;# 
   332  001C                     	;# 
   333  001D                     	;# 
   334  001E                     	;# 
   335  001F                     	;# 
   336  0081                     	;# 
   337  0085                     	;# 
   338  0086                     	;# 
   339  0087                     	;# 
   340  0088                     	;# 
   341  0089                     	;# 
   342  008C                     	;# 
   343  008D                     	;# 
   344  008E                     	;# 
   345  0091                     	;# 
   346  0092                     	;# 
   347  0093                     	;# 
   348  0094                     	;# 
   349  0098                     	;# 
   350  0099                     	;# 
   351  009C                     	;# 
   352  009D                     	;# 
   353  009E                     	;# 
   354  009F                     	;# 
   355  010C                     	;# 
   356  010D                     	;# 
   357  010E                     	;# 
   358  010F                     	;# 
   359  018C                     	;# 
   360  018D                     	;# 
   361  0000                     	;# 
   362  0001                     	;# 
   363  0002                     	;# 
   364  0003                     	;# 
   365  0004                     	;# 
   366  0005                     	;# 
   367  0006                     	;# 
   368  0007                     	;# 
   369  0008                     	;# 
   370  0009                     	;# 
   371  000A                     	;# 
   372  000B                     	;# 
   373  000C                     	;# 
   374  000D                     	;# 
   375  000E                     	;# 
   376  000E                     	;# 
   377  000F                     	;# 
   378  0010                     	;# 
   379  0011                     	;# 
   380  0012                     	;# 
   381  0013                     	;# 
   382  0014                     	;# 
   383  0015                     	;# 
   384  0015                     	;# 
   385  0016                     	;# 
   386  0017                     	;# 
   387  0018                     	;# 
   388  0019                     	;# 
   389  001A                     	;# 
   390  001B                     	;# 
   391  001B                     	;# 
   392  001C                     	;# 
   393  001D                     	;# 
   394  001E                     	;# 
   395  001F                     	;# 
   396  0081                     	;# 
   397  0085                     	;# 
   398  0086                     	;# 
   399  0087                     	;# 
   400  0088                     	;# 
   401  0089                     	;# 
   402  008C                     	;# 
   403  008D                     	;# 
   404  008E                     	;# 
   405  0091                     	;# 
   406  0092                     	;# 
   407  0093                     	;# 
   408  0094                     	;# 
   409  0098                     	;# 
   410  0099                     	;# 
   411  009C                     	;# 
   412  009D                     	;# 
   413  009E                     	;# 
   414  009F                     	;# 
   415  010C                     	;# 
   416  010D                     	;# 
   417  010E                     	;# 
   418  010F                     	;# 
   419  018C                     	;# 
   420  018D                     	;# 
   421  0000                     	;# 
   422  0001                     	;# 
   423  0002                     	;# 
   424  0003                     	;# 
   425  0004                     	;# 
   426  0005                     	;# 
   427  0006                     	;# 
   428  0007                     	;# 
   429  0008                     	;# 
   430  0009                     	;# 
   431  000A                     	;# 
   432  000B                     	;# 
   433  000C                     	;# 
   434  000D                     	;# 
   435  000E                     	;# 
   436  000E                     	;# 
   437  000F                     	;# 
   438  0010                     	;# 
   439  0011                     	;# 
   440  0012                     	;# 
   441  0013                     	;# 
   442  0014                     	;# 
   443  0015                     	;# 
   444  0015                     	;# 
   445  0016                     	;# 
   446  0017                     	;# 
   447  0018                     	;# 
   448  0019                     	;# 
   449  001A                     	;# 
   450  001B                     	;# 
   451  001B                     	;# 
   452  001C                     	;# 
   453  001D                     	;# 
   454  001E                     	;# 
   455  001F                     	;# 
   456  0081                     	;# 
   457  0085                     	;# 
   458  0086                     	;# 
   459  0087                     	;# 
   460  0088                     	;# 
   461  0089                     	;# 
   462  008C                     	;# 
   463  008D                     	;# 
   464  008E                     	;# 
   465  0091                     	;# 
   466  0092                     	;# 
   467  0093                     	;# 
   468  0094                     	;# 
   469  0098                     	;# 
   470  0099                     	;# 
   471  009C                     	;# 
   472  009D                     	;# 
   473  009E                     	;# 
   474  009F                     	;# 
   475  010C                     	;# 
   476  010D                     	;# 
   477  010E                     	;# 
   478  010F                     	;# 
   479  018C                     	;# 
   480  018D                     	;# 
   481  0000                     	;# 
   482  0001                     	;# 
   483  0002                     	;# 
   484  0003                     	;# 
   485  0004                     	;# 
   486  0005                     	;# 
   487  0006                     	;# 
   488  0007                     	;# 
   489  0008                     	;# 
   490  0009                     	;# 
   491  000A                     	;# 
   492  000B                     	;# 
   493  000C                     	;# 
   494  000D                     	;# 
   495  000E                     	;# 
   496  000E                     	;# 
   497  000F                     	;# 
   498  0010                     	;# 
   499  0011                     	;# 
   500  0012                     	;# 
   501  0013                     	;# 
   502  0014                     	;# 
   503  0015                     	;# 
   504  0015                     	;# 
   505  0016                     	;# 
   506  0017                     	;# 
   507  0018                     	;# 
   508  0019                     	;# 
   509  001A                     	;# 
   510  001B                     	;# 
   511  001B                     	;# 
   512  001C                     	;# 
   513  001D                     	;# 
   514  001E                     	;# 
   515  001F                     	;# 
   516  0081                     	;# 
   517  0085                     	;# 
   518  0086                     	;# 
   519  0087                     	;# 
   520  0088                     	;# 
   521  0089                     	;# 
   522  008C                     	;# 
   523  008D                     	;# 
   524  008E                     	;# 
   525  0091                     	;# 
   526  0092                     	;# 
   527  0093                     	;# 
   528  0094                     	;# 
   529  0098                     	;# 
   530  0099                     	;# 
   531  009C                     	;# 
   532  009D                     	;# 
   533  009E                     	;# 
   534  009F                     	;# 
   535  010C                     	;# 
   536  010D                     	;# 
   537  010E                     	;# 
   538  010F                     	;# 
   539  018C                     	;# 
   540  018D                     	;# 
   541  0000                     	;# 
   542  0001                     	;# 
   543  0002                     	;# 
   544  0003                     	;# 
   545  0004                     	;# 
   546  0005                     	;# 
   547  0006                     	;# 
   548  0007                     	;# 
   549  0008                     	;# 
   550  0009                     	;# 
   551  000A                     	;# 
   552  000B                     	;# 
   553  000C                     	;# 
   554  000D                     	;# 
   555  000E                     	;# 
   556  000E                     	;# 
   557  000F                     	;# 
   558  0010                     	;# 
   559  0011                     	;# 
   560  0012                     	;# 
   561  0013                     	;# 
   562  0014                     	;# 
   563  0015                     	;# 
   564  0015                     	;# 
   565  0016                     	;# 
   566  0017                     	;# 
   567  0018                     	;# 
   568  0019                     	;# 
   569  001A                     	;# 
   570  001B                     	;# 
   571  001B                     	;# 
   572  001C                     	;# 
   573  001D                     	;# 
   574  001E                     	;# 
   575  001F                     	;# 
   576  0081                     	;# 
   577  0085                     	;# 
   578  0086                     	;# 
   579  0087                     	;# 
   580  0088                     	;# 
   581  0089                     	;# 
   582  008C                     	;# 
   583  008D                     	;# 
   584  008E                     	;# 
   585  0091                     	;# 
   586  0092                     	;# 
   587  0093                     	;# 
   588  0094                     	;# 
   589  0098                     	;# 
   590  0099                     	;# 
   591  009C                     	;# 
   592  009D                     	;# 
   593  009E                     	;# 
   594  009F                     	;# 
   595  010C                     	;# 
   596  010D                     	;# 
   597  010E                     	;# 
   598  010F                     	;# 
   599  018C                     	;# 
   600  018D                     	;# 
   601                           
   602                           	psect	idataBANK1
   603  0802                     __pidataBANK1:	
   604                           
   605                           ;initializer for _requiredRpm
   606  0802  34A0               	retlw	160
   607  0803  340C               	retlw	12
   608  0804  3446               	retlw	70
   609                           
   610                           	psect	strings
   611  0038                     __pstrings:	
   612  0038                     stringtab:	
   613  0038                     __stringtab:	
   614                           
   615                           ;	String table - string pointers are 1 byte each
   616  0038  1BFF               	btfsc	btemp+1,7
   617  0039  2842               	ljmp	stringcode
   618  003A  1383               	bcf	3,7
   619  003B  187F               	btfsc	btemp+1,0
   620  003C  1783               	bsf	3,7
   621  003D  0800               	movf	0,w
   622  003E  0A84               	incf	4,f
   623  003F  1903               	skipnz
   624  0040  0AFF               	incf	btemp+1,f
   625  0041  0008               	return
   626  0042                     stringcode:	
   627  0042                     stringdir:	
   628  0042  3000               	movlw	high stringdir
   629  0043  008A               	movwf	10
   630  0044  0804               	movf	4,w
   631  0045  0A84               	incf	4,f
   632  0046  0782               	addwf	2,f
   633  0047                     __stringbase:	
   634  0047  3400               	retlw	0
   635  0048                     __end_of__stringtab:	
   636  0048                     _dpowers:	
   637  0048  3401               	retlw	1
   638  0049  3400               	retlw	0
   639  004A  340A               	retlw	10
   640  004B  3400               	retlw	0
   641  004C  3464               	retlw	100
   642  004D  3400               	retlw	0
   643  004E  34E8               	retlw	232
   644  004F  3403               	retlw	3
   645  0050  3410               	retlw	16
   646  0051  3427               	retlw	39
   647  0052                     __end_of_dpowers:	
   648  000E                     _TMR1	set	14
   649  001F                     _ADCON0bits	set	31
   650  001E                     _ADRESH	set	30
   651  0017                     _CCP1CON	set	23
   652  0017                     _CCP1CONbits	set	23
   653  001D                     _CCP2CON	set	29
   654  001D                     _CCP2CONbits	set	29
   655  0015                     _CCPR1L	set	21
   656  001B                     _CCPR2L	set	27
   657  000B                     _INTCONbits	set	11
   658  000C                     _PIR1bits	set	12
   659  000D                     _PIR2bits	set	13
   660  0005                     _PORTA	set	5
   661  0006                     _PORTB	set	6
   662  0006                     _PORTBbits	set	6
   663  0007                     _PORTC	set	7
   664  0008                     _PORTD	set	8
   665  0009                     _PORTE	set	9
   666  0009                     _PORTEbits	set	9
   667  001A                     _RCREG	set	26
   668  0018                     _RCSTAbits	set	24
   669  0013                     _SSPBUF	set	19
   670  0014                     _SSPCONbits	set	20
   671  0010                     _T1CON	set	16
   672  0010                     _T1CONbits	set	16
   673  0012                     _T2CONbits	set	18
   674  0001                     _TMR0	set	1
   675  000F                     _TMR1H	set	15
   676  000E                     _TMR1L	set	14
   677  0019                     _TXREG	set	25
   678  00C1                     _OERR	set	193
   679  009F                     _ADCON1bits	set	159
   680  009E                     _ADRESL	set	158
   681  0081                     _OPTION_REGbits	set	129
   682  008C                     _PIE1bits	set	140
   683  008D                     _PIE2bits	set	141
   684  0092                     _PR2	set	146
   685  0099                     _SPBRG	set	153
   686  0093                     _SSPADD	set	147
   687  0091                     _SSPCON2	set	145
   688  0091                     _SSPCON2bits	set	145
   689  0094                     _SSPSTATbits	set	148
   690  0085                     _TRISA	set	133
   691  0086                     _TRISB	set	134
   692  0087                     _TRISC	set	135
   693  0088                     _TRISD	set	136
   694  0089                     _TRISE	set	137
   695  0098                     _TXSTAbits	set	152
   696  010D                     _EEADR	set	269
   697  010C                     _EEDATA	set	268
   698  018C                     _EECON1bits	set	396
   699  018D                     _EECON2	set	397
   700  0052                     __stringdata:	
   701  0052                     STR_12:	
   702  0052  340A               	retlw	10
   703  0053  340D               	retlw	13
   704  0054  3420               	retlw	32	;' '
   705  0055  342D               	retlw	45	;'-'
   706  0056  342D               	retlw	45	;'-'
   707  0057  342D               	retlw	45	;'-'
   708  0058  342D               	retlw	45	;'-'
   709  0059  342D               	retlw	45	;'-'
   710  005A  342D               	retlw	45	;'-'
   711  005B  342D               	retlw	45	;'-'
   712  005C  3420               	retlw	32	;' '
   713  005D  3445               	retlw	69	;'E'
   714  005E  3453               	retlw	83	;'S'
   715  005F  3454               	retlw	84	;'T'
   716  0060  344F               	retlw	79	;'O'
   717  0061  3455               	retlw	85	;'U'
   718  0062  3452               	retlw	82	;'R'
   719  0063  344F               	retlw	79	;'O'
   720  0064  3420               	retlw	32	;' '
   721  0065  3444               	retlw	68	;'D'
   722  0066  3445               	retlw	69	;'E'
   723  0067  3420               	retlw	32	;' '
   724  0068  3450               	retlw	80	;'P'
   725  0069  3449               	retlw	73	;'I'
   726  006A  344C               	retlw	76	;'L'
   727  006B  3448               	retlw	72	;'H'
   728  006C  3441               	retlw	65	;'A'
   729  006D  3420               	retlw	32	;' '
   730  006E  342D               	retlw	45	;'-'
   731  006F  342D               	retlw	45	;'-'
   732  0070  342D               	retlw	45	;'-'
   733  0071  342D               	retlw	45	;'-'
   734  0072  342D               	retlw	45	;'-'
   735  0073  342D               	retlw	45	;'-'
   736  0074  342D               	retlw	45	;'-'
   737  0075  3420               	retlw	32	;' '
   738  0076  340A               	retlw	10
   739  0077  340D               	retlw	13
   740  0078  3420               	retlw	32	;' '
   741  0079  3400               	retlw	0
   742  007A                     STR_6:	
   743  007A  3449               	retlw	73	;'I'
   744  007B  346E               	retlw	110	;'n'
   745  007C  3469               	retlw	105	;'i'
   746  007D  3463               	retlw	99	;'c'
   747  007E  3469               	retlw	105	;'i'
   748  007F  3461               	retlw	97	;'a'
   749  0080  346C               	retlw	108	;'l'
   750  0081  3469               	retlw	105	;'i'
   751  0082  347A               	retlw	122	;'z'
   752  0083  3461               	retlw	97	;'a'
   753  0084  346E               	retlw	110	;'n'
   754  0085  3464               	retlw	100	;'d'
   755  0086  346F               	retlw	111	;'o'
   756  0087  3420               	retlw	32	;' '
   757  0088  346F               	retlw	111	;'o'
   758  0089  3420               	retlw	32	;' '
   759  008A  3450               	retlw	80	;'P'
   760  008B  3449               	retlw	73	;'I'
   761  008C  3443               	retlw	67	;'C'
   762  008D  3431               	retlw	49	;'1'
   763  008E  3436               	retlw	54	;'6'
   764  008F  3446               	retlw	70	;'F'
   765  0090  3438               	retlw	56	;'8'
   766  0091  3437               	retlw	55	;'7'
   767  0092  3437               	retlw	55	;'7'
   768  0093  3441               	retlw	65	;'A'
   769  0094  340A               	retlw	10
   770  0095  340D               	retlw	13
   771  0096  3400               	retlw	0
   772  0097                     STR_7:	
   773  0097  3455               	retlw	85	;'U'
   774  0098  3453               	retlw	83	;'S'
   775  0099  3441               	retlw	65	;'A'
   776  009A  3452               	retlw	82	;'R'
   777  009B  3454               	retlw	84	;'T'
   778  009C  343A               	retlw	58	;':'
   779  009D  3420               	retlw	32	;' '
   780  009E  3431               	retlw	49	;'1'
   781  009F  3431               	retlw	49	;'1'
   782  00A0  3435               	retlw	53	;'5'
   783  00A1  342E               	retlw	46	;'.'
   784  00A2  3432               	retlw	50	;'2'
   785  00A3  3430               	retlw	48	;'0'
   786  00A4  3430               	retlw	48	;'0'
   787  00A5  3462               	retlw	98	;'b'
   788  00A6  3470               	retlw	112	;'p'
   789  00A7  3473               	retlw	115	;'s'
   790  00A8  340A               	retlw	10
   791  00A9  340D               	retlw	13
   792  00AA  3400               	retlw	0
   793  00AB                     STR_8:	
   794  00AB  3449               	retlw	73	;'I'
   795  00AC  346E               	retlw	110	;'n'
   796  00AD  3469               	retlw	105	;'i'
   797  00AE  3463               	retlw	99	;'c'
   798  00AF  3469               	retlw	105	;'i'
   799  00B0  3461               	retlw	97	;'a'
   800  00B1  346C               	retlw	108	;'l'
   801  00B2  3469               	retlw	105	;'i'
   802  00B3  347A               	retlw	122	;'z'
   803  00B4  3461               	retlw	97	;'a'
   804  00B5  346E               	retlw	110	;'n'
   805  00B6  3464               	retlw	100	;'d'
   806  00B7  346F               	retlw	111	;'o'
   807  00B8  342E               	retlw	46	;'.'
   808  00B9  342E               	retlw	46	;'.'
   809  00BA  342E               	retlw	46	;'.'
   810  00BB  3400               	retlw	0
   811  00BC                     STR_11:	
   812  00BC  3452               	retlw	82	;'R'
   813  00BD  3450               	retlw	80	;'P'
   814  00BE  344D               	retlw	77	;'M'
   815  00BF  343A               	retlw	58	;':'
   816  00C0  3420               	retlw	32	;' '
   817  00C1  3400               	retlw	0
   818  00C2                     STR_9:	
   819  00C2  3425               	retlw	37	;'%'
   820  00C3  3430               	retlw	48	;'0'
   821  00C4  3434               	retlw	52	;'4'
   822  00C5  3464               	retlw	100	;'d'
   823  00C6  3400               	retlw	0
   824  00C7                     STR_1:	
   825  00C7  3431               	retlw	49	;'1'
   826  00C8  3400               	retlw	0
   827  00C9                     STR_2:	
   828  00C9  3432               	retlw	50	;'2'
   829  00CA  3400               	retlw	0
   830  00CB                     STR_3:	
   831  00CB  3433               	retlw	51	;'3'
   832  00CC  3400               	retlw	0
   833  00CD                     STR_4:	
   834  00CD  3434               	retlw	52	;'4'
   835  00CE  3400               	retlw	0
   836  00CF                     STR_5:	
   837  00CF  3435               	retlw	53	;'5'
   838  00D0  3400               	retlw	0
   839  00D1                     __end_of__stringdata:	
   840                           
   841                           ; #config settings
   842  0000                     
   843                           	psect	cinit
   844  0015                     start_initialization:	
   845  0015                     __initialization:	
   846                           
   847                           ; Clear objects allocated to BANK0
   848  0015  01EC               	clrf	__pbssBANK0& (0+127)
   849  0016  01ED               	clrf	(__pbssBANK0+1)& (0+127)
   850  0017  01EE               	clrf	(__pbssBANK0+2)& (0+127)
   851  0018  01EF               	clrf	(__pbssBANK0+3)& (0+127)
   852                           
   853                           ; Clear objects allocated to BANK1
   854  0019  1383               	bcf	3,7	;select IRP bank0
   855  001A  30CD               	movlw	low __pbssBANK1
   856  001B  0084               	movwf	4
   857  001C  30E4               	movlw	low (__pbssBANK1+23)
   858  001D  160A  118A  264C  120A  118A  	fcall	clear_ram0
   859                           
   860                           ; Initialize objects allocated to BANK1
   861  0022  1683               	bsf	3,5	;RP0=1, select bank1
   862  0023  1303               	bcf	3,6	;RP1=0, select bank1
   863  0024  120A  158A  2002  120A  118A  	fcall	__pidataBANK1	;fetch initializer
   864  0029  00E4               	movwf	__pdataBANK1& (0+127)
   865  002A  120A  158A  2003  120A  118A  	fcall	__pidataBANK1+1	;fetch initializer
   866  002F  00E5               	movwf	(__pdataBANK1+1)& (0+127)
   867  0030  120A  158A  2004   	fcall	__pidataBANK1+2	;fetch initializer
   868  0033  00E6               	movwf	(__pdataBANK1+2)& (0+127)
   869  0034                     end_of_initialization:	
   870                           ;End of C runtime variable initialization code
   871                           
   872  0034                     __end_of__initialization:	
   873  0034  0183               	clrf	3
   874  0035  120A  158A  2DB3   	ljmp	_main	;jump to C main() function
   875                           
   876                           	psect	bssBANK0
   877  006C                     __pbssBANK0:	
   878  006C                     _ADCResult:	
   879  006C                     	ds	2
   880  006E                     _status:	
   881  006E                     	ds	2
   882                           
   883                           	psect	bssBANK1
   884  00CD                     __pbssBANK1:	
   885  00CD                     _temp_lida:	
   886  00CD                     	ds	3
   887  00D0                     _contador_rb6:	
   888  00D0                     	ds	2
   889  00D2                     _contagens_tm0:	
   890  00D2                     	ds	2
   891  00D4                     _pulsos:	
   892  00D4                     	ds	2
   893  00D6                     _rpm:	
   894  00D6                     	ds	2
   895  00D8                     _tempo_rb6:	
   896  00D8                     	ds	2
   897  00DA                     _display:	
   898  00DA                     	ds	10
   899                           
   900                           	psect	dataBANK1
   901  00E4                     __pdataBANK1:	
   902  00E4                     _requiredRpm:	
   903  00E4                     	ds	3
   904                           
   905                           	psect	clrtext
   906  164C                     clear_ram0:	
   907                           ;	Called with FSR containing the base address, and
   908                           ;	W with the last address+1
   909                           
   910  164C  0064               	clrwdt	;clear the watchdog before getting into this loop
   911  164D                     clrloop0:	
   912  164D  0180               	clrf	0	;clear RAM location pointed to by FSR
   913  164E  0A84               	incf	4,f	;increment pointer
   914  164F  0604               	xorwf	4,w	;XOR with final address
   915  1650  1903               	btfsc	3,2	;have we reached the end yet?
   916  1651  3400               	retlw	0	;all done for this memory range, return
   917  1652  0604               	xorwf	4,w	;XOR again to restore value
   918  1653  2E4D               	goto	clrloop0	;do the next byte
   919                           
   920                           	psect	cstackBANK3
   921  0190                     __pcstackBANK3:	
   922  0190                     ??_main:	
   923                           
   924                           ; 0 bytes @ 0x0
   925  0190                     	ds	3
   926                           
   927                           	psect	cstackBANK1
   928  00A0                     __pcstackBANK1:	
   929  00A0                     	ds	1
   930  00A1                     _ISR$1732:	
   931                           
   932                           ; 3 bytes @ 0x1
   933  00A1                     	ds	3
   934  00A4                     _ISR$1733:	
   935                           
   936                           ; 3 bytes @ 0x4
   937  00A4                     	ds	3
   938  00A7                     ??_TIMER0_Set:	
   939  00A7                     ?_PWM_DutyCycle2:	
   940                           ; 0 bytes @ 0x7
   941                           
   942  00A7                     ??_TIMER0_Init:	
   943                           ; 0 bytes @ 0x7
   944                           
   945  00A7                     ??_ADC_Init:	
   946                           ; 0 bytes @ 0x7
   947                           
   948  00A7                     ??_PWM_Init:	
   949                           ; 0 bytes @ 0x7
   950                           
   951  00A7                     ?_LCD_Cursor:	
   952                           ; 0 bytes @ 0x7
   953                           
   954  00A7                     ?_PWM_DutyCycle1:	
   955                           ; 0 bytes @ 0x7
   956                           
   957  00A7                     ??_isdigit:	
   958                           ; 0 bytes @ 0x7
   959                           
   960  00A7                     ?_putch:	
   961                           ; 0 bytes @ 0x7
   962                           
   963  00A7                     ??_USART_WriteChar:	
   964                           ; 0 bytes @ 0x7
   965                           
   966  00A7                     ??_LCD_WriteCmd:	
   967                           ; 0 bytes @ 0x7
   968                           
   969  00A7                     ??_LCD_WriteData:	
   970                           ; 0 bytes @ 0x7
   971                           
   972  00A7                     ?___wmul:	
   973                           ; 0 bytes @ 0x7
   974                           
   975  00A7                     ?___lwdiv:	
   976                           ; 2 bytes @ 0x7
   977                           
   978  00A7                     ?___aldiv:	
   979                           ; 2 bytes @ 0x7
   980                           
   981  00A7                     USART_WriteChar@byte:	
   982                           ; 4 bytes @ 0x7
   983                           
   984  00A7                     TIMER0_Set@contagens:	
   985                           ; 1 bytes @ 0x7
   986                           
   987  00A7                     LCD_Cursor@Col:	
   988                           ; 1 bytes @ 0x7
   989                           
   990  00A7                     _isdigit$1417:	
   991                           ; 1 bytes @ 0x7
   992                           
   993  00A7                     putch@c:	
   994                           ; 1 bytes @ 0x7
   995                           
   996  00A7                     PWM_DutyCycle1@valor:	
   997                           ; 1 bytes @ 0x7
   998                           
   999  00A7                     PWM_DutyCycle2@valor:	
  1000                           ; 2 bytes @ 0x7
  1001                           
  1002  00A7                     ___wmul@multiplier:	
  1003                           ; 2 bytes @ 0x7
  1004                           
  1005  00A7                     ___lwdiv@divisor:	
  1006                           ; 2 bytes @ 0x7
  1007                           
  1008  00A7                     ___aldiv@divisor:	
  1009                           ; 2 bytes @ 0x7
  1010                           
  1011                           
  1012                           ; 4 bytes @ 0x7
  1013  00A7                     	ds	1
  1014  00A8                     ?_USART_WriteString:	
  1015  00A8                     ??_LCD_Cursor:	
  1016                           ; 0 bytes @ 0x8
  1017                           
  1018  00A8                     ??_putch:	
  1019                           ; 0 bytes @ 0x8
  1020                           
  1021  00A8                     LCD_WriteCmd@Byte:	
  1022                           ; 0 bytes @ 0x8
  1023                           
  1024  00A8                     LCD_WriteData@Byte:	
  1025                           ; 1 bytes @ 0x8
  1026                           
  1027  00A8                     isdigit@c:	
  1028                           ; 1 bytes @ 0x8
  1029                           
  1030  00A8                     USART_WriteString@str:	
  1031                           ; 1 bytes @ 0x8
  1032                           
  1033                           
  1034                           ; 2 bytes @ 0x8
  1035  00A8                     	ds	1
  1036  00A9                     ??_PWM_DutyCycle2:	
  1037  00A9                     ??_LCD_Init:	
  1038                           ; 0 bytes @ 0x9
  1039                           
  1040  00A9                     ?_LCD_WriteString:	
  1041                           ; 0 bytes @ 0x9
  1042                           
  1043  00A9                     ??_PWM_DutyCycle1:	
  1044                           ; 0 bytes @ 0x9
  1045                           
  1046  00A9                     ??_LCD_Clear:	
  1047                           ; 0 bytes @ 0x9
  1048                           
  1049  00A9                     LCD_Cursor@Row:	
  1050                           ; 0 bytes @ 0x9
  1051                           
  1052  00A9                     LCD_WriteString@Str:	
  1053                           ; 1 bytes @ 0x9
  1054                           
  1055  00A9                     ___wmul@multiplicand:	
  1056                           ; 2 bytes @ 0x9
  1057                           
  1058  00A9                     ___lwdiv@dividend:	
  1059                           ; 2 bytes @ 0x9
  1060                           
  1061                           
  1062                           ; 2 bytes @ 0x9
  1063  00A9                     	ds	1
  1064  00AA                     ??_USART_WriteString:	
  1065                           
  1066                           ; 0 bytes @ 0xA
  1067  00AA                     	ds	1
  1068  00AB                     ??_LCD_WriteString:	
  1069  00AB                     ??___wmul:	
  1070                           ; 0 bytes @ 0xB
  1071                           
  1072  00AB                     ??___lwdiv:	
  1073                           ; 0 bytes @ 0xB
  1074                           
  1075  00AB                     ___wmul@product:	
  1076                           ; 0 bytes @ 0xB
  1077                           
  1078  00AB                     ___aldiv@dividend:	
  1079                           ; 2 bytes @ 0xB
  1080                           
  1081                           
  1082                           ; 4 bytes @ 0xB
  1083  00AB                     	ds	1
  1084  00AC                     ___lwdiv@quotient:	
  1085                           
  1086                           ; 2 bytes @ 0xC
  1087  00AC                     	ds	2
  1088  00AE                     ___lwdiv@counter:	
  1089                           
  1090                           ; 1 bytes @ 0xE
  1091  00AE                     	ds	1
  1092  00AF                     ??___aldiv:	
  1093  00AF                     ?___lwmod:	
  1094                           ; 0 bytes @ 0xF
  1095                           
  1096  00AF                     ___lwmod@divisor:	
  1097                           ; 2 bytes @ 0xF
  1098                           
  1099                           
  1100                           ; 2 bytes @ 0xF
  1101  00AF                     	ds	1
  1102  00B0                     ___aldiv@counter:	
  1103                           
  1104                           ; 1 bytes @ 0x10
  1105  00B0                     	ds	1
  1106  00B1                     ___aldiv@sign:	
  1107  00B1                     ___lwmod@dividend:	
  1108                           ; 1 bytes @ 0x11
  1109                           
  1110                           
  1111                           ; 2 bytes @ 0x11
  1112  00B1                     	ds	1
  1113  00B2                     ___aldiv@quotient:	
  1114                           
  1115                           ; 4 bytes @ 0x12
  1116  00B2                     	ds	1
  1117  00B3                     ??___lwmod:	
  1118                           
  1119                           ; 0 bytes @ 0x13
  1120  00B3                     	ds	1
  1121  00B4                     ___lwmod@counter:	
  1122                           
  1123                           ; 1 bytes @ 0x14
  1124  00B4                     	ds	1
  1125  00B5                     ?__doprnt:	
  1126  00B5                     __doprnt@f:	
  1127                           ; 2 bytes @ 0x15
  1128                           
  1129                           
  1130                           ; 1 bytes @ 0x15
  1131  00B5                     	ds	1
  1132  00B6                     ?_USART_Init:	
  1133  00B6                     __doprnt@ap:	
  1134                           ; 0 bytes @ 0x16
  1135                           
  1136  00B6                     USART_Init@BaudRate:	
  1137                           ; 1 bytes @ 0x16
  1138                           
  1139                           
  1140                           ; 4 bytes @ 0x16
  1141  00B6                     	ds	1
  1142  00B7                     ??__doprnt:	
  1143                           
  1144                           ; 0 bytes @ 0x17
  1145  00B7                     	ds	3
  1146  00BA                     ??_USART_Init:	
  1147  00BA                     __doprnt@prec:	
  1148                           ; 0 bytes @ 0x1A
  1149                           
  1150                           
  1151                           ; 1 bytes @ 0x1A
  1152  00BA                     	ds	1
  1153  00BB                     __doprnt@_val:	
  1154                           
  1155                           ; 4 bytes @ 0x1B
  1156  00BB                     	ds	4
  1157  00BF                     __doprnt@flag:	
  1158                           
  1159                           ; 1 bytes @ 0x1F
  1160  00BF                     	ds	1
  1161  00C0                     __doprnt@width:	
  1162                           
  1163                           ; 2 bytes @ 0x20
  1164  00C0                     	ds	2
  1165  00C2                     __doprnt@c:	
  1166                           
  1167                           ; 1 bytes @ 0x22
  1168  00C2                     	ds	1
  1169  00C3                     __doprnt@pb:	
  1170                           
  1171                           ; 1 bytes @ 0x23
  1172  00C3                     	ds	1
  1173  00C4                     ?_sprintf:	
  1174  00C4                     sprintf@f:	
  1175                           ; 2 bytes @ 0x24
  1176                           
  1177                           
  1178                           ; 1 bytes @ 0x24
  1179  00C4                     	ds	3
  1180  00C7                     ??_sprintf:	
  1181                           
  1182                           ; 0 bytes @ 0x27
  1183  00C7                     	ds	2
  1184  00C9                     sprintf@wh:	
  1185                           
  1186                           ; 1 bytes @ 0x29
  1187  00C9                     	ds	1
  1188  00CA                     sprintf@ap:	
  1189                           
  1190                           ; 1 bytes @ 0x2A
  1191  00CA                     	ds	1
  1192  00CB                     sprintf@pb:	
  1193                           
  1194                           ; 2 bytes @ 0x2B
  1195  00CB                     	ds	2
  1196                           
  1197                           	psect	cstackCOMMON
  1198  0070                     __pcstackCOMMON:	
  1199  0070                     ?_TIMER0_Set:	
  1200  0070                     ?_TIMER0_Init:	
  1201                           ; 0 bytes @ 0x0
  1202                           
  1203  0070                     ?_ADC_Init:	
  1204                           ; 0 bytes @ 0x0
  1205                           
  1206  0070                     ?_PWM_Init:	
  1207                           ; 0 bytes @ 0x0
  1208                           
  1209  0070                     ?_LCD_Init:	
  1210                           ; 0 bytes @ 0x0
  1211                           
  1212  0070                     ?_LCD_Clear:	
  1213                           ; 0 bytes @ 0x0
  1214                           
  1215  0070                     ?_isdigit:	
  1216                           ; 0 bytes @ 0x0
  1217                           
  1218  0070                     ?_ISR:	
  1219                           ; 1 bit 
  1220                           
  1221  0070                     ?_main:	
  1222                           ; 0 bytes @ 0x0
  1223                           
  1224  0070                     ?_USART_WriteChar:	
  1225                           ; 0 bytes @ 0x0
  1226                           
  1227  0070                     ?_LCD_WriteCmd:	
  1228                           ; 0 bytes @ 0x0
  1229                           
  1230  0070                     ?_LCD_WriteData:	
  1231                           ; 0 bytes @ 0x0
  1232                           
  1233  0070                     ?___ftge:	
  1234                           ; 0 bytes @ 0x0
  1235                           
  1236  0070                     ?i1_TIMER0_Set:	
  1237                           ; 1 bit 
  1238                           
  1239  0070                     ??i1_TIMER0_Set:	
  1240                           ; 0 bytes @ 0x0
  1241                           
  1242  0070                     ?i1_isdigit:	
  1243                           ; 0 bytes @ 0x0
  1244                           
  1245  0070                     ??i1_isdigit:	
  1246                           ; 1 bit 
  1247                           
  1248  0070                     ?i1_putch:	
  1249                           ; 0 bytes @ 0x0
  1250                           
  1251  0070                     ?_printf:	
  1252                           ; 0 bytes @ 0x0
  1253                           
  1254  0070                     ?i1___wmul:	
  1255                           ; 2 bytes @ 0x0
  1256                           
  1257  0070                     ?i1___lwdiv:	
  1258                           ; 2 bytes @ 0x0
  1259                           
  1260  0070                     ?___ftpack:	
  1261                           ; 2 bytes @ 0x0
  1262                           
  1263  0070                     ?___ftneg:	
  1264                           ; 3 bytes @ 0x0
  1265                           
  1266  0070                     i1TIMER0_Set@contagens:	
  1267                           ; 3 bytes @ 0x0
  1268                           
  1269  0070                     i1_isdigit$1417:	
  1270                           ; 1 bytes @ 0x0
  1271                           
  1272  0070                     i1putch@c:	
  1273                           ; 1 bytes @ 0x0
  1274                           
  1275  0070                     i1___wmul@multiplier:	
  1276                           ; 1 bytes @ 0x0
  1277                           
  1278  0070                     i1___lwdiv@divisor:	
  1279                           ; 2 bytes @ 0x0
  1280                           
  1281  0070                     ___ftpack@arg:	
  1282                           ; 2 bytes @ 0x0
  1283                           
  1284  0070                     ___ftge@ff1:	
  1285                           ; 3 bytes @ 0x0
  1286                           
  1287  0070                     ___ftneg@f1:	
  1288                           ; 3 bytes @ 0x0
  1289                           
  1290                           
  1291                           ; 3 bytes @ 0x0
  1292  0070                     	ds	1
  1293  0071                     ??i1_putch:	
  1294  0071                     i1isdigit@c:	
  1295                           ; 0 bytes @ 0x1
  1296                           
  1297                           
  1298                           ; 1 bytes @ 0x1
  1299  0071                     	ds	1
  1300  0072                     i1___wmul@multiplicand:	
  1301  0072                     i1___lwdiv@dividend:	
  1302                           ; 2 bytes @ 0x2
  1303                           
  1304                           
  1305                           ; 2 bytes @ 0x2
  1306  0072                     	ds	1
  1307  0073                     ??___ftneg:	
  1308  0073                     ___ftpack@exp:	
  1309                           ; 0 bytes @ 0x3
  1310                           
  1311  0073                     ___ftge@ff2:	
  1312                           ; 1 bytes @ 0x3
  1313                           
  1314                           
  1315                           ; 3 bytes @ 0x3
  1316  0073                     	ds	1
  1317  0074                     ??i1___wmul:	
  1318  0074                     ??i1___lwdiv:	
  1319                           ; 0 bytes @ 0x4
  1320                           
  1321  0074                     ___ftpack@sign:	
  1322                           ; 0 bytes @ 0x4
  1323                           
  1324  0074                     i1___wmul@product:	
  1325                           ; 1 bytes @ 0x4
  1326                           
  1327                           
  1328                           ; 2 bytes @ 0x4
  1329  0074                     	ds	1
  1330  0075                     ??___ftpack:	
  1331  0075                     i1___lwdiv@quotient:	
  1332                           ; 0 bytes @ 0x5
  1333                           
  1334                           
  1335                           ; 2 bytes @ 0x5
  1336  0075                     	ds	1
  1337  0076                     ??___ftge:	
  1338                           
  1339                           ; 0 bytes @ 0x6
  1340  0076                     	ds	1
  1341  0077                     i1___lwdiv@counter:	
  1342                           
  1343                           ; 1 bytes @ 0x7
  1344  0077                     	ds	1
  1345  0078                     ?i1___lwmod:	
  1346  0078                     ?___ftadd:	
  1347                           ; 2 bytes @ 0x8
  1348                           
  1349  0078                     ?___lwtoft:	
  1350                           ; 3 bytes @ 0x8
  1351                           
  1352  0078                     ___lwtoft@c:	
  1353                           ; 3 bytes @ 0x8
  1354                           
  1355  0078                     i1___lwmod@divisor:	
  1356                           ; 2 bytes @ 0x8
  1357                           
  1358  0078                     ___ftadd@f1:	
  1359                           ; 2 bytes @ 0x8
  1360                           
  1361                           
  1362                           ; 3 bytes @ 0x8
  1363  0078                     	ds	2
  1364  007A                     i1___lwmod@dividend:	
  1365                           
  1366                           ; 2 bytes @ 0xA
  1367  007A                     	ds	1
  1368  007B                     ??___lwtoft:	
  1369  007B                     ___ftadd@f2:	
  1370                           ; 0 bytes @ 0xB
  1371                           
  1372                           
  1373                           ; 3 bytes @ 0xB
  1374  007B                     	ds	1
  1375  007C                     ??i1___lwmod:	
  1376                           
  1377                           ; 0 bytes @ 0xC
  1378  007C                     	ds	1
  1379  007D                     i1___lwmod@counter:	
  1380                           
  1381                           ; 1 bytes @ 0xD
  1382  007D                     	ds	1
  1383  007E                     ??_trapezoidal:	
  1384                           
  1385                           	psect	cstackBANK0
  1386  0020                     __pcstackBANK0:	
  1387                           ; 0 bytes @ 0xE
  1388                           
  1389  0020                     ??___ftadd:	
  1390  0020                     ?i1__doprnt:	
  1391                           ; 0 bytes @ 0x0
  1392                           
  1393  0020                     i1__doprnt@f:	
  1394                           ; 2 bytes @ 0x0
  1395                           
  1396                           
  1397                           ; 1 bytes @ 0x0
  1398  0020                     	ds	1
  1399  0021                     i1__doprnt@ap:	
  1400                           
  1401                           ; 1 bytes @ 0x1
  1402  0021                     	ds	1
  1403  0022                     ??i1__doprnt:	
  1404                           
  1405                           ; 0 bytes @ 0x2
  1406  0022                     	ds	2
  1407  0024                     ___ftadd@sign:	
  1408                           
  1409                           ; 1 bytes @ 0x4
  1410  0024                     	ds	1
  1411  0025                     ___ftadd@exp2:	
  1412  0025                     i1__doprnt@prec:	
  1413                           ; 1 bytes @ 0x5
  1414                           
  1415                           
  1416                           ; 1 bytes @ 0x5
  1417  0025                     	ds	1
  1418  0026                     ___ftadd@exp1:	
  1419  0026                     i1__doprnt@_val:	
  1420                           ; 1 bytes @ 0x6
  1421                           
  1422                           
  1423                           ; 4 bytes @ 0x6
  1424  0026                     	ds	1
  1425  0027                     ?___ftdiv:	
  1426  0027                     ___ftdiv@f2:	
  1427                           ; 3 bytes @ 0x7
  1428                           
  1429                           
  1430                           ; 3 bytes @ 0x7
  1431  0027                     	ds	3
  1432  002A                     i1__doprnt@flag:	
  1433  002A                     ___ftdiv@f1:	
  1434                           ; 1 bytes @ 0xA
  1435                           
  1436                           
  1437                           ; 3 bytes @ 0xA
  1438  002A                     	ds	1
  1439  002B                     i1__doprnt@width:	
  1440                           
  1441                           ; 2 bytes @ 0xB
  1442  002B                     	ds	2
  1443  002D                     ??___ftdiv:	
  1444  002D                     i1__doprnt@c:	
  1445                           ; 0 bytes @ 0xD
  1446                           
  1447                           
  1448                           ; 1 bytes @ 0xD
  1449  002D                     	ds	1
  1450  002E                     i1__doprnt@pb:	
  1451                           
  1452                           ; 1 bytes @ 0xE
  1453  002E                     	ds	1
  1454  002F                     ??_printf:	
  1455                           
  1456                           ; 0 bytes @ 0xF
  1457  002F                     	ds	2
  1458  0031                     ___ftdiv@cntr:	
  1459  0031                     printf@f:	
  1460                           ; 1 bytes @ 0x11
  1461                           
  1462                           
  1463                           ; 1 bytes @ 0x11
  1464  0031                     	ds	1
  1465  0032                     printf@ap:	
  1466  0032                     ___ftdiv@f3:	
  1467                           ; 1 bytes @ 0x12
  1468                           
  1469                           
  1470                           ; 3 bytes @ 0x12
  1471  0032                     	ds	1
  1472  0033                     printf@pb:	
  1473                           
  1474                           ; 2 bytes @ 0x13
  1475  0033                     	ds	2
  1476  0035                     ___ftdiv@exp:	
  1477                           
  1478                           ; 1 bytes @ 0x15
  1479  0035                     	ds	1
  1480  0036                     ___ftdiv@sign:	
  1481                           
  1482                           ; 1 bytes @ 0x16
  1483  0036                     	ds	1
  1484  0037                     ?_trapezoidal:	
  1485  0037                     trapezoidal@x:	
  1486                           ; 3 bytes @ 0x17
  1487                           
  1488                           
  1489                           ; 3 bytes @ 0x17
  1490  0037                     	ds	3
  1491  003A                     trapezoidal@a:	
  1492                           
  1493                           ; 3 bytes @ 0x1A
  1494  003A                     	ds	3
  1495  003D                     trapezoidal@b:	
  1496                           
  1497                           ; 3 bytes @ 0x1D
  1498  003D                     	ds	3
  1499  0040                     trapezoidal@c:	
  1500                           
  1501                           ; 3 bytes @ 0x20
  1502  0040                     	ds	3
  1503  0043                     trapezoidal@d:	
  1504                           
  1505                           ; 3 bytes @ 0x23
  1506  0043                     	ds	3
  1507  0046                     ?___ftmul:	
  1508  0046                     ___ftmul@f1:	
  1509                           ; 3 bytes @ 0x26
  1510                           
  1511                           
  1512                           ; 3 bytes @ 0x26
  1513  0046                     	ds	3
  1514  0049                     ___ftmul@f2:	
  1515                           
  1516                           ; 3 bytes @ 0x29
  1517  0049                     	ds	3
  1518  004C                     ??___ftmul:	
  1519                           
  1520                           ; 0 bytes @ 0x2C
  1521  004C                     	ds	4
  1522  0050                     ___ftmul@exp:	
  1523                           
  1524                           ; 1 bytes @ 0x30
  1525  0050                     	ds	1
  1526  0051                     ___ftmul@f3_as_product:	
  1527                           
  1528                           ; 3 bytes @ 0x31
  1529  0051                     	ds	3
  1530  0054                     ___ftmul@cntr:	
  1531                           
  1532                           ; 1 bytes @ 0x34
  1533  0054                     	ds	1
  1534  0055                     ___ftmul@sign:	
  1535                           
  1536                           ; 1 bytes @ 0x35
  1537  0055                     	ds	1
  1538  0056                     ?___fttol:	
  1539  0056                     ___fttol@f1:	
  1540                           ; 4 bytes @ 0x36
  1541                           
  1542                           
  1543                           ; 3 bytes @ 0x36
  1544  0056                     	ds	4
  1545  005A                     ??___fttol:	
  1546                           
  1547                           ; 0 bytes @ 0x3A
  1548  005A                     	ds	4
  1549  005E                     ___fttol@sign1:	
  1550                           
  1551                           ; 1 bytes @ 0x3E
  1552  005E                     	ds	1
  1553  005F                     ___fttol@lval:	
  1554                           
  1555                           ; 4 bytes @ 0x3F
  1556  005F                     	ds	4
  1557  0063                     ___fttol@exp1:	
  1558                           
  1559                           ; 1 bytes @ 0x43
  1560  0063                     	ds	1
  1561  0064                     ?i1_PWM_DutyCycle2:	
  1562  0064                     i1PWM_DutyCycle2@valor:	
  1563                           ; 0 bytes @ 0x44
  1564                           
  1565                           
  1566                           ; 2 bytes @ 0x44
  1567  0064                     	ds	2
  1568  0066                     ??i1_PWM_DutyCycle2:	
  1569                           
  1570                           ; 0 bytes @ 0x46
  1571  0066                     	ds	2
  1572  0068                     ??_ISR:	
  1573                           
  1574                           ; 0 bytes @ 0x48
  1575  0068                     	ds	4
  1576                           
  1577                           	psect	maintext
  1578  0DB3                     __pmaintext:	
  1579 ;;
  1580 ;;Main: autosize = 0, tempsize = 3, incstack = 0, save=0
  1581 ;;
  1582 ;; *************** function _main *****************
  1583 ;; Defined at:
  1584 ;;		line 161 in file "C:\Users\332414\Documents\Fuzzy-IA2\Cdigo em C no MPLAB\main.c"
  1585 ;; Parameters:    Size  Location     Type
  1586 ;;		None
  1587 ;; Auto vars:     Size  Location     Type
  1588 ;;		None
  1589 ;; Return value:  Size  Location     Type
  1590 ;;		None               void
  1591 ;; Registers used:
  1592 ;;		wreg, fsr0l, fsr0h, status,2, status,0, btemp+1, pclath, cstack
  1593 ;; Tracked objects:
  1594 ;;		On entry : 17F/0
  1595 ;;		On exit  : 0/0
  1596 ;;		Unchanged: 0/0
  1597 ;; Data sizes:     COMMON   BANK0   BANK1   BANK3   BANK2
  1598 ;;      Params:         0       0       0       0       0
  1599 ;;      Locals:         0       0       0       0       0
  1600 ;;      Temps:          0       0       0       3       0
  1601 ;;      Totals:         0       0       0       3       0
  1602 ;;Total ram usage:        3 bytes
  1603 ;; Hardware stack levels required when called:    8
  1604 ;; This function calls:
  1605 ;;		_ADC_Init
  1606 ;;		_LCD_Clear
  1607 ;;		_LCD_Cursor
  1608 ;;		_LCD_Init
  1609 ;;		_LCD_WriteString
  1610 ;;		_PWM_DutyCycle1
  1611 ;;		_PWM_DutyCycle2
  1612 ;;		_PWM_Init
  1613 ;;		_TIMER0_Init
  1614 ;;		_TIMER0_Set
  1615 ;;		_USART_Init
  1616 ;;		_USART_WriteString
  1617 ;;		_sprintf
  1618 ;; This function is called by:
  1619 ;;		Startup code after reset
  1620 ;; This function uses a non-reentrant model
  1621 ;;
  1622                           
  1623                           
  1624                           ;psect for function _main
  1625  0DB3                     _main:	
  1626                           
  1627                           ;main.c: 163: TRISA = 0b00000001;
  1628                           
  1629                           ;incstack = 0
  1630                           ; Regs used in _main: [wreg-fsr0h+status,2+status,0+btemp+1+pclath+cstack]
  1631  0DB3  3001               	movlw	1
  1632  0DB4  1683               	bsf	3,5	;RP0=1, select bank1
  1633  0DB5  1303               	bcf	3,6	;RP1=0, select bank1
  1634  0DB6  0085               	movwf	5	;volatile
  1635                           
  1636                           ;main.c: 164: PORTA = 0b00000001;
  1637  0DB7  3001               	movlw	1
  1638  0DB8  1283               	bcf	3,5	;RP0=0, select bank0
  1639  0DB9  1303               	bcf	3,6	;RP1=0, select bank0
  1640  0DBA  0085               	movwf	5	;volatile
  1641                           
  1642                           ;main.c: 165: TRISB = 0b00000000;
  1643  0DBB  1683               	bsf	3,5	;RP0=1, select bank1
  1644  0DBC  1303               	bcf	3,6	;RP1=0, select bank1
  1645  0DBD  0186               	clrf	6	;volatile
  1646                           
  1647                           ;main.c: 166: PORTB = 0b00000000;
  1648  0DBE  1283               	bcf	3,5	;RP0=0, select bank0
  1649  0DBF  1303               	bcf	3,6	;RP1=0, select bank0
  1650  0DC0  0186               	clrf	6	;volatile
  1651                           
  1652                           ;main.c: 167: TRISC = 0b10000001;
  1653  0DC1  3081               	movlw	129
  1654  0DC2  1683               	bsf	3,5	;RP0=1, select bank1
  1655  0DC3  1303               	bcf	3,6	;RP1=0, select bank1
  1656  0DC4  0087               	movwf	7	;volatile
  1657                           
  1658                           ;main.c: 168: PORTC = 0b11000000;
  1659  0DC5  30C0               	movlw	192
  1660  0DC6  1283               	bcf	3,5	;RP0=0, select bank0
  1661  0DC7  1303               	bcf	3,6	;RP1=0, select bank0
  1662  0DC8  0087               	movwf	7	;volatile
  1663                           
  1664                           ;main.c: 169: TRISD = 0b00000000;
  1665  0DC9  1683               	bsf	3,5	;RP0=1, select bank1
  1666  0DCA  1303               	bcf	3,6	;RP1=0, select bank1
  1667  0DCB  0188               	clrf	8	;volatile
  1668                           
  1669                           ;main.c: 170: PORTD = 0b00000000;
  1670  0DCC  1283               	bcf	3,5	;RP0=0, select bank0
  1671  0DCD  1303               	bcf	3,6	;RP1=0, select bank0
  1672  0DCE  0188               	clrf	8	;volatile
  1673                           
  1674                           ;main.c: 171: TRISE = 0b00000000;
  1675  0DCF  1683               	bsf	3,5	;RP0=1, select bank1
  1676  0DD0  1303               	bcf	3,6	;RP1=0, select bank1
  1677  0DD1  0189               	clrf	9	;volatile
  1678                           
  1679                           ;main.c: 172: PORTE = 0b00000000;
  1680  0DD2  1283               	bcf	3,5	;RP0=0, select bank0
  1681  0DD3  1303               	bcf	3,6	;RP1=0, select bank0
  1682  0DD4  0189               	clrf	9	;volatile
  1683                           
  1684                           ;main.c: 175: T1CON = 0x03;
  1685  0DD5  3003               	movlw	3
  1686  0DD6  0090               	movwf	16	;volatile
  1687                           
  1688                           ;main.c: 176: TMR1L = 0x00;
  1689  0DD7  018E               	clrf	14	;volatile
  1690                           
  1691                           ;main.c: 177: TMR1H = 0x00;
  1692  0DD8  018F               	clrf	15	;volatile
  1693                           
  1694                           ;main.c: 180: USART_Init(115200);
  1695  0DD9  3000               	movlw	0
  1696  0DDA  1683               	bsf	3,5	;RP0=1, select bank1
  1697  0DDB  1303               	bcf	3,6	;RP1=0, select bank1
  1698  0DDC  00B9               	movwf	(USART_Init@BaudRate+3)^(0+128)
  1699  0DDD  3001               	movlw	1
  1700  0DDE  00B8               	movwf	(USART_Init@BaudRate+2)^(0+128)
  1701  0DDF  30C2               	movlw	194
  1702  0DE0  00B7               	movwf	(USART_Init@BaudRate+1)^(0+128)
  1703  0DE1  3000               	movlw	0
  1704  0DE2  00B6               	movwf	USART_Init@BaudRate^(0+128)
  1705  0DE3  120A  158A  2143  120A  158A  	fcall	_USART_Init
  1706                           
  1707                           ;main.c: 181: TIMER0_Init();
  1708  0DE8  120A  118A  27F5  120A  158A  	fcall	_TIMER0_Init
  1709                           
  1710                           ;main.c: 182: ADC_Init();
  1711  0DED  160A  118A  267F  120A  158A  	fcall	_ADC_Init
  1712                           
  1713                           ;main.c: 183: PWM_Init();
  1714  0DF2  160A  118A  27AB  120A  158A  	fcall	_PWM_Init
  1715                           
  1716                           ;main.c: 184: LCD_Init();
  1717  0DF7  120A  158A  2251  120A  158A  	fcall	_LCD_Init
  1718                           
  1719                           ;main.c: 187: INTCONbits.PEIE = 1;
  1720  0DFC  170B               	bsf	11,6	;volatile
  1721                           
  1722                           ;main.c: 188: INTCONbits.GIE = 1;
  1723  0DFD  178B               	bsf	11,7	;volatile
  1724                           
  1725                           ;main.c: 191: USART_WriteString("Inicializando o PIC16F877A\n\r");
  1726  0DFE  3033               	movlw	low (STR_6-__stringbase)
  1727  0DFF  1683               	bsf	3,5	;RP0=1, select bank1
  1728  0E00  1303               	bcf	3,6	;RP1=0, select bank1
  1729  0E01  00A8               	movwf	USART_WriteString@str^(0+128)
  1730  0E02  3080               	movlw	128
  1731  0E03  00A9               	movwf	(USART_WriteString@str+1)^(0+128)
  1732  0E04  120A  158A  202A  120A  158A  	fcall	_USART_WriteString
  1733                           
  1734                           ;main.c: 192: USART_WriteString("USART: 115.200bps\n\r");
  1735  0E09  3050               	movlw	low (STR_7-__stringbase)
  1736  0E0A  1683               	bsf	3,5	;RP0=1, select bank1
  1737  0E0B  1303               	bcf	3,6	;RP1=0, select bank1
  1738  0E0C  00A8               	movwf	USART_WriteString@str^(0+128)
  1739  0E0D  3080               	movlw	128
  1740  0E0E  00A9               	movwf	(USART_WriteString@str+1)^(0+128)
  1741  0E0F  120A  158A  202A  120A  158A  	fcall	_USART_WriteString
  1742                           
  1743                           ;main.c: 195: LCD_Init();
  1744  0E14  120A  158A  2251  120A  158A  	fcall	_LCD_Init
  1745                           
  1746                           ;main.c: 196: LCD_Cursor(0,0);
  1747  0E19  1683               	bsf	3,5	;RP0=1, select bank1
  1748  0E1A  1303               	bcf	3,6	;RP1=0, select bank1
  1749  0E1B  01A7               	clrf	LCD_Cursor@Col^(0+128)
  1750  0E1C  3000               	movlw	0
  1751  0E1D  160A  118A  2726  120A  158A  	fcall	_LCD_Cursor
  1752                           
  1753                           ;main.c: 197: LCD_WriteString("Inicializando...");
  1754  0E22  3064               	movlw	low (STR_8-__stringbase)
  1755  0E23  1683               	bsf	3,5	;RP0=1, select bank1
  1756  0E24  1303               	bcf	3,6	;RP1=0, select bank1
  1757  0E25  00A9               	movwf	LCD_WriteString@Str^(0+128)
  1758  0E26  3080               	movlw	128
  1759  0E27  00AA               	movwf	(LCD_WriteString@Str+1)^(0+128)
  1760  0E28  160A  118A  27CF  120A  158A  	fcall	_LCD_WriteString
  1761                           
  1762                           ;main.c: 200: PWM_DutyCycle1(0);
  1763  0E2D  3000               	movlw	0
  1764  0E2E  1683               	bsf	3,5	;RP0=1, select bank1
  1765  0E2F  1303               	bcf	3,6	;RP1=0, select bank1
  1766  0E30  00A7               	movwf	PWM_DutyCycle1@valor^(0+128)
  1767  0E31  3000               	movlw	0
  1768  0E32  00A8               	movwf	(PWM_DutyCycle1@valor^(0+128)+1)
  1769  0E33  160A  118A  2746  120A  158A  	fcall	_PWM_DutyCycle1
  1770                           
  1771                           ;main.c: 201: PWM_DutyCycle2(1023);
  1772  0E38  30FF               	movlw	255
  1773  0E39  1683               	bsf	3,5	;RP0=1, select bank1
  1774  0E3A  1303               	bcf	3,6	;RP1=0, select bank1
  1775  0E3B  00A7               	movwf	PWM_DutyCycle2@valor^(0+128)
  1776  0E3C  3003               	movlw	3
  1777  0E3D  00A8               	movwf	(PWM_DutyCycle2@valor^(0+128)+1)
  1778  0E3E  160A  118A  2767  120A  158A  	fcall	_PWM_DutyCycle2
  1779                           
  1780                           ;main.c: 204: TIMER0_Set(238);
  1781  0E43  30EE               	movlw	238
  1782  0E44  160A  118A  2644  120A  158A  	fcall	_TIMER0_Set
  1783                           
  1784                           ;main.c: 207: _delay((unsigned long)((1000)*(18432000/4000.0)));
  1785  0E49  3018               	movlw	24
  1786  0E4A  1683               	bsf	3,5	;RP0=1, select bank3
  1787  0E4B  1703               	bsf	3,6	;RP1=1, select bank3
  1788  0E4C  0092               	movwf	(??_main^(0+384)+2)
  1789  0E4D  3061               	movlw	97
  1790  0E4E  0091               	movwf	(??_main^(0+384)+1)
  1791  0E4F  306E               	movlw	110
  1792  0E50  0090               	movwf	??_main^(0+384)
  1793  0E51                     u6687:	
  1794  0E51  0B90               	decfsz	??_main^(0+384),f
  1795  0E52  2E51               	goto	u6687
  1796  0E53  0B91               	decfsz	(??_main^(0+384)+1),f
  1797  0E54  2E51               	goto	u6687
  1798  0E55  0B92               	decfsz	(??_main^(0+384)+2),f
  1799  0E56  2E51               	goto	u6687
  1800  0E57  0000               	nop
  1801  0E58                     l110:	
  1802                           ;main.c: 210: while(1)
  1803                           
  1804                           
  1805                           ;main.c: 211: {
  1806                           ;main.c: 213: sprintf(display,"%04d", rpm);
  1807  0E58  307B               	movlw	(STR_9-__stringbase)& (0+255)
  1808  0E59  1683               	bsf	3,5	;RP0=1, select bank3
  1809  0E5A  1703               	bsf	3,6	;RP1=1, select bank3
  1810  0E5B  0090               	movwf	??_main^(0+384)
  1811  0E5C  0810               	movf	??_main^(0+384),w
  1812  0E5D  1683               	bsf	3,5	;RP0=1, select bank1
  1813  0E5E  1303               	bcf	3,6	;RP1=0, select bank1
  1814  0E5F  00C4               	movwf	sprintf@f^(0+128)
  1815  0E60  0857               	movf	(_rpm+1)^(0+128),w
  1816  0E61  01C6               	clrf	((?_sprintf+1)^(0+128)+1)
  1817  0E62  07C6               	addwf	((?_sprintf+1)^(0+128)+1),f
  1818  0E63  0856               	movf	_rpm^(0+128),w
  1819  0E64  01C5               	clrf	(?_sprintf^(0+128)+1)
  1820  0E65  07C5               	addwf	(?_sprintf^(0+128)+1),f
  1821  0E66  30DA               	movlw	_display& (0+255)
  1822  0E67  160A  118A  2707  120A  158A  	fcall	_sprintf
  1823                           
  1824                           ;main.c: 216: USART_WriteString(display);
  1825  0E6C  30DA               	movlw	_display& (0+255)
  1826  0E6D  1683               	bsf	3,5	;RP0=1, select bank1
  1827  0E6E  1303               	bcf	3,6	;RP1=0, select bank1
  1828  0E6F  00A8               	movwf	USART_WriteString@str^(0+128)
  1829  0E70  3000               	movlw	0
  1830  0E71  00A9               	movwf	(USART_WriteString@str+1)^(0+128)
  1831  0E72  120A  158A  202A  120A  158A  	fcall	_USART_WriteString
  1832                           
  1833                           ;main.c: 217: USART_WriteString("\n\r");
  1834  0E77  304D               	movlw	low ((STR_6+26)-__stringbase)
  1835  0E78  1683               	bsf	3,5	;RP0=1, select bank1
  1836  0E79  1303               	bcf	3,6	;RP1=0, select bank1
  1837  0E7A  00A8               	movwf	USART_WriteString@str^(0+128)
  1838  0E7B  3080               	movlw	128
  1839  0E7C  00A9               	movwf	(USART_WriteString@str+1)^(0+128)
  1840  0E7D  120A  158A  202A  120A  158A  	fcall	_USART_WriteString
  1841                           
  1842                           ;main.c: 220: LCD_Clear();
  1843  0E82  120A  118A  20D1  120A  158A  	fcall	_LCD_Clear
  1844                           
  1845                           ;main.c: 221: LCD_Cursor(0,0);
  1846  0E87  1683               	bsf	3,5	;RP0=1, select bank1
  1847  0E88  1303               	bcf	3,6	;RP1=0, select bank1
  1848  0E89  01A7               	clrf	LCD_Cursor@Col^(0+128)
  1849  0E8A  3000               	movlw	0
  1850  0E8B  160A  118A  2726  120A  158A  	fcall	_LCD_Cursor
  1851                           
  1852                           ;main.c: 222: LCD_WriteString("RPM: ");
  1853  0E90  3075               	movlw	low (STR_11-__stringbase)
  1854  0E91  1683               	bsf	3,5	;RP0=1, select bank1
  1855  0E92  1303               	bcf	3,6	;RP1=0, select bank1
  1856  0E93  00A9               	movwf	LCD_WriteString@Str^(0+128)
  1857  0E94  3080               	movlw	128
  1858  0E95  00AA               	movwf	(LCD_WriteString@Str+1)^(0+128)
  1859  0E96  160A  118A  27CF  120A  158A  	fcall	_LCD_WriteString
  1860                           
  1861                           ;main.c: 223: LCD_Cursor(0,6);
  1862  0E9B  3006               	movlw	6
  1863  0E9C  1683               	bsf	3,5	;RP0=1, select bank3
  1864  0E9D  1703               	bsf	3,6	;RP1=1, select bank3
  1865  0E9E  0090               	movwf	??_main^(0+384)
  1866  0E9F  0810               	movf	??_main^(0+384),w
  1867  0EA0  1683               	bsf	3,5	;RP0=1, select bank1
  1868  0EA1  1303               	bcf	3,6	;RP1=0, select bank1
  1869  0EA2  00A7               	movwf	LCD_Cursor@Col^(0+128)
  1870  0EA3  3000               	movlw	0
  1871  0EA4  160A  118A  2726  120A  158A  	fcall	_LCD_Cursor
  1872                           
  1873                           ;main.c: 224: LCD_WriteString(display);
  1874  0EA9  30DA               	movlw	_display& (0+255)
  1875  0EAA  1683               	bsf	3,5	;RP0=1, select bank1
  1876  0EAB  1303               	bcf	3,6	;RP1=0, select bank1
  1877  0EAC  00A9               	movwf	LCD_WriteString@Str^(0+128)
  1878  0EAD  3000               	movlw	0
  1879  0EAE  00AA               	movwf	(LCD_WriteString@Str+1)^(0+128)
  1880  0EAF  160A  118A  27CF  120A  158A  	fcall	_LCD_WriteString
  1881                           
  1882                           ;main.c: 226: _delay((unsigned long)((200)*(18432000/4000.0)));
  1883  0EB4  3005               	movlw	5
  1884  0EB5  1683               	bsf	3,5	;RP0=1, select bank3
  1885  0EB6  1703               	bsf	3,6	;RP1=1, select bank3
  1886  0EB7  0092               	movwf	(??_main^(0+384)+2)
  1887  0EB8  30AD               	movlw	173
  1888  0EB9  0091               	movwf	(??_main^(0+384)+1)
  1889  0EBA  30E0               	movlw	224
  1890  0EBB  0090               	movwf	??_main^(0+384)
  1891  0EBC                     u6697:	
  1892  0EBC  0B90               	decfsz	??_main^(0+384),f
  1893  0EBD  2EBC               	goto	u6697
  1894  0EBE  0B91               	decfsz	(??_main^(0+384)+1),f
  1895  0EBF  2EBC               	goto	u6697
  1896  0EC0  0B92               	decfsz	(??_main^(0+384)+2),f
  1897  0EC1  2EBC               	goto	u6697
  1898  0EC2  2E58               	goto	l110
  1899  0EC3                     __end_of_main:	
  1900                           
  1901                           	psect	text1
  1902  1707                     __ptext1:	
  1903 ;; *************** function _sprintf *****************
  1904 ;; Defined at:
  1905 ;;		line 13 in file "C:\Program Files (x86)\Microchip\xc8\v1.33\sources\common\sprintf.c"
  1906 ;; Parameters:    Size  Location     Type
  1907 ;;  wh              1    wreg     PTR unsigned char 
  1908 ;;		 -> display(10), 
  1909 ;;  f               1   36[BANK1 ] PTR const unsigned char 
  1910 ;;		 -> STR_9(5), 
  1911 ;; Auto vars:     Size  Location     Type
  1912 ;;  wh              1   41[BANK1 ] PTR unsigned char 
  1913 ;;		 -> display(10), 
  1914 ;;  pb              2   43[BANK1 ] struct __prbuf
  1915 ;;  ap              1   42[BANK1 ] PTR void [1]
  1916 ;;		 -> ?_sprintf(2), ?_printf(2), 
  1917 ;; Return value:  Size  Location     Type
  1918 ;;                  2   36[BANK1 ] int 
  1919 ;; Registers used:
  1920 ;;		wreg, fsr0l, fsr0h, status,2, status,0, btemp+1, pclath, cstack
  1921 ;; Tracked objects:
  1922 ;;		On entry : 0/0
  1923 ;;		On exit  : 0/0
  1924 ;;		Unchanged: 0/0
  1925 ;; Data sizes:     COMMON   BANK0   BANK1   BANK3   BANK2
  1926 ;;      Params:         0       0       3       0       0
  1927 ;;      Locals:         0       0       4       0       0
  1928 ;;      Temps:          0       0       2       0       0
  1929 ;;      Totals:         0       0       9       0       0
  1930 ;;Total ram usage:        9 bytes
  1931 ;; Hardware stack levels used:    1
  1932 ;; Hardware stack levels required when called:    7
  1933 ;; This function calls:
  1934 ;;		__doprnt
  1935 ;; This function is called by:
  1936 ;;		_main
  1937 ;; This function uses a non-reentrant model
  1938 ;;
  1939                           
  1940                           
  1941                           ;psect for function _sprintf
  1942  1707                     _sprintf:	
  1943                           
  1944                           ;incstack = 0
  1945                           ; Regs used in _sprintf: [wreg-fsr0h+status,2+status,0+btemp+1+pclath+cstack]
  1946                           ;sprintf@wh stored from wreg
  1947  1707  1683               	bsf	3,5	;RP0=1, select bank1
  1948  1708  1303               	bcf	3,6	;RP1=0, select bank1
  1949  1709  00C9               	movwf	sprintf@wh^(0+128)
  1950  170A  0849               	movf	sprintf@wh^(0+128),w
  1951  170B  00C7               	movwf	??_sprintf^(0+128)
  1952  170C  0847               	movf	??_sprintf^(0+128),w
  1953  170D  00CB               	movwf	sprintf@pb^(0+128)
  1954  170E  01CC               	clrf	(sprintf@pb+1)^(0+128)
  1955  170F  30C5               	movlw	(?_sprintf+1)& (0+255)
  1956  1710  00C7               	movwf	??_sprintf^(0+128)
  1957  1711  0847               	movf	??_sprintf^(0+128),w
  1958  1712  00CA               	movwf	sprintf@ap^(0+128)
  1959  1713  0844               	movf	sprintf@f^(0+128),w
  1960  1714  00C7               	movwf	??_sprintf^(0+128)
  1961  1715  0847               	movf	??_sprintf^(0+128),w
  1962  1716  00B5               	movwf	__doprnt@f^(0+128)
  1963  1717  30CA               	movlw	sprintf@ap& (0+255)
  1964  1718  00C8               	movwf	(??_sprintf+1)^(0+128)
  1965  1719  0848               	movf	(??_sprintf+1)^(0+128),w
  1966  171A  00B6               	movwf	__doprnt@ap^(0+128)
  1967  171B  30CB               	movlw	sprintf@pb& (0+255)
  1968  171C  120A  118A  2112   	fcall	__doprnt
  1969  171F  1683               	bsf	3,5	;RP0=1, select bank1
  1970  1720  1303               	bcf	3,6	;RP1=0, select bank1
  1971  1721  084B               	movf	sprintf@pb^(0+128),w
  1972  1722  0084               	movwf	4
  1973  1723  1383               	bcf	3,7	;select IRP bank0
  1974  1724  0180               	clrf	0
  1975  1725  0008               	return
  1976  1726                     __end_of_sprintf:	
  1977                           ;	Return value of _sprintf is never used
  1978                           
  1979                           
  1980                           	psect	text2
  1981  0112                     __ptext2:	
  1982 ;; *************** function __doprnt *****************
  1983 ;; Defined at:
  1984 ;;		line 458 in file "C:\Program Files (x86)\Microchip\xc8\v1.33\sources\common\doprnt.c"
  1985 ;; Parameters:    Size  Location     Type
  1986 ;;  pb              1    wreg     PTR struct __prbuf
  1987 ;;		 -> sprintf@pb(2), printf@pb(2), 
  1988 ;;  f               1   21[BANK1 ] PTR const unsigned char 
  1989 ;;		 -> STR_9(5), STR_5(2), STR_4(2), STR_3(2), 
  1990 ;;		 -> STR_2(2), STR_1(2), 
  1991 ;;  ap              1   22[BANK1 ] PTR PTR void 
  1992 ;;		 -> sprintf@ap(1), printf@ap(1), 
  1993 ;; Auto vars:     Size  Location     Type
  1994 ;;  pb              1   35[BANK1 ] PTR struct __prbuf
  1995 ;;		 -> sprintf@pb(2), printf@pb(2), 
  1996 ;;  _val            4   27[BANK1 ] struct .
  1997 ;;  width           2   32[BANK1 ] int 
  1998 ;;  c               1   34[BANK1 ] char 
  1999 ;;  flag            1   31[BANK1 ] unsigned char 
  2000 ;;  prec            1   26[BANK1 ] char 
  2001 ;; Return value:  Size  Location     Type
  2002 ;;                  2   21[BANK1 ] int 
  2003 ;; Registers used:
  2004 ;;		wreg, fsr0l, fsr0h, status,2, status,0, btemp+1, pclath, cstack
  2005 ;; Tracked objects:
  2006 ;;		On entry : 0/0
  2007 ;;		On exit  : 0/0
  2008 ;;		Unchanged: 0/0
  2009 ;; Data sizes:     COMMON   BANK0   BANK1   BANK3   BANK2
  2010 ;;      Params:         0       0       2       0       0
  2011 ;;      Locals:         0       0      10       0       0
  2012 ;;      Temps:          0       0       3       0       0
  2013 ;;      Totals:         0       0      15       0       0
  2014 ;;Total ram usage:       15 bytes
  2015 ;; Hardware stack levels used:    1
  2016 ;; Hardware stack levels required when called:    6
  2017 ;; This function calls:
  2018 ;;		Absolute function
  2019 ;;		___lwdiv
  2020 ;;		___lwmod
  2021 ;;		___wmul
  2022 ;;		_isdigit
  2023 ;;		_putch
  2024 ;; This function is called by:
  2025 ;;		_sprintf
  2026 ;; This function uses a non-reentrant model
  2027 ;;
  2028                           
  2029                           
  2030                           ;psect for function __doprnt
  2031  0112                     __doprnt:	
  2032                           
  2033                           ;incstack = 0
  2034 ;; using string table level
  2035                           ; Regs used in __doprnt: [wreg-fsr0h+status,2+status,0+btemp+1+pclath+cstack]
  2036                           ;__doprnt@pb stored from wreg
  2037  0112  1683               	bsf	3,5	;RP0=1, select bank1
  2038  0113  1303               	bcf	3,6	;RP1=0, select bank1
  2039  0114  00C3               	movwf	__doprnt@pb^(0+128)
  2040  0115                     l4823:	
  2041                           ;doprnt.c: 499: signed char c;
  2042                           ;doprnt.c: 501: int width;
  2043                           ;doprnt.c: 506: signed char prec;
  2044                           ;doprnt.c: 508: unsigned char flag;
  2045                           ;doprnt.c: 527: union {
  2046                           ;doprnt.c: 528: unsigned int _val;
  2047                           ;doprnt.c: 529: struct {
  2048                           ;doprnt.c: 530: const char * _cp;
  2049                           ;doprnt.c: 531: unsigned _len;
  2050                           ;doprnt.c: 532: } _str;
  2051                           ;doprnt.c: 533: } _val;
  2052                           ;doprnt.c: 545: while(c = *f++) {
  2053                           
  2054  0115  3001               	movlw	1
  2055  0116  1683               	bsf	3,5	;RP0=1, select bank1
  2056  0117  1303               	bcf	3,6	;RP1=0, select bank1
  2057  0118  07B5               	addwf	__doprnt@f^(0+128),f
  2058  0119  30FF               	movlw	-1
  2059  011A  0735               	addwf	__doprnt@f^(0+128),w
  2060  011B  0084               	movwf	4
  2061  011C  120A  118A  2042  120A  118A  	fcall	stringdir
  2062  0121  00B7               	movwf	??__doprnt^(0+128)
  2063  0122  0837               	movf	??__doprnt^(0+128),w
  2064  0123  00C2               	movwf	__doprnt@c^(0+128)
  2065  0124  08C2               	movf	__doprnt@c^(0+128),f
  2066  0125  1903               	btfsc	3,2
  2067  0126  2B60               	goto	l4825
  2068                           
  2069                           ;doprnt.c: 547: if(c != '%')
  2070  0127  0842               	movf	__doprnt@c^(0+128),w
  2071  0128  3A25               	xorlw	37
  2072  0129  1903               	skipnz
  2073  012A  2950               	goto	l4709
  2074                           
  2075                           ;doprnt.c: 549: {
  2076                           ;doprnt.c: 550: if(pb->func) (pb->func(c)); else ((*pb->ptr++ = c));
  2077  012B  0A43               	incf	__doprnt@pb^(0+128),w
  2078  012C  0084               	movwf	4
  2079  012D  1383               	bcf	3,7	;select IRP bank0
  2080  012E  0880               	movf	0,f
  2081  012F  1903               	skipnz
  2082  0130  293E               	goto	l4705
  2083  0131  0842               	movf	__doprnt@c^(0+128),w
  2084  0132  00B7               	movwf	??__doprnt^(0+128)
  2085  0133  0837               	movf	??__doprnt^(0+128),w
  2086  0134  00A7               	movwf	putch@c^(0+128)
  2087  0135  0A43               	incf	__doprnt@pb^(0+128),w
  2088  0136  0084               	movwf	4
  2089  0137  0800               	movf	0,w
  2090  0138  120A  118A  2100  120A  118A  	fcall	fptable
  2091  013D  2915               	goto	l4823
  2092  013E                     l4705:	
  2093  013E  1683               	bsf	3,5	;RP0=1, select bank1
  2094  013F  1303               	bcf	3,6	;RP1=0, select bank1
  2095  0140  0842               	movf	__doprnt@c^(0+128),w
  2096  0141  00B7               	movwf	??__doprnt^(0+128)
  2097  0142  0843               	movf	__doprnt@pb^(0+128),w
  2098  0143  0084               	movwf	4
  2099  0144  1383               	bcf	3,7	;select IRP bank0
  2100  0145  0800               	movf	0,w
  2101  0146  0084               	movwf	4
  2102  0147  0837               	movf	??__doprnt^(0+128),w
  2103  0148  0080               	movwf	0
  2104  0149  3001               	movlw	1
  2105  014A  00B7               	movwf	??__doprnt^(0+128)
  2106  014B  0843               	movf	__doprnt@pb^(0+128),w
  2107  014C  0084               	movwf	4
  2108  014D  0837               	movf	??__doprnt^(0+128),w
  2109  014E  0780               	addwf	0,f
  2110                           
  2111                           ;doprnt.c: 551: continue;
  2112  014F  2915               	goto	l4823
  2113  0150                     l4709:	
  2114                           
  2115                           ;doprnt.c: 552: }
  2116                           ;doprnt.c: 555: width = 0;
  2117  0150  01C0               	clrf	__doprnt@width^(0+128)
  2118  0151  01C1               	clrf	(__doprnt@width+1)^(0+128)
  2119                           
  2120                           ;doprnt.c: 557: flag = 0;
  2121  0152  01BF               	clrf	__doprnt@flag^(0+128)
  2122                           
  2123                           ;doprnt.c: 560: switch(*f) {
  2124                           
  2125                           ;doprnt.c: 559: for(;;) {
  2126  0153  2959               	goto	l4715
  2127  0154                     l387:	
  2128                           ;doprnt.c: 588: case '0':
  2129                           
  2130                           
  2131                           ;doprnt.c: 589: flag |= 0x04;
  2132  0154  153F               	bsf	__doprnt@flag^(0+128),2
  2133                           
  2134                           ;doprnt.c: 590: f++;
  2135  0155  3001               	movlw	1
  2136  0156  00B7               	movwf	??__doprnt^(0+128)
  2137  0157  0837               	movf	??__doprnt^(0+128),w
  2138  0158  07B5               	addwf	__doprnt@f^(0+128),f
  2139  0159                     l4715:	
  2140                           ;doprnt.c: 593: }
  2141                           
  2142                           ;doprnt.c: 591: continue;
  2143                           
  2144  0159  0835               	movf	__doprnt@f^(0+128),w
  2145  015A  0084               	movwf	4
  2146  015B  120A  118A  2042  120A  118A  	fcall	stringdir
  2147                           
  2148                           ; Switch size 1, requested type "space"
  2149                           ; Number of cases is 1, Range of values is 48 to 48
  2150                           ; switch strategies available:
  2151                           ; Name         Instructions Cycles
  2152                           ; simple_byte            4     3 (average)
  2153                           ; direct_byte           14    11 (fixed)
  2154                           ; jumptable            263     9 (fixed)
  2155                           ;	Chosen strategy is simple_byte
  2156  0160  3A30               	xorlw	48	; case 48
  2157  0161  1903               	skipnz
  2158  0162  2954               	goto	l387
  2159  0163  2964               	goto	l4717
  2160  0164                     l4717:	
  2161                           ;doprnt.c: 595: }
  2162                           
  2163                           ;doprnt.c: 594: break;
  2164                           
  2165                           
  2166                           ;doprnt.c: 606: if(isdigit((unsigned)*f)) {
  2167  0164  0835               	movf	__doprnt@f^(0+128),w
  2168  0165  0084               	movwf	4
  2169  0166  120A  118A  2042  120A  118A  	fcall	stringdir
  2170  016B  160A  118A  266F  120A  118A  	fcall	_isdigit
  2171  0170  1C03               	btfss	3,0
  2172  0171  29B4               	goto	l4731
  2173                           
  2174                           ;doprnt.c: 607: width = 0;
  2175  0172  1683               	bsf	3,5	;RP0=1, select bank1
  2176  0173  1303               	bcf	3,6	;RP1=0, select bank1
  2177  0174  01C0               	clrf	__doprnt@width^(0+128)
  2178  0175  01C1               	clrf	(__doprnt@width+1)^(0+128)
  2179  0176                     l4721:	
  2180                           ;doprnt.c: 608: do {
  2181                           
  2182                           
  2183                           ;doprnt.c: 609: width *= 10;
  2184  0176  300A               	movlw	10
  2185  0177  1683               	bsf	3,5	;RP0=1, select bank1
  2186  0178  1303               	bcf	3,6	;RP1=0, select bank1
  2187  0179  00A7               	movwf	___wmul@multiplier^(0+128)
  2188  017A  3000               	movlw	0
  2189  017B  00A8               	movwf	(___wmul@multiplier^(0+128)+1)
  2190  017C  0841               	movf	(__doprnt@width+1)^(0+128),w
  2191  017D  01AA               	clrf	(___wmul@multiplicand+1)^(0+128)
  2192  017E  07AA               	addwf	(___wmul@multiplicand+1)^(0+128),f
  2193  017F  0840               	movf	__doprnt@width^(0+128),w
  2194  0180  01A9               	clrf	___wmul@multiplicand^(0+128)
  2195  0181  07A9               	addwf	___wmul@multiplicand^(0+128),f
  2196  0182  120A  158A  2005  120A  118A  	fcall	___wmul
  2197  0187  1683               	bsf	3,5	;RP0=1, select bank1
  2198  0188  1303               	bcf	3,6	;RP1=0, select bank1
  2199  0189  0828               	movf	(?___wmul+1)^(0+128),w
  2200  018A  01C1               	clrf	(__doprnt@width+1)^(0+128)
  2201  018B  07C1               	addwf	(__doprnt@width+1)^(0+128),f
  2202  018C  0827               	movf	?___wmul^(0+128),w
  2203  018D  01C0               	clrf	__doprnt@width^(0+128)
  2204  018E  07C0               	addwf	__doprnt@width^(0+128),f
  2205                           
  2206                           ;doprnt.c: 610: width += *f++ - '0';
  2207  018F  0835               	movf	__doprnt@f^(0+128),w
  2208  0190  0084               	movwf	4
  2209  0191  120A  118A  2042  120A  118A  	fcall	stringdir
  2210  0196  3ED0               	addlw	208
  2211  0197  00B7               	movwf	??__doprnt^(0+128)
  2212  0198  30FF               	movlw	255
  2213  0199  1803               	skipnc
  2214  019A  3000               	movlw	0
  2215  019B  00B8               	movwf	(??__doprnt^(0+128)+1)
  2216  019C  0837               	movf	??__doprnt^(0+128),w
  2217  019D  07C0               	addwf	__doprnt@width^(0+128),f
  2218  019E  1803               	skipnc
  2219  019F  0AC1               	incf	(__doprnt@width+1)^(0+128),f
  2220  01A0  0838               	movf	(??__doprnt+1)^(0+128),w
  2221  01A1  07C1               	addwf	(__doprnt@width+1)^(0+128),f
  2222  01A2  3001               	movlw	1
  2223  01A3  00B7               	movwf	??__doprnt^(0+128)
  2224  01A4  0837               	movf	??__doprnt^(0+128),w
  2225  01A5  07B5               	addwf	__doprnt@f^(0+128),f
  2226                           
  2227                           ;doprnt.c: 611: } while(isdigit((unsigned)*f));
  2228  01A6  0835               	movf	__doprnt@f^(0+128),w
  2229  01A7  0084               	movwf	4
  2230  01A8  120A  118A  2042  120A  118A  	fcall	stringdir
  2231  01AD  160A  118A  266F  120A  118A  	fcall	_isdigit
  2232  01B2  1803               	btfsc	3,0
  2233  01B3  2976               	goto	l4721
  2234  01B4                     l4731:	
  2235                           ;doprnt.c: 831: }
  2236                           
  2237                           ;doprnt.c: 822: continue;
  2238                           
  2239                           ;doprnt.c: 811: default:
  2240                           
  2241                           ;doprnt.c: 707: case 'i':
  2242                           ;doprnt.c: 708: break;
  2243                           
  2244                           ;doprnt.c: 706: case 'd':
  2245                           
  2246                           ;doprnt.c: 647: goto alldone;
  2247                           
  2248                           ;doprnt.c: 646: case 0:
  2249                           
  2250                           ;doprnt.c: 617: }
  2251                           ;doprnt.c: 644: switch(c = *f++) {
  2252                           
  2253  01B4  3001               	movlw	1
  2254  01B5  1683               	bsf	3,5	;RP0=1, select bank1
  2255  01B6  1303               	bcf	3,6	;RP1=0, select bank1
  2256  01B7  07B5               	addwf	__doprnt@f^(0+128),f
  2257  01B8  30FF               	movlw	-1
  2258  01B9  0735               	addwf	__doprnt@f^(0+128),w
  2259  01BA  0084               	movwf	4
  2260  01BB  120A  118A  2042  120A  118A  	fcall	stringdir
  2261  01C0  00C2               	movwf	__doprnt@c^(0+128)
  2262                           
  2263                           ; Switch size 1, requested type "space"
  2264                           ; Number of cases is 3, Range of values is 0 to 105
  2265                           ; switch strategies available:
  2266                           ; Name         Instructions Cycles
  2267                           ; simple_byte           10     6 (average)
  2268                           ; jumptable            260     6 (fixed)
  2269                           ;	Chosen strategy is simple_byte
  2270  01C1  3A00               	xorlw	0	; case 0
  2271  01C2  1903               	skipnz
  2272  01C3  2B60               	goto	l4825
  2273  01C4  3A64               	xorlw	100	; case 100
  2274  01C5  1903               	skipnz
  2275  01C6  29CB               	goto	l4733
  2276  01C7  3A0D               	xorlw	13	; case 105
  2277  01C8  1903               	skipnz
  2278  01C9  29CB               	goto	l4733
  2279  01CA  2915               	goto	l4823
  2280  01CB                     l4733:	
  2281                           
  2282                           ;doprnt.c: 1262: {
  2283                           ;doprnt.c: 1268: _val._val = (int)(*(int *)__va_arg((*(int **)ap), (int)0));
  2284  01CB  1683               	bsf	3,5	;RP0=1, select bank1
  2285  01CC  1303               	bcf	3,6	;RP1=0, select bank1
  2286  01CD  0836               	movf	__doprnt@ap^(0+128),w
  2287  01CE  0084               	movwf	4
  2288  01CF  1383               	bcf	3,7	;select IRP bank0
  2289  01D0  0800               	movf	0,w
  2290  01D1  00B7               	movwf	??__doprnt^(0+128)
  2291  01D2  3002               	movlw	2
  2292  01D3  0780               	addwf	0,f
  2293  01D4  0837               	movf	??__doprnt^(0+128),w
  2294  01D5  0084               	movwf	4
  2295  01D6  0800               	movf	0,w
  2296  01D7  00BB               	movwf	__doprnt@_val^(0+128)
  2297  01D8  0A84               	incf	4,f
  2298  01D9  0800               	movf	0,w
  2299  01DA  00BC               	movwf	(__doprnt@_val+1)^(0+128)
  2300                           
  2301                           ;doprnt.c: 1270: if((int)_val._val < 0) {
  2302  01DB  1FBC               	btfss	(__doprnt@_val+1)^(0+128),7
  2303  01DC  29E6               	goto	l4741
  2304                           
  2305                           ;doprnt.c: 1271: flag |= 0x03;
  2306  01DD  3003               	movlw	3
  2307  01DE  00B7               	movwf	??__doprnt^(0+128)
  2308  01DF  0837               	movf	??__doprnt^(0+128),w
  2309  01E0  04BF               	iorwf	__doprnt@flag^(0+128),f
  2310                           
  2311                           ;doprnt.c: 1272: _val._val = -_val._val;
  2312  01E1  09BB               	comf	__doprnt@_val^(0+128),f
  2313  01E2  09BC               	comf	(__doprnt@_val+1)^(0+128),f
  2314  01E3  0ABB               	incf	__doprnt@_val^(0+128),f
  2315  01E4  1903               	skipnz
  2316  01E5  0ABC               	incf	(__doprnt@_val+1)^(0+128),f
  2317  01E6                     l4741:	
  2318                           
  2319                           ;doprnt.c: 1273: }
  2320                           ;doprnt.c: 1275: }
  2321                           ;doprnt.c: 1314: for(c = 1 ; c != sizeof dpowers/sizeof dpowers[0] ; c++)
  2322  01E6  01C2               	clrf	__doprnt@c^(0+128)
  2323  01E7  0AC2               	incf	__doprnt@c^(0+128),f
  2324  01E8  0842               	movf	__doprnt@c^(0+128),w
  2325  01E9  3A05               	xorlw	5
  2326  01EA  1903               	btfsc	3,2
  2327  01EB  2A0D               	goto	l4753
  2328  01EC                     l4745:	
  2329                           
  2330                           ;doprnt.c: 1315: if(_val._val < dpowers[c])
  2331  01EC  0842               	movf	__doprnt@c^(0+128),w
  2332  01ED  00B7               	movwf	??__doprnt^(0+128)
  2333  01EE  0737               	addwf	??__doprnt^(0+128),w
  2334  01EF  3E01               	addlw	low (_dpowers-__stringbase)
  2335  01F0  0084               	movwf	4
  2336  01F1  120A  118A  2042  120A  118A  	fcall	stringdir
  2337  01F6  00B8               	movwf	(??__doprnt+1)^(0+128)
  2338  01F7  120A  118A  2042  120A  118A  	fcall	stringdir
  2339  01FC  00B9               	movwf	((??__doprnt+1)^(0+128)+1)
  2340  01FD  0839               	movf	(??__doprnt+2)^(0+128),w
  2341  01FE  023C               	subwf	(__doprnt@_val+1)^(0+128),w
  2342  01FF  1D03               	skipz
  2343  0200  2A03               	goto	u6355
  2344  0201  0838               	movf	(??__doprnt+1)^(0+128),w
  2345  0202  023B               	subwf	__doprnt@_val^(0+128),w
  2346  0203                     u6355:	
  2347  0203  1C03               	btfss	3,0
  2348  0204  2A0D               	goto	l4753
  2349                           
  2350                           ;doprnt.c: 1316: break;
  2351  0205  3001               	movlw	1
  2352  0206  00B7               	movwf	??__doprnt^(0+128)
  2353  0207  0837               	movf	??__doprnt^(0+128),w
  2354  0208  07C2               	addwf	__doprnt@c^(0+128),f
  2355  0209  0842               	movf	__doprnt@c^(0+128),w
  2356  020A  3A05               	xorlw	5
  2357  020B  1D03               	skipz
  2358  020C  29EC               	goto	l4745
  2359  020D                     l4753:	
  2360                           
  2361                           ;doprnt.c: 1354: if(width && flag & 0x03)
  2362  020D  0841               	movf	(__doprnt@width+1)^(0+128),w
  2363  020E  0440               	iorwf	__doprnt@width^(0+128),w
  2364  020F  1903               	skipnz
  2365  0210  2A1B               	goto	l405
  2366  0211  083F               	movf	__doprnt@flag^(0+128),w
  2367  0212  3903               	andlw	3
  2368  0213  1903               	btfsc	3,2
  2369  0214  2A1B               	goto	l405
  2370                           
  2371                           ;doprnt.c: 1355: width--;
  2372  0215  30FF               	movlw	255
  2373  0216  07C0               	addwf	__doprnt@width^(0+128),f
  2374  0217  1803               	skipnc
  2375  0218  0AC1               	incf	(__doprnt@width+1)^(0+128),f
  2376  0219  30FF               	movlw	255
  2377  021A  07C1               	addwf	(__doprnt@width+1)^(0+128),f
  2378  021B                     l405:	
  2379                           
  2380                           ;doprnt.c: 1390: if(width > c)
  2381  021B  0842               	movf	__doprnt@c^(0+128),w
  2382  021C  00B7               	movwf	??__doprnt^(0+128)
  2383  021D  01B8               	clrf	(??__doprnt^(0+128)+1)
  2384  021E  1BB7               	btfsc	??__doprnt^(0+128),7
  2385  021F  03B8               	decf	(??__doprnt^(0+128)+1),f
  2386  0220  0838               	movf	(??__doprnt+1)^(0+128),w
  2387  0221  3A80               	xorlw	128
  2388  0222  00B9               	movwf	(??__doprnt+2)^(0+128)
  2389  0223  0841               	movf	(__doprnt@width+1)^(0+128),w
  2390  0224  3A80               	xorlw	128
  2391  0225  0239               	subwf	(??__doprnt+2)^(0+128),w
  2392  0226  1D03               	skipz
  2393  0227  2A2A               	goto	u6395
  2394  0228  0840               	movf	__doprnt@width^(0+128),w
  2395  0229  0237               	subwf	??__doprnt^(0+128),w
  2396  022A                     u6395:	
  2397  022A  1803               	skipnc
  2398  022B  2A3A               	goto	l4761
  2399                           
  2400                           ;doprnt.c: 1391: width -= c;
  2401  022C  1683               	bsf	3,5	;RP0=1, select bank1
  2402  022D  1303               	bcf	3,6	;RP1=0, select bank1
  2403  022E  0842               	movf	__doprnt@c^(0+128),w
  2404  022F  00B7               	movwf	??__doprnt^(0+128)
  2405  0230  01B8               	clrf	(??__doprnt^(0+128)+1)
  2406  0231  1BB7               	btfsc	??__doprnt^(0+128),7
  2407  0232  03B8               	decf	(??__doprnt^(0+128)+1),f
  2408  0233  0837               	movf	??__doprnt^(0+128),w
  2409  0234  02C0               	subwf	__doprnt@width^(0+128),f
  2410  0235  0838               	movf	(??__doprnt+1)^(0+128),w
  2411  0236  1C03               	skipc
  2412  0237  03C1               	decf	(__doprnt@width+1)^(0+128),f
  2413  0238  02C1               	subwf	(__doprnt@width+1)^(0+128),f
  2414  0239  2A3E               	goto	l4763
  2415  023A                     l4761:	
  2416                           
  2417                           ;doprnt.c: 1392: else
  2418                           ;doprnt.c: 1393: width = 0;
  2419  023A  1683               	bsf	3,5	;RP0=1, select bank1
  2420  023B  1303               	bcf	3,6	;RP1=0, select bank1
  2421  023C  01C0               	clrf	__doprnt@width^(0+128)
  2422  023D  01C1               	clrf	(__doprnt@width+1)^(0+128)
  2423  023E                     l4763:	
  2424                           
  2425                           ;doprnt.c: 1396: if(flag & 0x04) {
  2426  023E  1D3F               	btfss	__doprnt@flag^(0+128),2
  2427  023F  2A9B               	goto	l4787
  2428                           
  2429                           ;doprnt.c: 1401: if(flag & 0x03)
  2430  0240  083F               	movf	__doprnt@flag^(0+128),w
  2431  0241  3903               	andlw	3
  2432  0242  1903               	btfsc	3,2
  2433  0243  2A68               	goto	l4775
  2434                           
  2435                           ;doprnt.c: 1402: if(pb->func) (pb->func('-')); else ((*pb->ptr++ = '-'));
  2436  0244  0A43               	incf	__doprnt@pb^(0+128),w
  2437  0245  0084               	movwf	4
  2438  0246  1383               	bcf	3,7	;select IRP bank0
  2439  0247  0880               	movf	0,f
  2440  0248  1903               	skipnz
  2441  0249  2A57               	goto	l4771
  2442  024A  302D               	movlw	45
  2443  024B  00B7               	movwf	??__doprnt^(0+128)
  2444  024C  0837               	movf	??__doprnt^(0+128),w
  2445  024D  00A7               	movwf	putch@c^(0+128)
  2446  024E  0A43               	incf	__doprnt@pb^(0+128),w
  2447  024F  0084               	movwf	4
  2448  0250  0800               	movf	0,w
  2449  0251  120A  118A  2100  120A  118A  	fcall	fptable
  2450  0256  2A68               	goto	l4775
  2451  0257                     l4771:	
  2452  0257  302D               	movlw	45
  2453  0258  1683               	bsf	3,5	;RP0=1, select bank1
  2454  0259  1303               	bcf	3,6	;RP1=0, select bank1
  2455  025A  00B7               	movwf	??__doprnt^(0+128)
  2456  025B  0843               	movf	__doprnt@pb^(0+128),w
  2457  025C  0084               	movwf	4
  2458  025D  1383               	bcf	3,7	;select IRP bank0
  2459  025E  0800               	movf	0,w
  2460  025F  0084               	movwf	4
  2461  0260  0837               	movf	??__doprnt^(0+128),w
  2462  0261  0080               	movwf	0
  2463  0262  3001               	movlw	1
  2464  0263  00B7               	movwf	??__doprnt^(0+128)
  2465  0264  0843               	movf	__doprnt@pb^(0+128),w
  2466  0265  0084               	movwf	4
  2467  0266  0837               	movf	??__doprnt^(0+128),w
  2468  0267  0780               	addwf	0,f
  2469  0268                     l4775:	
  2470                           
  2471                           ;doprnt.c: 1424: if(width)
  2472  0268  1683               	bsf	3,5	;RP0=1, select bank1
  2473  0269  1303               	bcf	3,6	;RP1=0, select bank1
  2474  026A                     L2:	
  2475  026A  0841               	movf	(__doprnt@width+1)^(0+128),w
  2476  026B  0440               	iorwf	__doprnt@width^(0+128),w
  2477  026C  1903               	skipnz
  2478  026D  2AF7               	goto	l4809
  2479                           
  2480                           ;doprnt.c: 1426: if(pb->func) (pb->func('0')); else ((*pb->ptr++ = '0'));
  2481                           
  2482                           ;doprnt.c: 1425: do
  2483  026E  0A43               	incf	__doprnt@pb^(0+128),w
  2484  026F  0084               	movwf	4
  2485  0270  1383               	bcf	3,7	;select IRP bank0
  2486  0271  0880               	movf	0,f
  2487  0272  1903               	skipnz
  2488  0273  2A81               	goto	l4781
  2489  0274  3030               	movlw	48
  2490  0275  00B7               	movwf	??__doprnt^(0+128)
  2491  0276  0837               	movf	??__doprnt^(0+128),w
  2492  0277  00A7               	movwf	putch@c^(0+128)
  2493  0278  0A43               	incf	__doprnt@pb^(0+128),w
  2494  0279  0084               	movwf	4
  2495  027A  0800               	movf	0,w
  2496  027B  120A  118A  2100  120A  118A  	fcall	fptable
  2497  0280  2A92               	goto	l4785
  2498  0281                     l4781:	
  2499  0281  3030               	movlw	48
  2500  0282  1683               	bsf	3,5	;RP0=1, select bank1
  2501  0283  1303               	bcf	3,6	;RP1=0, select bank1
  2502  0284  00B7               	movwf	??__doprnt^(0+128)
  2503  0285  0843               	movf	__doprnt@pb^(0+128),w
  2504  0286  0084               	movwf	4
  2505  0287  1383               	bcf	3,7	;select IRP bank0
  2506  0288  0800               	movf	0,w
  2507  0289  0084               	movwf	4
  2508  028A  0837               	movf	??__doprnt^(0+128),w
  2509  028B  0080               	movwf	0
  2510  028C  3001               	movlw	1
  2511  028D  00B7               	movwf	??__doprnt^(0+128)
  2512  028E  0843               	movf	__doprnt@pb^(0+128),w
  2513  028F  0084               	movwf	4
  2514  0290  0837               	movf	??__doprnt^(0+128),w
  2515  0291  0780               	addwf	0,f
  2516  0292                     l4785:	
  2517                           
  2518                           ;doprnt.c: 1427: while(--width);
  2519  0292  30FF               	movlw	255
  2520  0293  1683               	bsf	3,5	;RP0=1, select bank1
  2521  0294  1303               	bcf	3,6	;RP1=0, select bank1
  2522  0295  07C0               	addwf	__doprnt@width^(0+128),f
  2523  0296  1803               	skipnc
  2524  0297  0AC1               	incf	(__doprnt@width+1)^(0+128),f
  2525  0298  30FF               	movlw	255
  2526  0299  07C1               	addwf	(__doprnt@width+1)^(0+128),f
  2527  029A  2A6A               	goto	L2
  2528  029B                     l4787:	
  2529                           ;doprnt.c: 1429: } else
  2530                           
  2531                           
  2532                           ;doprnt.c: 1431: {
  2533                           ;doprnt.c: 1433: if(width
  2534                           ;doprnt.c: 1437: )
  2535  029B  0841               	movf	(__doprnt@width+1)^(0+128),w
  2536  029C  0440               	iorwf	__doprnt@width^(0+128),w
  2537  029D  1903               	skipnz
  2538  029E  2ACF               	goto	l4799
  2539  029F                     l4789:	
  2540                           ;doprnt.c: 1438: do
  2541                           
  2542                           
  2543                           ;doprnt.c: 1439: if(pb->func) (pb->func(' ')); else ((*pb->ptr++ = ' '));
  2544  029F  0A43               	incf	__doprnt@pb^(0+128),w
  2545  02A0  0084               	movwf	4
  2546  02A1  1383               	bcf	3,7	;select IRP bank0
  2547  02A2  0880               	movf	0,f
  2548  02A3  1903               	skipnz
  2549  02A4  2AB2               	goto	l4793
  2550  02A5  3020               	movlw	32
  2551  02A6  00B7               	movwf	??__doprnt^(0+128)
  2552  02A7  0837               	movf	??__doprnt^(0+128),w
  2553  02A8  00A7               	movwf	putch@c^(0+128)
  2554  02A9  0A43               	incf	__doprnt@pb^(0+128),w
  2555  02AA  0084               	movwf	4
  2556  02AB  0800               	movf	0,w
  2557  02AC  120A  118A  2100  120A  118A  	fcall	fptable
  2558  02B1  2AC3               	goto	l4797
  2559  02B2                     l4793:	
  2560  02B2  3020               	movlw	32
  2561  02B3  1683               	bsf	3,5	;RP0=1, select bank1
  2562  02B4  1303               	bcf	3,6	;RP1=0, select bank1
  2563  02B5  00B7               	movwf	??__doprnt^(0+128)
  2564  02B6  0843               	movf	__doprnt@pb^(0+128),w
  2565  02B7  0084               	movwf	4
  2566  02B8  1383               	bcf	3,7	;select IRP bank0
  2567  02B9  0800               	movf	0,w
  2568  02BA  0084               	movwf	4
  2569  02BB  0837               	movf	??__doprnt^(0+128),w
  2570  02BC  0080               	movwf	0
  2571  02BD  3001               	movlw	1
  2572  02BE  00B7               	movwf	??__doprnt^(0+128)
  2573  02BF  0843               	movf	__doprnt@pb^(0+128),w
  2574  02C0  0084               	movwf	4
  2575  02C1  0837               	movf	??__doprnt^(0+128),w
  2576  02C2  0780               	addwf	0,f
  2577  02C3                     l4797:	
  2578                           
  2579                           ;doprnt.c: 1440: while(--width);
  2580  02C3  30FF               	movlw	255
  2581  02C4  1683               	bsf	3,5	;RP0=1, select bank1
  2582  02C5  1303               	bcf	3,6	;RP1=0, select bank1
  2583  02C6  07C0               	addwf	__doprnt@width^(0+128),f
  2584  02C7  1803               	skipnc
  2585  02C8  0AC1               	incf	(__doprnt@width+1)^(0+128),f
  2586  02C9  30FF               	movlw	255
  2587  02CA  07C1               	addwf	(__doprnt@width+1)^(0+128),f
  2588  02CB  0841               	movf	(__doprnt@width+1)^(0+128),w
  2589  02CC  0440               	iorwf	__doprnt@width^(0+128),w
  2590  02CD  1D03               	skipz
  2591  02CE  2A9F               	goto	l4789
  2592  02CF                     l4799:	
  2593                           
  2594                           ;doprnt.c: 1447: if(flag & 0x03)
  2595  02CF  083F               	movf	__doprnt@flag^(0+128),w
  2596  02D0  3903               	andlw	3
  2597  02D1  1903               	btfsc	3,2
  2598  02D2  2AF7               	goto	l4809
  2599                           
  2600                           ;doprnt.c: 1448: if(pb->func) (pb->func('-')); else ((*pb->ptr++ = '-'));
  2601  02D3  0A43               	incf	__doprnt@pb^(0+128),w
  2602  02D4  0084               	movwf	4
  2603  02D5  1383               	bcf	3,7	;select IRP bank0
  2604  02D6  0880               	movf	0,f
  2605  02D7  1903               	skipnz
  2606  02D8  2AE6               	goto	l4805
  2607  02D9  302D               	movlw	45
  2608  02DA  00B7               	movwf	??__doprnt^(0+128)
  2609  02DB  0837               	movf	??__doprnt^(0+128),w
  2610  02DC  00A7               	movwf	putch@c^(0+128)
  2611  02DD  0A43               	incf	__doprnt@pb^(0+128),w
  2612  02DE  0084               	movwf	4
  2613  02DF  0800               	movf	0,w
  2614  02E0  120A  118A  2100  120A  118A  	fcall	fptable
  2615  02E5  2AF7               	goto	l4809
  2616  02E6                     l4805:	
  2617  02E6  302D               	movlw	45
  2618  02E7  1683               	bsf	3,5	;RP0=1, select bank1
  2619  02E8  1303               	bcf	3,6	;RP1=0, select bank1
  2620  02E9  00B7               	movwf	??__doprnt^(0+128)
  2621  02EA  0843               	movf	__doprnt@pb^(0+128),w
  2622  02EB  0084               	movwf	4
  2623  02EC  1383               	bcf	3,7	;select IRP bank0
  2624  02ED  0800               	movf	0,w
  2625  02EE  0084               	movwf	4
  2626  02EF  0837               	movf	??__doprnt^(0+128),w
  2627  02F0  0080               	movwf	0
  2628  02F1  3001               	movlw	1
  2629  02F2  00B7               	movwf	??__doprnt^(0+128)
  2630  02F3  0843               	movf	__doprnt@pb^(0+128),w
  2631  02F4  0084               	movwf	4
  2632  02F5  0837               	movf	??__doprnt^(0+128),w
  2633  02F6  0780               	addwf	0,f
  2634  02F7                     l4809:	
  2635                           
  2636                           ;doprnt.c: 1478: }
  2637                           ;doprnt.c: 1481: prec = c;
  2638  02F7  1683               	bsf	3,5	;RP0=1, select bank1
  2639  02F8  1303               	bcf	3,6	;RP1=0, select bank1
  2640  02F9  0842               	movf	__doprnt@c^(0+128),w
  2641  02FA  00B7               	movwf	??__doprnt^(0+128)
  2642  02FB  0837               	movf	??__doprnt^(0+128),w
  2643  02FC  00BA               	movwf	__doprnt@prec^(0+128)
  2644  02FD                     l4821:	
  2645                           ;doprnt.c: 1483: while(prec--) {
  2646                           
  2647  02FD  30FF               	movlw	-1
  2648  02FE  1683               	bsf	3,5	;RP0=1, select bank1
  2649  02FF  1303               	bcf	3,6	;RP1=0, select bank1
  2650  0300  00B7               	movwf	??__doprnt^(0+128)
  2651  0301  0837               	movf	??__doprnt^(0+128),w
  2652  0302  07BA               	addwf	__doprnt@prec^(0+128),f
  2653  0303  083A               	movf	__doprnt@prec^(0+128),w
  2654  0304  3AFF               	xorlw	-1
  2655  0305  1903               	btfsc	3,2
  2656  0306  2915               	goto	l4823
  2657                           
  2658                           ;doprnt.c: 1487: {
  2659                           ;doprnt.c: 1498: c = (_val._val / dpowers[prec]) % 10 + '0';
  2660  0307  300A               	movlw	10
  2661  0308  00AF               	movwf	___lwmod@divisor^(0+128)
  2662  0309  3000               	movlw	0
  2663  030A  00B0               	movwf	(___lwmod@divisor^(0+128)+1)
  2664  030B  083A               	movf	__doprnt@prec^(0+128),w
  2665  030C  00B7               	movwf	??__doprnt^(0+128)
  2666  030D  0737               	addwf	??__doprnt^(0+128),w
  2667  030E  3E01               	addlw	low (_dpowers-__stringbase)
  2668  030F  0084               	movwf	4
  2669  0310  120A  118A  2042  120A  118A  	fcall	stringdir
  2670  0315  00A7               	movwf	___lwdiv@divisor^(0+128)
  2671  0316  120A  118A  2042  120A  118A  	fcall	stringdir
  2672  031B  00A8               	movwf	(___lwdiv@divisor+1)^(0+128)
  2673  031C  083C               	movf	(__doprnt@_val+1)^(0+128),w
  2674  031D  01AA               	clrf	(___lwdiv@dividend+1)^(0+128)
  2675  031E  07AA               	addwf	(___lwdiv@dividend+1)^(0+128),f
  2676  031F  083B               	movf	__doprnt@_val^(0+128),w
  2677  0320  01A9               	clrf	___lwdiv@dividend^(0+128)
  2678  0321  07A9               	addwf	___lwdiv@dividend^(0+128),f
  2679  0322  120A  158A  2103  120A  118A  	fcall	___lwdiv
  2680  0327  1683               	bsf	3,5	;RP0=1, select bank1
  2681  0328  1303               	bcf	3,6	;RP1=0, select bank1
  2682  0329  0828               	movf	(?___lwdiv+1)^(0+128),w
  2683  032A  01B2               	clrf	(___lwmod@dividend+1)^(0+128)
  2684  032B  07B2               	addwf	(___lwmod@dividend+1)^(0+128),f
  2685  032C  0827               	movf	?___lwdiv^(0+128),w
  2686  032D  01B1               	clrf	___lwmod@dividend^(0+128)
  2687  032E  07B1               	addwf	___lwmod@dividend^(0+128),f
  2688  032F  120A  158A  208F  120A  118A  	fcall	___lwmod
  2689  0334  1683               	bsf	3,5	;RP0=1, select bank1
  2690  0335  1303               	bcf	3,6	;RP1=0, select bank1
  2691  0336  082F               	movf	?___lwmod^(0+128),w
  2692  0337  3E30               	addlw	48
  2693  0338  00B8               	movwf	(??__doprnt+1)^(0+128)
  2694  0339  0838               	movf	(??__doprnt+1)^(0+128),w
  2695  033A  00C2               	movwf	__doprnt@c^(0+128)
  2696                           
  2697                           ;doprnt.c: 1532: }
  2698                           ;doprnt.c: 1533: if(pb->func) (pb->func(c)); else ((*pb->ptr++ = c));
  2699  033B  0A43               	incf	__doprnt@pb^(0+128),w
  2700  033C  0084               	movwf	4
  2701  033D  1383               	bcf	3,7	;select IRP bank0
  2702  033E  0880               	movf	0,f
  2703  033F  1903               	skipnz
  2704  0340  2B4E               	goto	l4817
  2705  0341  0842               	movf	__doprnt@c^(0+128),w
  2706  0342  00B7               	movwf	??__doprnt^(0+128)
  2707  0343  0837               	movf	??__doprnt^(0+128),w
  2708  0344  00A7               	movwf	putch@c^(0+128)
  2709  0345  0A43               	incf	__doprnt@pb^(0+128),w
  2710  0346  0084               	movwf	4
  2711  0347  0800               	movf	0,w
  2712  0348  120A  118A  2100  120A  118A  	fcall	fptable
  2713  034D  2AFD               	goto	l4821
  2714  034E                     l4817:	
  2715  034E  1683               	bsf	3,5	;RP0=1, select bank1
  2716  034F  1303               	bcf	3,6	;RP1=0, select bank1
  2717  0350  0842               	movf	__doprnt@c^(0+128),w
  2718  0351  00B7               	movwf	??__doprnt^(0+128)
  2719  0352  0843               	movf	__doprnt@pb^(0+128),w
  2720  0353  0084               	movwf	4
  2721  0354  1383               	bcf	3,7	;select IRP bank0
  2722  0355  0800               	movf	0,w
  2723  0356  0084               	movwf	4
  2724  0357  0837               	movf	??__doprnt^(0+128),w
  2725  0358  0080               	movwf	0
  2726  0359  3001               	movlw	1
  2727  035A  00B7               	movwf	??__doprnt^(0+128)
  2728  035B  0843               	movf	__doprnt@pb^(0+128),w
  2729  035C  0084               	movwf	4
  2730  035D  0837               	movf	??__doprnt^(0+128),w
  2731  035E  0780               	addwf	0,f
  2732  035F  2AFD               	goto	l4821
  2733  0360                     l4825:	
  2734                           ;doprnt.c: 1534: }
  2735                           ;doprnt.c: 1542: }
  2736                           ;doprnt.c: 1544: alldone:
  2737                           
  2738                           
  2739                           ;doprnt.c: 1549: return 0;
  2740  0360  1683               	bsf	3,5	;RP0=1, select bank1
  2741  0361  1303               	bcf	3,6	;RP1=0, select bank1
  2742  0362  01B5               	clrf	?__doprnt^(0+128)
  2743  0363  01B6               	clrf	(?__doprnt+1)^(0+128)
  2744  0364  0008               	return
  2745  0365                     __end_of__doprnt:	
  2746                           
  2747                           	psect	text3
  2748  0003                     __ptext3:	
  2749 ;; *************** function _putch *****************
  2750 ;; Defined at:
  2751 ;;		line 7 in file "C:\Program Files (x86)\Microchip\xc8\v1.33\sources\common\putch.c"
  2752 ;; Parameters:    Size  Location     Type
  2753 ;;  c               1    7[BANK1 ] unsigned char 
  2754 ;; Auto vars:     Size  Location     Type
  2755 ;;		None
  2756 ;; Return value:  Size  Location     Type
  2757 ;;		None               void
  2758 ;; Registers used:
  2759 ;;		None
  2760 ;; Tracked objects:
  2761 ;;		On entry : 0/0
  2762 ;;		On exit  : 0/0
  2763 ;;		Unchanged: 0/0
  2764 ;; Data sizes:     COMMON   BANK0   BANK1   BANK3   BANK2
  2765 ;;      Params:         0       0       1       0       0
  2766 ;;      Locals:         0       0       0       0       0
  2767 ;;      Temps:          0       0       0       0       0
  2768 ;;      Totals:         0       0       1       0       0
  2769 ;;Total ram usage:        1 bytes
  2770 ;; Hardware stack levels used:    1
  2771 ;; Hardware stack levels required when called:    5
  2772 ;; This function calls:
  2773 ;;		Nothing
  2774 ;; This function is called by:
  2775 ;;		i1__doprnt
  2776 ;;		__doprnt
  2777 ;; This function uses a non-reentrant model
  2778 ;;
  2779                           
  2780                           
  2781                           ;psect for function _putch
  2782  0003                     _putch:	
  2783                           
  2784                           ;incstack = 0
  2785                           ; Regs used in _putch: []
  2786  0003  0008               	return
  2787  0004                     __end_of_putch:	
  2788                           
  2789                           	psect	text4
  2790  166F                     __ptext4:	
  2791 ;; *************** function _isdigit *****************
  2792 ;; Defined at:
  2793 ;;		line 8 in file "C:\Program Files (x86)\Microchip\xc8\v1.33\sources\common\isdigit.c"
  2794 ;; Parameters:    Size  Location     Type
  2795 ;;  c               1    wreg     unsigned char 
  2796 ;; Auto vars:     Size  Location     Type
  2797 ;;  c               1    8[BANK1 ] unsigned char 
  2798 ;; Return value:  Size  Location     Type
  2799 ;;		None               void
  2800 ;; Registers used:
  2801 ;;		wreg, status,2, status,0
  2802 ;; Tracked objects:
  2803 ;;		On entry : 0/0
  2804 ;;		On exit  : 0/0
  2805 ;;		Unchanged: 0/0
  2806 ;; Data sizes:     COMMON   BANK0   BANK1   BANK3   BANK2
  2807 ;;      Params:         0       0       0       0       0
  2808 ;;      Locals:         0       0       2       0       0
  2809 ;;      Temps:          0       0       0       0       0
  2810 ;;      Totals:         0       0       2       0       0
  2811 ;;Total ram usage:        2 bytes
  2812 ;; Hardware stack levels used:    1
  2813 ;; Hardware stack levels required when called:    5
  2814 ;; This function calls:
  2815 ;;		Nothing
  2816 ;; This function is called by:
  2817 ;;		__doprnt
  2818 ;; This function uses a non-reentrant model
  2819 ;;
  2820                           
  2821                           
  2822                           ;psect for function _isdigit
  2823  166F                     _isdigit:	
  2824                           
  2825                           ;incstack = 0
  2826                           ; Regs used in _isdigit: [wreg+status,2+status,0]
  2827                           ;isdigit@c stored from wreg
  2828  166F  1683               	bsf	3,5	;RP0=1, select bank1
  2829  1670  1303               	bcf	3,6	;RP1=0, select bank1
  2830  1671  00A8               	movwf	isdigit@c^(0+128)
  2831  1672  01A7               	clrf	_isdigit$1417^(0+128)
  2832  1673  303A               	movlw	58
  2833  1674  0228               	subwf	isdigit@c^(0+128),w
  2834  1675  1803               	skipnc
  2835  1676  2E7D               	goto	l2255
  2836  1677  3030               	movlw	48
  2837  1678  0228               	subwf	isdigit@c^(0+128),w
  2838  1679  1C03               	skipc
  2839  167A  2E7D               	goto	l2255
  2840  167B  01A7               	clrf	_isdigit$1417^(0+128)
  2841  167C  0AA7               	incf	_isdigit$1417^(0+128),f
  2842  167D                     l2255:	
  2843  167D  0C27               	rrf	_isdigit$1417^(0+128),w
  2844  167E  0008               	return
  2845  167F                     __end_of_isdigit:	
  2846                           
  2847                           	psect	text5
  2848  0805                     __ptext5:	
  2849 ;; *************** function ___wmul *****************
  2850 ;; Defined at:
  2851 ;;		line 15 in file "C:\Program Files (x86)\Microchip\xc8\v1.33\sources\common\Umul16.c"
  2852 ;; Parameters:    Size  Location     Type
  2853 ;;  multiplier      2    7[BANK1 ] unsigned int 
  2854 ;;  multiplicand    2    9[BANK1 ] unsigned int 
  2855 ;; Auto vars:     Size  Location     Type
  2856 ;;  product         2   11[BANK1 ] unsigned int 
  2857 ;; Return value:  Size  Location     Type
  2858 ;;                  2    7[BANK1 ] unsigned int 
  2859 ;; Registers used:
  2860 ;;		wreg, status,2, status,0
  2861 ;; Tracked objects:
  2862 ;;		On entry : 0/0
  2863 ;;		On exit  : 0/0
  2864 ;;		Unchanged: 0/0
  2865 ;; Data sizes:     COMMON   BANK0   BANK1   BANK3   BANK2
  2866 ;;      Params:         0       0       4       0       0
  2867 ;;      Locals:         0       0       2       0       0
  2868 ;;      Temps:          0       0       0       0       0
  2869 ;;      Totals:         0       0       6       0       0
  2870 ;;Total ram usage:        6 bytes
  2871 ;; Hardware stack levels used:    1
  2872 ;; Hardware stack levels required when called:    5
  2873 ;; This function calls:
  2874 ;;		Nothing
  2875 ;; This function is called by:
  2876 ;;		__doprnt
  2877 ;; This function uses a non-reentrant model
  2878 ;;
  2879                           
  2880                           
  2881                           ;psect for function ___wmul
  2882  0805                     ___wmul:	
  2883                           
  2884                           ;incstack = 0
  2885                           ; Regs used in ___wmul: [wreg+status,2+status,0]
  2886  0805  1683               	bsf	3,5	;RP0=1, select bank1
  2887  0806  1303               	bcf	3,6	;RP1=0, select bank1
  2888  0807  01AB               	clrf	___wmul@product^(0+128)
  2889  0808  01AC               	clrf	(___wmul@product+1)^(0+128)
  2890  0809                     l2261:	
  2891  0809  1C27               	btfss	___wmul@multiplier^(0+128),0
  2892  080A  2811               	goto	l516
  2893  080B  0829               	movf	___wmul@multiplicand^(0+128),w
  2894  080C  07AB               	addwf	___wmul@product^(0+128),f
  2895  080D  1803               	skipnc
  2896  080E  0AAC               	incf	(___wmul@product+1)^(0+128),f
  2897  080F  082A               	movf	(___wmul@multiplicand+1)^(0+128),w
  2898  0810  07AC               	addwf	(___wmul@product+1)^(0+128),f
  2899  0811                     l516:	
  2900  0811  3001               	movlw	1
  2901  0812                     u2355:	
  2902  0812  1003               	clrc
  2903  0813  0DA9               	rlf	___wmul@multiplicand^(0+128),f
  2904  0814  0DAA               	rlf	(___wmul@multiplicand+1)^(0+128),f
  2905  0815  3EFF               	addlw	-1
  2906  0816  1D03               	skipz
  2907  0817  2812               	goto	u2355
  2908  0818  3001               	movlw	1
  2909  0819                     u2365:	
  2910  0819  1003               	clrc
  2911  081A  0CA8               	rrf	(___wmul@multiplier+1)^(0+128),f
  2912  081B  0CA7               	rrf	___wmul@multiplier^(0+128),f
  2913  081C  3EFF               	addlw	-1
  2914  081D  1D03               	skipz
  2915  081E  2819               	goto	u2365
  2916  081F  0828               	movf	(___wmul@multiplier+1)^(0+128),w
  2917  0820  0427               	iorwf	___wmul@multiplier^(0+128),w
  2918  0821  1D03               	skipz
  2919  0822  2809               	goto	l2261
  2920  0823  082C               	movf	(___wmul@product+1)^(0+128),w
  2921  0824  01A8               	clrf	(?___wmul+1)^(0+128)
  2922  0825  07A8               	addwf	(?___wmul+1)^(0+128),f
  2923  0826  082B               	movf	___wmul@product^(0+128),w
  2924  0827  01A7               	clrf	?___wmul^(0+128)
  2925  0828  07A7               	addwf	?___wmul^(0+128),f
  2926  0829  0008               	return
  2927  082A                     __end_of___wmul:	
  2928                           
  2929                           	psect	text6
  2930  088F                     __ptext6:	
  2931 ;; *************** function ___lwmod *****************
  2932 ;; Defined at:
  2933 ;;		line 6 in file "C:\Program Files (x86)\Microchip\xc8\v1.33\sources\common\lwmod.c"
  2934 ;; Parameters:    Size  Location     Type
  2935 ;;  divisor         2   15[BANK1 ] unsigned int 
  2936 ;;  dividend        2   17[BANK1 ] unsigned int 
  2937 ;; Auto vars:     Size  Location     Type
  2938 ;;  counter         1   20[BANK1 ] unsigned char 
  2939 ;; Return value:  Size  Location     Type
  2940 ;;                  2   15[BANK1 ] unsigned int 
  2941 ;; Registers used:
  2942 ;;		wreg, status,2, status,0
  2943 ;; Tracked objects:
  2944 ;;		On entry : 0/0
  2945 ;;		On exit  : 0/0
  2946 ;;		Unchanged: 0/0
  2947 ;; Data sizes:     COMMON   BANK0   BANK1   BANK3   BANK2
  2948 ;;      Params:         0       0       4       0       0
  2949 ;;      Locals:         0       0       1       0       0
  2950 ;;      Temps:          0       0       1       0       0
  2951 ;;      Totals:         0       0       6       0       0
  2952 ;;Total ram usage:        6 bytes
  2953 ;; Hardware stack levels used:    1
  2954 ;; Hardware stack levels required when called:    5
  2955 ;; This function calls:
  2956 ;;		Nothing
  2957 ;; This function is called by:
  2958 ;;		__doprnt
  2959 ;; This function uses a non-reentrant model
  2960 ;;
  2961                           
  2962                           
  2963                           ;psect for function ___lwmod
  2964  088F                     ___lwmod:	
  2965                           
  2966                           ;incstack = 0
  2967                           ; Regs used in ___lwmod: [wreg+status,2+status,0]
  2968  088F  1683               	bsf	3,5	;RP0=1, select bank1
  2969  0890  1303               	bcf	3,6	;RP1=0, select bank1
  2970  0891  0830               	movf	(___lwmod@divisor+1)^(0+128),w
  2971  0892  042F               	iorwf	___lwmod@divisor^(0+128),w
  2972  0893  1903               	skipnz
  2973  0894  28BE               	goto	l2345
  2974  0895  01B4               	clrf	___lwmod@counter^(0+128)
  2975  0896  0AB4               	incf	___lwmod@counter^(0+128),f
  2976  0897                     l2335:	
  2977  0897  1BB0               	btfsc	(___lwmod@divisor+1)^(0+128),7
  2978  0898  28A5               	goto	l2337
  2979  0899  3001               	movlw	1
  2980  089A                     u2575:	
  2981  089A  1003               	clrc
  2982  089B  0DAF               	rlf	___lwmod@divisor^(0+128),f
  2983  089C  0DB0               	rlf	(___lwmod@divisor+1)^(0+128),f
  2984  089D  3EFF               	addlw	-1
  2985  089E  1D03               	skipz
  2986  089F  289A               	goto	u2575
  2987  08A0  3001               	movlw	1
  2988  08A1  00B3               	movwf	??___lwmod^(0+128)
  2989  08A2  0833               	movf	??___lwmod^(0+128),w
  2990  08A3  07B4               	addwf	___lwmod@counter^(0+128),f
  2991  08A4  2897               	goto	l2335
  2992  08A5                     l2337:	
  2993  08A5  0830               	movf	(___lwmod@divisor+1)^(0+128),w
  2994  08A6  0232               	subwf	(___lwmod@dividend+1)^(0+128),w
  2995  08A7  1D03               	skipz
  2996  08A8  28AB               	goto	u2595
  2997  08A9  082F               	movf	___lwmod@divisor^(0+128),w
  2998  08AA  0231               	subwf	___lwmod@dividend^(0+128),w
  2999  08AB                     u2595:	
  3000  08AB  1C03               	skipc
  3001  08AC  28B3               	goto	l2341
  3002  08AD  082F               	movf	___lwmod@divisor^(0+128),w
  3003  08AE  02B1               	subwf	___lwmod@dividend^(0+128),f
  3004  08AF  0830               	movf	(___lwmod@divisor+1)^(0+128),w
  3005  08B0  1C03               	skipc
  3006  08B1  03B2               	decf	(___lwmod@dividend+1)^(0+128),f
  3007  08B2  02B2               	subwf	(___lwmod@dividend+1)^(0+128),f
  3008  08B3                     l2341:	
  3009  08B3  3001               	movlw	1
  3010  08B4                     u2605:	
  3011  08B4  1003               	clrc
  3012  08B5  0CB0               	rrf	(___lwmod@divisor+1)^(0+128),f
  3013  08B6  0CAF               	rrf	___lwmod@divisor^(0+128),f
  3014  08B7  3EFF               	addlw	-1
  3015  08B8  1D03               	skipz
  3016  08B9  28B4               	goto	u2605
  3017  08BA  3001               	movlw	1
  3018  08BB  02B4               	subwf	___lwmod@counter^(0+128),f
  3019  08BC  1D03               	btfss	3,2
  3020  08BD  28A5               	goto	l2337
  3021  08BE                     l2345:	
  3022  08BE  0832               	movf	(___lwmod@dividend+1)^(0+128),w
  3023  08BF  01B0               	clrf	(?___lwmod+1)^(0+128)
  3024  08C0  07B0               	addwf	(?___lwmod+1)^(0+128),f
  3025  08C1  0831               	movf	___lwmod@dividend^(0+128),w
  3026  08C2  01AF               	clrf	?___lwmod^(0+128)
  3027  08C3  07AF               	addwf	?___lwmod^(0+128),f
  3028  08C4  0008               	return
  3029  08C5                     __end_of___lwmod:	
  3030                           
  3031                           	psect	text7
  3032  0903                     __ptext7:	
  3033 ;; *************** function ___lwdiv *****************
  3034 ;; Defined at:
  3035 ;;		line 6 in file "C:\Program Files (x86)\Microchip\xc8\v1.33\sources\common\lwdiv.c"
  3036 ;; Parameters:    Size  Location     Type
  3037 ;;  divisor         2    7[BANK1 ] unsigned int 
  3038 ;;  dividend        2    9[BANK1 ] unsigned int 
  3039 ;; Auto vars:     Size  Location     Type
  3040 ;;  quotient        2   12[BANK1 ] unsigned int 
  3041 ;;  counter         1   14[BANK1 ] unsigned char 
  3042 ;; Return value:  Size  Location     Type
  3043 ;;                  2    7[BANK1 ] unsigned int 
  3044 ;; Registers used:
  3045 ;;		wreg, status,2, status,0
  3046 ;; Tracked objects:
  3047 ;;		On entry : 0/0
  3048 ;;		On exit  : 0/0
  3049 ;;		Unchanged: 0/0
  3050 ;; Data sizes:     COMMON   BANK0   BANK1   BANK3   BANK2
  3051 ;;      Params:         0       0       4       0       0
  3052 ;;      Locals:         0       0       3       0       0
  3053 ;;      Temps:          0       0       1       0       0
  3054 ;;      Totals:         0       0       8       0       0
  3055 ;;Total ram usage:        8 bytes
  3056 ;; Hardware stack levels used:    1
  3057 ;; Hardware stack levels required when called:    5
  3058 ;; This function calls:
  3059 ;;		Nothing
  3060 ;; This function is called by:
  3061 ;;		__doprnt
  3062 ;; This function uses a non-reentrant model
  3063 ;;
  3064                           
  3065                           
  3066                           ;psect for function ___lwdiv
  3067  0903                     ___lwdiv:	
  3068                           
  3069                           ;incstack = 0
  3070                           ; Regs used in ___lwdiv: [wreg+status,2+status,0]
  3071  0903  1683               	bsf	3,5	;RP0=1, select bank1
  3072  0904  1303               	bcf	3,6	;RP1=0, select bank1
  3073  0905  01AC               	clrf	___lwdiv@quotient^(0+128)
  3074  0906  01AD               	clrf	(___lwdiv@quotient+1)^(0+128)
  3075  0907  0828               	movf	(___lwdiv@divisor+1)^(0+128),w
  3076  0908  0427               	iorwf	___lwdiv@divisor^(0+128),w
  3077  0909  1903               	skipnz
  3078  090A  293C               	goto	l2323
  3079  090B  01AE               	clrf	___lwdiv@counter^(0+128)
  3080  090C  0AAE               	incf	___lwdiv@counter^(0+128),f
  3081  090D                     l2311:	
  3082  090D  1BA8               	btfsc	(___lwdiv@divisor+1)^(0+128),7
  3083  090E  291B               	goto	l2313
  3084  090F  3001               	movlw	1
  3085  0910                     u2505:	
  3086  0910  1003               	clrc
  3087  0911  0DA7               	rlf	___lwdiv@divisor^(0+128),f
  3088  0912  0DA8               	rlf	(___lwdiv@divisor+1)^(0+128),f
  3089  0913  3EFF               	addlw	-1
  3090  0914  1D03               	skipz
  3091  0915  2910               	goto	u2505
  3092  0916  3001               	movlw	1
  3093  0917  00AB               	movwf	??___lwdiv^(0+128)
  3094  0918  082B               	movf	??___lwdiv^(0+128),w
  3095  0919  07AE               	addwf	___lwdiv@counter^(0+128),f
  3096  091A  290D               	goto	l2311
  3097  091B                     l2313:	
  3098  091B  3001               	movlw	1
  3099  091C                     u2525:	
  3100  091C  1003               	clrc
  3101  091D  0DAC               	rlf	___lwdiv@quotient^(0+128),f
  3102  091E  0DAD               	rlf	(___lwdiv@quotient+1)^(0+128),f
  3103  091F  3EFF               	addlw	-1
  3104  0920  1D03               	skipz
  3105  0921  291C               	goto	u2525
  3106  0922  0828               	movf	(___lwdiv@divisor+1)^(0+128),w
  3107  0923  022A               	subwf	(___lwdiv@dividend+1)^(0+128),w
  3108  0924  1D03               	skipz
  3109  0925  2928               	goto	u2535
  3110  0926  0827               	movf	___lwdiv@divisor^(0+128),w
  3111  0927  0229               	subwf	___lwdiv@dividend^(0+128),w
  3112  0928                     u2535:	
  3113  0928  1C03               	skipc
  3114  0929  2931               	goto	l2319
  3115  092A  0827               	movf	___lwdiv@divisor^(0+128),w
  3116  092B  02A9               	subwf	___lwdiv@dividend^(0+128),f
  3117  092C  0828               	movf	(___lwdiv@divisor+1)^(0+128),w
  3118  092D  1C03               	skipc
  3119  092E  03AA               	decf	(___lwdiv@dividend+1)^(0+128),f
  3120  092F  02AA               	subwf	(___lwdiv@dividend+1)^(0+128),f
  3121  0930  142C               	bsf	___lwdiv@quotient^(0+128),0
  3122  0931                     l2319:	
  3123  0931  3001               	movlw	1
  3124  0932                     u2545:	
  3125  0932  1003               	clrc
  3126  0933  0CA8               	rrf	(___lwdiv@divisor+1)^(0+128),f
  3127  0934  0CA7               	rrf	___lwdiv@divisor^(0+128),f
  3128  0935  3EFF               	addlw	-1
  3129  0936  1D03               	skipz
  3130  0937  2932               	goto	u2545
  3131  0938  3001               	movlw	1
  3132  0939  02AE               	subwf	___lwdiv@counter^(0+128),f
  3133  093A  1D03               	btfss	3,2
  3134  093B  291B               	goto	l2313
  3135  093C                     l2323:	
  3136  093C  082D               	movf	(___lwdiv@quotient+1)^(0+128),w
  3137  093D  01A8               	clrf	(?___lwdiv+1)^(0+128)
  3138  093E  07A8               	addwf	(?___lwdiv+1)^(0+128),f
  3139  093F  082C               	movf	___lwdiv@quotient^(0+128),w
  3140  0940  01A7               	clrf	?___lwdiv^(0+128)
  3141  0941  07A7               	addwf	?___lwdiv^(0+128),f
  3142  0942  0008               	return
  3143  0943                     __end_of___lwdiv:	
  3144                           
  3145                           	psect	text8
  3146  082A                     __ptext8:	
  3147 ;; *************** function _USART_WriteString *****************
  3148 ;; Defined at:
  3149 ;;		line 52 in file "C:\Users\332414\Documents\Fuzzy-IA2\Cdigo em C no MPLAB\usart.c"
  3150 ;; Parameters:    Size  Location     Type
  3151 ;;  str             2    8[BANK1 ] PTR const unsigned char 
  3152 ;;		 -> STR_12(40), STR_10(3), display(10), STR_7(20), 
  3153 ;;		 -> STR_6(29), 
  3154 ;; Auto vars:     Size  Location     Type
  3155 ;;		None
  3156 ;; Return value:  Size  Location     Type
  3157 ;;		None               void
  3158 ;; Registers used:
  3159 ;;		wreg, fsr0l, fsr0h, status,2, status,0, btemp+1, pclath, cstack
  3160 ;; Tracked objects:
  3161 ;;		On entry : 0/0
  3162 ;;		On exit  : 0/0
  3163 ;;		Unchanged: 0/0
  3164 ;; Data sizes:     COMMON   BANK0   BANK1   BANK3   BANK2
  3165 ;;      Params:         0       0       2       0       0
  3166 ;;      Locals:         0       0       0       0       0
  3167 ;;      Temps:          0       0       0       0       0
  3168 ;;      Totals:         0       0       2       0       0
  3169 ;;Total ram usage:        2 bytes
  3170 ;; Hardware stack levels used:    1
  3171 ;; Hardware stack levels required when called:    6
  3172 ;; This function calls:
  3173 ;;		_USART_WriteChar
  3174 ;; This function is called by:
  3175 ;;		_main
  3176 ;;		_USART_ReceiveChar
  3177 ;; This function uses a non-reentrant model
  3178 ;;
  3179                           
  3180                           
  3181                           ;psect for function _USART_WriteString
  3182  082A                     _USART_WriteString:	
  3183  082A                     l2979:	
  3184                           ;usart.c: 54: while(*str != '\0')
  3185                           
  3186                           ;incstack = 0
  3187                           ; Regs used in _USART_WriteString: [wreg-fsr0h+status,2+status,0+btemp+1+pclath+cstack]
  3188                           
  3189  082A  1683               	bsf	3,5	;RP0=1, select bank1
  3190  082B  1303               	bcf	3,6	;RP1=0, select bank1
  3191  082C  0829               	movf	(USART_WriteString@str+1)^(0+128),w
  3192  082D  1283               	bcf	3,5	;RP0=0, select bank0
  3193  082E  1303               	bcf	3,6	;RP1=0, select bank0
  3194  082F  00FF               	movwf	127
  3195  0830  1683               	bsf	3,5	;RP0=1, select bank1
  3196  0831  1303               	bcf	3,6	;RP1=0, select bank1
  3197  0832  0828               	movf	USART_WriteString@str^(0+128),w
  3198  0833  0084               	movwf	4
  3199  0834  1283               	bcf	3,5	;RP0=0, select bank0
  3200  0835  1303               	bcf	3,6	;RP1=0, select bank0
  3201  0836  120A  118A  2038  120A  158A  	fcall	stringtab
  3202  083B  3800               	iorlw	0
  3203  083C  1903               	btfsc	3,2
  3204  083D  0008               	return
  3205                           
  3206                           ;usart.c: 55: {
  3207                           ;usart.c: 56: USART_WriteChar(*str);
  3208  083E  1683               	bsf	3,5	;RP0=1, select bank1
  3209  083F  1303               	bcf	3,6	;RP1=0, select bank1
  3210  0840  0829               	movf	(USART_WriteString@str+1)^(0+128),w
  3211  0841  1283               	bcf	3,5	;RP0=0, select bank0
  3212  0842  1303               	bcf	3,6	;RP1=0, select bank0
  3213  0843  00FF               	movwf	127
  3214  0844  1683               	bsf	3,5	;RP0=1, select bank1
  3215  0845  1303               	bcf	3,6	;RP1=0, select bank1
  3216  0846  0828               	movf	USART_WriteString@str^(0+128),w
  3217  0847  0084               	movwf	4
  3218  0848  1283               	bcf	3,5	;RP0=0, select bank0
  3219  0849  1303               	bcf	3,6	;RP1=0, select bank0
  3220  084A  120A  118A  2038  120A  158A  	fcall	stringtab
  3221  084F  160A  118A  2654  120A  158A  	fcall	_USART_WriteChar
  3222                           
  3223                           ;usart.c: 57: str++;
  3224  0854  3001               	movlw	1
  3225  0855  1683               	bsf	3,5	;RP0=1, select bank1
  3226  0856  1303               	bcf	3,6	;RP1=0, select bank1
  3227  0857  07A8               	addwf	USART_WriteString@str^(0+128),f
  3228  0858  1803               	skipnc
  3229  0859  0AA9               	incf	(USART_WriteString@str+1)^(0+128),f
  3230  085A  282A               	goto	l2979
  3231  085B                     __end_of_USART_WriteString:	
  3232                           
  3233                           	psect	text9
  3234  1654                     __ptext9:	
  3235 ;; *************** function _USART_WriteChar *****************
  3236 ;; Defined at:
  3237 ;;		line 44 in file "C:\Users\332414\Documents\Fuzzy-IA2\Cdigo em C no MPLAB\usart.c"
  3238 ;; Parameters:    Size  Location     Type
  3239 ;;  byte            1    wreg     unsigned char 
  3240 ;; Auto vars:     Size  Location     Type
  3241 ;;  byte            1    7[BANK1 ] unsigned char 
  3242 ;; Return value:  Size  Location     Type
  3243 ;;		None               void
  3244 ;; Registers used:
  3245 ;;		wreg
  3246 ;; Tracked objects:
  3247 ;;		On entry : 0/0
  3248 ;;		On exit  : 0/0
  3249 ;;		Unchanged: 0/0
  3250 ;; Data sizes:     COMMON   BANK0   BANK1   BANK3   BANK2
  3251 ;;      Params:         0       0       0       0       0
  3252 ;;      Locals:         0       0       1       0       0
  3253 ;;      Temps:          0       0       0       0       0
  3254 ;;      Totals:         0       0       1       0       0
  3255 ;;Total ram usage:        1 bytes
  3256 ;; Hardware stack levels used:    1
  3257 ;; Hardware stack levels required when called:    5
  3258 ;; This function calls:
  3259 ;;		Nothing
  3260 ;; This function is called by:
  3261 ;;		_USART_WriteString
  3262 ;; This function uses a non-reentrant model
  3263 ;;
  3264                           
  3265                           
  3266                           ;psect for function _USART_WriteChar
  3267  1654                     _USART_WriteChar:	
  3268                           
  3269                           ;incstack = 0
  3270                           ; Regs used in _USART_WriteChar: [wreg]
  3271                           ;USART_WriteChar@byte stored from wreg
  3272  1654  1683               	bsf	3,5	;RP0=1, select bank1
  3273  1655  1303               	bcf	3,6	;RP1=0, select bank1
  3274  1656  00A7               	movwf	USART_WriteChar@byte^(0+128)
  3275  1657                     l135:	
  3276                           ;usart.c: 46: while(!PIR1bits.TXIF);
  3277                           
  3278  1657  1283               	bcf	3,5	;RP0=0, select bank0
  3279  1658  1E0C               	btfss	12,4	;volatile
  3280  1659  2E57               	goto	l135
  3281                           
  3282                           ;usart.c: 47: TXREG = byte;
  3283  165A  1683               	bsf	3,5	;RP0=1, select bank1
  3284  165B  1303               	bcf	3,6	;RP1=0, select bank1
  3285  165C  0827               	movf	USART_WriteChar@byte^(0+128),w
  3286  165D  1283               	bcf	3,5	;RP0=0, select bank0
  3287  165E  1303               	bcf	3,6	;RP1=0, select bank0
  3288  165F  0099               	movwf	25	;volatile
  3289  1660  0008               	return
  3290  1661                     __end_of_USART_WriteChar:	
  3291                           
  3292                           	psect	text10
  3293  0943                     __ptext10:	
  3294 ;; *************** function _USART_Init *****************
  3295 ;; Defined at:
  3296 ;;		line 6 in file "C:\Users\332414\Documents\Fuzzy-IA2\Cdigo em C no MPLAB\usart.c"
  3297 ;; Parameters:    Size  Location     Type
  3298 ;;  BaudRate        4   22[BANK1 ] long 
  3299 ;; Auto vars:     Size  Location     Type
  3300 ;;		None
  3301 ;; Return value:  Size  Location     Type
  3302 ;;		None               void
  3303 ;; Registers used:
  3304 ;;		wreg, status,2, status,0, pclath, cstack
  3305 ;; Tracked objects:
  3306 ;;		On entry : 0/0
  3307 ;;		On exit  : 0/0
  3308 ;;		Unchanged: 0/0
  3309 ;; Data sizes:     COMMON   BANK0   BANK1   BANK3   BANK2
  3310 ;;      Params:         0       0       4       0       0
  3311 ;;      Locals:         0       0       0       0       0
  3312 ;;      Temps:          0       0       4       0       0
  3313 ;;      Totals:         0       0       8       0       0
  3314 ;;Total ram usage:        8 bytes
  3315 ;; Hardware stack levels used:    1
  3316 ;; Hardware stack levels required when called:    6
  3317 ;; This function calls:
  3318 ;;		___aldiv
  3319 ;; This function is called by:
  3320 ;;		_main
  3321 ;; This function uses a non-reentrant model
  3322 ;;
  3323                           
  3324                           
  3325                           ;psect for function _USART_Init
  3326  0943                     _USART_Init:	
  3327                           
  3328                           ;usart.c: 13: SPBRG = (unsigned char)(18432000 / (16 * BaudRate)) - 1;
  3329                           
  3330                           ;incstack = 0
  3331                           ; Regs used in _USART_Init: [wreg+status,2+status,0+pclath+cstack]
  3332  0943  1683               	bsf	3,5	;RP0=1, select bank1
  3333  0944  1303               	bcf	3,6	;RP1=0, select bank1
  3334  0945  0836               	movf	USART_Init@BaudRate^(0+128),w
  3335  0946  00BA               	movwf	??_USART_Init^(0+128)
  3336  0947  0837               	movf	(USART_Init@BaudRate+1)^(0+128),w
  3337  0948  00BB               	movwf	(??_USART_Init^(0+128)+1)
  3338  0949  0838               	movf	(USART_Init@BaudRate+2)^(0+128),w
  3339  094A  00BC               	movwf	(??_USART_Init^(0+128)+2)
  3340  094B  0839               	movf	(USART_Init@BaudRate+3)^(0+128),w
  3341  094C  00BD               	movwf	(??_USART_Init^(0+128)+3)
  3342  094D  3004               	movlw	4
  3343  094E                     u3705:	
  3344  094E  1003               	clrc
  3345  094F  0DBA               	rlf	??_USART_Init^(0+128),f
  3346  0950  0DBB               	rlf	(??_USART_Init^(0+128)+1),f
  3347  0951  0DBC               	rlf	(??_USART_Init^(0+128)+2),f
  3348  0952  0DBD               	rlf	(??_USART_Init^(0+128)+3),f
  3349  0953  3EFF               	addlw	-1
  3350  0954  1D03               	skipz
  3351  0955  294E               	goto	u3705
  3352  0956  083D               	movf	(??_USART_Init+3)^(0+128),w
  3353  0957  00AA               	movwf	(___aldiv@divisor+3)^(0+128)
  3354  0958  083C               	movf	(??_USART_Init+2)^(0+128),w
  3355  0959  00A9               	movwf	(___aldiv@divisor+2)^(0+128)
  3356  095A  083B               	movf	(??_USART_Init+1)^(0+128),w
  3357  095B  00A8               	movwf	(___aldiv@divisor+1)^(0+128)
  3358  095C  083A               	movf	??_USART_Init^(0+128),w
  3359  095D  00A7               	movwf	___aldiv@divisor^(0+128)
  3360  095E  3001               	movlw	1
  3361  095F  00AE               	movwf	(___aldiv@dividend+3)^(0+128)
  3362  0960  3019               	movlw	25
  3363  0961  00AD               	movwf	(___aldiv@dividend+2)^(0+128)
  3364  0962  3040               	movlw	64
  3365  0963  00AC               	movwf	(___aldiv@dividend+1)^(0+128)
  3366  0964  3000               	movlw	0
  3367  0965  00AB               	movwf	___aldiv@dividend^(0+128)
  3368  0966  120A  158A  234A   	fcall	___aldiv
  3369  0969  1683               	bsf	3,5	;RP0=1, select bank1
  3370  096A  1303               	bcf	3,6	;RP1=0, select bank1
  3371  096B  0827               	movf	?___aldiv^(0+128),w
  3372  096C  3EFF               	addlw	255
  3373  096D  0099               	movwf	25	;volatile
  3374                           
  3375                           ;usart.c: 16: TXSTAbits.CSRC = 0;
  3376  096E  1398               	bcf	24,7	;volatile
  3377                           
  3378                           ;usart.c: 17: TXSTAbits.TX9 = 0;
  3379  096F  1318               	bcf	24,6	;volatile
  3380                           
  3381                           ;usart.c: 18: TXSTAbits.TXEN = 1;
  3382  0970  1698               	bsf	24,5	;volatile
  3383                           
  3384                           ;usart.c: 19: TXSTAbits.SYNC = 0;
  3385  0971  1218               	bcf	24,4	;volatile
  3386                           
  3387                           ;usart.c: 21: TXSTAbits.BRGH = 1;
  3388  0972  1518               	bsf	24,2	;volatile
  3389                           
  3390                           ;usart.c: 22: TXSTAbits.TRMT = 1;
  3391  0973  1498               	bsf	24,1	;volatile
  3392                           
  3393                           ;usart.c: 23: TXSTAbits.TX9D = 0;
  3394  0974  1018               	bcf	24,0	;volatile
  3395                           
  3396                           ;usart.c: 26: RCSTAbits.SPEN = 1;
  3397  0975  1283               	bcf	3,5	;RP0=0, select bank0
  3398  0976  1303               	bcf	3,6	;RP1=0, select bank0
  3399  0977  1798               	bsf	24,7	;volatile
  3400                           
  3401                           ;usart.c: 27: RCSTAbits.RX9 = 0;
  3402  0978  1318               	bcf	24,6	;volatile
  3403                           
  3404                           ;usart.c: 28: RCSTAbits.SREN = 0;
  3405  0979  1298               	bcf	24,5	;volatile
  3406                           
  3407                           ;usart.c: 29: RCSTAbits.CREN = 1;
  3408  097A  1618               	bsf	24,4	;volatile
  3409                           
  3410                           ;usart.c: 30: RCSTAbits.ADDEN = 0;
  3411  097B  1198               	bcf	24,3	;volatile
  3412                           
  3413                           ;usart.c: 31: RCSTAbits.FERR = 0;
  3414  097C  1118               	bcf	24,2	;volatile
  3415                           
  3416                           ;usart.c: 32: RCSTAbits.OERR = 0;
  3417  097D  1098               	bcf	24,1	;volatile
  3418                           
  3419                           ;usart.c: 33: RCSTAbits.RX9D = 0;
  3420  097E  1018               	bcf	24,0	;volatile
  3421                           
  3422                           ;usart.c: 36: PIE1bits.TXIE = 0;
  3423  097F  1683               	bsf	3,5	;RP0=1, select bank1
  3424  0980  1303               	bcf	3,6	;RP1=0, select bank1
  3425  0981  120C               	bcf	12,4	;volatile
  3426                           
  3427                           ;usart.c: 37: PIR1bits.TXIF = 0;
  3428  0982  1283               	bcf	3,5	;RP0=0, select bank0
  3429  0983  1303               	bcf	3,6	;RP1=0, select bank0
  3430  0984  120C               	bcf	12,4	;volatile
  3431                           
  3432                           ;usart.c: 38: PIE1bits.RCIE = 1;
  3433  0985  1683               	bsf	3,5	;RP0=1, select bank1
  3434  0986  1303               	bcf	3,6	;RP1=0, select bank1
  3435  0987  168C               	bsf	12,5	;volatile
  3436                           
  3437                           ;usart.c: 39: PIR1bits.RCIF = 0;
  3438  0988  1283               	bcf	3,5	;RP0=0, select bank0
  3439  0989  1303               	bcf	3,6	;RP1=0, select bank0
  3440  098A  128C               	bcf	12,5	;volatile
  3441  098B  0008               	return
  3442  098C                     __end_of_USART_Init:	
  3443                           
  3444                           	psect	text11
  3445  0B4A                     __ptext11:	
  3446 ;; *************** function ___aldiv *****************
  3447 ;; Defined at:
  3448 ;;		line 6 in file "C:\Program Files (x86)\Microchip\xc8\v1.33\sources\common\aldiv.c"
  3449 ;; Parameters:    Size  Location     Type
  3450 ;;  divisor         4    7[BANK1 ] long 
  3451 ;;  dividend        4   11[BANK1 ] long 
  3452 ;; Auto vars:     Size  Location     Type
  3453 ;;  quotient        4   18[BANK1 ] long 
  3454 ;;  sign            1   17[BANK1 ] unsigned char 
  3455 ;;  counter         1   16[BANK1 ] unsigned char 
  3456 ;; Return value:  Size  Location     Type
  3457 ;;                  4    7[BANK1 ] long 
  3458 ;; Registers used:
  3459 ;;		wreg, status,2, status,0
  3460 ;; Tracked objects:
  3461 ;;		On entry : 0/0
  3462 ;;		On exit  : 0/0
  3463 ;;		Unchanged: 0/0
  3464 ;; Data sizes:     COMMON   BANK0   BANK1   BANK3   BANK2
  3465 ;;      Params:         0       0       8       0       0
  3466 ;;      Locals:         0       0       6       0       0
  3467 ;;      Temps:          0       0       1       0       0
  3468 ;;      Totals:         0       0      15       0       0
  3469 ;;Total ram usage:       15 bytes
  3470 ;; Hardware stack levels used:    1
  3471 ;; Hardware stack levels required when called:    5
  3472 ;; This function calls:
  3473 ;;		Nothing
  3474 ;; This function is called by:
  3475 ;;		_USART_Init
  3476 ;; This function uses a non-reentrant model
  3477 ;;
  3478                           
  3479                           
  3480                           ;psect for function ___aldiv
  3481  0B4A                     ___aldiv:	
  3482                           
  3483                           ;incstack = 0
  3484                           ; Regs used in ___aldiv: [wreg+status,2+status,0]
  3485  0B4A  1683               	bsf	3,5	;RP0=1, select bank1
  3486  0B4B  1303               	bcf	3,6	;RP1=0, select bank1
  3487  0B4C  01B1               	clrf	___aldiv@sign^(0+128)
  3488  0B4D  1FAA               	btfss	(___aldiv@divisor+3)^(0+128),7
  3489  0B4E  2B5C               	goto	l571
  3490  0B4F  09A7               	comf	___aldiv@divisor^(0+128),f
  3491  0B50  09A8               	comf	(___aldiv@divisor+1)^(0+128),f
  3492  0B51  09A9               	comf	(___aldiv@divisor+2)^(0+128),f
  3493  0B52  09AA               	comf	(___aldiv@divisor+3)^(0+128),f
  3494  0B53  0AA7               	incf	___aldiv@divisor^(0+128),f
  3495  0B54  1903               	skipnz
  3496  0B55  0AA8               	incf	(___aldiv@divisor+1)^(0+128),f
  3497  0B56  1903               	skipnz
  3498  0B57  0AA9               	incf	(___aldiv@divisor+2)^(0+128),f
  3499  0B58  1903               	skipnz
  3500  0B59  0AAA               	incf	(___aldiv@divisor+3)^(0+128),f
  3501  0B5A  01B1               	clrf	___aldiv@sign^(0+128)
  3502  0B5B  0AB1               	incf	___aldiv@sign^(0+128),f
  3503  0B5C                     l571:	
  3504  0B5C  1FAE               	btfss	(___aldiv@dividend+3)^(0+128),7
  3505  0B5D  2B6D               	goto	l2653
  3506  0B5E  09AB               	comf	___aldiv@dividend^(0+128),f
  3507  0B5F  09AC               	comf	(___aldiv@dividend+1)^(0+128),f
  3508  0B60  09AD               	comf	(___aldiv@dividend+2)^(0+128),f
  3509  0B61  09AE               	comf	(___aldiv@dividend+3)^(0+128),f
  3510  0B62  0AAB               	incf	___aldiv@dividend^(0+128),f
  3511  0B63  1903               	skipnz
  3512  0B64  0AAC               	incf	(___aldiv@dividend+1)^(0+128),f
  3513  0B65  1903               	skipnz
  3514  0B66  0AAD               	incf	(___aldiv@dividend+2)^(0+128),f
  3515  0B67  1903               	skipnz
  3516  0B68  0AAE               	incf	(___aldiv@dividend+3)^(0+128),f
  3517  0B69  3001               	movlw	1
  3518  0B6A  00AF               	movwf	??___aldiv^(0+128)
  3519  0B6B  082F               	movf	??___aldiv^(0+128),w
  3520  0B6C  06B1               	xorwf	___aldiv@sign^(0+128),f
  3521  0B6D                     l2653:	
  3522  0B6D  3000               	movlw	0
  3523  0B6E  00B5               	movwf	(___aldiv@quotient+3)^(0+128)
  3524  0B6F  3000               	movlw	0
  3525  0B70  00B4               	movwf	(___aldiv@quotient+2)^(0+128)
  3526  0B71  3000               	movlw	0
  3527  0B72  00B3               	movwf	(___aldiv@quotient+1)^(0+128)
  3528  0B73  3000               	movlw	0
  3529  0B74  00B2               	movwf	___aldiv@quotient^(0+128)
  3530  0B75  082A               	movf	(___aldiv@divisor+3)^(0+128),w
  3531  0B76  0429               	iorwf	(___aldiv@divisor+2)^(0+128),w
  3532  0B77  0428               	iorwf	(___aldiv@divisor+1)^(0+128),w
  3533  0B78  0427               	iorwf	___aldiv@divisor^(0+128),w
  3534  0B79  1903               	skipnz
  3535  0B7A  2BC2               	goto	l2675
  3536  0B7B  01B0               	clrf	___aldiv@counter^(0+128)
  3537  0B7C  0AB0               	incf	___aldiv@counter^(0+128),f
  3538  0B7D                     l2661:	
  3539  0B7D  1BAA               	btfsc	(___aldiv@divisor+3)^(0+128),7
  3540  0B7E  2B8D               	goto	l2663
  3541  0B7F  3001               	movlw	1
  3542  0B80  00AF               	movwf	??___aldiv^(0+128)
  3543  0B81                     u3165:	
  3544  0B81  1003               	clrc
  3545  0B82  0DA7               	rlf	___aldiv@divisor^(0+128),f
  3546  0B83  0DA8               	rlf	(___aldiv@divisor+1)^(0+128),f
  3547  0B84  0DA9               	rlf	(___aldiv@divisor+2)^(0+128),f
  3548  0B85  0DAA               	rlf	(___aldiv@divisor+3)^(0+128),f
  3549  0B86  0BAF               	decfsz	??___aldiv^(0+128),f
  3550  0B87  2B81               	goto	u3165
  3551  0B88  3001               	movlw	1
  3552  0B89  00AF               	movwf	??___aldiv^(0+128)
  3553  0B8A  082F               	movf	??___aldiv^(0+128),w
  3554  0B8B  07B0               	addwf	___aldiv@counter^(0+128),f
  3555  0B8C  2B7D               	goto	l2661
  3556  0B8D                     l2663:	
  3557  0B8D  3001               	movlw	1
  3558  0B8E  00AF               	movwf	??___aldiv^(0+128)
  3559  0B8F                     u3185:	
  3560  0B8F  1003               	clrc
  3561  0B90  0DB2               	rlf	___aldiv@quotient^(0+128),f
  3562  0B91  0DB3               	rlf	(___aldiv@quotient+1)^(0+128),f
  3563  0B92  0DB4               	rlf	(___aldiv@quotient+2)^(0+128),f
  3564  0B93  0DB5               	rlf	(___aldiv@quotient+3)^(0+128),f
  3565  0B94  0BAF               	decfsz	??___aldiv^(0+128),f
  3566  0B95  2B8F               	goto	u3185
  3567  0B96  082A               	movf	(___aldiv@divisor+3)^(0+128),w
  3568  0B97  022E               	subwf	(___aldiv@dividend+3)^(0+128),w
  3569  0B98  1D03               	skipz
  3570  0B99  2BA4               	goto	u3195
  3571  0B9A  0829               	movf	(___aldiv@divisor+2)^(0+128),w
  3572  0B9B  022D               	subwf	(___aldiv@dividend+2)^(0+128),w
  3573  0B9C  1D03               	skipz
  3574  0B9D  2BA4               	goto	u3195
  3575  0B9E  0828               	movf	(___aldiv@divisor+1)^(0+128),w
  3576  0B9F  022C               	subwf	(___aldiv@dividend+1)^(0+128),w
  3577  0BA0  1D03               	skipz
  3578  0BA1  2BA4               	goto	u3195
  3579  0BA2  0827               	movf	___aldiv@divisor^(0+128),w
  3580  0BA3  022B               	subwf	___aldiv@dividend^(0+128),w
  3581  0BA4                     u3195:	
  3582  0BA4  1C03               	skipc
  3583  0BA5  2BB5               	goto	l2671
  3584  0BA6  0827               	movf	___aldiv@divisor^(0+128),w
  3585  0BA7  02AB               	subwf	___aldiv@dividend^(0+128),f
  3586  0BA8  0828               	movf	(___aldiv@divisor+1)^(0+128),w
  3587  0BA9  1C03               	skipc
  3588  0BAA  0F28               	incfsz	(___aldiv@divisor+1)^(0+128),w
  3589  0BAB  02AC               	subwf	(___aldiv@dividend+1)^(0+128),f
  3590  0BAC  0829               	movf	(___aldiv@divisor+2)^(0+128),w
  3591  0BAD  1C03               	skipc
  3592  0BAE  0F29               	incfsz	(___aldiv@divisor+2)^(0+128),w
  3593  0BAF  02AD               	subwf	(___aldiv@dividend+2)^(0+128),f
  3594  0BB0  082A               	movf	(___aldiv@divisor+3)^(0+128),w
  3595  0BB1  1C03               	skipc
  3596  0BB2  0F2A               	incfsz	(___aldiv@divisor+3)^(0+128),w
  3597  0BB3  02AE               	subwf	(___aldiv@dividend+3)^(0+128),f
  3598  0BB4  1432               	bsf	___aldiv@quotient^(0+128),0
  3599  0BB5                     l2671:	
  3600  0BB5  3001               	movlw	1
  3601  0BB6                     u3205:	
  3602  0BB6  1003               	clrc
  3603  0BB7  0CAA               	rrf	(___aldiv@divisor+3)^(0+128),f
  3604  0BB8  0CA9               	rrf	(___aldiv@divisor+2)^(0+128),f
  3605  0BB9  0CA8               	rrf	(___aldiv@divisor+1)^(0+128),f
  3606  0BBA  0CA7               	rrf	___aldiv@divisor^(0+128),f
  3607  0BBB  3EFF               	addlw	-1
  3608  0BBC  1D03               	skipz
  3609  0BBD  2BB6               	goto	u3205
  3610  0BBE  3001               	movlw	1
  3611  0BBF  02B0               	subwf	___aldiv@counter^(0+128),f
  3612  0BC0  1D03               	btfss	3,2
  3613  0BC1  2B8D               	goto	l2663
  3614  0BC2                     l2675:	
  3615  0BC2  0831               	movf	___aldiv@sign^(0+128),w
  3616  0BC3  1903               	btfsc	3,2
  3617  0BC4  2BD0               	goto	l2679
  3618  0BC5  09B2               	comf	___aldiv@quotient^(0+128),f
  3619  0BC6  09B3               	comf	(___aldiv@quotient+1)^(0+128),f
  3620  0BC7  09B4               	comf	(___aldiv@quotient+2)^(0+128),f
  3621  0BC8  09B5               	comf	(___aldiv@quotient+3)^(0+128),f
  3622  0BC9  0AB2               	incf	___aldiv@quotient^(0+128),f
  3623  0BCA  1903               	skipnz
  3624  0BCB  0AB3               	incf	(___aldiv@quotient+1)^(0+128),f
  3625  0BCC  1903               	skipnz
  3626  0BCD  0AB4               	incf	(___aldiv@quotient+2)^(0+128),f
  3627  0BCE  1903               	skipnz
  3628  0BCF  0AB5               	incf	(___aldiv@quotient+3)^(0+128),f
  3629  0BD0                     l2679:	
  3630  0BD0  0835               	movf	(___aldiv@quotient+3)^(0+128),w
  3631  0BD1  00AA               	movwf	(?___aldiv+3)^(0+128)
  3632  0BD2  0834               	movf	(___aldiv@quotient+2)^(0+128),w
  3633  0BD3  00A9               	movwf	(?___aldiv+2)^(0+128)
  3634  0BD4  0833               	movf	(___aldiv@quotient+1)^(0+128),w
  3635  0BD5  00A8               	movwf	(?___aldiv+1)^(0+128)
  3636  0BD6  0832               	movf	___aldiv@quotient^(0+128),w
  3637  0BD7  00A7               	movwf	?___aldiv^(0+128)
  3638  0BD8  0008               	return
  3639  0BD9                     __end_of___aldiv:	
  3640                           
  3641                           	psect	text12
  3642  1644                     __ptext12:	
  3643 ;; *************** function _TIMER0_Set *****************
  3644 ;; Defined at:
  3645 ;;		line 20 in file "C:\Users\332414\Documents\Fuzzy-IA2\Cdigo em C no MPLAB\timers.c"
  3646 ;; Parameters:    Size  Location     Type
  3647 ;;  contagens       1    wreg     unsigned char 
  3648 ;; Auto vars:     Size  Location     Type
  3649 ;;  contagens       1    7[BANK1 ] unsigned char 
  3650 ;; Return value:  Size  Location     Type
  3651 ;;		None               void
  3652 ;; Registers used:
  3653 ;;		wreg
  3654 ;; Tracked objects:
  3655 ;;		On entry : 0/0
  3656 ;;		On exit  : 0/0
  3657 ;;		Unchanged: 0/0
  3658 ;; Data sizes:     COMMON   BANK0   BANK1   BANK3   BANK2
  3659 ;;      Params:         0       0       0       0       0
  3660 ;;      Locals:         0       0       1       0       0
  3661 ;;      Temps:          0       0       0       0       0
  3662 ;;      Totals:         0       0       1       0       0
  3663 ;;Total ram usage:        1 bytes
  3664 ;; Hardware stack levels used:    1
  3665 ;; Hardware stack levels required when called:    5
  3666 ;; This function calls:
  3667 ;;		Nothing
  3668 ;; This function is called by:
  3669 ;;		_main
  3670 ;; This function uses a non-reentrant model
  3671 ;;
  3672                           
  3673                           
  3674                           ;psect for function _TIMER0_Set
  3675  1644                     _TIMER0_Set:	
  3676                           
  3677                           ;incstack = 0
  3678                           ; Regs used in _TIMER0_Set: [wreg]
  3679                           ;TIMER0_Set@contagens stored from wreg
  3680  1644  1683               	bsf	3,5	;RP0=1, select bank1
  3681  1645  1303               	bcf	3,6	;RP1=0, select bank1
  3682  1646  00A7               	movwf	TIMER0_Set@contagens^(0+128)
  3683                           
  3684                           ;timers.c: 22: TMR0 = contagens;
  3685  1647  0827               	movf	TIMER0_Set@contagens^(0+128),w
  3686  1648  1283               	bcf	3,5	;RP0=0, select bank0
  3687  1649  1303               	bcf	3,6	;RP1=0, select bank0
  3688  164A  0081               	movwf	1	;volatile
  3689  164B  0008               	return
  3690  164C                     __end_of_TIMER0_Set:	
  3691                           
  3692                           	psect	text13
  3693  07F5                     __ptext13:	
  3694 ;; *************** function _TIMER0_Init *****************
  3695 ;; Defined at:
  3696 ;;		line 6 in file "C:\Users\332414\Documents\Fuzzy-IA2\Cdigo em C no MPLAB\timers.c"
  3697 ;; Parameters:    Size  Location     Type
  3698 ;;		None
  3699 ;; Auto vars:     Size  Location     Type
  3700 ;;		None
  3701 ;; Return value:  Size  Location     Type
  3702 ;;		None               void
  3703 ;; Registers used:
  3704 ;;		None
  3705 ;; Tracked objects:
  3706 ;;		On entry : 0/0
  3707 ;;		On exit  : 0/0
  3708 ;;		Unchanged: 0/0
  3709 ;; Data sizes:     COMMON   BANK0   BANK1   BANK3   BANK2
  3710 ;;      Params:         0       0       0       0       0
  3711 ;;      Locals:         0       0       0       0       0
  3712 ;;      Temps:          0       0       0       0       0
  3713 ;;      Totals:         0       0       0       0       0
  3714 ;;Total ram usage:        0 bytes
  3715 ;; Hardware stack levels used:    1
  3716 ;; Hardware stack levels required when called:    5
  3717 ;; This function calls:
  3718 ;;		Nothing
  3719 ;; This function is called by:
  3720 ;;		_main
  3721 ;; This function uses a non-reentrant model
  3722 ;;
  3723                           
  3724                           
  3725                           ;psect for function _TIMER0_Init
  3726  07F5                     _TIMER0_Init:	
  3727                           
  3728                           ;timers.c: 8: OPTION_REGbits.T0CS = 0;
  3729                           
  3730                           ;incstack = 0
  3731                           ; Regs used in _TIMER0_Init: []
  3732  07F5  1683               	bsf	3,5	;RP0=1, select bank1
  3733  07F6  1303               	bcf	3,6	;RP1=0, select bank1
  3734  07F7  1281               	bcf	1,5	;volatile
  3735                           
  3736                           ;timers.c: 9: OPTION_REGbits.T0SE = 0;
  3737  07F8  1201               	bcf	1,4	;volatile
  3738                           
  3739                           ;timers.c: 10: OPTION_REGbits.PSA = 0;
  3740  07F9  1181               	bcf	1,3	;volatile
  3741                           
  3742                           ;timers.c: 11: OPTION_REGbits.PS2 = 1;
  3743  07FA  1501               	bsf	1,2	;volatile
  3744                           
  3745                           ;timers.c: 12: OPTION_REGbits.PS1 = 1;
  3746  07FB  1481               	bsf	1,1	;volatile
  3747                           
  3748                           ;timers.c: 13: OPTION_REGbits.PS0 = 1;
  3749  07FC  1401               	bsf	1,0	;volatile
  3750                           
  3751                           ;timers.c: 14: INTCONbits.TMR0IF = 0;
  3752  07FD  110B               	bcf	11,2	;volatile
  3753                           
  3754                           ;timers.c: 15: INTCONbits.TMR0IE = 1;
  3755  07FE  168B               	bsf	11,5	;volatile
  3756  07FF  0008               	return
  3757  0800                     __end_of_TIMER0_Init:	
  3758                           
  3759                           	psect	text14
  3760  17AB                     __ptext14:	
  3761 ;; *************** function _PWM_Init *****************
  3762 ;; Defined at:
  3763 ;;		line 5 in file "C:\Users\332414\Documents\Fuzzy-IA2\Cdigo em C no MPLAB\pwm.c"
  3764 ;; Parameters:    Size  Location     Type
  3765 ;;		None
  3766 ;; Auto vars:     Size  Location     Type
  3767 ;;		None
  3768 ;; Return value:  Size  Location     Type
  3769 ;;		None               void
  3770 ;; Registers used:
  3771 ;;		wreg
  3772 ;; Tracked objects:
  3773 ;;		On entry : 0/0
  3774 ;;		On exit  : 0/0
  3775 ;;		Unchanged: 0/0
  3776 ;; Data sizes:     COMMON   BANK0   BANK1   BANK3   BANK2
  3777 ;;      Params:         0       0       0       0       0
  3778 ;;      Locals:         0       0       0       0       0
  3779 ;;      Temps:          0       0       0       0       0
  3780 ;;      Totals:         0       0       0       0       0
  3781 ;;Total ram usage:        0 bytes
  3782 ;; Hardware stack levels used:    1
  3783 ;; Hardware stack levels required when called:    5
  3784 ;; This function calls:
  3785 ;;		Nothing
  3786 ;; This function is called by:
  3787 ;;		_main
  3788 ;; This function uses a non-reentrant model
  3789 ;;
  3790                           
  3791                           
  3792                           ;psect for function _PWM_Init
  3793  17AB                     _PWM_Init:	
  3794                           
  3795                           ;pwm.c: 14: T2CONbits.T2CKPS1 = 1;
  3796                           
  3797                           ;incstack = 0
  3798                           ; Regs used in _PWM_Init: [wreg]
  3799  17AB  1283               	bcf	3,5	;RP0=0, select bank0
  3800  17AC  1303               	bcf	3,6	;RP1=0, select bank0
  3801  17AD  1492               	bsf	18,1	;volatile
  3802                           
  3803                           ;pwm.c: 15: T2CONbits.T2CKPS0 = 0;
  3804  17AE  1012               	bcf	18,0	;volatile
  3805                           
  3806                           ;pwm.c: 18: T2CONbits.TOUTPS3 = 0;
  3807  17AF  1312               	bcf	18,6	;volatile
  3808                           
  3809                           ;pwm.c: 19: T2CONbits.TOUTPS2 = 0;
  3810  17B0  1292               	bcf	18,5	;volatile
  3811                           
  3812                           ;pwm.c: 20: T2CONbits.TOUTPS1 = 0;
  3813  17B1  1212               	bcf	18,4	;volatile
  3814                           
  3815                           ;pwm.c: 21: T2CONbits.TOUTPS0 = 0;
  3816  17B2  1192               	bcf	18,3	;volatile
  3817                           
  3818                           ;pwm.c: 24: T2CONbits.TMR2ON = 1;
  3819  17B3  1512               	bsf	18,2	;volatile
  3820                           
  3821                           ;pwm.c: 27: PR2 = 255;
  3822  17B4  30FF               	movlw	255
  3823  17B5  1683               	bsf	3,5	;RP0=1, select bank1
  3824  17B6  1303               	bcf	3,6	;RP1=0, select bank1
  3825  17B7  0092               	movwf	18	;volatile
  3826                           
  3827                           ;pwm.c: 43: CCP1CONbits.CCP1M3 = 1;
  3828  17B8  1283               	bcf	3,5	;RP0=0, select bank0
  3829  17B9  1303               	bcf	3,6	;RP1=0, select bank0
  3830  17BA  1597               	bsf	23,3	;volatile
  3831                           
  3832                           ;pwm.c: 44: CCP1CONbits.CCP1M2 = 1;
  3833  17BB  1517               	bsf	23,2	;volatile
  3834                           
  3835                           ;pwm.c: 45: CCP1CONbits.CCP1M1 = 1;
  3836  17BC  1497               	bsf	23,1	;volatile
  3837                           
  3838                           ;pwm.c: 46: CCP1CONbits.CCP1M0 = 1;
  3839  17BD  1417               	bsf	23,0	;volatile
  3840                           
  3841                           ;pwm.c: 49: PIE1bits.CCP1IE = 1;
  3842  17BE  1683               	bsf	3,5	;RP0=1, select bank1
  3843  17BF  1303               	bcf	3,6	;RP1=0, select bank1
  3844  17C0  150C               	bsf	12,2	;volatile
  3845                           
  3846                           ;pwm.c: 50: PIR1bits.CCP1IF = 0;
  3847  17C1  1283               	bcf	3,5	;RP0=0, select bank0
  3848  17C2  1303               	bcf	3,6	;RP1=0, select bank0
  3849  17C3  110C               	bcf	12,2	;volatile
  3850                           
  3851                           ;pwm.c: 53: CCP2CONbits.CCP2M3 = 1;
  3852  17C4  159D               	bsf	29,3	;volatile
  3853                           
  3854                           ;pwm.c: 54: CCP2CONbits.CCP2M2 = 1;
  3855  17C5  151D               	bsf	29,2	;volatile
  3856                           
  3857                           ;pwm.c: 55: CCP2CONbits.CCP2M1 = 1;
  3858  17C6  149D               	bsf	29,1	;volatile
  3859                           
  3860                           ;pwm.c: 56: CCP2CONbits.CCP2M0 = 1;
  3861  17C7  141D               	bsf	29,0	;volatile
  3862                           
  3863                           ;pwm.c: 59: PIE2bits.CCP2IE = 1;
  3864  17C8  1683               	bsf	3,5	;RP0=1, select bank1
  3865  17C9  1303               	bcf	3,6	;RP1=0, select bank1
  3866  17CA  140D               	bsf	13,0	;volatile
  3867                           
  3868                           ;pwm.c: 60: PIR2bits.CCP2IF = 0;
  3869  17CB  1283               	bcf	3,5	;RP0=0, select bank0
  3870  17CC  1303               	bcf	3,6	;RP1=0, select bank0
  3871  17CD  100D               	bcf	13,0	;volatile
  3872  17CE  0008               	return
  3873  17CF                     __end_of_PWM_Init:	
  3874                           
  3875                           	psect	text15
  3876  1767                     __ptext15:	
  3877 ;; *************** function _PWM_DutyCycle2 *****************
  3878 ;; Defined at:
  3879 ;;		line 96 in file "C:\Users\332414\Documents\Fuzzy-IA2\Cdigo em C no MPLAB\pwm.c"
  3880 ;; Parameters:    Size  Location     Type
  3881 ;;  valor           2    7[BANK1 ] int 
  3882 ;; Auto vars:     Size  Location     Type
  3883 ;;		None
  3884 ;; Return value:  Size  Location     Type
  3885 ;;		None               void
  3886 ;; Registers used:
  3887 ;;		wreg, status,2, status,0
  3888 ;; Tracked objects:
  3889 ;;		On entry : 0/0
  3890 ;;		On exit  : 0/0
  3891 ;;		Unchanged: 0/0
  3892 ;; Data sizes:     COMMON   BANK0   BANK1   BANK3   BANK2
  3893 ;;      Params:         0       0       2       0       0
  3894 ;;      Locals:         0       0       0       0       0
  3895 ;;      Temps:          0       0       2       0       0
  3896 ;;      Totals:         0       0       4       0       0
  3897 ;;Total ram usage:        4 bytes
  3898 ;; Hardware stack levels used:    1
  3899 ;; Hardware stack levels required when called:    5
  3900 ;; This function calls:
  3901 ;;		Nothing
  3902 ;; This function is called by:
  3903 ;;		_main
  3904 ;; This function uses a non-reentrant model
  3905 ;;
  3906                           
  3907                           
  3908                           ;psect for function _PWM_DutyCycle2
  3909  1767                     _PWM_DutyCycle2:	
  3910                           
  3911                           ;pwm.c: 98: CCPR2L = valor >> 2;
  3912                           
  3913                           ;incstack = 0
  3914                           ; Regs used in _PWM_DutyCycle2: [wreg+status,2+status,0]
  3915  1767  1683               	bsf	3,5	;RP0=1, select bank1
  3916  1768  1303               	bcf	3,6	;RP1=0, select bank1
  3917  1769  0828               	movf	(PWM_DutyCycle2@valor+1)^(0+128),w
  3918  176A  00AA               	movwf	(??_PWM_DutyCycle2^(0+128)+1)
  3919  176B  0827               	movf	PWM_DutyCycle2@valor^(0+128),w
  3920  176C  00A9               	movwf	??_PWM_DutyCycle2^(0+128)
  3921  176D  0D2A               	rlf	(??_PWM_DutyCycle2^(0+128)+1),w
  3922  176E  0CAA               	rrf	(??_PWM_DutyCycle2^(0+128)+1),f
  3923  176F  0CA9               	rrf	??_PWM_DutyCycle2^(0+128),f
  3924  1770  0D2A               	rlf	(??_PWM_DutyCycle2^(0+128)+1),w
  3925  1771  0CAA               	rrf	(??_PWM_DutyCycle2^(0+128)+1),f
  3926  1772  0CA9               	rrf	??_PWM_DutyCycle2^(0+128),f
  3927  1773  0829               	movf	??_PWM_DutyCycle2^(0+128),w
  3928  1774  1283               	bcf	3,5	;RP0=0, select bank0
  3929  1775  1303               	bcf	3,6	;RP1=0, select bank0
  3930  1776  009B               	movwf	27	;volatile
  3931                           
  3932                           ;pwm.c: 99: CCP2CON = (valor << 4)|0X0C;
  3933  1777  1683               	bsf	3,5	;RP0=1, select bank1
  3934  1778  1303               	bcf	3,6	;RP1=0, select bank1
  3935  1779  0827               	movf	PWM_DutyCycle2@valor^(0+128),w
  3936  177A  00A9               	movwf	??_PWM_DutyCycle2^(0+128)
  3937  177B  3003               	movlw	3
  3938  177C                     u3695:	
  3939  177C  1003               	clrc
  3940  177D  0DA9               	rlf	??_PWM_DutyCycle2^(0+128),f
  3941  177E  3EFF               	addlw	-1
  3942  177F  1D03               	skipz
  3943  1780  2F7C               	goto	u3695
  3944  1781  1003               	clrc
  3945  1782  0D29               	rlf	??_PWM_DutyCycle2^(0+128),w
  3946  1783  380C               	iorlw	12
  3947  1784  1283               	bcf	3,5	;RP0=0, select bank0
  3948  1785  1303               	bcf	3,6	;RP1=0, select bank0
  3949  1786  009D               	movwf	29	;volatile
  3950  1787  0008               	return
  3951  1788                     __end_of_PWM_DutyCycle2:	
  3952                           
  3953                           	psect	text16
  3954  1746                     __ptext16:	
  3955 ;; *************** function _PWM_DutyCycle1 *****************
  3956 ;; Defined at:
  3957 ;;		line 64 in file "C:\Users\332414\Documents\Fuzzy-IA2\Cdigo em C no MPLAB\pwm.c"
  3958 ;; Parameters:    Size  Location     Type
  3959 ;;  valor           2    7[BANK1 ] int 
  3960 ;; Auto vars:     Size  Location     Type
  3961 ;;		None
  3962 ;; Return value:  Size  Location     Type
  3963 ;;		None               void
  3964 ;; Registers used:
  3965 ;;		wreg, status,2, status,0
  3966 ;; Tracked objects:
  3967 ;;		On entry : 0/0
  3968 ;;		On exit  : 0/0
  3969 ;;		Unchanged: 0/0
  3970 ;; Data sizes:     COMMON   BANK0   BANK1   BANK3   BANK2
  3971 ;;      Params:         0       0       2       0       0
  3972 ;;      Locals:         0       0       0       0       0
  3973 ;;      Temps:          0       0       2       0       0
  3974 ;;      Totals:         0       0       4       0       0
  3975 ;;Total ram usage:        4 bytes
  3976 ;; Hardware stack levels used:    1
  3977 ;; Hardware stack levels required when called:    5
  3978 ;; This function calls:
  3979 ;;		Nothing
  3980 ;; This function is called by:
  3981 ;;		_main
  3982 ;; This function uses a non-reentrant model
  3983 ;;
  3984                           
  3985                           
  3986                           ;psect for function _PWM_DutyCycle1
  3987  1746                     _PWM_DutyCycle1:	
  3988                           
  3989                           ;pwm.c: 91: CCPR1L = valor >> 2;
  3990                           
  3991                           ;incstack = 0
  3992                           ; Regs used in _PWM_DutyCycle1: [wreg+status,2+status,0]
  3993  1746  1683               	bsf	3,5	;RP0=1, select bank1
  3994  1747  1303               	bcf	3,6	;RP1=0, select bank1
  3995  1748  0828               	movf	(PWM_DutyCycle1@valor+1)^(0+128),w
  3996  1749  00AA               	movwf	(??_PWM_DutyCycle1^(0+128)+1)
  3997  174A  0827               	movf	PWM_DutyCycle1@valor^(0+128),w
  3998  174B  00A9               	movwf	??_PWM_DutyCycle1^(0+128)
  3999  174C  0D2A               	rlf	(??_PWM_DutyCycle1^(0+128)+1),w
  4000  174D  0CAA               	rrf	(??_PWM_DutyCycle1^(0+128)+1),f
  4001  174E  0CA9               	rrf	??_PWM_DutyCycle1^(0+128),f
  4002  174F  0D2A               	rlf	(??_PWM_DutyCycle1^(0+128)+1),w
  4003  1750  0CAA               	rrf	(??_PWM_DutyCycle1^(0+128)+1),f
  4004  1751  0CA9               	rrf	??_PWM_DutyCycle1^(0+128),f
  4005  1752  0829               	movf	??_PWM_DutyCycle1^(0+128),w
  4006  1753  1283               	bcf	3,5	;RP0=0, select bank0
  4007  1754  1303               	bcf	3,6	;RP1=0, select bank0
  4008  1755  0095               	movwf	21	;volatile
  4009                           
  4010                           ;pwm.c: 92: CCP1CON = (valor << 4)|0X0C;
  4011  1756  1683               	bsf	3,5	;RP0=1, select bank1
  4012  1757  1303               	bcf	3,6	;RP1=0, select bank1
  4013  1758  0827               	movf	PWM_DutyCycle1@valor^(0+128),w
  4014  1759  00A9               	movwf	??_PWM_DutyCycle1^(0+128)
  4015  175A  3003               	movlw	3
  4016  175B                     u3745:	
  4017  175B  1003               	clrc
  4018  175C  0DA9               	rlf	??_PWM_DutyCycle1^(0+128),f
  4019  175D  3EFF               	addlw	-1
  4020  175E  1D03               	skipz
  4021  175F  2F5B               	goto	u3745
  4022  1760  1003               	clrc
  4023  1761  0D29               	rlf	??_PWM_DutyCycle1^(0+128),w
  4024  1762  380C               	iorlw	12
  4025  1763  1283               	bcf	3,5	;RP0=0, select bank0
  4026  1764  1303               	bcf	3,6	;RP1=0, select bank0
  4027  1765  0097               	movwf	23	;volatile
  4028  1766  0008               	return
  4029  1767                     __end_of_PWM_DutyCycle1:	
  4030                           
  4031                           	psect	text17
  4032  17CF                     __ptext17:	
  4033 ;; *************** function _LCD_WriteString *****************
  4034 ;; Defined at:
  4035 ;;		line 61 in file "C:\Users\332414\Documents\Fuzzy-IA2\Cdigo em C no MPLAB\lcd.c"
  4036 ;; Parameters:    Size  Location     Type
  4037 ;;  Str             2    9[BANK1 ] PTR const unsigned char 
  4038 ;;		 -> STR_11(6), display(10), STR_8(17), 
  4039 ;; Auto vars:     Size  Location     Type
  4040 ;;		None
  4041 ;; Return value:  Size  Location     Type
  4042 ;;		None               void
  4043 ;; Registers used:
  4044 ;;		wreg, fsr0l, fsr0h, status,2, status,0, btemp+1, pclath, cstack
  4045 ;; Tracked objects:
  4046 ;;		On entry : 0/0
  4047 ;;		On exit  : 0/0
  4048 ;;		Unchanged: 0/0
  4049 ;; Data sizes:     COMMON   BANK0   BANK1   BANK3   BANK2
  4050 ;;      Params:         0       0       2       0       0
  4051 ;;      Locals:         0       0       0       0       0
  4052 ;;      Temps:          0       0       0       0       0
  4053 ;;      Totals:         0       0       2       0       0
  4054 ;;Total ram usage:        2 bytes
  4055 ;; Hardware stack levels used:    1
  4056 ;; Hardware stack levels required when called:    6
  4057 ;; This function calls:
  4058 ;;		_LCD_WriteData
  4059 ;; This function is called by:
  4060 ;;		_main
  4061 ;; This function uses a non-reentrant model
  4062 ;;
  4063                           
  4064                           
  4065                           ;psect for function _LCD_WriteString
  4066  17CF                     _LCD_WriteString:	
  4067  17CF                     l3001:	
  4068                           ;lcd.c: 63: while(*Str != '\0')
  4069                           
  4070                           ;incstack = 0
  4071                           ; Regs used in _LCD_WriteString: [wreg-fsr0h+status,2+status,0+btemp+1+pclath+cstack]
  4072                           
  4073  17CF  1683               	bsf	3,5	;RP0=1, select bank1
  4074  17D0  1303               	bcf	3,6	;RP1=0, select bank1
  4075  17D1  082A               	movf	(LCD_WriteString@Str+1)^(0+128),w
  4076  17D2  1283               	bcf	3,5	;RP0=0, select bank0
  4077  17D3  1303               	bcf	3,6	;RP1=0, select bank0
  4078  17D4  00FF               	movwf	127
  4079  17D5  1683               	bsf	3,5	;RP0=1, select bank1
  4080  17D6  1303               	bcf	3,6	;RP1=0, select bank1
  4081  17D7  0829               	movf	LCD_WriteString@Str^(0+128),w
  4082  17D8  0084               	movwf	4
  4083  17D9  1283               	bcf	3,5	;RP0=0, select bank0
  4084  17DA  1303               	bcf	3,6	;RP1=0, select bank0
  4085  17DB  120A  118A  2038  160A  118A  	fcall	stringtab
  4086  17E0  3800               	iorlw	0
  4087  17E1  1903               	btfsc	3,2
  4088  17E2  0008               	return
  4089                           
  4090                           ;lcd.c: 64: {
  4091                           ;lcd.c: 65: LCD_WriteData(*Str);
  4092  17E3  1683               	bsf	3,5	;RP0=1, select bank1
  4093  17E4  1303               	bcf	3,6	;RP1=0, select bank1
  4094  17E5  082A               	movf	(LCD_WriteString@Str+1)^(0+128),w
  4095  17E6  1283               	bcf	3,5	;RP0=0, select bank0
  4096  17E7  1303               	bcf	3,6	;RP1=0, select bank0
  4097  17E8  00FF               	movwf	127
  4098  17E9  1683               	bsf	3,5	;RP0=1, select bank1
  4099  17EA  1303               	bcf	3,6	;RP1=0, select bank1
  4100  17EB  0829               	movf	LCD_WriteString@Str^(0+128),w
  4101  17EC  0084               	movwf	4
  4102  17ED  1283               	bcf	3,5	;RP0=0, select bank0
  4103  17EE  1303               	bcf	3,6	;RP1=0, select bank0
  4104  17EF  120A  118A  2038  160A  118A  	fcall	stringtab
  4105  17F4  160A  118A  26BC  160A  118A  	fcall	_LCD_WriteData
  4106                           
  4107                           ;lcd.c: 66: Str++;
  4108  17F9  3001               	movlw	1
  4109  17FA  1683               	bsf	3,5	;RP0=1, select bank1
  4110  17FB  1303               	bcf	3,6	;RP1=0, select bank1
  4111  17FC  07A9               	addwf	LCD_WriteString@Str^(0+128),f
  4112  17FD  1803               	skipnc
  4113  17FE  0AAA               	incf	(LCD_WriteString@Str+1)^(0+128),f
  4114  17FF  2FCF               	goto	l3001
  4115  1800                     __end_of_LCD_WriteString:	
  4116                           
  4117                           	psect	text18
  4118  16BC                     __ptext18:	
  4119 ;; *************** function _LCD_WriteData *****************
  4120 ;; Defined at:
  4121 ;;		line 47 in file "C:\Users\332414\Documents\Fuzzy-IA2\Cdigo em C no MPLAB\lcd.c"
  4122 ;; Parameters:    Size  Location     Type
  4123 ;;  Byte            1    wreg     unsigned char 
  4124 ;; Auto vars:     Size  Location     Type
  4125 ;;  Byte            1    8[BANK1 ] unsigned char 
  4126 ;; Return value:  Size  Location     Type
  4127 ;;		None               void
  4128 ;; Registers used:
  4129 ;;		wreg
  4130 ;; Tracked objects:
  4131 ;;		On entry : 0/0
  4132 ;;		On exit  : 0/0
  4133 ;;		Unchanged: 0/0
  4134 ;; Data sizes:     COMMON   BANK0   BANK1   BANK3   BANK2
  4135 ;;      Params:         0       0       0       0       0
  4136 ;;      Locals:         0       0       1       0       0
  4137 ;;      Temps:          0       0       1       0       0
  4138 ;;      Totals:         0       0       2       0       0
  4139 ;;Total ram usage:        2 bytes
  4140 ;; Hardware stack levels used:    1
  4141 ;; Hardware stack levels required when called:    5
  4142 ;; This function calls:
  4143 ;;		Nothing
  4144 ;; This function is called by:
  4145 ;;		_LCD_WriteString
  4146 ;; This function uses a non-reentrant model
  4147 ;;
  4148                           
  4149                           
  4150                           ;psect for function _LCD_WriteData
  4151  16BC                     _LCD_WriteData:	
  4152                           
  4153                           ;incstack = 0
  4154                           ; Regs used in _LCD_WriteData: [wreg]
  4155                           ;LCD_WriteData@Byte stored from wreg
  4156  16BC  1683               	bsf	3,5	;RP0=1, select bank1
  4157  16BD  1303               	bcf	3,6	;RP1=0, select bank1
  4158  16BE  00A8               	movwf	LCD_WriteData@Byte^(0+128)
  4159                           
  4160                           ;lcd.c: 49: PORTEbits.RE0 = 1;
  4161  16BF  1283               	bcf	3,5	;RP0=0, select bank0
  4162  16C0  1303               	bcf	3,6	;RP1=0, select bank0
  4163  16C1  1409               	bsf	9,0	;volatile
  4164                           
  4165                           ;lcd.c: 51: PORTD = Byte;
  4166  16C2  1683               	bsf	3,5	;RP0=1, select bank1
  4167  16C3  1303               	bcf	3,6	;RP1=0, select bank1
  4168  16C4  0828               	movf	LCD_WriteData@Byte^(0+128),w
  4169  16C5  1283               	bcf	3,5	;RP0=0, select bank0
  4170  16C6  1303               	bcf	3,6	;RP1=0, select bank0
  4171  16C7  0088               	movwf	8	;volatile
  4172                           
  4173                           ;lcd.c: 53: PORTEbits.RE1 = 1;
  4174  16C8  1489               	bsf	9,1	;volatile
  4175                           
  4176                           ;lcd.c: 55: _delay((unsigned long)((40)*(18432000/4000000.0)));
  4177  16C9  303D               	movlw	61
  4178  16CA  1683               	bsf	3,5	;RP0=1, select bank1
  4179  16CB  1303               	bcf	3,6	;RP1=0, select bank1
  4180  16CC  00A7               	movwf	??_LCD_WriteData^(0+128)
  4181  16CD                     u6707:	
  4182  16CD  0BA7               	decfsz	??_LCD_WriteData^(0+128),f
  4183  16CE  2ECD               	goto	u6707
  4184                           
  4185                           ;lcd.c: 57: PORTEbits.RE1 = 0;
  4186  16CF  1283               	bcf	3,5	;RP0=0, select bank0
  4187  16D0  1303               	bcf	3,6	;RP1=0, select bank0
  4188  16D1  1089               	bcf	9,1	;volatile
  4189  16D2  0008               	return
  4190  16D3                     __end_of_LCD_WriteData:	
  4191                           
  4192                           	psect	text19
  4193  0A51                     __ptext19:	
  4194 ;; *************** function _LCD_Init *****************
  4195 ;; Defined at:
  4196 ;;		line 87 in file "C:\Users\332414\Documents\Fuzzy-IA2\Cdigo em C no MPLAB\lcd.c"
  4197 ;; Parameters:    Size  Location     Type
  4198 ;;		None
  4199 ;; Auto vars:     Size  Location     Type
  4200 ;;		None
  4201 ;; Return value:  Size  Location     Type
  4202 ;;		None               void
  4203 ;; Registers used:
  4204 ;;		wreg, status,2, status,0, pclath, cstack
  4205 ;; Tracked objects:
  4206 ;;		On entry : 0/0
  4207 ;;		On exit  : 0/0
  4208 ;;		Unchanged: 0/0
  4209 ;; Data sizes:     COMMON   BANK0   BANK1   BANK3   BANK2
  4210 ;;      Params:         0       0       0       0       0
  4211 ;;      Locals:         0       0       0       0       0
  4212 ;;      Temps:          0       0       2       0       0
  4213 ;;      Totals:         0       0       2       0       0
  4214 ;;Total ram usage:        2 bytes
  4215 ;; Hardware stack levels used:    1
  4216 ;; Hardware stack levels required when called:    6
  4217 ;; This function calls:
  4218 ;;		_LCD_WriteCmd
  4219 ;; This function is called by:
  4220 ;;		_main
  4221 ;; This function uses a non-reentrant model
  4222 ;;
  4223                           
  4224                           
  4225                           ;psect for function _LCD_Init
  4226  0A51                     _LCD_Init:	
  4227                           
  4228                           ;lcd.c: 90: ADCON1bits.PCFG3 = 0;
  4229                           
  4230                           ;incstack = 0
  4231                           ; Regs used in _LCD_Init: [wreg+status,2+status,0+pclath+cstack]
  4232  0A51  1683               	bsf	3,5	;RP0=1, select bank1
  4233  0A52  1303               	bcf	3,6	;RP1=0, select bank1
  4234  0A53  119F               	bcf	31,3	;volatile
  4235                           
  4236                           ;lcd.c: 91: ADCON1bits.PCFG2 = 1;
  4237  0A54  151F               	bsf	31,2	;volatile
  4238                           
  4239                           ;lcd.c: 92: ADCON1bits.PCFG1 = 0;
  4240  0A55  109F               	bcf	31,1	;volatile
  4241                           
  4242                           ;lcd.c: 93: ADCON1bits.PCFG0 = 0;
  4243  0A56  101F               	bcf	31,0	;volatile
  4244                           
  4245                           ;lcd.c: 95: _delay((unsigned long)((15)*(18432000/4000.0)));
  4246  0A57  305A               	movlw	90
  4247  0A58  00AA               	movwf	(??_LCD_Init^(0+128)+1)
  4248  0A59  30C3               	movlw	195
  4249  0A5A  00A9               	movwf	??_LCD_Init^(0+128)
  4250  0A5B                     u6717:	
  4251  0A5B  0BA9               	decfsz	??_LCD_Init^(0+128),f
  4252  0A5C  2A5B               	goto	u6717
  4253  0A5D  0BAA               	decfsz	(??_LCD_Init^(0+128)+1),f
  4254  0A5E  2A5B               	goto	u6717
  4255                           
  4256                           ;lcd.c: 97: LCD_WriteCmd(0x30);
  4257  0A5F  3030               	movlw	48
  4258  0A60  160A  118A  26A5  120A  158A  	fcall	_LCD_WriteCmd
  4259                           
  4260                           ;lcd.c: 98: _delay((unsigned long)((4)*(18432000/4000.0)));
  4261  0A65  3018               	movlw	24
  4262  0A66  1683               	bsf	3,5	;RP0=1, select bank1
  4263  0A67  1303               	bcf	3,6	;RP1=0, select bank1
  4264  0A68  00AA               	movwf	(??_LCD_Init^(0+128)+1)
  4265  0A69  30EF               	movlw	239
  4266  0A6A  00A9               	movwf	??_LCD_Init^(0+128)
  4267  0A6B                     u6727:	
  4268  0A6B  0BA9               	decfsz	??_LCD_Init^(0+128),f
  4269  0A6C  2A6B               	goto	u6727
  4270  0A6D  0BAA               	decfsz	(??_LCD_Init^(0+128)+1),f
  4271  0A6E  2A6B               	goto	u6727
  4272                           
  4273                           ;lcd.c: 100: LCD_WriteCmd(0x30);
  4274  0A6F  3030               	movlw	48
  4275  0A70  160A  118A  26A5  120A  158A  	fcall	_LCD_WriteCmd
  4276                           
  4277                           ;lcd.c: 101: _delay((unsigned long)((100)*(18432000/4000000.0)));
  4278  0A75  3099               	movlw	153
  4279  0A76  1683               	bsf	3,5	;RP0=1, select bank1
  4280  0A77  1303               	bcf	3,6	;RP1=0, select bank1
  4281  0A78  00A9               	movwf	??_LCD_Init^(0+128)
  4282  0A79                     u6737:	
  4283  0A79  0BA9               	decfsz	??_LCD_Init^(0+128),f
  4284  0A7A  2A79               	goto	u6737
  4285                           
  4286                           ;lcd.c: 103: LCD_WriteCmd(0x30);
  4287  0A7B  3030               	movlw	48
  4288  0A7C  160A  118A  26A5  120A  158A  	fcall	_LCD_WriteCmd
  4289                           
  4290                           ;lcd.c: 104: _delay((unsigned long)((40)*(18432000/4000000.0)));
  4291  0A81  303D               	movlw	61
  4292  0A82  1683               	bsf	3,5	;RP0=1, select bank1
  4293  0A83  1303               	bcf	3,6	;RP1=0, select bank1
  4294  0A84  00A9               	movwf	??_LCD_Init^(0+128)
  4295  0A85                     u6747:	
  4296  0A85  0BA9               	decfsz	??_LCD_Init^(0+128),f
  4297  0A86  2A85               	goto	u6747
  4298                           
  4299                           ;lcd.c: 106: LCD_WriteCmd(0x38);
  4300  0A87  3038               	movlw	56
  4301  0A88  160A  118A  26A5  120A  158A  	fcall	_LCD_WriteCmd
  4302                           
  4303                           ;lcd.c: 107: _delay((unsigned long)((40)*(18432000/4000000.0)));
  4304  0A8D  303D               	movlw	61
  4305  0A8E  1683               	bsf	3,5	;RP0=1, select bank1
  4306  0A8F  1303               	bcf	3,6	;RP1=0, select bank1
  4307  0A90  00A9               	movwf	??_LCD_Init^(0+128)
  4308  0A91                     u6757:	
  4309  0A91  0BA9               	decfsz	??_LCD_Init^(0+128),f
  4310  0A92  2A91               	goto	u6757
  4311                           
  4312                           ;lcd.c: 109: LCD_WriteCmd(0x01);
  4313  0A93  3001               	movlw	1
  4314  0A94  160A  118A  26A5  120A  158A  	fcall	_LCD_WriteCmd
  4315                           
  4316                           ;lcd.c: 110: _delay((unsigned long)((2)*(18432000/4000.0)));
  4317  0A99  300C               	movlw	12
  4318  0A9A  1683               	bsf	3,5	;RP0=1, select bank1
  4319  0A9B  1303               	bcf	3,6	;RP1=0, select bank1
  4320  0A9C  00AA               	movwf	(??_LCD_Init^(0+128)+1)
  4321  0A9D  30F7               	movlw	247
  4322  0A9E  00A9               	movwf	??_LCD_Init^(0+128)
  4323  0A9F                     u6767:	
  4324  0A9F  0BA9               	decfsz	??_LCD_Init^(0+128),f
  4325  0AA0  2A9F               	goto	u6767
  4326  0AA1  0BAA               	decfsz	(??_LCD_Init^(0+128)+1),f
  4327  0AA2  2A9F               	goto	u6767
  4328                           
  4329                           ;lcd.c: 112: LCD_WriteCmd(0x0C);
  4330  0AA3  300C               	movlw	12
  4331  0AA4  160A  118A  26A5  120A  158A  	fcall	_LCD_WriteCmd
  4332                           
  4333                           ;lcd.c: 113: _delay((unsigned long)((40)*(18432000/4000000.0)));
  4334  0AA9  303D               	movlw	61
  4335  0AAA  1683               	bsf	3,5	;RP0=1, select bank1
  4336  0AAB  1303               	bcf	3,6	;RP1=0, select bank1
  4337  0AAC  00A9               	movwf	??_LCD_Init^(0+128)
  4338  0AAD                     u6777:	
  4339  0AAD  0BA9               	decfsz	??_LCD_Init^(0+128),f
  4340  0AAE  2AAD               	goto	u6777
  4341                           
  4342                           ;lcd.c: 115: LCD_WriteCmd(0x06);
  4343  0AAF  3006               	movlw	6
  4344  0AB0  160A  118A  26A5  120A  158A  	fcall	_LCD_WriteCmd
  4345                           
  4346                           ;lcd.c: 116: _delay((unsigned long)((40)*(18432000/4000000.0)));
  4347  0AB5  303D               	movlw	61
  4348  0AB6  1683               	bsf	3,5	;RP0=1, select bank1
  4349  0AB7  1303               	bcf	3,6	;RP1=0, select bank1
  4350  0AB8  00A9               	movwf	??_LCD_Init^(0+128)
  4351  0AB9                     u6787:	
  4352  0AB9  0BA9               	decfsz	??_LCD_Init^(0+128),f
  4353  0ABA  2AB9               	goto	u6787
  4354  0ABB  0008               	return
  4355  0ABC                     __end_of_LCD_Init:	
  4356                           
  4357                           	psect	text20
  4358  1726                     __ptext20:	
  4359 ;; *************** function _LCD_Cursor *****************
  4360 ;; Defined at:
  4361 ;;		line 10 in file "C:\Users\332414\Documents\Fuzzy-IA2\Cdigo em C no MPLAB\lcd.c"
  4362 ;; Parameters:    Size  Location     Type
  4363 ;;  Row             1    wreg     unsigned char 
  4364 ;;  Col             1    7[BANK1 ] unsigned char 
  4365 ;; Auto vars:     Size  Location     Type
  4366 ;;  Row             1    9[BANK1 ] unsigned char 
  4367 ;; Return value:  Size  Location     Type
  4368 ;;		None               void
  4369 ;; Registers used:
  4370 ;;		wreg, status,2, status,0
  4371 ;; Tracked objects:
  4372 ;;		On entry : 0/0
  4373 ;;		On exit  : 0/0
  4374 ;;		Unchanged: 0/0
  4375 ;; Data sizes:     COMMON   BANK0   BANK1   BANK3   BANK2
  4376 ;;      Params:         0       0       1       0       0
  4377 ;;      Locals:         0       0       1       0       0
  4378 ;;      Temps:          0       0       1       0       0
  4379 ;;      Totals:         0       0       3       0       0
  4380 ;;Total ram usage:        3 bytes
  4381 ;; Hardware stack levels used:    1
  4382 ;; Hardware stack levels required when called:    5
  4383 ;; This function calls:
  4384 ;;		Nothing
  4385 ;; This function is called by:
  4386 ;;		_main
  4387 ;; This function uses a non-reentrant model
  4388 ;;
  4389                           
  4390                           
  4391                           ;psect for function _LCD_Cursor
  4392  1726                     _LCD_Cursor:	
  4393                           
  4394                           ;incstack = 0
  4395                           ; Regs used in _LCD_Cursor: [wreg+status,2+status,0]
  4396                           ;LCD_Cursor@Row stored from wreg
  4397  1726  1683               	bsf	3,5	;RP0=1, select bank1
  4398  1727  1303               	bcf	3,6	;RP1=0, select bank1
  4399  1728  00A9               	movwf	LCD_Cursor@Row^(0+128)
  4400                           
  4401                           ;lcd.c: 12: PORTEbits.RE0 = 0;
  4402  1729  1283               	bcf	3,5	;RP0=0, select bank0
  4403  172A  1303               	bcf	3,6	;RP1=0, select bank0
  4404  172B  1009               	bcf	9,0	;volatile
  4405                           
  4406                           ;lcd.c: 14: if (Row == 0)
  4407  172C  1683               	bsf	3,5	;RP0=1, select bank1
  4408  172D  1303               	bcf	3,6	;RP1=0, select bank1
  4409  172E  08A9               	movf	LCD_Cursor@Row^(0+128),f
  4410  172F  1D03               	skipz
  4411  1730  2F34               	goto	l2987
  4412                           
  4413                           ;lcd.c: 15: {
  4414                           ;lcd.c: 16: PORTD = 0x80 + Col;
  4415  1731  0827               	movf	LCD_Cursor@Col^(0+128),w
  4416  1732  3E80               	addlw	128
  4417  1733  2F38               	goto	L3
  4418  1734                     l2987:	
  4419                           ;lcd.c: 17: }
  4420                           
  4421                           
  4422                           ;lcd.c: 18: else
  4423                           ;lcd.c: 19: {
  4424                           ;lcd.c: 20: PORTD = 0xC0 + Col;
  4425  1734  1683               	bsf	3,5	;RP0=1, select bank1
  4426  1735  1303               	bcf	3,6	;RP1=0, select bank1
  4427  1736  0827               	movf	LCD_Cursor@Col^(0+128),w
  4428  1737  3EC0               	addlw	192
  4429  1738                     L3:	
  4430  1738  1283               	bcf	3,5	;RP0=0, select bank0
  4431  1739  1303               	bcf	3,6	;RP1=0, select bank0
  4432  173A  0088               	movwf	8	;volatile
  4433                           
  4434                           ;lcd.c: 21: }
  4435                           ;lcd.c: 24: PORTEbits.RE1 = 1;
  4436  173B  1489               	bsf	9,1	;volatile
  4437                           
  4438                           ;lcd.c: 26: _delay((unsigned long)((40)*(18432000/4000000.0)));
  4439  173C  303D               	movlw	61
  4440  173D  1683               	bsf	3,5	;RP0=1, select bank1
  4441  173E  1303               	bcf	3,6	;RP1=0, select bank1
  4442  173F  00A8               	movwf	??_LCD_Cursor^(0+128)
  4443  1740                     u6797:	
  4444  1740  0BA8               	decfsz	??_LCD_Cursor^(0+128),f
  4445  1741  2F40               	goto	u6797
  4446                           
  4447                           ;lcd.c: 28: PORTEbits.RE1 = 0;
  4448  1742  1283               	bcf	3,5	;RP0=0, select bank0
  4449  1743  1303               	bcf	3,6	;RP1=0, select bank0
  4450  1744  1089               	bcf	9,1	;volatile
  4451  1745  0008               	return
  4452  1746                     __end_of_LCD_Cursor:	
  4453                           
  4454                           	psect	text21
  4455  00D1                     __ptext21:	
  4456 ;; *************** function _LCD_Clear *****************
  4457 ;; Defined at:
  4458 ;;		line 71 in file "C:\Users\332414\Documents\Fuzzy-IA2\Cdigo em C no MPLAB\lcd.c"
  4459 ;; Parameters:    Size  Location     Type
  4460 ;;		None
  4461 ;; Auto vars:     Size  Location     Type
  4462 ;;		None
  4463 ;; Return value:  Size  Location     Type
  4464 ;;		None               void
  4465 ;; Registers used:
  4466 ;;		wreg, status,2, status,0, pclath, cstack
  4467 ;; Tracked objects:
  4468 ;;		On entry : 0/0
  4469 ;;		On exit  : 0/0
  4470 ;;		Unchanged: 0/0
  4471 ;; Data sizes:     COMMON   BANK0   BANK1   BANK3   BANK2
  4472 ;;      Params:         0       0       0       0       0
  4473 ;;      Locals:         0       0       0       0       0
  4474 ;;      Temps:          0       0       2       0       0
  4475 ;;      Totals:         0       0       2       0       0
  4476 ;;Total ram usage:        2 bytes
  4477 ;; Hardware stack levels used:    1
  4478 ;; Hardware stack levels required when called:    6
  4479 ;; This function calls:
  4480 ;;		_LCD_WriteCmd
  4481 ;; This function is called by:
  4482 ;;		_main
  4483 ;; This function uses a non-reentrant model
  4484 ;;
  4485                           
  4486                           
  4487                           ;psect for function _LCD_Clear
  4488  00D1                     _LCD_Clear:	
  4489                           
  4490                           ;lcd.c: 73: LCD_WriteCmd(0x01);
  4491                           
  4492                           ;incstack = 0
  4493                           ; Regs used in _LCD_Clear: [wreg+status,2+status,0+pclath+cstack]
  4494  00D1  3001               	movlw	1
  4495  00D2  160A  118A  26A5  120A  118A  	fcall	_LCD_WriteCmd
  4496                           
  4497                           ;lcd.c: 75: _delay((unsigned long)((2)*(18432000/4000.0)));
  4498  00D7  300C               	movlw	12
  4499  00D8  1683               	bsf	3,5	;RP0=1, select bank1
  4500  00D9  1303               	bcf	3,6	;RP1=0, select bank1
  4501  00DA  00AA               	movwf	(??_LCD_Clear^(0+128)+1)
  4502  00DB  30F7               	movlw	247
  4503  00DC  00A9               	movwf	??_LCD_Clear^(0+128)
  4504  00DD                     u6807:	
  4505  00DD  0BA9               	decfsz	??_LCD_Clear^(0+128),f
  4506  00DE  28DD               	goto	u6807
  4507  00DF  0BAA               	decfsz	(??_LCD_Clear^(0+128)+1),f
  4508  00E0  28DD               	goto	u6807
  4509                           
  4510                           ;lcd.c: 77: LCD_WriteCmd(0x0C);
  4511  00E1  300C               	movlw	12
  4512  00E2  160A  118A  26A5  120A  118A  	fcall	_LCD_WriteCmd
  4513                           
  4514                           ;lcd.c: 79: _delay((unsigned long)((40)*(18432000/4000000.0)));
  4515  00E7  303D               	movlw	61
  4516  00E8  1683               	bsf	3,5	;RP0=1, select bank1
  4517  00E9  1303               	bcf	3,6	;RP1=0, select bank1
  4518  00EA  00A9               	movwf	??_LCD_Clear^(0+128)
  4519  00EB                     u6817:	
  4520  00EB  0BA9               	decfsz	??_LCD_Clear^(0+128),f
  4521  00EC  28EB               	goto	u6817
  4522                           
  4523                           ;lcd.c: 81: LCD_WriteCmd(0x06);
  4524  00ED  3006               	movlw	6
  4525  00EE  160A  118A  26A5  120A  118A  	fcall	_LCD_WriteCmd
  4526                           
  4527                           ;lcd.c: 83: _delay((unsigned long)((40)*(18432000/4000000.0)));
  4528  00F3  303D               	movlw	61
  4529  00F4  1683               	bsf	3,5	;RP0=1, select bank1
  4530  00F5  1303               	bcf	3,6	;RP1=0, select bank1
  4531  00F6  00A9               	movwf	??_LCD_Clear^(0+128)
  4532  00F7                     u6827:	
  4533  00F7  0BA9               	decfsz	??_LCD_Clear^(0+128),f
  4534  00F8  28F7               	goto	u6827
  4535  00F9  0008               	return
  4536  00FA                     __end_of_LCD_Clear:	
  4537                           
  4538                           	psect	text22
  4539  16A5                     __ptext22:	
  4540 ;; *************** function _LCD_WriteCmd *****************
  4541 ;; Defined at:
  4542 ;;		line 32 in file "C:\Users\332414\Documents\Fuzzy-IA2\Cdigo em C no MPLAB\lcd.c"
  4543 ;; Parameters:    Size  Location     Type
  4544 ;;  Byte            1    wreg     unsigned char 
  4545 ;; Auto vars:     Size  Location     Type
  4546 ;;  Byte            1    8[BANK1 ] unsigned char 
  4547 ;; Return value:  Size  Location     Type
  4548 ;;		None               void
  4549 ;; Registers used:
  4550 ;;		wreg
  4551 ;; Tracked objects:
  4552 ;;		On entry : 0/0
  4553 ;;		On exit  : 0/0
  4554 ;;		Unchanged: 0/0
  4555 ;; Data sizes:     COMMON   BANK0   BANK1   BANK3   BANK2
  4556 ;;      Params:         0       0       0       0       0
  4557 ;;      Locals:         0       0       1       0       0
  4558 ;;      Temps:          0       0       1       0       0
  4559 ;;      Totals:         0       0       2       0       0
  4560 ;;Total ram usage:        2 bytes
  4561 ;; Hardware stack levels used:    1
  4562 ;; Hardware stack levels required when called:    5
  4563 ;; This function calls:
  4564 ;;		Nothing
  4565 ;; This function is called by:
  4566 ;;		_LCD_Clear
  4567 ;;		_LCD_Init
  4568 ;; This function uses a non-reentrant model
  4569 ;;
  4570                           
  4571                           
  4572                           ;psect for function _LCD_WriteCmd
  4573  16A5                     _LCD_WriteCmd:	
  4574                           
  4575                           ;incstack = 0
  4576                           ; Regs used in _LCD_WriteCmd: [wreg]
  4577                           ;LCD_WriteCmd@Byte stored from wreg
  4578  16A5  1683               	bsf	3,5	;RP0=1, select bank1
  4579  16A6  1303               	bcf	3,6	;RP1=0, select bank1
  4580  16A7  00A8               	movwf	LCD_WriteCmd@Byte^(0+128)
  4581                           
  4582                           ;lcd.c: 34: PORTEbits.RE0 = 0;
  4583  16A8  1283               	bcf	3,5	;RP0=0, select bank0
  4584  16A9  1303               	bcf	3,6	;RP1=0, select bank0
  4585  16AA  1009               	bcf	9,0	;volatile
  4586                           
  4587                           ;lcd.c: 36: PORTD = Byte;
  4588  16AB  1683               	bsf	3,5	;RP0=1, select bank1
  4589  16AC  1303               	bcf	3,6	;RP1=0, select bank1
  4590  16AD  0828               	movf	LCD_WriteCmd@Byte^(0+128),w
  4591  16AE  1283               	bcf	3,5	;RP0=0, select bank0
  4592  16AF  1303               	bcf	3,6	;RP1=0, select bank0
  4593  16B0  0088               	movwf	8	;volatile
  4594                           
  4595                           ;lcd.c: 39: PORTEbits.RE1 = 1;
  4596  16B1  1489               	bsf	9,1	;volatile
  4597                           
  4598                           ;lcd.c: 41: _delay((unsigned long)((40)*(18432000/4000000.0)));
  4599  16B2  303D               	movlw	61
  4600  16B3  1683               	bsf	3,5	;RP0=1, select bank1
  4601  16B4  1303               	bcf	3,6	;RP1=0, select bank1
  4602  16B5  00A7               	movwf	??_LCD_WriteCmd^(0+128)
  4603  16B6                     u6837:	
  4604  16B6  0BA7               	decfsz	??_LCD_WriteCmd^(0+128),f
  4605  16B7  2EB6               	goto	u6837
  4606                           
  4607                           ;lcd.c: 43: PORTEbits.RE1 = 0;
  4608  16B8  1283               	bcf	3,5	;RP0=0, select bank0
  4609  16B9  1303               	bcf	3,6	;RP1=0, select bank0
  4610  16BA  1089               	bcf	9,1	;volatile
  4611  16BB  0008               	return
  4612  16BC                     __end_of_LCD_WriteCmd:	
  4613                           
  4614                           	psect	text23
  4615  167F                     __ptext23:	
  4616 ;; *************** function _ADC_Init *****************
  4617 ;; Defined at:
  4618 ;;		line 6 in file "C:\Users\332414\Documents\Fuzzy-IA2\Cdigo em C no MPLAB\adc.c"
  4619 ;; Parameters:    Size  Location     Type
  4620 ;;		None
  4621 ;; Auto vars:     Size  Location     Type
  4622 ;;		None
  4623 ;; Return value:  Size  Location     Type
  4624 ;;		None               void
  4625 ;; Registers used:
  4626 ;;		None
  4627 ;; Tracked objects:
  4628 ;;		On entry : 0/0
  4629 ;;		On exit  : 0/0
  4630 ;;		Unchanged: 0/0
  4631 ;; Data sizes:     COMMON   BANK0   BANK1   BANK3   BANK2
  4632 ;;      Params:         0       0       0       0       0
  4633 ;;      Locals:         0       0       0       0       0
  4634 ;;      Temps:          0       0       0       0       0
  4635 ;;      Totals:         0       0       0       0       0
  4636 ;;Total ram usage:        0 bytes
  4637 ;; Hardware stack levels used:    1
  4638 ;; Hardware stack levels required when called:    5
  4639 ;; This function calls:
  4640 ;;		Nothing
  4641 ;; This function is called by:
  4642 ;;		_main
  4643 ;; This function uses a non-reentrant model
  4644 ;;
  4645                           
  4646                           
  4647                           ;psect for function _ADC_Init
  4648  167F                     _ADC_Init:	
  4649                           
  4650                           ;adc.c: 9: ADCON1bits.ADFM = 1;
  4651                           
  4652                           ;incstack = 0
  4653                           ; Regs used in _ADC_Init: []
  4654  167F  1683               	bsf	3,5	;RP0=1, select bank1
  4655  1680  1303               	bcf	3,6	;RP1=0, select bank1
  4656  1681  179F               	bsf	31,7	;volatile
  4657                           
  4658                           ;adc.c: 32: ADCON1bits.PCFG3 = 1;
  4659  1682  159F               	bsf	31,3	;volatile
  4660                           
  4661                           ;adc.c: 33: ADCON1bits.PCFG2 = 1;
  4662  1683  151F               	bsf	31,2	;volatile
  4663                           
  4664                           ;adc.c: 34: ADCON1bits.PCFG1 = 1;
  4665  1684  149F               	bsf	31,1	;volatile
  4666                           
  4667                           ;adc.c: 35: ADCON1bits.PCFG0 = 0;
  4668  1685  101F               	bcf	31,0	;volatile
  4669                           
  4670                           ;adc.c: 38: ADCON0bits.ADCS1 = 1;
  4671  1686  1283               	bcf	3,5	;RP0=0, select bank0
  4672  1687  1303               	bcf	3,6	;RP1=0, select bank0
  4673  1688  179F               	bsf	31,7	;volatile
  4674                           
  4675                           ;adc.c: 39: ADCON0bits.ADCS0 = 0;
  4676  1689  131F               	bcf	31,6	;volatile
  4677                           
  4678                           ;adc.c: 42: PIE1bits.ADIE = 0;
  4679  168A  1683               	bsf	3,5	;RP0=1, select bank1
  4680  168B  1303               	bcf	3,6	;RP1=0, select bank1
  4681  168C  130C               	bcf	12,6	;volatile
  4682                           
  4683                           ;adc.c: 43: PIR1bits.ADIF = 0;
  4684  168D  1283               	bcf	3,5	;RP0=0, select bank0
  4685  168E  1303               	bcf	3,6	;RP1=0, select bank0
  4686  168F  130C               	bcf	12,6	;volatile
  4687  1690  0008               	return
  4688  1691                     __end_of_ADC_Init:	
  4689                           
  4690                           	psect	text24
  4691  0EC3                     __ptext24:	
  4692 ;; *************** function _ISR *****************
  4693 ;; Defined at:
  4694 ;;		line 82 in file "C:\Users\332414\Documents\Fuzzy-IA2\Cdigo em C no MPLAB\main.c"
  4695 ;; Parameters:    Size  Location     Type
  4696 ;;		None
  4697 ;; Auto vars:     Size  Location     Type
  4698 ;;		None
  4699 ;; Return value:  Size  Location     Type
  4700 ;;		None               void
  4701 ;; Registers used:
  4702 ;;		wreg, fsr0l, fsr0h, status,2, status,0, btemp+1, pclath, cstack
  4703 ;; Tracked objects:
  4704 ;;		On entry : 0/0
  4705 ;;		On exit  : 0/0
  4706 ;;		Unchanged: 0/0
  4707 ;; Data sizes:     COMMON   BANK0   BANK1   BANK3   BANK2
  4708 ;;      Params:         0       0       0       0       0
  4709 ;;      Locals:         0       0       6       0       0
  4710 ;;      Temps:          0       4       0       0       0
  4711 ;;      Totals:         0       4       6       0       0
  4712 ;;Total ram usage:       10 bytes
  4713 ;; Hardware stack levels used:    1
  4714 ;; Hardware stack levels required when called:    4
  4715 ;; This function calls:
  4716 ;;		___ftadd
  4717 ;;		___ftdiv
  4718 ;;		___ftmul
  4719 ;;		___fttol
  4720 ;;		___lwtoft
  4721 ;;		_trapezoidal
  4722 ;;		i1_PWM_DutyCycle2
  4723 ;;		i1_TIMER0_Set
  4724 ;; This function is called by:
  4725 ;;		Interrupt level 1
  4726 ;; This function uses a non-reentrant model
  4727 ;;
  4728                           
  4729                           
  4730                           ;psect for function _ISR
  4731  0EC3                     _ISR:	
  4732                           
  4733                           ;main.c: 85: if (PIR1bits.RCIF)
  4734  0EC3  1A8C               	btfsc	12,5	;volatile
  4735                           
  4736                           ;main.c: 86: {
  4737                           ;main.c: 90: PIR1bits.RCIF = 0;
  4738  0EC4  128C               	bcf	12,5	;volatile
  4739                           
  4740                           ;main.c: 91: }
  4741                           ;main.c: 94: if (PIR1bits.ADIF)
  4742  0EC5  1B0C               	btfsc	12,6	;volatile
  4743                           
  4744                           ;main.c: 95: {
  4745                           ;main.c: 99: PIR1bits.ADIF = 0;
  4746  0EC6  130C               	bcf	12,6	;volatile
  4747                           
  4748                           ;main.c: 100: }
  4749                           ;main.c: 104: if (INTCONbits.T0IF)
  4750  0EC7  1D0B               	btfss	11,2	;volatile
  4751  0EC8  2FF1               	goto	i1l4921
  4752                           
  4753                           ;main.c: 105: {
  4754                           ;main.c: 107: TIMER0_Set(238);
  4755  0EC9  30EE               	movlw	238
  4756  0ECA  120A  118A  20FA  120A  158A  	fcall	i1_TIMER0_Set
  4757                           
  4758                           ;main.c: 110: if (contagens_tm0 < 499)
  4759  0ECF  3001               	movlw	1
  4760  0ED0  1683               	bsf	3,5	;RP0=1, select bank1
  4761  0ED1  1303               	bcf	3,6	;RP1=0, select bank1
  4762  0ED2  0253               	subwf	(_contagens_tm0+1)^(0+128),w
  4763  0ED3  30F3               	movlw	243
  4764  0ED4  1903               	skipnz
  4765  0ED5  0252               	subwf	_contagens_tm0^(0+128),w
  4766  0ED6  1803               	skipnc
  4767  0ED7  2EE2               	goto	i1l4901
  4768                           
  4769                           ;main.c: 111: {
  4770                           ;main.c: 113: contagens_tm0++;
  4771  0ED8  3001               	movlw	1
  4772  0ED9  07D2               	addwf	_contagens_tm0^(0+128),f
  4773  0EDA  1803               	skipnc
  4774  0EDB  0AD3               	incf	(_contagens_tm0+1)^(0+128),f
  4775  0EDC  3000               	movlw	0
  4776  0EDD  07D3               	addwf	(_contagens_tm0+1)^(0+128),f
  4777                           
  4778                           ;main.c: 116: PORTBbits.RB6 = 1;
  4779  0EDE  1283               	bcf	3,5	;RP0=0, select bank0
  4780  0EDF  1303               	bcf	3,6	;RP1=0, select bank0
  4781  0EE0  1706               	bsf	6,6	;volatile
  4782                           
  4783                           ;main.c: 117: }
  4784  0EE1  2FF0               	goto	i1l4919
  4785  0EE2                     i1l4901:	
  4786                           
  4787                           ;main.c: 118: else
  4788                           ;main.c: 119: {
  4789                           ;main.c: 121: contagens_tm0 = 0;
  4790  0EE2  1683               	bsf	3,5	;RP0=1, select bank1
  4791  0EE3  1303               	bcf	3,6	;RP1=0, select bank1
  4792  0EE4  01D2               	clrf	_contagens_tm0^(0+128)
  4793  0EE5  01D3               	clrf	(_contagens_tm0+1)^(0+128)
  4794                           
  4795                           ;main.c: 124: pulsos = (TMR1H << 8) + TMR1L;
  4796  0EE6  1283               	bcf	3,5	;RP0=0, select bank0
  4797  0EE7  1303               	bcf	3,6	;RP1=0, select bank0
  4798  0EE8  080F               	movf	15,w	;volatile
  4799  0EE9  1683               	bsf	3,5	;RP0=1, select bank1
  4800  0EEA  1303               	bcf	3,6	;RP1=0, select bank1
  4801  0EEB  01D5               	clrf	(_pulsos+1)^(0+128)
  4802  0EEC  07D5               	addwf	(_pulsos+1)^(0+128),f
  4803  0EED  1283               	bcf	3,5	;RP0=0, select bank0
  4804  0EEE  1303               	bcf	3,6	;RP1=0, select bank0
  4805  0EEF  080E               	movf	14,w	;volatile
  4806  0EF0  1683               	bsf	3,5	;RP0=1, select bank1
  4807  0EF1  1303               	bcf	3,6	;RP1=0, select bank1
  4808  0EF2  01D4               	clrf	_pulsos^(0+128)
  4809  0EF3  07D4               	addwf	_pulsos^(0+128),f
  4810                           
  4811                           ;main.c: 125: rpm = ((pulsos / 7.0) * 120);
  4812  0EF4  0855               	movf	(_pulsos+1)^(0+128),w
  4813  0EF5  01F9               	clrf	___lwtoft@c+1
  4814  0EF6  07F9               	addwf	___lwtoft@c+1,f
  4815  0EF7  0854               	movf	_pulsos^(0+128),w
  4816  0EF8  01F8               	clrf	___lwtoft@c
  4817  0EF9  07F8               	addwf	___lwtoft@c,f
  4818  0EFA  160A  118A  2691  120A  158A  	fcall	___lwtoft
  4819  0EFF  0878               	movf	?___lwtoft,w
  4820  0F00  1283               	bcf	3,5	;RP0=0, select bank0
  4821  0F01  1303               	bcf	3,6	;RP1=0, select bank0
  4822  0F02  00AA               	movwf	___ftdiv@f1
  4823  0F03  0879               	movf	?___lwtoft+1,w
  4824  0F04  00AB               	movwf	___ftdiv@f1+1
  4825  0F05  087A               	movf	?___lwtoft+2,w
  4826  0F06  00AC               	movwf	___ftdiv@f1+2
  4827  0F07  3000               	movlw	0
  4828  0F08  00A7               	movwf	___ftdiv@f2
  4829  0F09  30E0               	movlw	224
  4830  0F0A  00A8               	movwf	___ftdiv@f2+1
  4831  0F0B  3040               	movlw	64
  4832  0F0C  00A9               	movwf	___ftdiv@f2+2
  4833  0F0D  120A  118A  273D  120A  158A  	fcall	___ftdiv
  4834  0F12  1283               	bcf	3,5	;RP0=0, select bank0
  4835  0F13  1303               	bcf	3,6	;RP1=0, select bank0
  4836  0F14  0827               	movf	?___ftdiv,w
  4837  0F15  00C9               	movwf	___ftmul@f2
  4838  0F16  0828               	movf	?___ftdiv+1,w
  4839  0F17  00CA               	movwf	___ftmul@f2+1
  4840  0F18  0829               	movf	?___ftdiv+2,w
  4841  0F19  00CB               	movwf	___ftmul@f2+2
  4842  0F1A  3000               	movlw	0
  4843  0F1B  00C6               	movwf	___ftmul@f1
  4844  0F1C  30F0               	movlw	240
  4845  0F1D  00C7               	movwf	___ftmul@f1+1
  4846  0F1E  3042               	movlw	66
  4847  0F1F  00C8               	movwf	___ftmul@f1+2
  4848  0F20  120A  158A  23D9  120A  158A  	fcall	___ftmul
  4849  0F25  1283               	bcf	3,5	;RP0=0, select bank0
  4850  0F26  1303               	bcf	3,6	;RP1=0, select bank0
  4851  0F27  0846               	movf	?___ftmul,w
  4852  0F28  00D6               	movwf	___fttol@f1
  4853  0F29  0847               	movf	?___ftmul+1,w
  4854  0F2A  00D7               	movwf	___fttol@f1+1
  4855  0F2B  0848               	movf	?___ftmul+2,w
  4856  0F2C  00D8               	movwf	___fttol@f1+2
  4857  0F2D  120A  158A  22BC  120A  158A  	fcall	___fttol
  4858  0F32  1283               	bcf	3,5	;RP0=0, select bank0
  4859  0F33  1303               	bcf	3,6	;RP1=0, select bank0
  4860  0F34  0857               	movf	?___fttol+1,w
  4861  0F35  1683               	bsf	3,5	;RP0=1, select bank1
  4862  0F36  1303               	bcf	3,6	;RP1=0, select bank1
  4863  0F37  01D7               	clrf	(_rpm+1)^(0+128)
  4864  0F38  07D7               	addwf	(_rpm+1)^(0+128),f
  4865  0F39  1283               	bcf	3,5	;RP0=0, select bank0
  4866  0F3A  1303               	bcf	3,6	;RP1=0, select bank0
  4867  0F3B  0856               	movf	?___fttol,w
  4868  0F3C  1683               	bsf	3,5	;RP0=1, select bank1
  4869  0F3D  1303               	bcf	3,6	;RP1=0, select bank1
  4870  0F3E  01D6               	clrf	_rpm^(0+128)
  4871  0F3F  07D6               	addwf	_rpm^(0+128),f
  4872                           
  4873                           ;main.c: 128: TMR1L = 0x00;
  4874  0F40  1283               	bcf	3,5	;RP0=0, select bank0
  4875  0F41  1303               	bcf	3,6	;RP1=0, select bank0
  4876  0F42  018E               	clrf	14	;volatile
  4877                           
  4878                           ;main.c: 129: TMR1H = 0x00;
  4879  0F43  018F               	clrf	15	;volatile
  4880                           
  4881                           ;main.c: 131: PWM_DutyCycle2((int)(1023 * (trapezoidal((float)rpm, -10.0f, 0.0f, require
      +                          dRpm - 1200.0f, requiredRpm + 800.0f))));
  4882  0F44  1683               	bsf	3,5	;RP0=1, select bank1
  4883  0F45  1303               	bcf	3,6	;RP1=0, select bank1
  4884  0F46  0864               	movf	_requiredRpm^(0+128),w
  4885  0F47  00FB               	movwf	___ftadd@f2
  4886  0F48  0865               	movf	(_requiredRpm+1)^(0+128),w
  4887  0F49  00FC               	movwf	___ftadd@f2+1
  4888  0F4A  0866               	movf	(_requiredRpm+2)^(0+128),w
  4889  0F4B  00FD               	movwf	___ftadd@f2+2
  4890  0F4C  3000               	movlw	0
  4891  0F4D  00F8               	movwf	___ftadd@f1
  4892  0F4E  3048               	movlw	72
  4893  0F4F  00F9               	movwf	___ftadd@f1+1
  4894  0F50  3044               	movlw	68
  4895  0F51  00FA               	movwf	___ftadd@f1+2
  4896  0F52  120A  158A  24AC  120A  158A  	fcall	___ftadd
  4897  0F57  0878               	movf	?___ftadd,w
  4898  0F58  1683               	bsf	3,5	;RP0=1, select bank1
  4899  0F59  1303               	bcf	3,6	;RP1=0, select bank1
  4900  0F5A  00A1               	movwf	_ISR$1732^(0+128)
  4901  0F5B  0879               	movf	?___ftadd+1,w
  4902  0F5C  00A2               	movwf	(_ISR$1732+1)^(0+128)
  4903  0F5D  087A               	movf	?___ftadd+2,w
  4904  0F5E  00A3               	movwf	(_ISR$1732+2)^(0+128)
  4905                           
  4906                           ;main.c: 131: PWM_DutyCycle2((int)(1023 * (trapezoidal((float)rpm, -10.0f, 0.0f, require
      +                          dRpm - 1200.0f, requiredRpm + 800.0f))));
  4907  0F5F  0864               	movf	_requiredRpm^(0+128),w
  4908  0F60  00FB               	movwf	___ftadd@f2
  4909  0F61  0865               	movf	(_requiredRpm+1)^(0+128),w
  4910  0F62  00FC               	movwf	___ftadd@f2+1
  4911  0F63  0866               	movf	(_requiredRpm+2)^(0+128),w
  4912  0F64  00FD               	movwf	___ftadd@f2+2
  4913  0F65  3000               	movlw	0
  4914  0F66  00F8               	movwf	___ftadd@f1
  4915  0F67  3096               	movlw	150
  4916  0F68  00F9               	movwf	___ftadd@f1+1
  4917  0F69  30C4               	movlw	196
  4918  0F6A  00FA               	movwf	___ftadd@f1+2
  4919  0F6B  120A  158A  24AC  120A  158A  	fcall	___ftadd
  4920  0F70  0878               	movf	?___ftadd,w
  4921  0F71  1683               	bsf	3,5	;RP0=1, select bank1
  4922  0F72  1303               	bcf	3,6	;RP1=0, select bank1
  4923  0F73  00A4               	movwf	_ISR$1733^(0+128)
  4924  0F74  0879               	movf	?___ftadd+1,w
  4925  0F75  00A5               	movwf	(_ISR$1733+1)^(0+128)
  4926  0F76  087A               	movf	?___ftadd+2,w
  4927  0F77  00A6               	movwf	(_ISR$1733+2)^(0+128)
  4928                           
  4929                           ;main.c: 131: PWM_DutyCycle2((int)(1023 * (trapezoidal((float)rpm, -10.0f, 0.0f, require
      +                          dRpm - 1200.0f, requiredRpm + 800.0f))));
  4930  0F78  0821               	movf	_ISR$1732^(0+128),w
  4931  0F79  1283               	bcf	3,5	;RP0=0, select bank0
  4932  0F7A  1303               	bcf	3,6	;RP1=0, select bank0
  4933  0F7B  00C3               	movwf	trapezoidal@d
  4934  0F7C  1683               	bsf	3,5	;RP0=1, select bank1
  4935  0F7D  1303               	bcf	3,6	;RP1=0, select bank1
  4936  0F7E  0822               	movf	(_ISR$1732+1)^(0+128),w
  4937  0F7F  1283               	bcf	3,5	;RP0=0, select bank0
  4938  0F80  1303               	bcf	3,6	;RP1=0, select bank0
  4939  0F81  00C4               	movwf	trapezoidal@d+1
  4940  0F82  1683               	bsf	3,5	;RP0=1, select bank1
  4941  0F83  1303               	bcf	3,6	;RP1=0, select bank1
  4942  0F84  0823               	movf	(_ISR$1732+2)^(0+128),w
  4943  0F85  1283               	bcf	3,5	;RP0=0, select bank0
  4944  0F86  1303               	bcf	3,6	;RP1=0, select bank0
  4945  0F87  00C5               	movwf	trapezoidal@d+2
  4946  0F88  1683               	bsf	3,5	;RP0=1, select bank1
  4947  0F89  1303               	bcf	3,6	;RP1=0, select bank1
  4948  0F8A  0824               	movf	_ISR$1733^(0+128),w
  4949  0F8B  1283               	bcf	3,5	;RP0=0, select bank0
  4950  0F8C  1303               	bcf	3,6	;RP1=0, select bank0
  4951  0F8D  00C0               	movwf	trapezoidal@c
  4952  0F8E  1683               	bsf	3,5	;RP0=1, select bank1
  4953  0F8F  1303               	bcf	3,6	;RP1=0, select bank1
  4954  0F90  0825               	movf	(_ISR$1733+1)^(0+128),w
  4955  0F91  1283               	bcf	3,5	;RP0=0, select bank0
  4956  0F92  1303               	bcf	3,6	;RP1=0, select bank0
  4957  0F93  00C1               	movwf	trapezoidal@c+1
  4958  0F94  1683               	bsf	3,5	;RP0=1, select bank1
  4959  0F95  1303               	bcf	3,6	;RP1=0, select bank1
  4960  0F96  0826               	movf	(_ISR$1733+2)^(0+128),w
  4961  0F97  1283               	bcf	3,5	;RP0=0, select bank0
  4962  0F98  1303               	bcf	3,6	;RP1=0, select bank0
  4963  0F99  00C2               	movwf	trapezoidal@c+2
  4964  0F9A  3000               	movlw	0
  4965  0F9B  00BD               	movwf	trapezoidal@b
  4966  0F9C  3000               	movlw	0
  4967  0F9D  00BE               	movwf	trapezoidal@b+1
  4968  0F9E  3000               	movlw	0
  4969  0F9F  00BF               	movwf	trapezoidal@b+2
  4970  0FA0  3000               	movlw	0
  4971  0FA1  00BA               	movwf	trapezoidal@a
  4972  0FA2  3020               	movlw	32
  4973  0FA3  00BB               	movwf	trapezoidal@a+1
  4974  0FA4  30C1               	movlw	193
  4975  0FA5  00BC               	movwf	trapezoidal@a+2
  4976  0FA6  1683               	bsf	3,5	;RP0=1, select bank1
  4977  0FA7  1303               	bcf	3,6	;RP1=0, select bank1
  4978  0FA8  0857               	movf	(_rpm+1)^(0+128),w
  4979  0FA9  01F9               	clrf	___lwtoft@c+1
  4980  0FAA  07F9               	addwf	___lwtoft@c+1,f
  4981  0FAB  0856               	movf	_rpm^(0+128),w
  4982  0FAC  01F8               	clrf	___lwtoft@c
  4983  0FAD  07F8               	addwf	___lwtoft@c,f
  4984  0FAE  160A  118A  2691  120A  158A  	fcall	___lwtoft
  4985  0FB3  0878               	movf	?___lwtoft,w
  4986  0FB4  1283               	bcf	3,5	;RP0=0, select bank0
  4987  0FB5  1303               	bcf	3,6	;RP1=0, select bank0
  4988  0FB6  00B7               	movwf	trapezoidal@x
  4989  0FB7  0879               	movf	?___lwtoft+1,w
  4990  0FB8  00B8               	movwf	trapezoidal@x+1
  4991  0FB9  087A               	movf	?___lwtoft+2,w
  4992  0FBA  00B9               	movwf	trapezoidal@x+2
  4993  0FBB  120A  118A  25B6  120A  158A  	fcall	_trapezoidal
  4994  0FC0  1283               	bcf	3,5	;RP0=0, select bank0
  4995  0FC1  1303               	bcf	3,6	;RP1=0, select bank0
  4996  0FC2  0837               	movf	?_trapezoidal,w
  4997  0FC3  00C9               	movwf	___ftmul@f2
  4998  0FC4  0838               	movf	?_trapezoidal+1,w
  4999  0FC5  00CA               	movwf	___ftmul@f2+1
  5000  0FC6  0839               	movf	?_trapezoidal+2,w
  5001  0FC7  00CB               	movwf	___ftmul@f2+2
  5002  0FC8  30C0               	movlw	192
  5003  0FC9  00C6               	movwf	___ftmul@f1
  5004  0FCA  307F               	movlw	127
  5005  0FCB  00C7               	movwf	___ftmul@f1+1
  5006  0FCC  3044               	movlw	68
  5007  0FCD  00C8               	movwf	___ftmul@f1+2
  5008  0FCE  120A  158A  23D9  120A  158A  	fcall	___ftmul
  5009  0FD3  1283               	bcf	3,5	;RP0=0, select bank0
  5010  0FD4  1303               	bcf	3,6	;RP1=0, select bank0
  5011  0FD5  0846               	movf	?___ftmul,w
  5012  0FD6  00D6               	movwf	___fttol@f1
  5013  0FD7  0847               	movf	?___ftmul+1,w
  5014  0FD8  00D7               	movwf	___fttol@f1+1
  5015  0FD9  0848               	movf	?___ftmul+2,w
  5016  0FDA  00D8               	movwf	___fttol@f1+2
  5017  0FDB  120A  158A  22BC  120A  158A  	fcall	___fttol
  5018  0FE0  1283               	bcf	3,5	;RP0=0, select bank0
  5019  0FE1  1303               	bcf	3,6	;RP1=0, select bank0
  5020  0FE2  0857               	movf	?___fttol+1,w
  5021  0FE3  01E5               	clrf	i1PWM_DutyCycle2@valor+1
  5022  0FE4  07E5               	addwf	i1PWM_DutyCycle2@valor+1,f
  5023  0FE5  0856               	movf	?___fttol,w
  5024  0FE6  01E4               	clrf	i1PWM_DutyCycle2@valor
  5025  0FE7  07E4               	addwf	i1PWM_DutyCycle2@valor,f
  5026  0FE8  160A  118A  26EC  120A  158A  	fcall	i1_PWM_DutyCycle2
  5027                           
  5028                           ;main.c: 134: PORTBbits.RB6 = 0;
  5029  0FED  1283               	bcf	3,5	;RP0=0, select bank0
  5030  0FEE  1303               	bcf	3,6	;RP1=0, select bank0
  5031  0FEF  1306               	bcf	6,6	;volatile
  5032  0FF0                     i1l4919:	
  5033                           
  5034                           ;main.c: 135: }
  5035                           ;main.c: 138: INTCONbits.T0IF = 0;
  5036  0FF0  110B               	bcf	11,2	;volatile
  5037  0FF1                     i1l4921:	
  5038                           
  5039                           ;main.c: 139: }
  5040                           ;main.c: 142: if (PIR1bits.TMR1IF)
  5041  0FF1  180C               	btfsc	12,0	;volatile
  5042                           
  5043                           ;main.c: 143: {
  5044                           ;main.c: 147: PIR1bits.TMR1IF = 0;
  5045  0FF2  100C               	bcf	12,0	;volatile
  5046                           
  5047                           ;main.c: 148: }
  5048                           ;main.c: 151: if (PIR1bits.SSPIF)
  5049  0FF3  198C               	btfsc	12,3	;volatile
  5050                           
  5051                           ;main.c: 152: {
  5052                           ;main.c: 156: PIR1bits.SSPIF = 0;
  5053  0FF4  118C               	bcf	12,3	;volatile
  5054  0FF5  086B               	movf	??_ISR+3,w
  5055  0FF6  00FF               	movwf	127
  5056  0FF7  086A               	movf	??_ISR+2,w
  5057  0FF8  008A               	movwf	10
  5058  0FF9  0869               	movf	??_ISR+1,w
  5059  0FFA  0084               	movwf	4
  5060  0FFB  0E68               	swapf	??_ISR^0,w
  5061  0FFC  0083               	movwf	3
  5062  0FFD  0EFE               	swapf	126,f
  5063  0FFE  0E7E               	swapf	126,w
  5064  0FFF  0009               	retfie
  5065  1000                     __end_of_ISR:	
  5066                           
  5067                           	psect	intentry
  5068  0004                     __pintentry:	
  5069                           ;incstack = 0
  5070                           ; Regs used in _ISR: [wreg-fsr0h+status,2+status,0+btemp+1+pclath+cstack]
  5071                           
  5072  0004                     interrupt_function:	
  5073  007E                     saved_w	set	btemp
  5074  0004  00FE               	movwf	btemp
  5075  0005  0E03               	swapf	3,w
  5076  0006  1283               	bcf	3,5	;RP0=0, select bank0
  5077  0007  1303               	bcf	3,6	;RP1=0, select bank0
  5078  0008  00E8               	movwf	??_ISR
  5079  0009  0804               	movf	4,w
  5080  000A  00E9               	movwf	??_ISR+1
  5081  000B  080A               	movf	10,w
  5082  000C  00EA               	movwf	??_ISR+2
  5083  000D  087F               	movf	btemp+1,w
  5084  000E  00EB               	movwf	??_ISR+3
  5085  000F  120A  158A  2EC3   	ljmp	_ISR
  5086                           
  5087                           	psect	text25
  5088  00FA                     __ptext25:	
  5089 ;; *************** function i1_TIMER0_Set *****************
  5090 ;; Defined at:
  5091 ;;		line 20 in file "C:\Users\332414\Documents\Fuzzy-IA2\Cdigo em C no MPLAB\timers.c"
  5092 ;; Parameters:    Size  Location     Type
  5093 ;;  contagens       1    wreg     unsigned char 
  5094 ;; Auto vars:     Size  Location     Type
  5095 ;;  contagens       1    0[COMMON] unsigned char 
  5096 ;; Return value:  Size  Location     Type
  5097 ;;		None               void
  5098 ;; Registers used:
  5099 ;;		wreg
  5100 ;; Tracked objects:
  5101 ;;		On entry : 0/0
  5102 ;;		On exit  : 0/0
  5103 ;;		Unchanged: 0/0
  5104 ;; Data sizes:     COMMON   BANK0   BANK1   BANK3   BANK2
  5105 ;;      Params:         0       0       0       0       0
  5106 ;;      Locals:         1       0       0       0       0
  5107 ;;      Temps:          0       0       0       0       0
  5108 ;;      Totals:         1       0       0       0       0
  5109 ;;Total ram usage:        1 bytes
  5110 ;; Hardware stack levels used:    1
  5111 ;; This function calls:
  5112 ;;		Nothing
  5113 ;; This function is called by:
  5114 ;;		_ISR
  5115 ;; This function uses a non-reentrant model
  5116 ;;
  5117                           
  5118                           
  5119                           ;psect for function i1_TIMER0_Set
  5120  00FA                     i1_TIMER0_Set:	
  5121                           
  5122                           ;incstack = 0
  5123                           ; Regs used in i1_TIMER0_Set: [wreg]
  5124                           ;i1TIMER0_Set@contagens stored from wreg
  5125  00FA  00F0               	movwf	i1TIMER0_Set@contagens
  5126                           
  5127                           ;timers.c: 22: TMR0 = contagens;
  5128  00FB  0870               	movf	i1TIMER0_Set@contagens,w
  5129  00FC  1283               	bcf	3,5	;RP0=0, select bank0
  5130  00FD  1303               	bcf	3,6	;RP1=0, select bank0
  5131  00FE  0081               	movwf	1	;volatile
  5132  00FF  0008               	return
  5133  0100                     __end_ofi1_TIMER0_Set:	
  5134                           
  5135                           	psect	text26
  5136  16EC                     __ptext26:	
  5137 ;; *************** function i1_PWM_DutyCycle2 *****************
  5138 ;; Defined at:
  5139 ;;		line 96 in file "C:\Users\332414\Documents\Fuzzy-IA2\Cdigo em C no MPLAB\pwm.c"
  5140 ;; Parameters:    Size  Location     Type
  5141 ;;  valor           2   68[BANK0 ] int 
  5142 ;; Auto vars:     Size  Location     Type
  5143 ;;		None
  5144 ;; Return value:  Size  Location     Type
  5145 ;;		None               void
  5146 ;; Registers used:
  5147 ;;		wreg, status,2, status,0
  5148 ;; Tracked objects:
  5149 ;;		On entry : 0/0
  5150 ;;		On exit  : 0/0
  5151 ;;		Unchanged: 0/0
  5152 ;; Data sizes:     COMMON   BANK0   BANK1   BANK3   BANK2
  5153 ;;      Params:         0       2       0       0       0
  5154 ;;      Locals:         0       0       0       0       0
  5155 ;;      Temps:          0       2       0       0       0
  5156 ;;      Totals:         0       4       0       0       0
  5157 ;;Total ram usage:        4 bytes
  5158 ;; Hardware stack levels used:    1
  5159 ;; This function calls:
  5160 ;;		Nothing
  5161 ;; This function is called by:
  5162 ;;		_ISR
  5163 ;; This function uses a non-reentrant model
  5164 ;;
  5165                           
  5166                           
  5167                           ;psect for function i1_PWM_DutyCycle2
  5168  16EC                     i1_PWM_DutyCycle2:	
  5169                           
  5170                           ;pwm.c: 98: CCPR2L = valor >> 2;
  5171                           
  5172                           ;incstack = 0
  5173                           ; Regs used in i1_PWM_DutyCycle2: [wreg+status,2+status,0]
  5174  16EC  1283               	bcf	3,5	;RP0=0, select bank0
  5175  16ED  1303               	bcf	3,6	;RP1=0, select bank0
  5176  16EE  0865               	movf	i1PWM_DutyCycle2@valor+1,w
  5177  16EF  00E7               	movwf	??i1_PWM_DutyCycle2+1
  5178  16F0  0864               	movf	i1PWM_DutyCycle2@valor,w
  5179  16F1  00E6               	movwf	??i1_PWM_DutyCycle2
  5180  16F2  0D67               	rlf	??i1_PWM_DutyCycle2+1,w
  5181  16F3  0CE7               	rrf	??i1_PWM_DutyCycle2+1,f
  5182  16F4  0CE6               	rrf	??i1_PWM_DutyCycle2,f
  5183  16F5  0D67               	rlf	??i1_PWM_DutyCycle2+1,w
  5184  16F6  0CE7               	rrf	??i1_PWM_DutyCycle2+1,f
  5185  16F7  0CE6               	rrf	??i1_PWM_DutyCycle2,f
  5186  16F8  0866               	movf	??i1_PWM_DutyCycle2,w
  5187  16F9  009B               	movwf	27	;volatile
  5188                           
  5189                           ;pwm.c: 99: CCP2CON = (valor << 4)|0X0C;
  5190  16FA  0864               	movf	i1PWM_DutyCycle2@valor,w
  5191  16FB  00E6               	movwf	??i1_PWM_DutyCycle2
  5192  16FC  3003               	movlw	3
  5193  16FD                     u399_25:	
  5194  16FD  1003               	clrc
  5195  16FE  0DE6               	rlf	??i1_PWM_DutyCycle2,f
  5196  16FF  3EFF               	addlw	-1
  5197  1700  1D03               	skipz
  5198  1701  2EFD               	goto	u399_25
  5199  1702  1003               	clrc
  5200  1703  0D66               	rlf	??i1_PWM_DutyCycle2,w
  5201  1704  380C               	iorlw	12
  5202  1705  009D               	movwf	29	;volatile
  5203  1706  0008               	return
  5204  1707                     __end_ofi1_PWM_DutyCycle2:	
  5205                           
  5206                           	psect	text27
  5207  05B6                     __ptext27:	
  5208 ;; *************** function _trapezoidal *****************
  5209 ;; Defined at:
  5210 ;;		line 41 in file "C:\Users\332414\Documents\Fuzzy-IA2\Cdigo em C no MPLAB\main.c"
  5211 ;; Parameters:    Size  Location     Type
  5212 ;;  x               3   23[BANK0 ] float 
  5213 ;;  a               3   26[BANK0 ] float 
  5214 ;;  b               3   29[BANK0 ] float 
  5215 ;;  c               3   32[BANK0 ] float 
  5216 ;;  d               3   35[BANK0 ] float 
  5217 ;; Auto vars:     Size  Location     Type
  5218 ;;		None
  5219 ;; Return value:  Size  Location     Type
  5220 ;;                  3   23[BANK0 ] float 
  5221 ;; Registers used:
  5222 ;;		wreg, fsr0l, fsr0h, status,2, status,0, btemp+1, pclath, cstack
  5223 ;; Tracked objects:
  5224 ;;		On entry : 0/0
  5225 ;;		On exit  : 0/0
  5226 ;;		Unchanged: 0/0
  5227 ;; Data sizes:     COMMON   BANK0   BANK1   BANK3   BANK2
  5228 ;;      Params:         0      15       0       0       0
  5229 ;;      Locals:         0       0       0       0       0
  5230 ;;      Temps:          0       0       0       0       0
  5231 ;;      Totals:         0      15       0       0       0
  5232 ;;Total ram usage:       15 bytes
  5233 ;; Hardware stack levels used:    1
  5234 ;; Hardware stack levels required when called:    3
  5235 ;; This function calls:
  5236 ;;		___ftadd
  5237 ;;		___ftdiv
  5238 ;;		___ftge
  5239 ;;		___ftneg
  5240 ;;		_printf
  5241 ;; This function is called by:
  5242 ;;		_ISR
  5243 ;; This function uses a non-reentrant model
  5244 ;;
  5245                           
  5246                           
  5247                           ;psect for function _trapezoidal
  5248  05B6                     _trapezoidal:	
  5249                           
  5250                           ;main.c: 42: if (x <= a){
  5251                           
  5252                           ;incstack = 0
  5253                           ; Regs used in _trapezoidal: [wreg-fsr0h+status,2+status,0+btemp+1+pclath+cstack]
  5254  05B6  1283               	bcf	3,5	;RP0=0, select bank0
  5255  05B7  1303               	bcf	3,6	;RP1=0, select bank0
  5256  05B8  083A               	movf	trapezoidal@a,w
  5257  05B9  00F0               	movwf	___ftge@ff1
  5258  05BA  083B               	movf	trapezoidal@a+1,w
  5259  05BB  00F1               	movwf	___ftge@ff1+1
  5260  05BC  083C               	movf	trapezoidal@a+2,w
  5261  05BD  00F2               	movwf	___ftge@ff1+2
  5262  05BE  0837               	movf	trapezoidal@x,w
  5263  05BF  00F3               	movwf	___ftge@ff2
  5264  05C0  0838               	movf	trapezoidal@x+1,w
  5265  05C1  00F4               	movwf	___ftge@ff2+1
  5266  05C2  0839               	movf	trapezoidal@x+2,w
  5267  05C3  00F5               	movwf	___ftge@ff2+2
  5268  05C4  120A  158A  218C  120A  118A  	fcall	___ftge
  5269  05C9  1C03               	btfss	3,0
  5270  05CA  2DD8               	goto	i1l4837
  5271                           
  5272                           ;main.c: 43: printf("1");
  5273  05CB  3080               	movlw	(STR_1-__stringbase)& (0+255)
  5274  05CC  160A  118A  26D3   	fcall	_printf
  5275                           
  5276                           ;main.c: 44: return 0.0f;
  5277  05CF  3000               	movlw	0
  5278  05D0  1283               	bcf	3,5	;RP0=0, select bank0
  5279  05D1  1303               	bcf	3,6	;RP1=0, select bank0
  5280  05D2  00B7               	movwf	?_trapezoidal
  5281  05D3  3000               	movlw	0
  5282  05D4  00B8               	movwf	?_trapezoidal+1
  5283  05D5  3000               	movlw	0
  5284  05D6  00B9               	movwf	?_trapezoidal+2
  5285  05D7  0008               	return
  5286  05D8                     i1l4837:	
  5287                           
  5288                           ;main.c: 45: }
  5289                           ;main.c: 46: if (a < x && x <= b){
  5290  05D8  1283               	bcf	3,5	;RP0=0, select bank0
  5291  05D9  1303               	bcf	3,6	;RP1=0, select bank0
  5292  05DA  083A               	movf	trapezoidal@a,w
  5293  05DB  00F0               	movwf	___ftge@ff1
  5294  05DC  083B               	movf	trapezoidal@a+1,w
  5295  05DD  00F1               	movwf	___ftge@ff1+1
  5296  05DE  083C               	movf	trapezoidal@a+2,w
  5297  05DF  00F2               	movwf	___ftge@ff1+2
  5298  05E0  0837               	movf	trapezoidal@x,w
  5299  05E1  00F3               	movwf	___ftge@ff2
  5300  05E2  0838               	movf	trapezoidal@x+1,w
  5301  05E3  00F4               	movwf	___ftge@ff2+1
  5302  05E4  0839               	movf	trapezoidal@x+2,w
  5303  05E5  00F5               	movwf	___ftge@ff2+2
  5304  05E6  120A  158A  218C  120A  118A  	fcall	___ftge
  5305  05EB  1803               	btfsc	3,0
  5306  05EC  2E5E               	goto	i1l4847
  5307  05ED  1283               	bcf	3,5	;RP0=0, select bank0
  5308  05EE  1303               	bcf	3,6	;RP1=0, select bank0
  5309  05EF  083D               	movf	trapezoidal@b,w
  5310  05F0  00F0               	movwf	___ftge@ff1
  5311  05F1  083E               	movf	trapezoidal@b+1,w
  5312  05F2  00F1               	movwf	___ftge@ff1+1
  5313  05F3  083F               	movf	trapezoidal@b+2,w
  5314  05F4  00F2               	movwf	___ftge@ff1+2
  5315  05F5  0837               	movf	trapezoidal@x,w
  5316  05F6  00F3               	movwf	___ftge@ff2
  5317  05F7  0838               	movf	trapezoidal@x+1,w
  5318  05F8  00F4               	movwf	___ftge@ff2+1
  5319  05F9  0839               	movf	trapezoidal@x+2,w
  5320  05FA  00F5               	movwf	___ftge@ff2+2
  5321  05FB  120A  158A  218C  120A  118A  	fcall	___ftge
  5322  0600  1C03               	btfss	3,0
  5323  0601  2E5E               	goto	i1l4847
  5324                           
  5325                           ;main.c: 47: printf("2");
  5326  0602  3082               	movlw	(STR_2-__stringbase)& (0+255)
  5327  0603  160A  118A  26D3  120A  118A  	fcall	_printf
  5328                           
  5329                           ;main.c: 48: return (x-a)/(b-a);
  5330  0608  1283               	bcf	3,5	;RP0=0, select bank0
  5331  0609  1303               	bcf	3,6	;RP1=0, select bank0
  5332  060A  083D               	movf	trapezoidal@b,w
  5333  060B  00F8               	movwf	___ftadd@f1
  5334  060C  083E               	movf	trapezoidal@b+1,w
  5335  060D  00F9               	movwf	___ftadd@f1+1
  5336  060E  083F               	movf	trapezoidal@b+2,w
  5337  060F  00FA               	movwf	___ftadd@f1+2
  5338  0610  083A               	movf	trapezoidal@a,w
  5339  0611  00F0               	movwf	___ftneg@f1
  5340  0612  083B               	movf	trapezoidal@a+1,w
  5341  0613  00F1               	movwf	___ftneg@f1+1
  5342  0614  083C               	movf	trapezoidal@a+2,w
  5343  0615  00F2               	movwf	___ftneg@f1+2
  5344  0616  160A  118A  263C  120A  118A  	fcall	___ftneg
  5345  061B  0870               	movf	?___ftneg,w
  5346  061C  00FB               	movwf	___ftadd@f2
  5347  061D  0871               	movf	?___ftneg+1,w
  5348  061E  00FC               	movwf	___ftadd@f2+1
  5349  061F  0872               	movf	?___ftneg+2,w
  5350  0620  00FD               	movwf	___ftadd@f2+2
  5351  0621  120A  158A  24AC  120A  118A  	fcall	___ftadd
  5352  0626  0878               	movf	?___ftadd,w
  5353  0627  1283               	bcf	3,5	;RP0=0, select bank0
  5354  0628  1303               	bcf	3,6	;RP1=0, select bank0
  5355  0629  00A7               	movwf	___ftdiv@f2
  5356  062A  0879               	movf	?___ftadd+1,w
  5357  062B  00A8               	movwf	___ftdiv@f2+1
  5358  062C  087A               	movf	?___ftadd+2,w
  5359  062D  00A9               	movwf	___ftdiv@f2+2
  5360  062E  0837               	movf	trapezoidal@x,w
  5361  062F  00F8               	movwf	___ftadd@f1
  5362  0630  0838               	movf	trapezoidal@x+1,w
  5363  0631  00F9               	movwf	___ftadd@f1+1
  5364  0632  0839               	movf	trapezoidal@x+2,w
  5365  0633  00FA               	movwf	___ftadd@f1+2
  5366  0634  083A               	movf	trapezoidal@a,w
  5367  0635  00F0               	movwf	___ftneg@f1
  5368  0636  083B               	movf	trapezoidal@a+1,w
  5369  0637  00F1               	movwf	___ftneg@f1+1
  5370  0638  083C               	movf	trapezoidal@a+2,w
  5371  0639  00F2               	movwf	___ftneg@f1+2
  5372  063A  160A  118A  263C  120A  118A  	fcall	___ftneg
  5373  063F  0870               	movf	?___ftneg,w
  5374  0640  00FB               	movwf	___ftadd@f2
  5375  0641  0871               	movf	?___ftneg+1,w
  5376  0642  00FC               	movwf	___ftadd@f2+1
  5377  0643  0872               	movf	?___ftneg+2,w
  5378  0644  00FD               	movwf	___ftadd@f2+2
  5379  0645  120A  158A  24AC  120A  118A  	fcall	___ftadd
  5380  064A  0878               	movf	?___ftadd,w
  5381  064B  1283               	bcf	3,5	;RP0=0, select bank0
  5382  064C  1303               	bcf	3,6	;RP1=0, select bank0
  5383  064D  00AA               	movwf	___ftdiv@f1
  5384  064E  0879               	movf	?___ftadd+1,w
  5385  064F  00AB               	movwf	___ftdiv@f1+1
  5386  0650  087A               	movf	?___ftadd+2,w
  5387  0651  00AC               	movwf	___ftdiv@f1+2
  5388  0652  120A  118A  273D   	fcall	___ftdiv
  5389  0655  1283               	bcf	3,5	;RP0=0, select bank0
  5390  0656  1303               	bcf	3,6	;RP1=0, select bank0
  5391  0657  0827               	movf	?___ftdiv,w
  5392  0658  00B7               	movwf	?_trapezoidal
  5393  0659  0828               	movf	?___ftdiv+1,w
  5394  065A  00B8               	movwf	?_trapezoidal+1
  5395  065B  0829               	movf	?___ftdiv+2,w
  5396  065C  00B9               	movwf	?_trapezoidal+2
  5397  065D  0008               	return
  5398  065E                     i1l4847:	
  5399                           
  5400                           ;main.c: 49: }
  5401                           ;main.c: 50: if (b < x && x <= c){
  5402  065E  1283               	bcf	3,5	;RP0=0, select bank0
  5403  065F  1303               	bcf	3,6	;RP1=0, select bank0
  5404  0660  083D               	movf	trapezoidal@b,w
  5405  0661  00F0               	movwf	___ftge@ff1
  5406  0662  083E               	movf	trapezoidal@b+1,w
  5407  0663  00F1               	movwf	___ftge@ff1+1
  5408  0664  083F               	movf	trapezoidal@b+2,w
  5409  0665  00F2               	movwf	___ftge@ff1+2
  5410  0666  0837               	movf	trapezoidal@x,w
  5411  0667  00F3               	movwf	___ftge@ff2
  5412  0668  0838               	movf	trapezoidal@x+1,w
  5413  0669  00F4               	movwf	___ftge@ff2+1
  5414  066A  0839               	movf	trapezoidal@x+2,w
  5415  066B  00F5               	movwf	___ftge@ff2+2
  5416  066C  120A  158A  218C  120A  118A  	fcall	___ftge
  5417  0671  1803               	btfsc	3,0
  5418  0672  2E95               	goto	i1l4857
  5419  0673  1283               	bcf	3,5	;RP0=0, select bank0
  5420  0674  1303               	bcf	3,6	;RP1=0, select bank0
  5421  0675  0840               	movf	trapezoidal@c,w
  5422  0676  00F0               	movwf	___ftge@ff1
  5423  0677  0841               	movf	trapezoidal@c+1,w
  5424  0678  00F1               	movwf	___ftge@ff1+1
  5425  0679  0842               	movf	trapezoidal@c+2,w
  5426  067A  00F2               	movwf	___ftge@ff1+2
  5427  067B  0837               	movf	trapezoidal@x,w
  5428  067C  00F3               	movwf	___ftge@ff2
  5429  067D  0838               	movf	trapezoidal@x+1,w
  5430  067E  00F4               	movwf	___ftge@ff2+1
  5431  067F  0839               	movf	trapezoidal@x+2,w
  5432  0680  00F5               	movwf	___ftge@ff2+2
  5433  0681  120A  158A  218C  120A  118A  	fcall	___ftge
  5434  0686  1C03               	btfss	3,0
  5435  0687  2E95               	goto	i1l4857
  5436                           
  5437                           ;main.c: 51: printf("3");
  5438  0688  3084               	movlw	(STR_3-__stringbase)& (0+255)
  5439  0689  160A  118A  26D3   	fcall	_printf
  5440                           
  5441                           ;main.c: 52: return 1.0f;
  5442  068C  3000               	movlw	0
  5443  068D  1283               	bcf	3,5	;RP0=0, select bank0
  5444  068E  1303               	bcf	3,6	;RP1=0, select bank0
  5445  068F  00B7               	movwf	?_trapezoidal
  5446  0690  3080               	movlw	128
  5447  0691  00B8               	movwf	?_trapezoidal+1
  5448  0692  303F               	movlw	63
  5449  0693  00B9               	movwf	?_trapezoidal+2
  5450  0694  0008               	return
  5451  0695                     i1l4857:	
  5452                           
  5453                           ;main.c: 53: }
  5454                           ;main.c: 54: if (c < x && x <= d){
  5455  0695  1283               	bcf	3,5	;RP0=0, select bank0
  5456  0696  1303               	bcf	3,6	;RP1=0, select bank0
  5457  0697  0840               	movf	trapezoidal@c,w
  5458  0698  00F0               	movwf	___ftge@ff1
  5459  0699  0841               	movf	trapezoidal@c+1,w
  5460  069A  00F1               	movwf	___ftge@ff1+1
  5461  069B  0842               	movf	trapezoidal@c+2,w
  5462  069C  00F2               	movwf	___ftge@ff1+2
  5463  069D  0837               	movf	trapezoidal@x,w
  5464  069E  00F3               	movwf	___ftge@ff2
  5465  069F  0838               	movf	trapezoidal@x+1,w
  5466  06A0  00F4               	movwf	___ftge@ff2+1
  5467  06A1  0839               	movf	trapezoidal@x+2,w
  5468  06A2  00F5               	movwf	___ftge@ff2+2
  5469  06A3  120A  158A  218C  120A  118A  	fcall	___ftge
  5470  06A8  1803               	btfsc	3,0
  5471  06A9  2F1B               	goto	i1l4867
  5472  06AA  1283               	bcf	3,5	;RP0=0, select bank0
  5473  06AB  1303               	bcf	3,6	;RP1=0, select bank0
  5474  06AC  0843               	movf	trapezoidal@d,w
  5475  06AD  00F0               	movwf	___ftge@ff1
  5476  06AE  0844               	movf	trapezoidal@d+1,w
  5477  06AF  00F1               	movwf	___ftge@ff1+1
  5478  06B0  0845               	movf	trapezoidal@d+2,w
  5479  06B1  00F2               	movwf	___ftge@ff1+2
  5480  06B2  0837               	movf	trapezoidal@x,w
  5481  06B3  00F3               	movwf	___ftge@ff2
  5482  06B4  0838               	movf	trapezoidal@x+1,w
  5483  06B5  00F4               	movwf	___ftge@ff2+1
  5484  06B6  0839               	movf	trapezoidal@x+2,w
  5485  06B7  00F5               	movwf	___ftge@ff2+2
  5486  06B8  120A  158A  218C  120A  118A  	fcall	___ftge
  5487  06BD  1C03               	btfss	3,0
  5488  06BE  2F1B               	goto	i1l4867
  5489                           
  5490                           ;main.c: 55: printf("4");
  5491  06BF  3086               	movlw	(STR_4-__stringbase)& (0+255)
  5492  06C0  160A  118A  26D3  120A  118A  	fcall	_printf
  5493                           
  5494                           ;main.c: 56: return ((d-x)/(d-c));
  5495  06C5  1283               	bcf	3,5	;RP0=0, select bank0
  5496  06C6  1303               	bcf	3,6	;RP1=0, select bank0
  5497  06C7  0843               	movf	trapezoidal@d,w
  5498  06C8  00F8               	movwf	___ftadd@f1
  5499  06C9  0844               	movf	trapezoidal@d+1,w
  5500  06CA  00F9               	movwf	___ftadd@f1+1
  5501  06CB  0845               	movf	trapezoidal@d+2,w
  5502  06CC  00FA               	movwf	___ftadd@f1+2
  5503  06CD  0840               	movf	trapezoidal@c,w
  5504  06CE  00F0               	movwf	___ftneg@f1
  5505  06CF  0841               	movf	trapezoidal@c+1,w
  5506  06D0  00F1               	movwf	___ftneg@f1+1
  5507  06D1  0842               	movf	trapezoidal@c+2,w
  5508  06D2  00F2               	movwf	___ftneg@f1+2
  5509  06D3  160A  118A  263C  120A  118A  	fcall	___ftneg
  5510  06D8  0870               	movf	?___ftneg,w
  5511  06D9  00FB               	movwf	___ftadd@f2
  5512  06DA  0871               	movf	?___ftneg+1,w
  5513  06DB  00FC               	movwf	___ftadd@f2+1
  5514  06DC  0872               	movf	?___ftneg+2,w
  5515  06DD  00FD               	movwf	___ftadd@f2+2
  5516  06DE  120A  158A  24AC  120A  118A  	fcall	___ftadd
  5517  06E3  0878               	movf	?___ftadd,w
  5518  06E4  1283               	bcf	3,5	;RP0=0, select bank0
  5519  06E5  1303               	bcf	3,6	;RP1=0, select bank0
  5520  06E6  00A7               	movwf	___ftdiv@f2
  5521  06E7  0879               	movf	?___ftadd+1,w
  5522  06E8  00A8               	movwf	___ftdiv@f2+1
  5523  06E9  087A               	movf	?___ftadd+2,w
  5524  06EA  00A9               	movwf	___ftdiv@f2+2
  5525  06EB  0843               	movf	trapezoidal@d,w
  5526  06EC  00F8               	movwf	___ftadd@f1
  5527  06ED  0844               	movf	trapezoidal@d+1,w
  5528  06EE  00F9               	movwf	___ftadd@f1+1
  5529  06EF  0845               	movf	trapezoidal@d+2,w
  5530  06F0  00FA               	movwf	___ftadd@f1+2
  5531  06F1  0837               	movf	trapezoidal@x,w
  5532  06F2  00F0               	movwf	___ftneg@f1
  5533  06F3  0838               	movf	trapezoidal@x+1,w
  5534  06F4  00F1               	movwf	___ftneg@f1+1
  5535  06F5  0839               	movf	trapezoidal@x+2,w
  5536  06F6  00F2               	movwf	___ftneg@f1+2
  5537  06F7  160A  118A  263C  120A  118A  	fcall	___ftneg
  5538  06FC  0870               	movf	?___ftneg,w
  5539  06FD  00FB               	movwf	___ftadd@f2
  5540  06FE  0871               	movf	?___ftneg+1,w
  5541  06FF  00FC               	movwf	___ftadd@f2+1
  5542  0700  0872               	movf	?___ftneg+2,w
  5543  0701  00FD               	movwf	___ftadd@f2+2
  5544  0702  120A  158A  24AC  120A  118A  	fcall	___ftadd
  5545  0707  0878               	movf	?___ftadd,w
  5546  0708  1283               	bcf	3,5	;RP0=0, select bank0
  5547  0709  1303               	bcf	3,6	;RP1=0, select bank0
  5548  070A  00AA               	movwf	___ftdiv@f1
  5549  070B  0879               	movf	?___ftadd+1,w
  5550  070C  00AB               	movwf	___ftdiv@f1+1
  5551  070D  087A               	movf	?___ftadd+2,w
  5552  070E  00AC               	movwf	___ftdiv@f1+2
  5553  070F  120A  118A  273D   	fcall	___ftdiv
  5554  0712  1283               	bcf	3,5	;RP0=0, select bank0
  5555  0713  1303               	bcf	3,6	;RP1=0, select bank0
  5556  0714  0827               	movf	?___ftdiv,w
  5557  0715  00B7               	movwf	?_trapezoidal
  5558  0716  0828               	movf	?___ftdiv+1,w
  5559  0717  00B8               	movwf	?_trapezoidal+1
  5560  0718  0829               	movf	?___ftdiv+2,w
  5561  0719  00B9               	movwf	?_trapezoidal+2
  5562  071A  0008               	return
  5563  071B                     i1l4867:	
  5564                           
  5565                           ;main.c: 57: }
  5566                           ;main.c: 58: if (x > d){
  5567  071B  1283               	bcf	3,5	;RP0=0, select bank0
  5568  071C  1303               	bcf	3,6	;RP1=0, select bank0
  5569  071D  0843               	movf	trapezoidal@d,w
  5570  071E  00F0               	movwf	___ftge@ff1
  5571  071F  0844               	movf	trapezoidal@d+1,w
  5572  0720  00F1               	movwf	___ftge@ff1+1
  5573  0721  0845               	movf	trapezoidal@d+2,w
  5574  0722  00F2               	movwf	___ftge@ff1+2
  5575  0723  0837               	movf	trapezoidal@x,w
  5576  0724  00F3               	movwf	___ftge@ff2
  5577  0725  0838               	movf	trapezoidal@x+1,w
  5578  0726  00F4               	movwf	___ftge@ff2+1
  5579  0727  0839               	movf	trapezoidal@x+2,w
  5580  0728  00F5               	movwf	___ftge@ff2+2
  5581  0729  120A  158A  218C  120A  118A  	fcall	___ftge
  5582  072E  1803               	btfsc	3,0
  5583  072F  0008               	return
  5584                           
  5585                           ;main.c: 59: printf("5");
  5586  0730  3088               	movlw	(STR_5-__stringbase)& (0+255)
  5587  0731  160A  118A  26D3   	fcall	_printf
  5588                           
  5589                           ;main.c: 60: return 0.0f;
  5590  0734  3000               	movlw	0
  5591  0735  1283               	bcf	3,5	;RP0=0, select bank0
  5592  0736  1303               	bcf	3,6	;RP1=0, select bank0
  5593  0737  00B7               	movwf	?_trapezoidal
  5594  0738  3000               	movlw	0
  5595  0739  00B8               	movwf	?_trapezoidal+1
  5596  073A  3000               	movlw	0
  5597  073B  00B9               	movwf	?_trapezoidal+2
  5598  073C  0008               	return
  5599  073D                     __end_of_trapezoidal:	
  5600                           
  5601                           	psect	text28
  5602  16D3                     __ptext28:	
  5603 ;; *************** function _printf *****************
  5604 ;; Defined at:
  5605 ;;		line 13 in file "C:\Program Files (x86)\Microchip\xc8\v1.33\sources\common\printf.c"
  5606 ;; Parameters:    Size  Location     Type
  5607 ;;  f               1    wreg     PTR const unsigned char 
  5608 ;;		 -> STR_5(2), STR_4(2), STR_3(2), STR_2(2), 
  5609 ;;		 -> STR_1(2), 
  5610 ;; Auto vars:     Size  Location     Type
  5611 ;;  f               1   17[BANK0 ] PTR const unsigned char 
  5612 ;;		 -> STR_5(2), STR_4(2), STR_3(2), STR_2(2), 
  5613 ;;		 -> STR_1(2), 
  5614 ;;  pb              2   19[BANK0 ] struct __prbuf
  5615 ;;  ap              1   18[BANK0 ] PTR void [1]
  5616 ;;		 -> ?_sprintf(2), ?_printf(2), 
  5617 ;; Return value:  Size  Location     Type
  5618 ;;                  2    2[COMMON] int 
  5619 ;; Registers used:
  5620 ;;		wreg, fsr0l, fsr0h, status,2, status,0, btemp+1, pclath, cstack
  5621 ;; Tracked objects:
  5622 ;;		On entry : 0/0
  5623 ;;		On exit  : 0/0
  5624 ;;		Unchanged: 0/0
  5625 ;; Data sizes:     COMMON   BANK0   BANK1   BANK3   BANK2
  5626 ;;      Params:         0       0       0       0       0
  5627 ;;      Locals:         0       4       0       0       0
  5628 ;;      Temps:          0       2       0       0       0
  5629 ;;      Totals:         0       6       0       0       0
  5630 ;;Total ram usage:        6 bytes
  5631 ;; Hardware stack levels used:    1
  5632 ;; Hardware stack levels required when called:    2
  5633 ;; This function calls:
  5634 ;;		i1__doprnt
  5635 ;; This function is called by:
  5636 ;;		_trapezoidal
  5637 ;; This function uses a non-reentrant model
  5638 ;;
  5639                           
  5640                           
  5641                           ;psect for function _printf
  5642  16D3                     _printf:	
  5643                           
  5644                           ;incstack = 0
  5645                           ; Regs used in _printf: [wreg-fsr0h+status,2+status,0+btemp+1+pclath+cstack]
  5646                           ;printf@f stored from wreg
  5647  16D3  1283               	bcf	3,5	;RP0=0, select bank0
  5648  16D4  1303               	bcf	3,6	;RP1=0, select bank0
  5649  16D5  00B1               	movwf	printf@f
  5650  16D6  01B3               	clrf	printf@pb
  5651  16D7  3001               	movlw	(fp_i1_putch-i1fpbase)& (0+255)
  5652  16D8  00AF               	movwf	??_printf
  5653  16D9  082F               	movf	??_printf,w
  5654  16DA  00B4               	movwf	printf@pb+1
  5655  16DB  3070               	movlw	?_printf& (0+255)
  5656  16DC  00AF               	movwf	??_printf
  5657  16DD  082F               	movf	??_printf,w
  5658  16DE  00B2               	movwf	printf@ap
  5659                           
  5660                           ;	Return value of _printf is never used
  5661  16DF  0831               	movf	printf@f,w
  5662  16E0  00AF               	movwf	??_printf
  5663  16E1  082F               	movf	??_printf,w
  5664  16E2  00A0               	movwf	i1__doprnt@f
  5665  16E3  3032               	movlw	printf@ap& (0+255)
  5666  16E4  00B0               	movwf	??_printf+1
  5667  16E5  0830               	movf	??_printf+1,w
  5668  16E6  00A1               	movwf	i1__doprnt@ap
  5669  16E7  3033               	movlw	printf@pb& (0+255)
  5670  16E8  120A  118A  2365   	fcall	i1__doprnt
  5671  16EB  0008               	return
  5672  16EC                     __end_of_printf:	
  5673                           
  5674                           	psect	text29
  5675  0365                     __ptext29:	
  5676 ;; *************** function i1__doprnt *****************
  5677 ;; Defined at:
  5678 ;;		line 458 in file "C:\Program Files (x86)\Microchip\xc8\v1.33\sources\common\doprnt.c"
  5679 ;; Parameters:    Size  Location     Type
  5680 ;;  pb              1    wreg     PTR struct __prbuf
  5681 ;;		 -> sprintf@pb(2), printf@pb(2), 
  5682 ;;  f               1    0[BANK0 ] PTR const unsigned char 
  5683 ;;		 -> STR_9(5), STR_5(2), STR_4(2), STR_3(2), 
  5684 ;;		 -> STR_2(2), STR_1(2), 
  5685 ;;  ap              1    1[BANK0 ] PTR PTR void 
  5686 ;;		 -> sprintf@ap(1), printf@ap(1), 
  5687 ;; Auto vars:     Size  Location     Type
  5688 ;;  pb              1   14[BANK0 ] PTR struct __prbuf
  5689 ;;		 -> sprintf@pb(2), printf@pb(2), 
  5690 ;;  _doprnt         4    6[BANK0 ] struct .
  5691 ;;  _doprnt         2   11[BANK0 ] int 
  5692 ;;  _doprnt         1   13[BANK0 ] char 
  5693 ;;  _doprnt         1   10[BANK0 ] unsigned char 
  5694 ;;  _doprnt         1    5[BANK0 ] char 
  5695 ;; Return value:  Size  Location     Type
  5696 ;;                  2    0[BANK0 ] int 
  5697 ;; Registers used:
  5698 ;;		wreg, fsr0l, fsr0h, status,2, status,0, btemp+1, pclath, cstack
  5699 ;; Tracked objects:
  5700 ;;		On entry : 0/0
  5701 ;;		On exit  : 0/0
  5702 ;;		Unchanged: 0/0
  5703 ;; Data sizes:     COMMON   BANK0   BANK1   BANK3   BANK2
  5704 ;;      Params:         0       2       0       0       0
  5705 ;;      Locals:         0      10       0       0       0
  5706 ;;      Temps:          0       3       0       0       0
  5707 ;;      Totals:         0      15       0       0       0
  5708 ;;Total ram usage:       15 bytes
  5709 ;; Hardware stack levels used:    1
  5710 ;; Hardware stack levels required when called:    1
  5711 ;; This function calls:
  5712 ;;		Absolute function
  5713 ;;		i1___lwdiv
  5714 ;;		i1___lwmod
  5715 ;;		i1___wmul
  5716 ;;		i1_isdigit
  5717 ;;		i1_putch
  5718 ;; This function is called by:
  5719 ;;		_printf
  5720 ;; This function uses a non-reentrant model
  5721 ;;
  5722                           
  5723                           
  5724                           ;psect for function i1__doprnt
  5725  0365                     i1__doprnt:	
  5726                           
  5727                           ;incstack = 0
  5728 ;; using string table level
  5729                           ; Regs used in i1__doprnt: [wreg-fsr0h+status,2+status,0+btemp+1+pclath+cstack]
  5730                           ;i1__doprnt@pb stored from wreg
  5731  0365  1283               	bcf	3,5	;RP0=0, select bank0
  5732  0366  1303               	bcf	3,6	;RP1=0, select bank0
  5733  0367  00AE               	movwf	i1__doprnt@pb
  5734  0368                     i1l4681:	
  5735                           ;doprnt.c: 499: signed char c;
  5736                           ;doprnt.c: 501: int width;
  5737                           ;doprnt.c: 506: signed char prec;
  5738                           ;doprnt.c: 508: unsigned char flag;
  5739                           ;doprnt.c: 527: union {
  5740                           ;doprnt.c: 528: unsigned int _val;
  5741                           ;doprnt.c: 529: struct {
  5742                           ;doprnt.c: 530: const char * _cp;
  5743                           ;doprnt.c: 531: unsigned _len;
  5744                           ;doprnt.c: 532: } _str;
  5745                           ;doprnt.c: 533: } _val;
  5746                           ;doprnt.c: 545: while(c = *f++) {
  5747                           
  5748  0368  3001               	movlw	1
  5749  0369  1283               	bcf	3,5	;RP0=0, select bank0
  5750  036A  1303               	bcf	3,6	;RP1=0, select bank0
  5751  036B  07A0               	addwf	i1__doprnt@f,f
  5752  036C  30FF               	movlw	-1
  5753  036D  0720               	addwf	i1__doprnt@f,w
  5754  036E  0084               	movwf	4
  5755  036F  120A  118A  2042  120A  118A  	fcall	stringdir
  5756  0374  00A2               	movwf	??i1__doprnt
  5757  0375  0822               	movf	??i1__doprnt,w
  5758  0376  00AD               	movwf	i1__doprnt@c
  5759  0377  08AD               	movf	i1__doprnt@c,f
  5760  0378  1903               	btfsc	3,2
  5761  0379  2DB1               	goto	i1l4683
  5762                           
  5763                           ;doprnt.c: 547: if(c != '%')
  5764  037A  082D               	movf	i1__doprnt@c,w
  5765  037B  3A25               	xorlw	37
  5766  037C  1903               	skipnz
  5767  037D  2BA3               	goto	i1l4567
  5768                           
  5769                           ;doprnt.c: 549: {
  5770                           ;doprnt.c: 550: if(pb->func) (pb->func(c)); else ((*pb->ptr++ = c));
  5771  037E  0A2E               	incf	i1__doprnt@pb,w
  5772  037F  0084               	movwf	4
  5773  0380  1383               	bcf	3,7	;select IRP bank0
  5774  0381  0880               	movf	0,f
  5775  0382  1903               	skipnz
  5776  0383  2B91               	goto	i1l4563
  5777  0384  082D               	movf	i1__doprnt@c,w
  5778  0385  00A2               	movwf	??i1__doprnt
  5779  0386  0822               	movf	??i1__doprnt,w
  5780  0387  00F0               	movwf	i1putch@c
  5781  0388  0A2E               	incf	i1__doprnt@pb,w
  5782  0389  0084               	movwf	4
  5783  038A  0800               	movf	0,w
  5784  038B  120A  118A  2109  120A  118A  	fcall	i1fptable
  5785  0390  2B68               	goto	i1l4681
  5786  0391                     i1l4563:	
  5787  0391  1283               	bcf	3,5	;RP0=0, select bank0
  5788  0392  1303               	bcf	3,6	;RP1=0, select bank0
  5789  0393  082D               	movf	i1__doprnt@c,w
  5790  0394  00A2               	movwf	??i1__doprnt
  5791  0395  082E               	movf	i1__doprnt@pb,w
  5792  0396  0084               	movwf	4
  5793  0397  1383               	bcf	3,7	;select IRP bank0
  5794  0398  0800               	movf	0,w
  5795  0399  0084               	movwf	4
  5796  039A  0822               	movf	??i1__doprnt,w
  5797  039B  0080               	movwf	0
  5798  039C  3001               	movlw	1
  5799  039D  00A2               	movwf	??i1__doprnt
  5800  039E  082E               	movf	i1__doprnt@pb,w
  5801  039F  0084               	movwf	4
  5802  03A0  0822               	movf	??i1__doprnt,w
  5803  03A1  0780               	addwf	0,f
  5804                           
  5805                           ;doprnt.c: 551: continue;
  5806  03A2  2B68               	goto	i1l4681
  5807  03A3                     i1l4567:	
  5808                           
  5809                           ;doprnt.c: 552: }
  5810                           ;doprnt.c: 555: width = 0;
  5811  03A3  01AB               	clrf	i1__doprnt@width
  5812  03A4  01AC               	clrf	i1__doprnt@width+1
  5813                           
  5814                           ;doprnt.c: 557: flag = 0;
  5815  03A5  01AA               	clrf	i1__doprnt@flag
  5816                           
  5817                           ;doprnt.c: 560: switch(*f) {
  5818                           
  5819                           ;doprnt.c: 559: for(;;) {
  5820  03A6  2BAC               	goto	i1l4573
  5821  03A7                     i1l387:	
  5822                           ;doprnt.c: 588: case '0':
  5823                           
  5824                           
  5825                           ;doprnt.c: 589: flag |= 0x04;
  5826  03A7  152A               	bsf	i1__doprnt@flag,2
  5827                           
  5828                           ;doprnt.c: 590: f++;
  5829  03A8  3001               	movlw	1
  5830  03A9  00A2               	movwf	??i1__doprnt
  5831  03AA  0822               	movf	??i1__doprnt,w
  5832  03AB  07A0               	addwf	i1__doprnt@f,f
  5833  03AC                     i1l4573:	
  5834                           ;doprnt.c: 593: }
  5835                           
  5836                           ;doprnt.c: 591: continue;
  5837                           
  5838  03AC  0820               	movf	i1__doprnt@f,w
  5839  03AD  0084               	movwf	4
  5840  03AE  120A  118A  2042  120A  118A  	fcall	stringdir
  5841                           
  5842                           ; Switch size 1, requested type "space"
  5843                           ; Number of cases is 1, Range of values is 48 to 48
  5844                           ; switch strategies available:
  5845                           ; Name         Instructions Cycles
  5846                           ; simple_byte            4     3 (average)
  5847                           ; direct_byte           14    11 (fixed)
  5848                           ; jumptable            263     9 (fixed)
  5849                           ;	Chosen strategy is simple_byte
  5850  03B3  3A30               	xorlw	48	; case 48
  5851  03B4  1903               	skipnz
  5852  03B5  2BA7               	goto	i1l387
  5853  03B6  2BB7               	goto	i1l4575
  5854  03B7                     i1l4575:	
  5855                           ;doprnt.c: 595: }
  5856                           
  5857                           ;doprnt.c: 594: break;
  5858                           
  5859                           
  5860                           ;doprnt.c: 606: if(isdigit((unsigned)*f)) {
  5861  03B7  0820               	movf	i1__doprnt@f,w
  5862  03B8  0084               	movwf	4
  5863  03B9  120A  118A  2042  120A  118A  	fcall	stringdir
  5864  03BE  160A  118A  2661  120A  118A  	fcall	i1_isdigit
  5865  03C3  1C03               	btfss	3,0
  5866  03C4  2C07               	goto	i1l4589
  5867                           
  5868                           ;doprnt.c: 607: width = 0;
  5869  03C5  1283               	bcf	3,5	;RP0=0, select bank0
  5870  03C6  1303               	bcf	3,6	;RP1=0, select bank0
  5871  03C7  01AB               	clrf	i1__doprnt@width
  5872  03C8  01AC               	clrf	i1__doprnt@width+1
  5873  03C9                     i1l4579:	
  5874                           ;doprnt.c: 608: do {
  5875                           
  5876                           
  5877                           ;doprnt.c: 609: width *= 10;
  5878  03C9  300A               	movlw	10
  5879  03CA  00F0               	movwf	i1___wmul@multiplier
  5880  03CB  3000               	movlw	0
  5881  03CC  00F1               	movwf	i1___wmul@multiplier+1
  5882  03CD  1283               	bcf	3,5	;RP0=0, select bank0
  5883  03CE  1303               	bcf	3,6	;RP1=0, select bank0
  5884  03CF  082C               	movf	i1__doprnt@width+1,w
  5885  03D0  01F3               	clrf	i1___wmul@multiplicand+1
  5886  03D1  07F3               	addwf	i1___wmul@multiplicand+1,f
  5887  03D2  082B               	movf	i1__doprnt@width,w
  5888  03D3  01F2               	clrf	i1___wmul@multiplicand
  5889  03D4  07F2               	addwf	i1___wmul@multiplicand,f
  5890  03D5  160A  118A  2788  120A  118A  	fcall	i1___wmul
  5891  03DA  0871               	movf	?i1___wmul+1,w
  5892  03DB  1283               	bcf	3,5	;RP0=0, select bank0
  5893  03DC  1303               	bcf	3,6	;RP1=0, select bank0
  5894  03DD  01AC               	clrf	i1__doprnt@width+1
  5895  03DE  07AC               	addwf	i1__doprnt@width+1,f
  5896  03DF  0870               	movf	?i1___wmul,w
  5897  03E0  01AB               	clrf	i1__doprnt@width
  5898  03E1  07AB               	addwf	i1__doprnt@width,f
  5899                           
  5900                           ;doprnt.c: 610: width += *f++ - '0';
  5901  03E2  0820               	movf	i1__doprnt@f,w
  5902  03E3  0084               	movwf	4
  5903  03E4  120A  118A  2042  120A  118A  	fcall	stringdir
  5904  03E9  3ED0               	addlw	208
  5905  03EA  00A2               	movwf	??i1__doprnt
  5906  03EB  30FF               	movlw	255
  5907  03EC  1803               	skipnc
  5908  03ED  3000               	movlw	0
  5909  03EE  00A3               	movwf	??i1__doprnt+1
  5910  03EF  0822               	movf	??i1__doprnt,w
  5911  03F0  07AB               	addwf	i1__doprnt@width,f
  5912  03F1  1803               	skipnc
  5913  03F2  0AAC               	incf	i1__doprnt@width+1,f
  5914  03F3  0823               	movf	??i1__doprnt+1,w
  5915  03F4  07AC               	addwf	i1__doprnt@width+1,f
  5916  03F5  3001               	movlw	1
  5917  03F6  00A2               	movwf	??i1__doprnt
  5918  03F7  0822               	movf	??i1__doprnt,w
  5919  03F8  07A0               	addwf	i1__doprnt@f,f
  5920                           
  5921                           ;doprnt.c: 611: } while(isdigit((unsigned)*f));
  5922  03F9  0820               	movf	i1__doprnt@f,w
  5923  03FA  0084               	movwf	4
  5924  03FB  120A  118A  2042  120A  118A  	fcall	stringdir
  5925  0400  160A  118A  2661  120A  118A  	fcall	i1_isdigit
  5926  0405  1803               	btfsc	3,0
  5927  0406  2BC9               	goto	i1l4579
  5928  0407                     i1l4589:	
  5929                           ;doprnt.c: 831: }
  5930                           
  5931                           ;doprnt.c: 822: continue;
  5932                           
  5933                           ;doprnt.c: 811: default:
  5934                           
  5935                           ;doprnt.c: 707: case 'i':
  5936                           ;doprnt.c: 708: break;
  5937                           
  5938                           ;doprnt.c: 706: case 'd':
  5939                           
  5940                           ;doprnt.c: 647: goto alldone;
  5941                           
  5942                           ;doprnt.c: 646: case 0:
  5943                           
  5944                           ;doprnt.c: 617: }
  5945                           ;doprnt.c: 644: switch(c = *f++) {
  5946                           
  5947  0407  3001               	movlw	1
  5948  0408  1283               	bcf	3,5	;RP0=0, select bank0
  5949  0409  1303               	bcf	3,6	;RP1=0, select bank0
  5950  040A  07A0               	addwf	i1__doprnt@f,f
  5951  040B  30FF               	movlw	-1
  5952  040C  0720               	addwf	i1__doprnt@f,w
  5953  040D  0084               	movwf	4
  5954  040E  120A  118A  2042  120A  118A  	fcall	stringdir
  5955  0413  00AD               	movwf	i1__doprnt@c
  5956                           
  5957                           ; Switch size 1, requested type "space"
  5958                           ; Number of cases is 3, Range of values is 0 to 105
  5959                           ; switch strategies available:
  5960                           ; Name         Instructions Cycles
  5961                           ; simple_byte           10     6 (average)
  5962                           ; jumptable            260     6 (fixed)
  5963                           ;	Chosen strategy is simple_byte
  5964  0414  3A00               	xorlw	0	; case 0
  5965  0415  1903               	skipnz
  5966  0416  2DB1               	goto	i1l4683
  5967  0417  3A64               	xorlw	100	; case 100
  5968  0418  1903               	skipnz
  5969  0419  2C1E               	goto	i1l4591
  5970  041A  3A0D               	xorlw	13	; case 105
  5971  041B  1903               	skipnz
  5972  041C  2C1E               	goto	i1l4591
  5973  041D  2B68               	goto	i1l4681
  5974  041E                     i1l4591:	
  5975                           
  5976                           ;doprnt.c: 1262: {
  5977                           ;doprnt.c: 1268: _val._val = (int)(*(int *)__va_arg((*(int **)ap), (int)0));
  5978  041E  1283               	bcf	3,5	;RP0=0, select bank0
  5979  041F  1303               	bcf	3,6	;RP1=0, select bank0
  5980  0420  0821               	movf	i1__doprnt@ap,w
  5981  0421  0084               	movwf	4
  5982  0422  1383               	bcf	3,7	;select IRP bank0
  5983  0423  0800               	movf	0,w
  5984  0424  00A2               	movwf	??i1__doprnt
  5985  0425  3002               	movlw	2
  5986  0426  0780               	addwf	0,f
  5987  0427  0822               	movf	??i1__doprnt,w
  5988  0428  0084               	movwf	4
  5989  0429  0800               	movf	0,w
  5990  042A  00A6               	movwf	i1__doprnt@_val
  5991  042B  0A84               	incf	4,f
  5992  042C  0800               	movf	0,w
  5993  042D  00A7               	movwf	i1__doprnt@_val+1
  5994                           
  5995                           ;doprnt.c: 1270: if((int)_val._val < 0) {
  5996  042E  1FA7               	btfss	i1__doprnt@_val+1,7
  5997  042F  2C39               	goto	i1l4599
  5998                           
  5999                           ;doprnt.c: 1271: flag |= 0x03;
  6000  0430  3003               	movlw	3
  6001  0431  00A2               	movwf	??i1__doprnt
  6002  0432  0822               	movf	??i1__doprnt,w
  6003  0433  04AA               	iorwf	i1__doprnt@flag,f
  6004                           
  6005                           ;doprnt.c: 1272: _val._val = -_val._val;
  6006  0434  09A6               	comf	i1__doprnt@_val,f
  6007  0435  09A7               	comf	i1__doprnt@_val+1,f
  6008  0436  0AA6               	incf	i1__doprnt@_val,f
  6009  0437  1903               	skipnz
  6010  0438  0AA7               	incf	i1__doprnt@_val+1,f
  6011  0439                     i1l4599:	
  6012                           
  6013                           ;doprnt.c: 1273: }
  6014                           ;doprnt.c: 1275: }
  6015                           ;doprnt.c: 1314: for(c = 1 ; c != sizeof dpowers/sizeof dpowers[0] ; c++)
  6016  0439  01AD               	clrf	i1__doprnt@c
  6017  043A  0AAD               	incf	i1__doprnt@c,f
  6018  043B  082D               	movf	i1__doprnt@c,w
  6019  043C  3A05               	xorlw	5
  6020  043D  1903               	btfsc	3,2
  6021  043E  2C60               	goto	i1l4611
  6022  043F                     i1l4603:	
  6023                           
  6024                           ;doprnt.c: 1315: if(_val._val < dpowers[c])
  6025  043F  082D               	movf	i1__doprnt@c,w
  6026  0440  00A2               	movwf	??i1__doprnt
  6027  0441  0722               	addwf	??i1__doprnt,w
  6028  0442  3E01               	addlw	low (_dpowers-__stringbase)
  6029  0443  0084               	movwf	4
  6030  0444  120A  118A  2042  120A  118A  	fcall	stringdir
  6031  0449  00A3               	movwf	??i1__doprnt+1
  6032  044A  120A  118A  2042  120A  118A  	fcall	stringdir
  6033  044F  00A4               	movwf	??i1__doprnt+2
  6034  0450  0824               	movf	??i1__doprnt+2,w
  6035  0451  0227               	subwf	i1__doprnt@_val+1,w
  6036  0452  1D03               	skipz
  6037  0453  2C56               	goto	u610_25
  6038  0454  0823               	movf	??i1__doprnt+1,w
  6039  0455  0226               	subwf	i1__doprnt@_val,w
  6040  0456                     u610_25:	
  6041  0456  1C03               	btfss	3,0
  6042  0457  2C60               	goto	i1l4611
  6043                           
  6044                           ;doprnt.c: 1316: break;
  6045  0458  3001               	movlw	1
  6046  0459  00A2               	movwf	??i1__doprnt
  6047  045A  0822               	movf	??i1__doprnt,w
  6048  045B  07AD               	addwf	i1__doprnt@c,f
  6049  045C  082D               	movf	i1__doprnt@c,w
  6050  045D  3A05               	xorlw	5
  6051  045E  1D03               	skipz
  6052  045F  2C3F               	goto	i1l4603
  6053  0460                     i1l4611:	
  6054                           
  6055                           ;doprnt.c: 1354: if(width && flag & 0x03)
  6056  0460  082C               	movf	i1__doprnt@width+1,w
  6057  0461  042B               	iorwf	i1__doprnt@width,w
  6058  0462  1903               	skipnz
  6059  0463  2C6E               	goto	i1l405
  6060  0464  082A               	movf	i1__doprnt@flag,w
  6061  0465  3903               	andlw	3
  6062  0466  1903               	btfsc	3,2
  6063  0467  2C6E               	goto	i1l405
  6064                           
  6065                           ;doprnt.c: 1355: width--;
  6066  0468  30FF               	movlw	255
  6067  0469  07AB               	addwf	i1__doprnt@width,f
  6068  046A  1803               	skipnc
  6069  046B  0AAC               	incf	i1__doprnt@width+1,f
  6070  046C  30FF               	movlw	255
  6071  046D  07AC               	addwf	i1__doprnt@width+1,f
  6072  046E                     i1l405:	
  6073                           
  6074                           ;doprnt.c: 1390: if(width > c)
  6075  046E  082D               	movf	i1__doprnt@c,w
  6076  046F  00A2               	movwf	??i1__doprnt
  6077  0470  01A3               	clrf	??i1__doprnt+1
  6078  0471  1BA2               	btfsc	??i1__doprnt,7
  6079  0472  03A3               	decf	??i1__doprnt+1,f
  6080  0473  0823               	movf	??i1__doprnt+1,w
  6081  0474  3A80               	xorlw	128
  6082  0475  00A4               	movwf	??i1__doprnt+2
  6083  0476  082C               	movf	i1__doprnt@width+1,w
  6084  0477  3A80               	xorlw	128
  6085  0478  0224               	subwf	??i1__doprnt+2,w
  6086  0479  1D03               	skipz
  6087  047A  2C7D               	goto	u614_25
  6088  047B  082B               	movf	i1__doprnt@width,w
  6089  047C  0222               	subwf	??i1__doprnt,w
  6090  047D                     u614_25:	
  6091  047D  1803               	skipnc
  6092  047E  2C8D               	goto	i1l4619
  6093                           
  6094                           ;doprnt.c: 1391: width -= c;
  6095  047F  1283               	bcf	3,5	;RP0=0, select bank0
  6096  0480  1303               	bcf	3,6	;RP1=0, select bank0
  6097  0481  082D               	movf	i1__doprnt@c,w
  6098  0482  00A2               	movwf	??i1__doprnt
  6099  0483  01A3               	clrf	??i1__doprnt+1
  6100  0484  1BA2               	btfsc	??i1__doprnt,7
  6101  0485  03A3               	decf	??i1__doprnt+1,f
  6102  0486  0822               	movf	??i1__doprnt,w
  6103  0487  02AB               	subwf	i1__doprnt@width,f
  6104  0488  0823               	movf	??i1__doprnt+1,w
  6105  0489  1C03               	skipc
  6106  048A  03AC               	decf	i1__doprnt@width+1,f
  6107  048B  02AC               	subwf	i1__doprnt@width+1,f
  6108  048C  2C91               	goto	i1l4621
  6109  048D                     i1l4619:	
  6110                           
  6111                           ;doprnt.c: 1392: else
  6112                           ;doprnt.c: 1393: width = 0;
  6113  048D  1283               	bcf	3,5	;RP0=0, select bank0
  6114  048E  1303               	bcf	3,6	;RP1=0, select bank0
  6115  048F  01AB               	clrf	i1__doprnt@width
  6116  0490  01AC               	clrf	i1__doprnt@width+1
  6117  0491                     i1l4621:	
  6118                           
  6119                           ;doprnt.c: 1396: if(flag & 0x04) {
  6120  0491  1D2A               	btfss	i1__doprnt@flag,2
  6121  0492  2CEE               	goto	i1l4645
  6122                           
  6123                           ;doprnt.c: 1401: if(flag & 0x03)
  6124  0493  082A               	movf	i1__doprnt@flag,w
  6125  0494  3903               	andlw	3
  6126  0495  1903               	btfsc	3,2
  6127  0496  2CBB               	goto	i1l4633
  6128                           
  6129                           ;doprnt.c: 1402: if(pb->func) (pb->func('-')); else ((*pb->ptr++ = '-'));
  6130  0497  0A2E               	incf	i1__doprnt@pb,w
  6131  0498  0084               	movwf	4
  6132  0499  1383               	bcf	3,7	;select IRP bank0
  6133  049A  0880               	movf	0,f
  6134  049B  1903               	skipnz
  6135  049C  2CAA               	goto	i1l4629
  6136  049D  302D               	movlw	45
  6137  049E  00A2               	movwf	??i1__doprnt
  6138  049F  0822               	movf	??i1__doprnt,w
  6139  04A0  00F0               	movwf	i1putch@c
  6140  04A1  0A2E               	incf	i1__doprnt@pb,w
  6141  04A2  0084               	movwf	4
  6142  04A3  0800               	movf	0,w
  6143  04A4  120A  118A  2109  120A  118A  	fcall	i1fptable
  6144  04A9  2CBB               	goto	i1l4633
  6145  04AA                     i1l4629:	
  6146  04AA  302D               	movlw	45
  6147  04AB  1283               	bcf	3,5	;RP0=0, select bank0
  6148  04AC  1303               	bcf	3,6	;RP1=0, select bank0
  6149  04AD  00A2               	movwf	??i1__doprnt
  6150  04AE  082E               	movf	i1__doprnt@pb,w
  6151  04AF  0084               	movwf	4
  6152  04B0  1383               	bcf	3,7	;select IRP bank0
  6153  04B1  0800               	movf	0,w
  6154  04B2  0084               	movwf	4
  6155  04B3  0822               	movf	??i1__doprnt,w
  6156  04B4  0080               	movwf	0
  6157  04B5  3001               	movlw	1
  6158  04B6  00A2               	movwf	??i1__doprnt
  6159  04B7  082E               	movf	i1__doprnt@pb,w
  6160  04B8  0084               	movwf	4
  6161  04B9  0822               	movf	??i1__doprnt,w
  6162  04BA  0780               	addwf	0,f
  6163  04BB                     i1l4633:	
  6164                           
  6165                           ;doprnt.c: 1424: if(width)
  6166  04BB  1283               	bcf	3,5	;RP0=0, select bank0
  6167  04BC  1303               	bcf	3,6	;RP1=0, select bank0
  6168  04BD                     L5:	
  6169  04BD  082C               	movf	i1__doprnt@width+1,w
  6170  04BE  042B               	iorwf	i1__doprnt@width,w
  6171  04BF  1903               	skipnz
  6172  04C0  2D4A               	goto	i1l4667
  6173                           
  6174                           ;doprnt.c: 1426: if(pb->func) (pb->func('0')); else ((*pb->ptr++ = '0'));
  6175                           
  6176                           ;doprnt.c: 1425: do
  6177  04C1  0A2E               	incf	i1__doprnt@pb,w
  6178  04C2  0084               	movwf	4
  6179  04C3  1383               	bcf	3,7	;select IRP bank0
  6180  04C4  0880               	movf	0,f
  6181  04C5  1903               	skipnz
  6182  04C6  2CD4               	goto	i1l4639
  6183  04C7  3030               	movlw	48
  6184  04C8  00A2               	movwf	??i1__doprnt
  6185  04C9  0822               	movf	??i1__doprnt,w
  6186  04CA  00F0               	movwf	i1putch@c
  6187  04CB  0A2E               	incf	i1__doprnt@pb,w
  6188  04CC  0084               	movwf	4
  6189  04CD  0800               	movf	0,w
  6190  04CE  120A  118A  2109  120A  118A  	fcall	i1fptable
  6191  04D3  2CE5               	goto	i1l4643
  6192  04D4                     i1l4639:	
  6193  04D4  3030               	movlw	48
  6194  04D5  1283               	bcf	3,5	;RP0=0, select bank0
  6195  04D6  1303               	bcf	3,6	;RP1=0, select bank0
  6196  04D7  00A2               	movwf	??i1__doprnt
  6197  04D8  082E               	movf	i1__doprnt@pb,w
  6198  04D9  0084               	movwf	4
  6199  04DA  1383               	bcf	3,7	;select IRP bank0
  6200  04DB  0800               	movf	0,w
  6201  04DC  0084               	movwf	4
  6202  04DD  0822               	movf	??i1__doprnt,w
  6203  04DE  0080               	movwf	0
  6204  04DF  3001               	movlw	1
  6205  04E0  00A2               	movwf	??i1__doprnt
  6206  04E1  082E               	movf	i1__doprnt@pb,w
  6207  04E2  0084               	movwf	4
  6208  04E3  0822               	movf	??i1__doprnt,w
  6209  04E4  0780               	addwf	0,f
  6210  04E5                     i1l4643:	
  6211                           
  6212                           ;doprnt.c: 1427: while(--width);
  6213  04E5  30FF               	movlw	255
  6214  04E6  1283               	bcf	3,5	;RP0=0, select bank0
  6215  04E7  1303               	bcf	3,6	;RP1=0, select bank0
  6216  04E8  07AB               	addwf	i1__doprnt@width,f
  6217  04E9  1803               	skipnc
  6218  04EA  0AAC               	incf	i1__doprnt@width+1,f
  6219  04EB  30FF               	movlw	255
  6220  04EC  07AC               	addwf	i1__doprnt@width+1,f
  6221  04ED  2CBD               	goto	L5
  6222  04EE                     i1l4645:	
  6223                           ;doprnt.c: 1429: } else
  6224                           
  6225                           
  6226                           ;doprnt.c: 1431: {
  6227                           ;doprnt.c: 1433: if(width
  6228                           ;doprnt.c: 1437: )
  6229  04EE  082C               	movf	i1__doprnt@width+1,w
  6230  04EF  042B               	iorwf	i1__doprnt@width,w
  6231  04F0  1903               	skipnz
  6232  04F1  2D22               	goto	i1l4657
  6233  04F2                     i1l4647:	
  6234                           ;doprnt.c: 1438: do
  6235                           
  6236                           
  6237                           ;doprnt.c: 1439: if(pb->func) (pb->func(' ')); else ((*pb->ptr++ = ' '));
  6238  04F2  0A2E               	incf	i1__doprnt@pb,w
  6239  04F3  0084               	movwf	4
  6240  04F4  1383               	bcf	3,7	;select IRP bank0
  6241  04F5  0880               	movf	0,f
  6242  04F6  1903               	skipnz
  6243  04F7  2D05               	goto	i1l4651
  6244  04F8  3020               	movlw	32
  6245  04F9  00A2               	movwf	??i1__doprnt
  6246  04FA  0822               	movf	??i1__doprnt,w
  6247  04FB  00F0               	movwf	i1putch@c
  6248  04FC  0A2E               	incf	i1__doprnt@pb,w
  6249  04FD  0084               	movwf	4
  6250  04FE  0800               	movf	0,w
  6251  04FF  120A  118A  2109  120A  118A  	fcall	i1fptable
  6252  0504  2D16               	goto	i1l4655
  6253  0505                     i1l4651:	
  6254  0505  3020               	movlw	32
  6255  0506  1283               	bcf	3,5	;RP0=0, select bank0
  6256  0507  1303               	bcf	3,6	;RP1=0, select bank0
  6257  0508  00A2               	movwf	??i1__doprnt
  6258  0509  082E               	movf	i1__doprnt@pb,w
  6259  050A  0084               	movwf	4
  6260  050B  1383               	bcf	3,7	;select IRP bank0
  6261  050C  0800               	movf	0,w
  6262  050D  0084               	movwf	4
  6263  050E  0822               	movf	??i1__doprnt,w
  6264  050F  0080               	movwf	0
  6265  0510  3001               	movlw	1
  6266  0511  00A2               	movwf	??i1__doprnt
  6267  0512  082E               	movf	i1__doprnt@pb,w
  6268  0513  0084               	movwf	4
  6269  0514  0822               	movf	??i1__doprnt,w
  6270  0515  0780               	addwf	0,f
  6271  0516                     i1l4655:	
  6272                           
  6273                           ;doprnt.c: 1440: while(--width);
  6274  0516  30FF               	movlw	255
  6275  0517  1283               	bcf	3,5	;RP0=0, select bank0
  6276  0518  1303               	bcf	3,6	;RP1=0, select bank0
  6277  0519  07AB               	addwf	i1__doprnt@width,f
  6278  051A  1803               	skipnc
  6279  051B  0AAC               	incf	i1__doprnt@width+1,f
  6280  051C  30FF               	movlw	255
  6281  051D  07AC               	addwf	i1__doprnt@width+1,f
  6282  051E  082C               	movf	i1__doprnt@width+1,w
  6283  051F  042B               	iorwf	i1__doprnt@width,w
  6284  0520  1D03               	skipz
  6285  0521  2CF2               	goto	i1l4647
  6286  0522                     i1l4657:	
  6287                           
  6288                           ;doprnt.c: 1447: if(flag & 0x03)
  6289  0522  082A               	movf	i1__doprnt@flag,w
  6290  0523  3903               	andlw	3
  6291  0524  1903               	btfsc	3,2
  6292  0525  2D4A               	goto	i1l4667
  6293                           
  6294                           ;doprnt.c: 1448: if(pb->func) (pb->func('-')); else ((*pb->ptr++ = '-'));
  6295  0526  0A2E               	incf	i1__doprnt@pb,w
  6296  0527  0084               	movwf	4
  6297  0528  1383               	bcf	3,7	;select IRP bank0
  6298  0529  0880               	movf	0,f
  6299  052A  1903               	skipnz
  6300  052B  2D39               	goto	i1l4663
  6301  052C  302D               	movlw	45
  6302  052D  00A2               	movwf	??i1__doprnt
  6303  052E  0822               	movf	??i1__doprnt,w
  6304  052F  00F0               	movwf	i1putch@c
  6305  0530  0A2E               	incf	i1__doprnt@pb,w
  6306  0531  0084               	movwf	4
  6307  0532  0800               	movf	0,w
  6308  0533  120A  118A  2109  120A  118A  	fcall	i1fptable
  6309  0538  2D4A               	goto	i1l4667
  6310  0539                     i1l4663:	
  6311  0539  302D               	movlw	45
  6312  053A  1283               	bcf	3,5	;RP0=0, select bank0
  6313  053B  1303               	bcf	3,6	;RP1=0, select bank0
  6314  053C  00A2               	movwf	??i1__doprnt
  6315  053D  082E               	movf	i1__doprnt@pb,w
  6316  053E  0084               	movwf	4
  6317  053F  1383               	bcf	3,7	;select IRP bank0
  6318  0540  0800               	movf	0,w
  6319  0541  0084               	movwf	4
  6320  0542  0822               	movf	??i1__doprnt,w
  6321  0543  0080               	movwf	0
  6322  0544  3001               	movlw	1
  6323  0545  00A2               	movwf	??i1__doprnt
  6324  0546  082E               	movf	i1__doprnt@pb,w
  6325  0547  0084               	movwf	4
  6326  0548  0822               	movf	??i1__doprnt,w
  6327  0549  0780               	addwf	0,f
  6328  054A                     i1l4667:	
  6329                           
  6330                           ;doprnt.c: 1478: }
  6331                           ;doprnt.c: 1481: prec = c;
  6332  054A  1283               	bcf	3,5	;RP0=0, select bank0
  6333  054B  1303               	bcf	3,6	;RP1=0, select bank0
  6334  054C  082D               	movf	i1__doprnt@c,w
  6335  054D  00A2               	movwf	??i1__doprnt
  6336  054E  0822               	movf	??i1__doprnt,w
  6337  054F  00A5               	movwf	i1__doprnt@prec
  6338  0550                     i1l4679:	
  6339                           ;doprnt.c: 1483: while(prec--) {
  6340                           
  6341  0550  30FF               	movlw	-1
  6342  0551  1283               	bcf	3,5	;RP0=0, select bank0
  6343  0552  1303               	bcf	3,6	;RP1=0, select bank0
  6344  0553  00A2               	movwf	??i1__doprnt
  6345  0554  0822               	movf	??i1__doprnt,w
  6346  0555  07A5               	addwf	i1__doprnt@prec,f
  6347  0556  0825               	movf	i1__doprnt@prec,w
  6348  0557  3AFF               	xorlw	-1
  6349  0558  1903               	btfsc	3,2
  6350  0559  2B68               	goto	i1l4681
  6351                           
  6352                           ;doprnt.c: 1487: {
  6353                           ;doprnt.c: 1498: c = (_val._val / dpowers[prec]) % 10 + '0';
  6354  055A  300A               	movlw	10
  6355  055B  00F8               	movwf	i1___lwmod@divisor
  6356  055C  3000               	movlw	0
  6357  055D  00F9               	movwf	i1___lwmod@divisor+1
  6358  055E  0825               	movf	i1__doprnt@prec,w
  6359  055F  00A2               	movwf	??i1__doprnt
  6360  0560  0722               	addwf	??i1__doprnt,w
  6361  0561  3E01               	addlw	low (_dpowers-__stringbase)
  6362  0562  0084               	movwf	4
  6363  0563  120A  118A  2042  120A  118A  	fcall	stringdir
  6364  0568  00F0               	movwf	i1___lwdiv@divisor
  6365  0569  120A  118A  2042  120A  118A  	fcall	stringdir
  6366  056E  00F1               	movwf	i1___lwdiv@divisor+1
  6367  056F  0827               	movf	i1__doprnt@_val+1,w
  6368  0570  01F3               	clrf	i1___lwdiv@dividend+1
  6369  0571  07F3               	addwf	i1___lwdiv@dividend+1,f
  6370  0572  0826               	movf	i1__doprnt@_val,w
  6371  0573  01F2               	clrf	i1___lwdiv@dividend
  6372  0574  07F2               	addwf	i1___lwdiv@dividend,f
  6373  0575  120A  158A  20C5  120A  118A  	fcall	i1___lwdiv
  6374  057A  0871               	movf	?i1___lwdiv+1,w
  6375  057B  01FB               	clrf	i1___lwmod@dividend+1
  6376  057C  07FB               	addwf	i1___lwmod@dividend+1,f
  6377  057D  0870               	movf	?i1___lwdiv,w
  6378  057E  01FA               	clrf	i1___lwmod@dividend
  6379  057F  07FA               	addwf	i1___lwmod@dividend,f
  6380  0580  120A  158A  205B  120A  118A  	fcall	i1___lwmod
  6381  0585  0878               	movf	?i1___lwmod,w
  6382  0586  3E30               	addlw	48
  6383  0587  1283               	bcf	3,5	;RP0=0, select bank0
  6384  0588  1303               	bcf	3,6	;RP1=0, select bank0
  6385  0589  00A3               	movwf	??i1__doprnt+1
  6386  058A  0823               	movf	??i1__doprnt+1,w
  6387  058B  00AD               	movwf	i1__doprnt@c
  6388                           
  6389                           ;doprnt.c: 1532: }
  6390                           ;doprnt.c: 1533: if(pb->func) (pb->func(c)); else ((*pb->ptr++ = c));
  6391  058C  0A2E               	incf	i1__doprnt@pb,w
  6392  058D  0084               	movwf	4
  6393  058E  1383               	bcf	3,7	;select IRP bank0
  6394  058F  0880               	movf	0,f
  6395  0590  1903               	skipnz
  6396  0591  2D9F               	goto	i1l4675
  6397  0592  082D               	movf	i1__doprnt@c,w
  6398  0593  00A2               	movwf	??i1__doprnt
  6399  0594  0822               	movf	??i1__doprnt,w
  6400  0595  00F0               	movwf	i1putch@c
  6401  0596  0A2E               	incf	i1__doprnt@pb,w
  6402  0597  0084               	movwf	4
  6403  0598  0800               	movf	0,w
  6404  0599  120A  118A  2109  120A  118A  	fcall	i1fptable
  6405  059E  2D50               	goto	i1l4679
  6406  059F                     i1l4675:	
  6407  059F  1283               	bcf	3,5	;RP0=0, select bank0
  6408  05A0  1303               	bcf	3,6	;RP1=0, select bank0
  6409  05A1  082D               	movf	i1__doprnt@c,w
  6410  05A2  00A2               	movwf	??i1__doprnt
  6411  05A3  082E               	movf	i1__doprnt@pb,w
  6412  05A4  0084               	movwf	4
  6413  05A5  1383               	bcf	3,7	;select IRP bank0
  6414  05A6  0800               	movf	0,w
  6415  05A7  0084               	movwf	4
  6416  05A8  0822               	movf	??i1__doprnt,w
  6417  05A9  0080               	movwf	0
  6418  05AA  3001               	movlw	1
  6419  05AB  00A2               	movwf	??i1__doprnt
  6420  05AC  082E               	movf	i1__doprnt@pb,w
  6421  05AD  0084               	movwf	4
  6422  05AE  0822               	movf	??i1__doprnt,w
  6423  05AF  0780               	addwf	0,f
  6424  05B0  2D50               	goto	i1l4679
  6425  05B1                     i1l4683:	
  6426                           ;doprnt.c: 1534: }
  6427                           ;doprnt.c: 1542: }
  6428                           ;doprnt.c: 1544: alldone:
  6429                           
  6430                           
  6431                           ;doprnt.c: 1549: return 0;
  6432  05B1  1283               	bcf	3,5	;RP0=0, select bank0
  6433  05B2  1303               	bcf	3,6	;RP1=0, select bank0
  6434  05B3  01A0               	clrf	?i1__doprnt
  6435  05B4  01A1               	clrf	?i1__doprnt+1
  6436  05B5  0008               	return
  6437  05B6                     __end_ofi1__doprnt:	
  6438                           
  6439                           	psect	text30
  6440  0801                     __ptext30:	
  6441 ;; *************** function i1_putch *****************
  6442 ;; Defined at:
  6443 ;;		line 7 in file "C:\Program Files (x86)\Microchip\xc8\v1.33\sources\common\putch.c"
  6444 ;; Parameters:    Size  Location     Type
  6445 ;;  c               1    0[COMMON] unsigned char 
  6446 ;; Auto vars:     Size  Location     Type
  6447 ;;		None
  6448 ;; Return value:  Size  Location     Type
  6449 ;;		None               void
  6450 ;; Registers used:
  6451 ;;		None
  6452 ;; Tracked objects:
  6453 ;;		On entry : 0/0
  6454 ;;		On exit  : 0/0
  6455 ;;		Unchanged: 0/0
  6456 ;; Data sizes:     COMMON   BANK0   BANK1   BANK3   BANK2
  6457 ;;      Params:         1       0       0       0       0
  6458 ;;      Locals:         0       0       0       0       0
  6459 ;;      Temps:          0       0       0       0       0
  6460 ;;      Totals:         1       0       0       0       0
  6461 ;;Total ram usage:        1 bytes
  6462 ;; Hardware stack levels used:    1
  6463 ;; This function calls:
  6464 ;;		Nothing
  6465 ;; This function is called by:
  6466 ;;		_printf
  6467 ;; This function uses a non-reentrant model
  6468 ;;
  6469                           
  6470                           
  6471                           ;psect for function i1_putch
  6472  0801                     i1_putch:	
  6473                           
  6474                           ;incstack = 0
  6475                           ; Regs used in i1_putch: []
  6476  0801  0008               	return
  6477  0802                     __end_ofi1_putch:	
  6478                           
  6479                           	psect	text31
  6480  1661                     __ptext31:	
  6481 ;; *************** function i1_isdigit *****************
  6482 ;; Defined at:
  6483 ;;		line 8 in file "C:\Program Files (x86)\Microchip\xc8\v1.33\sources\common\isdigit.c"
  6484 ;; Parameters:    Size  Location     Type
  6485 ;;  c               1    wreg     unsigned char 
  6486 ;; Auto vars:     Size  Location     Type
  6487 ;;  c               1    1[COMMON] unsigned char 
  6488 ;; Return value:  Size  Location     Type
  6489 ;;		None               void
  6490 ;; Registers used:
  6491 ;;		wreg, status,2, status,0
  6492 ;; Tracked objects:
  6493 ;;		On entry : 0/0
  6494 ;;		On exit  : 0/0
  6495 ;;		Unchanged: 0/0
  6496 ;; Data sizes:     COMMON   BANK0   BANK1   BANK3   BANK2
  6497 ;;      Params:         0       0       0       0       0
  6498 ;;      Locals:         2       0       0       0       0
  6499 ;;      Temps:          0       0       0       0       0
  6500 ;;      Totals:         2       0       0       0       0
  6501 ;;Total ram usage:        2 bytes
  6502 ;; Hardware stack levels used:    1
  6503 ;; This function calls:
  6504 ;;		Nothing
  6505 ;; This function is called by:
  6506 ;;		i1__doprnt
  6507 ;; This function uses a non-reentrant model
  6508 ;;
  6509                           
  6510                           
  6511                           ;psect for function i1_isdigit
  6512  1661                     i1_isdigit:	
  6513                           
  6514                           ;incstack = 0
  6515                           ; Regs used in i1_isdigit: [wreg+status,2+status,0]
  6516                           ;i1isdigit@c stored from wreg
  6517  1661  00F1               	movwf	i1isdigit@c
  6518  1662  01F0               	clrf	i1_isdigit$1417
  6519  1663  303A               	movlw	58
  6520  1664  0271               	subwf	i1isdigit@c,w
  6521  1665  1803               	skipnc
  6522  1666  2E6D               	goto	i1l2195
  6523  1667  3030               	movlw	48
  6524  1668  0271               	subwf	i1isdigit@c,w
  6525  1669  1C03               	skipc
  6526  166A  2E6D               	goto	i1l2195
  6527  166B  01F0               	clrf	i1_isdigit$1417
  6528  166C  0AF0               	incf	i1_isdigit$1417,f
  6529  166D                     i1l2195:	
  6530  166D  0C70               	rrf	i1_isdigit$1417,w
  6531  166E  0008               	return
  6532  166F                     __end_ofi1_isdigit:	
  6533                           
  6534                           	psect	text32
  6535  1788                     __ptext32:	
  6536 ;; *************** function i1___wmul *****************
  6537 ;; Defined at:
  6538 ;;		line 15 in file "C:\Program Files (x86)\Microchip\xc8\v1.33\sources\common\Umul16.c"
  6539 ;; Parameters:    Size  Location     Type
  6540 ;;  multiplier      2    0[COMMON] unsigned int 
  6541 ;;  multiplicand    2    2[COMMON] unsigned int 
  6542 ;; Auto vars:     Size  Location     Type
  6543 ;;  __wmul          2    4[COMMON] unsigned int 
  6544 ;; Return value:  Size  Location     Type
  6545 ;;                  2    0[COMMON] unsigned int 
  6546 ;; Registers used:
  6547 ;;		wreg, status,2, status,0
  6548 ;; Tracked objects:
  6549 ;;		On entry : 0/0
  6550 ;;		On exit  : 0/0
  6551 ;;		Unchanged: 0/0
  6552 ;; Data sizes:     COMMON   BANK0   BANK1   BANK3   BANK2
  6553 ;;      Params:         4       0       0       0       0
  6554 ;;      Locals:         2       0       0       0       0
  6555 ;;      Temps:          0       0       0       0       0
  6556 ;;      Totals:         6       0       0       0       0
  6557 ;;Total ram usage:        6 bytes
  6558 ;; Hardware stack levels used:    1
  6559 ;; This function calls:
  6560 ;;		Nothing
  6561 ;; This function is called by:
  6562 ;;		i1__doprnt
  6563 ;; This function uses a non-reentrant model
  6564 ;;
  6565                           
  6566                           
  6567                           ;psect for function i1___wmul
  6568  1788                     i1___wmul:	
  6569                           
  6570                           ;incstack = 0
  6571                           ; Regs used in i1___wmul: [wreg+status,2+status,0]
  6572  1788  01F4               	clrf	i1___wmul@product
  6573  1789  01F5               	clrf	i1___wmul@product+1
  6574  178A                     i1l2177:	
  6575  178A  1C70               	btfss	i1___wmul@multiplier,0
  6576  178B  2F92               	goto	i1l516
  6577  178C  0872               	movf	i1___wmul@multiplicand,w
  6578  178D  07F4               	addwf	i1___wmul@product,f
  6579  178E  1803               	skipnc
  6580  178F  0AF5               	incf	i1___wmul@product+1,f
  6581  1790  0873               	movf	i1___wmul@multiplicand+1,w
  6582  1791  07F5               	addwf	i1___wmul@product+1,f
  6583  1792                     i1l516:	
  6584  1792  3001               	movlw	1
  6585  1793                     u214_25:	
  6586  1793  1003               	clrc
  6587  1794  0DF2               	rlf	i1___wmul@multiplicand,f
  6588  1795  0DF3               	rlf	i1___wmul@multiplicand+1,f
  6589  1796  3EFF               	addlw	-1
  6590  1797  1D03               	skipz
  6591  1798  2F93               	goto	u214_25
  6592  1799  3001               	movlw	1
  6593  179A                     u215_25:	
  6594  179A  1003               	clrc
  6595  179B  0CF1               	rrf	i1___wmul@multiplier+1,f
  6596  179C  0CF0               	rrf	i1___wmul@multiplier,f
  6597  179D  3EFF               	addlw	-1
  6598  179E  1D03               	skipz
  6599  179F  2F9A               	goto	u215_25
  6600  17A0  0871               	movf	i1___wmul@multiplier+1,w
  6601  17A1  0470               	iorwf	i1___wmul@multiplier,w
  6602  17A2  1D03               	skipz
  6603  17A3  2F8A               	goto	i1l2177
  6604  17A4  0875               	movf	i1___wmul@product+1,w
  6605  17A5  01F1               	clrf	?i1___wmul+1
  6606  17A6  07F1               	addwf	?i1___wmul+1,f
  6607  17A7  0874               	movf	i1___wmul@product,w
  6608  17A8  01F0               	clrf	?i1___wmul
  6609  17A9  07F0               	addwf	?i1___wmul,f
  6610  17AA  0008               	return
  6611  17AB                     __end_ofi1___wmul:	
  6612                           
  6613                           	psect	text33
  6614  085B                     __ptext33:	
  6615 ;; *************** function i1___lwmod *****************
  6616 ;; Defined at:
  6617 ;;		line 6 in file "C:\Program Files (x86)\Microchip\xc8\v1.33\sources\common\lwmod.c"
  6618 ;; Parameters:    Size  Location     Type
  6619 ;;  divisor         2    8[COMMON] unsigned int 
  6620 ;;  dividend        2   10[COMMON] unsigned int 
  6621 ;; Auto vars:     Size  Location     Type
  6622 ;;  __lwmod         1   13[COMMON] unsigned char 
  6623 ;; Return value:  Size  Location     Type
  6624 ;;                  2    8[COMMON] unsigned int 
  6625 ;; Registers used:
  6626 ;;		wreg, status,2, status,0
  6627 ;; Tracked objects:
  6628 ;;		On entry : 0/0
  6629 ;;		On exit  : 0/0
  6630 ;;		Unchanged: 0/0
  6631 ;; Data sizes:     COMMON   BANK0   BANK1   BANK3   BANK2
  6632 ;;      Params:         4       0       0       0       0
  6633 ;;      Locals:         1       0       0       0       0
  6634 ;;      Temps:          1       0       0       0       0
  6635 ;;      Totals:         6       0       0       0       0
  6636 ;;Total ram usage:        6 bytes
  6637 ;; Hardware stack levels used:    1
  6638 ;; This function calls:
  6639 ;;		Nothing
  6640 ;; This function is called by:
  6641 ;;		i1__doprnt
  6642 ;; This function uses a non-reentrant model
  6643 ;;
  6644                           
  6645                           
  6646                           ;psect for function i1___lwmod
  6647  085B                     i1___lwmod:	
  6648                           
  6649                           ;incstack = 0
  6650                           ; Regs used in i1___lwmod: [wreg+status,2+status,0]
  6651  085B  0879               	movf	i1___lwmod@divisor+1,w
  6652  085C  0478               	iorwf	i1___lwmod@divisor,w
  6653  085D  1903               	skipnz
  6654  085E  2888               	goto	i1l2243
  6655  085F  01FD               	clrf	i1___lwmod@counter
  6656  0860  0AFD               	incf	i1___lwmod@counter,f
  6657  0861                     i1l2233:	
  6658  0861  1BF9               	btfsc	i1___lwmod@divisor+1,7
  6659  0862  286F               	goto	i1l2235
  6660  0863  3001               	movlw	1
  6661  0864                     u227_25:	
  6662  0864  1003               	clrc
  6663  0865  0DF8               	rlf	i1___lwmod@divisor,f
  6664  0866  0DF9               	rlf	i1___lwmod@divisor+1,f
  6665  0867  3EFF               	addlw	-1
  6666  0868  1D03               	skipz
  6667  0869  2864               	goto	u227_25
  6668  086A  3001               	movlw	1
  6669  086B  00FC               	movwf	??i1___lwmod
  6670  086C  087C               	movf	??i1___lwmod,w
  6671  086D  07FD               	addwf	i1___lwmod@counter,f
  6672  086E  2861               	goto	i1l2233
  6673  086F                     i1l2235:	
  6674  086F  0879               	movf	i1___lwmod@divisor+1,w
  6675  0870  027B               	subwf	i1___lwmod@dividend+1,w
  6676  0871  1D03               	skipz
  6677  0872  2875               	goto	u229_25
  6678  0873  0878               	movf	i1___lwmod@divisor,w
  6679  0874  027A               	subwf	i1___lwmod@dividend,w
  6680  0875                     u229_25:	
  6681  0875  1C03               	skipc
  6682  0876  287D               	goto	i1l2239
  6683  0877  0878               	movf	i1___lwmod@divisor,w
  6684  0878  02FA               	subwf	i1___lwmod@dividend,f
  6685  0879  0879               	movf	i1___lwmod@divisor+1,w
  6686  087A  1C03               	skipc
  6687  087B  03FB               	decf	i1___lwmod@dividend+1,f
  6688  087C  02FB               	subwf	i1___lwmod@dividend+1,f
  6689  087D                     i1l2239:	
  6690  087D  3001               	movlw	1
  6691  087E                     u230_25:	
  6692  087E  1003               	clrc
  6693  087F  0CF9               	rrf	i1___lwmod@divisor+1,f
  6694  0880  0CF8               	rrf	i1___lwmod@divisor,f
  6695  0881  3EFF               	addlw	-1
  6696  0882  1D03               	skipz
  6697  0883  287E               	goto	u230_25
  6698  0884  3001               	movlw	1
  6699  0885  02FD               	subwf	i1___lwmod@counter,f
  6700  0886  1D03               	btfss	3,2
  6701  0887  286F               	goto	i1l2235
  6702  0888                     i1l2243:	
  6703  0888  087B               	movf	i1___lwmod@dividend+1,w
  6704  0889  01F9               	clrf	?i1___lwmod+1
  6705  088A  07F9               	addwf	?i1___lwmod+1,f
  6706  088B  087A               	movf	i1___lwmod@dividend,w
  6707  088C  01F8               	clrf	?i1___lwmod
  6708  088D  07F8               	addwf	?i1___lwmod,f
  6709  088E  0008               	return
  6710  088F                     __end_ofi1___lwmod:	
  6711                           
  6712                           	psect	text34
  6713  08C5                     __ptext34:	
  6714 ;; *************** function i1___lwdiv *****************
  6715 ;; Defined at:
  6716 ;;		line 6 in file "C:\Program Files (x86)\Microchip\xc8\v1.33\sources\common\lwdiv.c"
  6717 ;; Parameters:    Size  Location     Type
  6718 ;;  divisor         2    0[COMMON] unsigned int 
  6719 ;;  dividend        2    2[COMMON] unsigned int 
  6720 ;; Auto vars:     Size  Location     Type
  6721 ;;  __lwdiv         2    5[COMMON] unsigned int 
  6722 ;;  __lwdiv         1    7[COMMON] unsigned char 
  6723 ;; Return value:  Size  Location     Type
  6724 ;;                  2    0[COMMON] unsigned int 
  6725 ;; Registers used:
  6726 ;;		wreg, status,2, status,0
  6727 ;; Tracked objects:
  6728 ;;		On entry : 0/0
  6729 ;;		On exit  : 0/0
  6730 ;;		Unchanged: 0/0
  6731 ;; Data sizes:     COMMON   BANK0   BANK1   BANK3   BANK2
  6732 ;;      Params:         4       0       0       0       0
  6733 ;;      Locals:         3       0       0       0       0
  6734 ;;      Temps:          1       0       0       0       0
  6735 ;;      Totals:         8       0       0       0       0
  6736 ;;Total ram usage:        8 bytes
  6737 ;; Hardware stack levels used:    1
  6738 ;; This function calls:
  6739 ;;		Nothing
  6740 ;; This function is called by:
  6741 ;;		i1__doprnt
  6742 ;; This function uses a non-reentrant model
  6743 ;;
  6744                           
  6745                           
  6746                           ;psect for function i1___lwdiv
  6747  08C5                     i1___lwdiv:	
  6748                           
  6749                           ;incstack = 0
  6750                           ; Regs used in i1___lwdiv: [wreg+status,2+status,0]
  6751  08C5  01F5               	clrf	i1___lwdiv@quotient
  6752  08C6  01F6               	clrf	i1___lwdiv@quotient+1
  6753  08C7  0871               	movf	i1___lwdiv@divisor+1,w
  6754  08C8  0470               	iorwf	i1___lwdiv@divisor,w
  6755  08C9  1903               	skipnz
  6756  08CA  28FC               	goto	i1l2221
  6757  08CB  01F7               	clrf	i1___lwdiv@counter
  6758  08CC  0AF7               	incf	i1___lwdiv@counter,f
  6759  08CD                     i1l2209:	
  6760  08CD  1BF1               	btfsc	i1___lwdiv@divisor+1,7
  6761  08CE  28DB               	goto	i1l2211
  6762  08CF  3001               	movlw	1
  6763  08D0                     u220_25:	
  6764  08D0  1003               	clrc
  6765  08D1  0DF0               	rlf	i1___lwdiv@divisor,f
  6766  08D2  0DF1               	rlf	i1___lwdiv@divisor+1,f
  6767  08D3  3EFF               	addlw	-1
  6768  08D4  1D03               	skipz
  6769  08D5  28D0               	goto	u220_25
  6770  08D6  3001               	movlw	1
  6771  08D7  00F4               	movwf	??i1___lwdiv
  6772  08D8  0874               	movf	??i1___lwdiv,w
  6773  08D9  07F7               	addwf	i1___lwdiv@counter,f
  6774  08DA  28CD               	goto	i1l2209
  6775  08DB                     i1l2211:	
  6776  08DB  3001               	movlw	1
  6777  08DC                     u222_25:	
  6778  08DC  1003               	clrc
  6779  08DD  0DF5               	rlf	i1___lwdiv@quotient,f
  6780  08DE  0DF6               	rlf	i1___lwdiv@quotient+1,f
  6781  08DF  3EFF               	addlw	-1
  6782  08E0  1D03               	skipz
  6783  08E1  28DC               	goto	u222_25
  6784  08E2  0871               	movf	i1___lwdiv@divisor+1,w
  6785  08E3  0273               	subwf	i1___lwdiv@dividend+1,w
  6786  08E4  1D03               	skipz
  6787  08E5  28E8               	goto	u223_25
  6788  08E6  0870               	movf	i1___lwdiv@divisor,w
  6789  08E7  0272               	subwf	i1___lwdiv@dividend,w
  6790  08E8                     u223_25:	
  6791  08E8  1C03               	skipc
  6792  08E9  28F1               	goto	i1l2217
  6793  08EA  0870               	movf	i1___lwdiv@divisor,w
  6794  08EB  02F2               	subwf	i1___lwdiv@dividend,f
  6795  08EC  0871               	movf	i1___lwdiv@divisor+1,w
  6796  08ED  1C03               	skipc
  6797  08EE  03F3               	decf	i1___lwdiv@dividend+1,f
  6798  08EF  02F3               	subwf	i1___lwdiv@dividend+1,f
  6799  08F0  1475               	bsf	i1___lwdiv@quotient,0
  6800  08F1                     i1l2217:	
  6801  08F1  3001               	movlw	1
  6802  08F2                     u224_25:	
  6803  08F2  1003               	clrc
  6804  08F3  0CF1               	rrf	i1___lwdiv@divisor+1,f
  6805  08F4  0CF0               	rrf	i1___lwdiv@divisor,f
  6806  08F5  3EFF               	addlw	-1
  6807  08F6  1D03               	skipz
  6808  08F7  28F2               	goto	u224_25
  6809  08F8  3001               	movlw	1
  6810  08F9  02F7               	subwf	i1___lwdiv@counter,f
  6811  08FA  1D03               	btfss	3,2
  6812  08FB  28DB               	goto	i1l2211
  6813  08FC                     i1l2221:	
  6814  08FC  0876               	movf	i1___lwdiv@quotient+1,w
  6815  08FD  01F1               	clrf	?i1___lwdiv+1
  6816  08FE  07F1               	addwf	?i1___lwdiv+1,f
  6817  08FF  0875               	movf	i1___lwdiv@quotient,w
  6818  0900  01F0               	clrf	?i1___lwdiv
  6819  0901  07F0               	addwf	?i1___lwdiv,f
  6820  0902  0008               	return
  6821  0903                     __end_ofi1___lwdiv:	
  6822                           
  6823                           	psect	text35
  6824  163C                     __ptext35:	
  6825 ;; *************** function ___ftneg *****************
  6826 ;; Defined at:
  6827 ;;		line 15 in file "C:\Program Files (x86)\Microchip\xc8\v1.33\sources\common\ftneg.c"
  6828 ;; Parameters:    Size  Location     Type
  6829 ;;  f1              3    0[COMMON] float 
  6830 ;; Auto vars:     Size  Location     Type
  6831 ;;		None
  6832 ;; Return value:  Size  Location     Type
  6833 ;;                  3    0[COMMON] float 
  6834 ;; Registers used:
  6835 ;;		wreg
  6836 ;; Tracked objects:
  6837 ;;		On entry : 0/0
  6838 ;;		On exit  : 0/0
  6839 ;;		Unchanged: 0/0
  6840 ;; Data sizes:     COMMON   BANK0   BANK1   BANK3   BANK2
  6841 ;;      Params:         3       0       0       0       0
  6842 ;;      Locals:         0       0       0       0       0
  6843 ;;      Temps:          0       0       0       0       0
  6844 ;;      Totals:         3       0       0       0       0
  6845 ;;Total ram usage:        3 bytes
  6846 ;; Hardware stack levels used:    1
  6847 ;; This function calls:
  6848 ;;		Nothing
  6849 ;; This function is called by:
  6850 ;;		_trapezoidal
  6851 ;;		_triangular
  6852 ;; This function uses a non-reentrant model
  6853 ;;
  6854                           
  6855                           
  6856                           ;psect for function ___ftneg
  6857  163C                     ___ftneg:	
  6858                           
  6859                           ;incstack = 0
  6860                           ; Regs used in ___ftneg: [wreg]
  6861  163C  0872               	movf	___ftneg@f1+2,w
  6862  163D  0471               	iorwf	___ftneg@f1+1,w
  6863  163E  0470               	iorwf	___ftneg@f1,w
  6864  163F  1903               	skipnz
  6865  1640  0008               	return
  6866  1641  3080               	movlw	128
  6867  1642  06F2               	xorwf	___ftneg@f1+2,f
  6868  1643  0008               	return
  6869  1644                     __end_of___ftneg:	
  6870                           
  6871                           	psect	text36
  6872  098C                     __ptext36:	
  6873 ;; *************** function ___ftge *****************
  6874 ;; Defined at:
  6875 ;;		line 4 in file "C:\Program Files (x86)\Microchip\xc8\v1.33\sources\common\ftge.c"
  6876 ;; Parameters:    Size  Location     Type
  6877 ;;  ff1             3    0[COMMON] float 
  6878 ;;  ff2             3    3[COMMON] float 
  6879 ;; Auto vars:     Size  Location     Type
  6880 ;;		None
  6881 ;; Return value:  Size  Location     Type
  6882 ;;		None               void
  6883 ;; Registers used:
  6884 ;;		wreg, status,2, status,0
  6885 ;; Tracked objects:
  6886 ;;		On entry : 0/0
  6887 ;;		On exit  : 0/0
  6888 ;;		Unchanged: 0/0
  6889 ;; Data sizes:     COMMON   BANK0   BANK1   BANK3   BANK2
  6890 ;;      Params:         6       0       0       0       0
  6891 ;;      Locals:         0       0       0       0       0
  6892 ;;      Temps:          6       0       0       0       0
  6893 ;;      Totals:        12       0       0       0       0
  6894 ;;Total ram usage:       12 bytes
  6895 ;; Hardware stack levels used:    1
  6896 ;; This function calls:
  6897 ;;		Nothing
  6898 ;; This function is called by:
  6899 ;;		_trapezoidal
  6900 ;;		_triangular
  6901 ;; This function uses a non-reentrant model
  6902 ;;
  6903                           
  6904                           
  6905                           ;psect for function ___ftge
  6906  098C                     ___ftge:	
  6907                           
  6908                           ;incstack = 0
  6909                           ; Regs used in ___ftge: [wreg+status,2+status,0]
  6910  098C  1FF2               	btfss	___ftge@ff1+2,7
  6911  098D  29B3               	goto	i1l2801
  6912  098E  3000               	movlw	0
  6913  098F  00F6               	movwf	??___ftge
  6914  0990  3000               	movlw	0
  6915  0991  00F7               	movwf	??___ftge+1
  6916  0992  3080               	movlw	128
  6917  0993  00F8               	movwf	??___ftge+2
  6918  0994  0970               	comf	___ftge@ff1,w
  6919  0995  00F9               	movwf	??___ftge+3
  6920  0996  0971               	comf	___ftge@ff1+1,w
  6921  0997  00FA               	movwf	??___ftge+4
  6922  0998  0972               	comf	___ftge@ff1+2,w
  6923  0999  00FB               	movwf	??___ftge+5
  6924  099A  0AF9               	incf	??___ftge+3,f
  6925  099B  1903               	skipnz
  6926  099C  0AFA               	incf	??___ftge+4,f
  6927  099D  1903               	skipnz
  6928  099E  0AFB               	incf	??___ftge+5,f
  6929  099F  0879               	movf	??___ftge+3,w
  6930  09A0  07F6               	addwf	??___ftge,f
  6931  09A1  087A               	movf	??___ftge+4,w
  6932  09A2  1803               	skipnc
  6933  09A3  0F7A               	incfsz	??___ftge+4,w
  6934  09A4  29A6               	goto	u356_21
  6935  09A5  29A7               	goto	u356_22
  6936  09A6                     u356_21:	
  6937  09A6  07F7               	addwf	??___ftge+1,f
  6938  09A7                     u356_22:	
  6939  09A7  087B               	movf	??___ftge+5,w
  6940  09A8  1803               	skipnc
  6941  09A9  0F7B               	incfsz	??___ftge+5,w
  6942  09AA  29AC               	goto	u356_23
  6943  09AB  29AD               	goto	u356_24
  6944  09AC                     u356_23:	
  6945  09AC  07F8               	addwf	??___ftge+2,f
  6946  09AD                     u356_24:	
  6947  09AD  0876               	movf	??___ftge,w
  6948  09AE  00F0               	movwf	___ftge@ff1
  6949  09AF  0877               	movf	??___ftge+1,w
  6950  09B0  00F1               	movwf	___ftge@ff1+1
  6951  09B1  0878               	movf	??___ftge+2,w
  6952  09B2  00F2               	movwf	___ftge@ff1+2
  6953  09B3                     i1l2801:	
  6954  09B3  1FF5               	btfss	___ftge@ff2+2,7
  6955  09B4  29DA               	goto	i1l2805
  6956  09B5  3000               	movlw	0
  6957  09B6  00F6               	movwf	??___ftge
  6958  09B7  3000               	movlw	0
  6959  09B8  00F7               	movwf	??___ftge+1
  6960  09B9  3080               	movlw	128
  6961  09BA  00F8               	movwf	??___ftge+2
  6962  09BB  0973               	comf	___ftge@ff2,w
  6963  09BC  00F9               	movwf	??___ftge+3
  6964  09BD  0974               	comf	___ftge@ff2+1,w
  6965  09BE  00FA               	movwf	??___ftge+4
  6966  09BF  0975               	comf	___ftge@ff2+2,w
  6967  09C0  00FB               	movwf	??___ftge+5
  6968  09C1  0AF9               	incf	??___ftge+3,f
  6969  09C2  1903               	skipnz
  6970  09C3  0AFA               	incf	??___ftge+4,f
  6971  09C4  1903               	skipnz
  6972  09C5  0AFB               	incf	??___ftge+5,f
  6973  09C6  0879               	movf	??___ftge+3,w
  6974  09C7  07F6               	addwf	??___ftge,f
  6975  09C8  087A               	movf	??___ftge+4,w
  6976  09C9  1803               	skipnc
  6977  09CA  0F7A               	incfsz	??___ftge+4,w
  6978  09CB  29CD               	goto	u358_21
  6979  09CC  29CE               	goto	u358_22
  6980  09CD                     u358_21:	
  6981  09CD  07F7               	addwf	??___ftge+1,f
  6982  09CE                     u358_22:	
  6983  09CE  087B               	movf	??___ftge+5,w
  6984  09CF  1803               	skipnc
  6985  09D0  0F7B               	incfsz	??___ftge+5,w
  6986  09D1  29D3               	goto	u358_23
  6987  09D2  29D4               	goto	u358_24
  6988  09D3                     u358_23:	
  6989  09D3  07F8               	addwf	??___ftge+2,f
  6990  09D4                     u358_24:	
  6991  09D4  0876               	movf	??___ftge,w
  6992  09D5  00F3               	movwf	___ftge@ff2
  6993  09D6  0877               	movf	??___ftge+1,w
  6994  09D7  00F4               	movwf	___ftge@ff2+1
  6995  09D8  0878               	movf	??___ftge+2,w
  6996  09D9  00F5               	movwf	___ftge@ff2+2
  6997  09DA                     i1l2805:	
  6998  09DA  3080               	movlw	128
  6999  09DB  06F2               	xorwf	___ftge@ff1+2,f
  7000  09DC  3080               	movlw	128
  7001  09DD  06F5               	xorwf	___ftge@ff2+2,f
  7002  09DE  0875               	movf	___ftge@ff2+2,w
  7003  09DF  0272               	subwf	___ftge@ff1+2,w
  7004  09E0  1D03               	skipz
  7005  09E1  0008               	return
  7006  09E2  0874               	movf	___ftge@ff2+1,w
  7007  09E3  0271               	subwf	___ftge@ff1+1,w
  7008  09E4  1D03               	skipz
  7009  09E5  0008               	return
  7010  09E6  0873               	movf	___ftge@ff2,w
  7011  09E7  0270               	subwf	___ftge@ff1,w
  7012  09E8  0008               	return
  7013  09E9                     __end_of___ftge:	
  7014                           
  7015                           	psect	text37
  7016  073D                     __ptext37:	
  7017 ;; *************** function ___ftdiv *****************
  7018 ;; Defined at:
  7019 ;;		line 49 in file "C:\Program Files (x86)\Microchip\xc8\v1.33\sources\pic\ftdiv.c"
  7020 ;; Parameters:    Size  Location     Type
  7021 ;;  f2              3    7[BANK0 ] float 
  7022 ;;  f1              3   10[BANK0 ] float 
  7023 ;; Auto vars:     Size  Location     Type
  7024 ;;  f3              3   18[BANK0 ] float 
  7025 ;;  sign            1   22[BANK0 ] unsigned char 
  7026 ;;  exp             1   21[BANK0 ] unsigned char 
  7027 ;;  cntr            1   17[BANK0 ] unsigned char 
  7028 ;; Return value:  Size  Location     Type
  7029 ;;                  3    7[BANK0 ] float 
  7030 ;; Registers used:
  7031 ;;		wreg, status,2, status,0, pclath, cstack
  7032 ;; Tracked objects:
  7033 ;;		On entry : 0/0
  7034 ;;		On exit  : 0/0
  7035 ;;		Unchanged: 0/0
  7036 ;; Data sizes:     COMMON   BANK0   BANK1   BANK3   BANK2
  7037 ;;      Params:         0       6       0       0       0
  7038 ;;      Locals:         0       6       0       0       0
  7039 ;;      Temps:          0       4       0       0       0
  7040 ;;      Totals:         0      16       0       0       0
  7041 ;;Total ram usage:       16 bytes
  7042 ;; Hardware stack levels used:    1
  7043 ;; Hardware stack levels required when called:    1
  7044 ;; This function calls:
  7045 ;;		___ftpack
  7046 ;; This function is called by:
  7047 ;;		_trapezoidal
  7048 ;;		_ISR
  7049 ;;		_triangular
  7050 ;; This function uses a non-reentrant model
  7051 ;;
  7052                           
  7053                           
  7054                           ;psect for function ___ftdiv
  7055  073D                     ___ftdiv:	
  7056                           
  7057                           ;incstack = 0
  7058                           ; Regs used in ___ftdiv: [wreg+status,2+status,0+pclath+cstack]
  7059  073D  1283               	bcf	3,5	;RP0=0, select bank0
  7060  073E  1303               	bcf	3,6	;RP1=0, select bank0
  7061  073F  082A               	movf	___ftdiv@f1,w
  7062  0740  00AD               	movwf	??___ftdiv
  7063  0741  082B               	movf	___ftdiv@f1+1,w
  7064  0742  00AE               	movwf	??___ftdiv+1
  7065  0743  082C               	movf	___ftdiv@f1+2,w
  7066  0744  00AF               	movwf	??___ftdiv+2
  7067  0745  1003               	clrc
  7068  0746  0D2E               	rlf	??___ftdiv+1,w
  7069  0747  0D2F               	rlf	??___ftdiv+2,w
  7070  0748  00B0               	movwf	??___ftdiv+3
  7071  0749  0830               	movf	??___ftdiv+3,w
  7072  074A  00B5               	movwf	___ftdiv@exp
  7073  074B  08B5               	movf	___ftdiv@exp,f
  7074  074C  1D03               	skipz
  7075  074D  2F55               	goto	i1l2761
  7076  074E  3000               	movlw	0
  7077  074F  00A7               	movwf	?___ftdiv
  7078  0750  3000               	movlw	0
  7079  0751  00A8               	movwf	?___ftdiv+1
  7080  0752  3000               	movlw	0
  7081  0753  00A9               	movwf	?___ftdiv+2
  7082  0754  0008               	return
  7083  0755                     i1l2761:	
  7084  0755  0827               	movf	___ftdiv@f2,w
  7085  0756  00AD               	movwf	??___ftdiv
  7086  0757  0828               	movf	___ftdiv@f2+1,w
  7087  0758  00AE               	movwf	??___ftdiv+1
  7088  0759  0829               	movf	___ftdiv@f2+2,w
  7089  075A  00AF               	movwf	??___ftdiv+2
  7090  075B  1003               	clrc
  7091  075C  0D2E               	rlf	??___ftdiv+1,w
  7092  075D  0D2F               	rlf	??___ftdiv+2,w
  7093  075E  00B0               	movwf	??___ftdiv+3
  7094  075F  0830               	movf	??___ftdiv+3,w
  7095  0760  00B6               	movwf	___ftdiv@sign
  7096  0761  08B6               	movf	___ftdiv@sign,f
  7097  0762  1D03               	skipz
  7098  0763  2F6B               	goto	i1l2767
  7099  0764  3000               	movlw	0
  7100  0765  00A7               	movwf	?___ftdiv
  7101  0766  3000               	movlw	0
  7102  0767  00A8               	movwf	?___ftdiv+1
  7103  0768  3000               	movlw	0
  7104  0769  00A9               	movwf	?___ftdiv+2
  7105  076A  0008               	return
  7106  076B                     i1l2767:	
  7107  076B  3000               	movlw	0
  7108  076C  00B2               	movwf	___ftdiv@f3
  7109  076D  3000               	movlw	0
  7110  076E  00B3               	movwf	___ftdiv@f3+1
  7111  076F  3000               	movlw	0
  7112  0770  00B4               	movwf	___ftdiv@f3+2
  7113  0771  3089               	movlw	137
  7114  0772  0736               	addwf	___ftdiv@sign,w
  7115  0773  00AD               	movwf	??___ftdiv
  7116  0774  082D               	movf	??___ftdiv,w
  7117  0775  02B5               	subwf	___ftdiv@exp,f
  7118  0776  082A               	movf	___ftdiv@f1,w
  7119  0777  00AD               	movwf	??___ftdiv
  7120  0778  082B               	movf	___ftdiv@f1+1,w
  7121  0779  00AE               	movwf	??___ftdiv+1
  7122  077A  082C               	movf	___ftdiv@f1+2,w
  7123  077B  00AF               	movwf	??___ftdiv+2
  7124  077C  3010               	movlw	16
  7125  077D                     u349_25:	
  7126  077D  1003               	clrc
  7127  077E  0CAF               	rrf	??___ftdiv+2,f
  7128  077F  0CAE               	rrf	??___ftdiv+1,f
  7129  0780  0CAD               	rrf	??___ftdiv,f
  7130  0781  3EFF               	addlw	-1
  7131  0782  1D03               	skipz
  7132  0783  2F7D               	goto	u349_25
  7133  0784  082D               	movf	??___ftdiv,w
  7134  0785  00B0               	movwf	??___ftdiv+3
  7135  0786  0830               	movf	??___ftdiv+3,w
  7136  0787  00B6               	movwf	___ftdiv@sign
  7137  0788  0827               	movf	___ftdiv@f2,w
  7138  0789  00AD               	movwf	??___ftdiv
  7139  078A  0828               	movf	___ftdiv@f2+1,w
  7140  078B  00AE               	movwf	??___ftdiv+1
  7141  078C  0829               	movf	___ftdiv@f2+2,w
  7142  078D  00AF               	movwf	??___ftdiv+2
  7143  078E  3010               	movlw	16
  7144  078F                     u350_25:	
  7145  078F  1003               	clrc
  7146  0790  0CAF               	rrf	??___ftdiv+2,f
  7147  0791  0CAE               	rrf	??___ftdiv+1,f
  7148  0792  0CAD               	rrf	??___ftdiv,f
  7149  0793  3EFF               	addlw	-1
  7150  0794  1D03               	skipz
  7151  0795  2F8F               	goto	u350_25
  7152  0796  082D               	movf	??___ftdiv,w
  7153  0797  00B0               	movwf	??___ftdiv+3
  7154  0798  0830               	movf	??___ftdiv+3,w
  7155  0799  06B6               	xorwf	___ftdiv@sign,f
  7156  079A  3080               	movlw	128
  7157  079B  00AD               	movwf	??___ftdiv
  7158  079C  082D               	movf	??___ftdiv,w
  7159  079D  05B6               	andwf	___ftdiv@sign,f
  7160  079E  17AB               	bsf	___ftdiv@f1+1,7
  7161  079F  30FF               	movlw	255
  7162  07A0  05AA               	andwf	___ftdiv@f1,f
  7163  07A1  30FF               	movlw	255
  7164  07A2  05AB               	andwf	___ftdiv@f1+1,f
  7165  07A3  3000               	movlw	0
  7166  07A4  05AC               	andwf	___ftdiv@f1+2,f
  7167  07A5  17A8               	bsf	___ftdiv@f2+1,7
  7168  07A6  30FF               	movlw	255
  7169  07A7  05A7               	andwf	___ftdiv@f2,f
  7170  07A8  30FF               	movlw	255
  7171  07A9  05A8               	andwf	___ftdiv@f2+1,f
  7172  07AA  3000               	movlw	0
  7173  07AB  05A9               	andwf	___ftdiv@f2+2,f
  7174  07AC  3018               	movlw	24
  7175  07AD  00AD               	movwf	??___ftdiv
  7176  07AE  082D               	movf	??___ftdiv,w
  7177  07AF  00B1               	movwf	___ftdiv@cntr
  7178  07B0                     i1l2781:	
  7179  07B0  3001               	movlw	1
  7180  07B1                     u351_25:	
  7181  07B1  1003               	clrc
  7182  07B2  0DB2               	rlf	___ftdiv@f3,f
  7183  07B3  0DB3               	rlf	___ftdiv@f3+1,f
  7184  07B4  0DB4               	rlf	___ftdiv@f3+2,f
  7185  07B5  3EFF               	addlw	-1
  7186  07B6  1D03               	skipz
  7187  07B7  2FB1               	goto	u351_25
  7188  07B8  0829               	movf	___ftdiv@f2+2,w
  7189  07B9  022C               	subwf	___ftdiv@f1+2,w
  7190  07BA  1D03               	skipz
  7191  07BB  2FC2               	goto	u352_25
  7192  07BC  0828               	movf	___ftdiv@f2+1,w
  7193  07BD  022B               	subwf	___ftdiv@f1+1,w
  7194  07BE  1D03               	skipz
  7195  07BF  2FC2               	goto	u352_25
  7196  07C0  0827               	movf	___ftdiv@f2,w
  7197  07C1  022A               	subwf	___ftdiv@f1,w
  7198  07C2                     u352_25:	
  7199  07C2  1C03               	skipc
  7200  07C3  2FCF               	goto	i1l2789
  7201  07C4  0827               	movf	___ftdiv@f2,w
  7202  07C5  02AA               	subwf	___ftdiv@f1,f
  7203  07C6  0828               	movf	___ftdiv@f2+1,w
  7204  07C7  1C03               	skipc
  7205  07C8  0F28               	incfsz	___ftdiv@f2+1,w
  7206  07C9  02AB               	subwf	___ftdiv@f1+1,f
  7207  07CA  0829               	movf	___ftdiv@f2+2,w
  7208  07CB  1C03               	skipc
  7209  07CC  0A29               	incf	___ftdiv@f2+2,w
  7210  07CD  02AC               	subwf	___ftdiv@f1+2,f
  7211  07CE  1432               	bsf	___ftdiv@f3,0
  7212  07CF                     i1l2789:	
  7213  07CF  3001               	movlw	1
  7214  07D0                     u353_25:	
  7215  07D0  1003               	clrc
  7216  07D1  0DAA               	rlf	___ftdiv@f1,f
  7217  07D2  0DAB               	rlf	___ftdiv@f1+1,f
  7218  07D3  0DAC               	rlf	___ftdiv@f1+2,f
  7219  07D4  3EFF               	addlw	-1
  7220  07D5  1D03               	skipz
  7221  07D6  2FD0               	goto	u353_25
  7222  07D7  3001               	movlw	1
  7223  07D8  02B1               	subwf	___ftdiv@cntr,f
  7224  07D9  1D03               	btfss	3,2
  7225  07DA  2FB0               	goto	i1l2781
  7226  07DB  0832               	movf	___ftdiv@f3,w
  7227  07DC  00F0               	movwf	___ftpack@arg
  7228  07DD  0833               	movf	___ftdiv@f3+1,w
  7229  07DE  00F1               	movwf	___ftpack@arg+1
  7230  07DF  0834               	movf	___ftdiv@f3+2,w
  7231  07E0  00F2               	movwf	___ftpack@arg+2
  7232  07E1  0835               	movf	___ftdiv@exp,w
  7233  07E2  00AD               	movwf	??___ftdiv
  7234  07E3  082D               	movf	??___ftdiv,w
  7235  07E4  00F3               	movwf	___ftpack@exp
  7236  07E5  0836               	movf	___ftdiv@sign,w
  7237  07E6  00AE               	movwf	??___ftdiv+1
  7238  07E7  082E               	movf	??___ftdiv+1,w
  7239  07E8  00F4               	movwf	___ftpack@sign
  7240  07E9  120A  158A  21E9   	fcall	___ftpack
  7241  07EC  0870               	movf	?___ftpack,w
  7242  07ED  1283               	bcf	3,5	;RP0=0, select bank0
  7243  07EE  1303               	bcf	3,6	;RP1=0, select bank0
  7244  07EF  00A7               	movwf	?___ftdiv
  7245  07F0  0871               	movf	?___ftpack+1,w
  7246  07F1  00A8               	movwf	?___ftdiv+1
  7247  07F2  0872               	movf	?___ftpack+2,w
  7248  07F3  00A9               	movwf	?___ftdiv+2
  7249  07F4  0008               	return
  7250  07F5                     __end_of___ftdiv:	
  7251                           
  7252                           	psect	text38
  7253  0CAC                     __ptext38:	
  7254 ;; *************** function ___ftadd *****************
  7255 ;; Defined at:
  7256 ;;		line 86 in file "C:\Program Files (x86)\Microchip\xc8\v1.33\sources\common\ftadd.c"
  7257 ;; Parameters:    Size  Location     Type
  7258 ;;  f1              3    8[COMMON] float 
  7259 ;;  f2              3   11[COMMON] float 
  7260 ;; Auto vars:     Size  Location     Type
  7261 ;;  exp1            1    6[BANK0 ] unsigned char 
  7262 ;;  exp2            1    5[BANK0 ] unsigned char 
  7263 ;;  sign            1    4[BANK0 ] unsigned char 
  7264 ;; Return value:  Size  Location     Type
  7265 ;;                  3    8[COMMON] float 
  7266 ;; Registers used:
  7267 ;;		wreg, status,2, status,0, pclath, cstack
  7268 ;; Tracked objects:
  7269 ;;		On entry : 0/0
  7270 ;;		On exit  : 0/0
  7271 ;;		Unchanged: 0/0
  7272 ;; Data sizes:     COMMON   BANK0   BANK1   BANK3   BANK2
  7273 ;;      Params:         6       0       0       0       0
  7274 ;;      Locals:         0       3       0       0       0
  7275 ;;      Temps:          0       4       0       0       0
  7276 ;;      Totals:         6       7       0       0       0
  7277 ;;Total ram usage:       13 bytes
  7278 ;; Hardware stack levels used:    1
  7279 ;; Hardware stack levels required when called:    1
  7280 ;; This function calls:
  7281 ;;		___ftpack
  7282 ;; This function is called by:
  7283 ;;		_trapezoidal
  7284 ;;		_ISR
  7285 ;;		_triangular
  7286 ;; This function uses a non-reentrant model
  7287 ;;
  7288                           
  7289                           
  7290                           ;psect for function ___ftadd
  7291  0CAC                     ___ftadd:	
  7292                           
  7293                           ;incstack = 0
  7294                           ; Regs used in ___ftadd: [wreg+status,2+status,0+pclath+cstack]
  7295  0CAC  0878               	movf	___ftadd@f1,w
  7296  0CAD  1283               	bcf	3,5	;RP0=0, select bank0
  7297  0CAE  1303               	bcf	3,6	;RP1=0, select bank0
  7298  0CAF  00A0               	movwf	??___ftadd
  7299  0CB0  0879               	movf	___ftadd@f1+1,w
  7300  0CB1  00A1               	movwf	??___ftadd+1
  7301  0CB2  087A               	movf	___ftadd@f1+2,w
  7302  0CB3  00A2               	movwf	??___ftadd+2
  7303  0CB4  1003               	clrc
  7304  0CB5  0D21               	rlf	??___ftadd+1,w
  7305  0CB6  0D22               	rlf	??___ftadd+2,w
  7306  0CB7  00A3               	movwf	??___ftadd+3
  7307  0CB8  0823               	movf	??___ftadd+3,w
  7308  0CB9  00A6               	movwf	___ftadd@exp1
  7309  0CBA  087B               	movf	___ftadd@f2,w
  7310  0CBB  00A0               	movwf	??___ftadd
  7311  0CBC  087C               	movf	___ftadd@f2+1,w
  7312  0CBD  00A1               	movwf	??___ftadd+1
  7313  0CBE  087D               	movf	___ftadd@f2+2,w
  7314  0CBF  00A2               	movwf	??___ftadd+2
  7315  0CC0  1003               	clrc
  7316  0CC1  0D21               	rlf	??___ftadd+1,w
  7317  0CC2  0D22               	rlf	??___ftadd+2,w
  7318  0CC3  00A3               	movwf	??___ftadd+3
  7319  0CC4  0823               	movf	??___ftadd+3,w
  7320  0CC5  00A5               	movwf	___ftadd@exp2
  7321  0CC6  0826               	movf	___ftadd@exp1,w
  7322  0CC7  1903               	btfsc	3,2
  7323  0CC8  2CD5               	goto	i1l2691
  7324  0CC9  0825               	movf	___ftadd@exp2,w
  7325  0CCA  0226               	subwf	___ftadd@exp1,w
  7326  0CCB  1803               	skipnc
  7327  0CCC  2CDC               	goto	i1l2695
  7328  0CCD  0326               	decf	___ftadd@exp1,w
  7329  0CCE  3AFF               	xorlw	255
  7330  0CCF  0725               	addwf	___ftadd@exp2,w
  7331  0CD0  00A0               	movwf	??___ftadd
  7332  0CD1  3019               	movlw	25
  7333  0CD2  0220               	subwf	??___ftadd,w
  7334  0CD3  1C03               	skipc
  7335  0CD4  2CDC               	goto	i1l2695
  7336  0CD5                     i1l2691:	
  7337  0CD5  087B               	movf	___ftadd@f2,w
  7338  0CD6  00F8               	movwf	?___ftadd
  7339  0CD7  087C               	movf	___ftadd@f2+1,w
  7340  0CD8  00F9               	movwf	?___ftadd+1
  7341  0CD9  087D               	movf	___ftadd@f2+2,w
  7342  0CDA  00FA               	movwf	?___ftadd+2
  7343  0CDB  0008               	return
  7344  0CDC                     i1l2695:	
  7345  0CDC  0825               	movf	___ftadd@exp2,w
  7346  0CDD  1903               	btfsc	3,2
  7347  0CDE  0008               	return
  7348  0CDF  0826               	movf	___ftadd@exp1,w
  7349  0CE0  0225               	subwf	___ftadd@exp2,w
  7350  0CE1  1803               	skipnc
  7351  0CE2  2CEB               	goto	i1l2701
  7352  0CE3  0325               	decf	___ftadd@exp2,w
  7353  0CE4  3AFF               	xorlw	255
  7354  0CE5  0726               	addwf	___ftadd@exp1,w
  7355  0CE6  00A0               	movwf	??___ftadd
  7356  0CE7  3019               	movlw	25
  7357  0CE8  0220               	subwf	??___ftadd,w
  7358  0CE9  1803               	btfsc	3,0
  7359  0CEA  0008               	return
  7360  0CEB                     i1l2701:	
  7361  0CEB  3006               	movlw	6
  7362  0CEC  00A0               	movwf	??___ftadd
  7363  0CED  0820               	movf	??___ftadd,w
  7364  0CEE  00A4               	movwf	___ftadd@sign
  7365  0CEF  1BFA               	btfsc	___ftadd@f1+2,7
  7366  0CF0  17A4               	bsf	___ftadd@sign,7
  7367  0CF1  1BFD               	btfsc	___ftadd@f2+2,7
  7368  0CF2  1724               	bsf	___ftadd@sign,6
  7369  0CF3  17F9               	bsf	___ftadd@f1+1,7
  7370  0CF4  30FF               	movlw	255
  7371  0CF5  05F8               	andwf	___ftadd@f1,f
  7372  0CF6  30FF               	movlw	255
  7373  0CF7  05F9               	andwf	___ftadd@f1+1,f
  7374  0CF8  3000               	movlw	0
  7375  0CF9  05FA               	andwf	___ftadd@f1+2,f
  7376  0CFA  17FC               	bsf	___ftadd@f2+1,7
  7377  0CFB  30FF               	movlw	255
  7378  0CFC  05FB               	andwf	___ftadd@f2,f
  7379  0CFD  30FF               	movlw	255
  7380  0CFE  05FC               	andwf	___ftadd@f2+1,f
  7381  0CFF  3000               	movlw	0
  7382  0D00  05FD               	andwf	___ftadd@f2+2,f
  7383  0D01  0825               	movf	___ftadd@exp2,w
  7384  0D02  0226               	subwf	___ftadd@exp1,w
  7385  0D03  1803               	skipnc
  7386  0D04  2D2B               	goto	i1l2723
  7387  0D05                     i1l2713:	
  7388  0D05  3001               	movlw	1
  7389  0D06                     u332_25:	
  7390  0D06  1003               	clrc
  7391  0D07  0DFB               	rlf	___ftadd@f2,f
  7392  0D08  0DFC               	rlf	___ftadd@f2+1,f
  7393  0D09  0DFD               	rlf	___ftadd@f2+2,f
  7394  0D0A  3EFF               	addlw	-1
  7395  0D0B  1D03               	skipz
  7396  0D0C  2D06               	goto	u332_25
  7397  0D0D  3001               	movlw	1
  7398  0D0E  02A5               	subwf	___ftadd@exp2,f
  7399  0D0F  0825               	movf	___ftadd@exp2,w
  7400  0D10  0626               	xorwf	___ftadd@exp1,w
  7401  0D11  1903               	skipnz
  7402  0D12  2D26               	goto	i1l2721
  7403  0D13  3001               	movlw	1
  7404  0D14  02A4               	subwf	___ftadd@sign,f
  7405  0D15  0824               	movf	___ftadd@sign,w
  7406  0D16  3907               	andlw	7
  7407  0D17  1903               	btfsc	3,2
  7408  0D18  2D26               	goto	i1l2721
  7409  0D19  2D05               	goto	i1l2713
  7410  0D1A                     i1l2719:	
  7411  0D1A  3001               	movlw	1
  7412  0D1B                     u335_25:	
  7413  0D1B  1003               	clrc
  7414  0D1C  0CFA               	rrf	___ftadd@f1+2,f
  7415  0D1D  0CF9               	rrf	___ftadd@f1+1,f
  7416  0D1E  0CF8               	rrf	___ftadd@f1,f
  7417  0D1F  3EFF               	addlw	-1
  7418  0D20  1D03               	skipz
  7419  0D21  2D1B               	goto	u335_25
  7420  0D22  3001               	movlw	1
  7421  0D23  00A0               	movwf	??___ftadd
  7422  0D24  0820               	movf	??___ftadd,w
  7423  0D25  07A6               	addwf	___ftadd@exp1,f
  7424  0D26                     i1l2721:	
  7425  0D26  0826               	movf	___ftadd@exp1,w
  7426  0D27  0625               	xorwf	___ftadd@exp2,w
  7427  0D28  1903               	btfsc	3,2
  7428  0D29  2D54               	goto	i1l706
  7429  0D2A  2D1A               	goto	i1l2719
  7430  0D2B                     i1l2723:	
  7431  0D2B  0826               	movf	___ftadd@exp1,w
  7432  0D2C  0225               	subwf	___ftadd@exp2,w
  7433  0D2D  1803               	skipnc
  7434  0D2E  2D54               	goto	i1l706
  7435  0D2F                     i1l2725:	
  7436  0D2F  3001               	movlw	1
  7437  0D30                     u338_25:	
  7438  0D30  1003               	clrc
  7439  0D31  0DF8               	rlf	___ftadd@f1,f
  7440  0D32  0DF9               	rlf	___ftadd@f1+1,f
  7441  0D33  0DFA               	rlf	___ftadd@f1+2,f
  7442  0D34  3EFF               	addlw	-1
  7443  0D35  1D03               	skipz
  7444  0D36  2D30               	goto	u338_25
  7445  0D37  3001               	movlw	1
  7446  0D38  02A6               	subwf	___ftadd@exp1,f
  7447  0D39  0825               	movf	___ftadd@exp2,w
  7448  0D3A  0626               	xorwf	___ftadd@exp1,w
  7449  0D3B  1903               	skipnz
  7450  0D3C  2D50               	goto	i1l2733
  7451  0D3D  3001               	movlw	1
  7452  0D3E  02A4               	subwf	___ftadd@sign,f
  7453  0D3F  0824               	movf	___ftadd@sign,w
  7454  0D40  3907               	andlw	7
  7455  0D41  1903               	btfsc	3,2
  7456  0D42  2D50               	goto	i1l2733
  7457  0D43  2D2F               	goto	i1l2725
  7458  0D44                     i1l2731:	
  7459  0D44  3001               	movlw	1
  7460  0D45                     u341_25:	
  7461  0D45  1003               	clrc
  7462  0D46  0CFD               	rrf	___ftadd@f2+2,f
  7463  0D47  0CFC               	rrf	___ftadd@f2+1,f
  7464  0D48  0CFB               	rrf	___ftadd@f2,f
  7465  0D49  3EFF               	addlw	-1
  7466  0D4A  1D03               	skipz
  7467  0D4B  2D45               	goto	u341_25
  7468  0D4C  3001               	movlw	1
  7469  0D4D  00A0               	movwf	??___ftadd
  7470  0D4E  0820               	movf	??___ftadd,w
  7471  0D4F  07A5               	addwf	___ftadd@exp2,f
  7472  0D50                     i1l2733:	
  7473  0D50  0826               	movf	___ftadd@exp1,w
  7474  0D51  0625               	xorwf	___ftadd@exp2,w
  7475  0D52  1D03               	skipz
  7476  0D53  2D44               	goto	i1l2731
  7477  0D54                     i1l706:	
  7478  0D54  1FA4               	btfss	___ftadd@sign,7
  7479  0D55  2D66               	goto	i1l2737
  7480  0D56  30FF               	movlw	255
  7481  0D57  06F8               	xorwf	___ftadd@f1,f
  7482  0D58  30FF               	movlw	255
  7483  0D59  06F9               	xorwf	___ftadd@f1+1,f
  7484  0D5A  30FF               	movlw	255
  7485  0D5B  06FA               	xorwf	___ftadd@f1+2,f
  7486  0D5C  3001               	movlw	1
  7487  0D5D  07F8               	addwf	___ftadd@f1,f
  7488  0D5E  3000               	movlw	0
  7489  0D5F  1803               	skipnc
  7490  0D60  3001               	movlw	1
  7491  0D61  07F9               	addwf	___ftadd@f1+1,f
  7492  0D62  3000               	movlw	0
  7493  0D63  1803               	skipnc
  7494  0D64  3001               	movlw	1
  7495  0D65  07FA               	addwf	___ftadd@f1+2,f
  7496  0D66                     i1l2737:	
  7497  0D66  1F24               	btfss	___ftadd@sign,6
  7498  0D67  2D78               	goto	i1l2741
  7499  0D68  30FF               	movlw	255
  7500  0D69  06FB               	xorwf	___ftadd@f2,f
  7501  0D6A  30FF               	movlw	255
  7502  0D6B  06FC               	xorwf	___ftadd@f2+1,f
  7503  0D6C  30FF               	movlw	255
  7504  0D6D  06FD               	xorwf	___ftadd@f2+2,f
  7505  0D6E  3001               	movlw	1
  7506  0D6F  07FB               	addwf	___ftadd@f2,f
  7507  0D70  3000               	movlw	0
  7508  0D71  1803               	skipnc
  7509  0D72  3001               	movlw	1
  7510  0D73  07FC               	addwf	___ftadd@f2+1,f
  7511  0D74  3000               	movlw	0
  7512  0D75  1803               	skipnc
  7513  0D76  3001               	movlw	1
  7514  0D77  07FD               	addwf	___ftadd@f2+2,f
  7515  0D78                     i1l2741:	
  7516  0D78  01A4               	clrf	___ftadd@sign
  7517  0D79  0878               	movf	___ftadd@f1,w
  7518  0D7A  07FB               	addwf	___ftadd@f2,f
  7519  0D7B  0879               	movf	___ftadd@f1+1,w
  7520  0D7C  1103               	clrz
  7521  0D7D  1803               	skipnc
  7522  0D7E  0A79               	incf	___ftadd@f1+1,w
  7523  0D7F  1D03               	btfss	3,2
  7524  0D80  07FC               	addwf	___ftadd@f2+1,f
  7525  0D81  087A               	movf	___ftadd@f1+2,w
  7526  0D82  1103               	clrz
  7527  0D83  1803               	skipnc
  7528  0D84  0A7A               	incf	___ftadd@f1+2,w
  7529  0D85  1D03               	btfss	3,2
  7530  0D86  07FD               	addwf	___ftadd@f2+2,f
  7531  0D87  1FFD               	btfss	___ftadd@f2+2,7
  7532  0D88  2D9B               	goto	i1l2751
  7533  0D89  30FF               	movlw	255
  7534  0D8A  06FB               	xorwf	___ftadd@f2,f
  7535  0D8B  30FF               	movlw	255
  7536  0D8C  06FC               	xorwf	___ftadd@f2+1,f
  7537  0D8D  30FF               	movlw	255
  7538  0D8E  06FD               	xorwf	___ftadd@f2+2,f
  7539  0D8F  3001               	movlw	1
  7540  0D90  07FB               	addwf	___ftadd@f2,f
  7541  0D91  3000               	movlw	0
  7542  0D92  1803               	skipnc
  7543  0D93  3001               	movlw	1
  7544  0D94  07FC               	addwf	___ftadd@f2+1,f
  7545  0D95  3000               	movlw	0
  7546  0D96  1803               	skipnc
  7547  0D97  3001               	movlw	1
  7548  0D98  07FD               	addwf	___ftadd@f2+2,f
  7549  0D99  01A4               	clrf	___ftadd@sign
  7550  0D9A  0AA4               	incf	___ftadd@sign,f
  7551  0D9B                     i1l2751:	
  7552  0D9B  087B               	movf	___ftadd@f2,w
  7553  0D9C  00F0               	movwf	___ftpack@arg
  7554  0D9D  087C               	movf	___ftadd@f2+1,w
  7555  0D9E  00F1               	movwf	___ftpack@arg+1
  7556  0D9F  087D               	movf	___ftadd@f2+2,w
  7557  0DA0  00F2               	movwf	___ftpack@arg+2
  7558  0DA1  0826               	movf	___ftadd@exp1,w
  7559  0DA2  00A0               	movwf	??___ftadd
  7560  0DA3  0820               	movf	??___ftadd,w
  7561  0DA4  00F3               	movwf	___ftpack@exp
  7562  0DA5  0824               	movf	___ftadd@sign,w
  7563  0DA6  00A1               	movwf	??___ftadd+1
  7564  0DA7  0821               	movf	??___ftadd+1,w
  7565  0DA8  00F4               	movwf	___ftpack@sign
  7566  0DA9  120A  158A  21E9   	fcall	___ftpack
  7567  0DAC  0870               	movf	?___ftpack,w
  7568  0DAD  00F8               	movwf	?___ftadd
  7569  0DAE  0871               	movf	?___ftpack+1,w
  7570  0DAF  00F9               	movwf	?___ftadd+1
  7571  0DB0  0872               	movf	?___ftpack+2,w
  7572  0DB1  00FA               	movwf	?___ftadd+2
  7573  0DB2  0008               	return
  7574  0DB3                     __end_of___ftadd:	
  7575                           
  7576                           	psect	text39
  7577  1691                     __ptext39:	
  7578 ;; *************** function ___lwtoft *****************
  7579 ;; Defined at:
  7580 ;;		line 28 in file "C:\Program Files (x86)\Microchip\xc8\v1.33\sources\common\lwtoft.c"
  7581 ;; Parameters:    Size  Location     Type
  7582 ;;  c               2    8[COMMON] unsigned int 
  7583 ;; Auto vars:     Size  Location     Type
  7584 ;;		None
  7585 ;; Return value:  Size  Location     Type
  7586 ;;                  3    8[COMMON] float 
  7587 ;; Registers used:
  7588 ;;		wreg, status,2, status,0, pclath, cstack
  7589 ;; Tracked objects:
  7590 ;;		On entry : 0/0
  7591 ;;		On exit  : 0/0
  7592 ;;		Unchanged: 0/0
  7593 ;; Data sizes:     COMMON   BANK0   BANK1   BANK3   BANK2
  7594 ;;      Params:         3       0       0       0       0
  7595 ;;      Locals:         0       0       0       0       0
  7596 ;;      Temps:          1       0       0       0       0
  7597 ;;      Totals:         4       0       0       0       0
  7598 ;;Total ram usage:        4 bytes
  7599 ;; Hardware stack levels used:    1
  7600 ;; Hardware stack levels required when called:    1
  7601 ;; This function calls:
  7602 ;;		___ftpack
  7603 ;; This function is called by:
  7604 ;;		_ISR
  7605 ;; This function uses a non-reentrant model
  7606 ;;
  7607                           
  7608                           
  7609                           ;psect for function ___lwtoft
  7610  1691                     ___lwtoft:	
  7611                           
  7612                           ;incstack = 0
  7613                           ; Regs used in ___lwtoft: [wreg+status,2+status,0+pclath+cstack]
  7614  1691  0878               	movf	___lwtoft@c,w
  7615  1692  00F0               	movwf	___ftpack@arg
  7616  1693  0879               	movf	___lwtoft@c+1,w
  7617  1694  00F1               	movwf	___ftpack@arg+1
  7618  1695  01F2               	clrf	___ftpack@arg+2
  7619  1696  308E               	movlw	142
  7620  1697  00FB               	movwf	??___lwtoft
  7621  1698  087B               	movf	??___lwtoft,w
  7622  1699  00F3               	movwf	___ftpack@exp
  7623  169A  01F4               	clrf	___ftpack@sign
  7624  169B  120A  158A  21E9   	fcall	___ftpack
  7625  169E  0870               	movf	?___ftpack,w
  7626  169F  00F8               	movwf	?___lwtoft
  7627  16A0  0871               	movf	?___ftpack+1,w
  7628  16A1  00F9               	movwf	?___lwtoft+1
  7629  16A2  0872               	movf	?___ftpack+2,w
  7630  16A3  00FA               	movwf	?___lwtoft+2
  7631  16A4  0008               	return
  7632  16A5                     __end_of___lwtoft:	
  7633                           
  7634                           	psect	text40
  7635  0ABC                     __ptext40:	
  7636 ;; *************** function ___fttol *****************
  7637 ;; Defined at:
  7638 ;;		line 44 in file "C:\Program Files (x86)\Microchip\xc8\v1.33\sources\common\fttol.c"
  7639 ;; Parameters:    Size  Location     Type
  7640 ;;  f1              3   54[BANK0 ] float 
  7641 ;; Auto vars:     Size  Location     Type
  7642 ;;  lval            4   63[BANK0 ] unsigned long 
  7643 ;;  exp1            1   67[BANK0 ] unsigned char 
  7644 ;;  sign1           1   62[BANK0 ] unsigned char 
  7645 ;; Return value:  Size  Location     Type
  7646 ;;                  4   54[BANK0 ] long 
  7647 ;; Registers used:
  7648 ;;		wreg, status,2, status,0
  7649 ;; Tracked objects:
  7650 ;;		On entry : 0/0
  7651 ;;		On exit  : 0/0
  7652 ;;		Unchanged: 0/0
  7653 ;; Data sizes:     COMMON   BANK0   BANK1   BANK3   BANK2
  7654 ;;      Params:         0       4       0       0       0
  7655 ;;      Locals:         0       6       0       0       0
  7656 ;;      Temps:          0       4       0       0       0
  7657 ;;      Totals:         0      14       0       0       0
  7658 ;;Total ram usage:       14 bytes
  7659 ;; Hardware stack levels used:    1
  7660 ;; This function calls:
  7661 ;;		Nothing
  7662 ;; This function is called by:
  7663 ;;		_ISR
  7664 ;; This function uses a non-reentrant model
  7665 ;;
  7666                           
  7667                           
  7668                           ;psect for function ___fttol
  7669  0ABC                     ___fttol:	
  7670                           
  7671                           ;incstack = 0
  7672                           ; Regs used in ___fttol: [wreg+status,2+status,0]
  7673  0ABC  1283               	bcf	3,5	;RP0=0, select bank0
  7674  0ABD  1303               	bcf	3,6	;RP1=0, select bank0
  7675  0ABE  0856               	movf	___fttol@f1,w
  7676  0ABF  00DA               	movwf	??___fttol
  7677  0AC0  0857               	movf	___fttol@f1+1,w
  7678  0AC1  00DB               	movwf	??___fttol+1
  7679  0AC2  0858               	movf	___fttol@f1+2,w
  7680  0AC3  00DC               	movwf	??___fttol+2
  7681  0AC4  1003               	clrc
  7682  0AC5  0D5B               	rlf	??___fttol+1,w
  7683  0AC6  0D5C               	rlf	??___fttol+2,w
  7684  0AC7  00DD               	movwf	??___fttol+3
  7685  0AC8  085D               	movf	??___fttol+3,w
  7686  0AC9  00E3               	movwf	___fttol@exp1
  7687  0ACA  08E3               	movf	___fttol@exp1,f
  7688  0ACB  1D03               	skipz
  7689  0ACC  2AD6               	goto	i1l3085
  7690  0ACD  3000               	movlw	0
  7691  0ACE  00D9               	movwf	?___fttol+3
  7692  0ACF  3000               	movlw	0
  7693  0AD0  00D8               	movwf	?___fttol+2
  7694  0AD1  3000               	movlw	0
  7695  0AD2  00D7               	movwf	?___fttol+1
  7696  0AD3  3000               	movlw	0
  7697  0AD4  00D6               	movwf	?___fttol
  7698  0AD5  0008               	return
  7699  0AD6                     i1l3085:	
  7700  0AD6  0856               	movf	___fttol@f1,w
  7701  0AD7  00DA               	movwf	??___fttol
  7702  0AD8  0857               	movf	___fttol@f1+1,w
  7703  0AD9  00DB               	movwf	??___fttol+1
  7704  0ADA  0858               	movf	___fttol@f1+2,w
  7705  0ADB  00DC               	movwf	??___fttol+2
  7706  0ADC  3017               	movlw	23
  7707  0ADD                     u390_25:	
  7708  0ADD  1003               	clrc
  7709  0ADE  0CDC               	rrf	??___fttol+2,f
  7710  0ADF  0CDB               	rrf	??___fttol+1,f
  7711  0AE0  0CDA               	rrf	??___fttol,f
  7712  0AE1  3EFF               	addlw	-1
  7713  0AE2  1D03               	skipz
  7714  0AE3  2ADD               	goto	u390_25
  7715  0AE4  085A               	movf	??___fttol,w
  7716  0AE5  00DD               	movwf	??___fttol+3
  7717  0AE6  085D               	movf	??___fttol+3,w
  7718  0AE7  00DE               	movwf	___fttol@sign1
  7719  0AE8  17D7               	bsf	___fttol@f1+1,7
  7720  0AE9  30FF               	movlw	255
  7721  0AEA  05D6               	andwf	___fttol@f1,f
  7722  0AEB  30FF               	movlw	255
  7723  0AEC  05D7               	andwf	___fttol@f1+1,f
  7724  0AED  3000               	movlw	0
  7725  0AEE  05D8               	andwf	___fttol@f1+2,f
  7726  0AEF  0856               	movf	___fttol@f1,w
  7727  0AF0  00DF               	movwf	___fttol@lval
  7728  0AF1  0857               	movf	___fttol@f1+1,w
  7729  0AF2  00E0               	movwf	___fttol@lval+1
  7730  0AF3  0858               	movf	___fttol@f1+2,w
  7731  0AF4  00E1               	movwf	___fttol@lval+2
  7732  0AF5  01E2               	clrf	___fttol@lval+3
  7733  0AF6  308E               	movlw	142
  7734  0AF7  02E3               	subwf	___fttol@exp1,f
  7735  0AF8  1FE3               	btfss	___fttol@exp1,7
  7736  0AF9  2B18               	goto	i1l3105
  7737  0AFA  0863               	movf	___fttol@exp1,w
  7738  0AFB  3A80               	xorlw	128
  7739  0AFC  3E8F               	addlw	143
  7740  0AFD  1803               	skipnc
  7741  0AFE  2B08               	goto	i1l3103
  7742  0AFF  3000               	movlw	0
  7743  0B00  00D9               	movwf	?___fttol+3
  7744  0B01  3000               	movlw	0
  7745  0B02  00D8               	movwf	?___fttol+2
  7746  0B03  3000               	movlw	0
  7747  0B04  00D7               	movwf	?___fttol+1
  7748  0B05  3000               	movlw	0
  7749  0B06  00D6               	movwf	?___fttol
  7750  0B07  0008               	return
  7751  0B08                     i1l3103:	
  7752  0B08  3001               	movlw	1
  7753  0B09                     u393_25:	
  7754  0B09  1003               	clrc
  7755  0B0A  0CE2               	rrf	___fttol@lval+3,f
  7756  0B0B  0CE1               	rrf	___fttol@lval+2,f
  7757  0B0C  0CE0               	rrf	___fttol@lval+1,f
  7758  0B0D  0CDF               	rrf	___fttol@lval,f
  7759  0B0E  3EFF               	addlw	-1
  7760  0B0F  1D03               	skipz
  7761  0B10  2B09               	goto	u393_25
  7762  0B11  3001               	movlw	1
  7763  0B12  00DA               	movwf	??___fttol
  7764  0B13  085A               	movf	??___fttol,w
  7765  0B14  07E3               	addwf	___fttol@exp1,f
  7766  0B15  1903               	btfsc	3,2
  7767  0B16  2B33               	goto	i1l3115
  7768  0B17  2B08               	goto	i1l3103
  7769  0B18                     i1l3105:	
  7770  0B18  3018               	movlw	24
  7771  0B19  0263               	subwf	___fttol@exp1,w
  7772  0B1A  1C03               	skipc
  7773  0B1B  2B30               	goto	i1l3113
  7774  0B1C  3000               	movlw	0
  7775  0B1D  00D9               	movwf	?___fttol+3
  7776  0B1E  3000               	movlw	0
  7777  0B1F  00D8               	movwf	?___fttol+2
  7778  0B20  3000               	movlw	0
  7779  0B21  00D7               	movwf	?___fttol+1
  7780  0B22  3000               	movlw	0
  7781  0B23  00D6               	movwf	?___fttol
  7782  0B24  0008               	return
  7783  0B25                     i1l3111:	
  7784  0B25  3001               	movlw	1
  7785  0B26  00DA               	movwf	??___fttol
  7786  0B27                     u396_25:	
  7787  0B27  1003               	clrc
  7788  0B28  0DDF               	rlf	___fttol@lval,f
  7789  0B29  0DE0               	rlf	___fttol@lval+1,f
  7790  0B2A  0DE1               	rlf	___fttol@lval+2,f
  7791  0B2B  0DE2               	rlf	___fttol@lval+3,f
  7792  0B2C  0BDA               	decfsz	??___fttol,f
  7793  0B2D  2B27               	goto	u396_25
  7794  0B2E  3001               	movlw	1
  7795  0B2F  02E3               	subwf	___fttol@exp1,f
  7796  0B30                     i1l3113:	
  7797  0B30  08E3               	movf	___fttol@exp1,f
  7798  0B31  1D03               	skipz
  7799  0B32  2B25               	goto	i1l3111
  7800  0B33                     i1l3115:	
  7801  0B33  085E               	movf	___fttol@sign1,w
  7802  0B34  1903               	btfsc	3,2
  7803  0B35  2B41               	goto	i1l3119
  7804  0B36  09DF               	comf	___fttol@lval,f
  7805  0B37  09E0               	comf	___fttol@lval+1,f
  7806  0B38  09E1               	comf	___fttol@lval+2,f
  7807  0B39  09E2               	comf	___fttol@lval+3,f
  7808  0B3A  0ADF               	incf	___fttol@lval,f
  7809  0B3B  1903               	skipnz
  7810  0B3C  0AE0               	incf	___fttol@lval+1,f
  7811  0B3D  1903               	skipnz
  7812  0B3E  0AE1               	incf	___fttol@lval+2,f
  7813  0B3F  1903               	skipnz
  7814  0B40  0AE2               	incf	___fttol@lval+3,f
  7815  0B41                     i1l3119:	
  7816  0B41  0862               	movf	___fttol@lval+3,w
  7817  0B42  00D9               	movwf	?___fttol+3
  7818  0B43  0861               	movf	___fttol@lval+2,w
  7819  0B44  00D8               	movwf	?___fttol+2
  7820  0B45  0860               	movf	___fttol@lval+1,w
  7821  0B46  00D7               	movwf	?___fttol+1
  7822  0B47  085F               	movf	___fttol@lval,w
  7823  0B48  00D6               	movwf	?___fttol
  7824  0B49  0008               	return
  7825  0B4A                     __end_of___fttol:	
  7826                           
  7827                           	psect	text41
  7828  0BD9                     __ptext41:	
  7829 ;; *************** function ___ftmul *****************
  7830 ;; Defined at:
  7831 ;;		line 62 in file "C:\Program Files (x86)\Microchip\xc8\v1.33\sources\common\ftmul.c"
  7832 ;; Parameters:    Size  Location     Type
  7833 ;;  f1              3   38[BANK0 ] float 
  7834 ;;  f2              3   41[BANK0 ] float 
  7835 ;; Auto vars:     Size  Location     Type
  7836 ;;  f3_as_produc    3   49[BANK0 ] unsigned um
  7837 ;;  sign            1   53[BANK0 ] unsigned char 
  7838 ;;  cntr            1   52[BANK0 ] unsigned char 
  7839 ;;  exp             1   48[BANK0 ] unsigned char 
  7840 ;; Return value:  Size  Location     Type
  7841 ;;                  3   38[BANK0 ] float 
  7842 ;; Registers used:
  7843 ;;		wreg, status,2, status,0, pclath, cstack
  7844 ;; Tracked objects:
  7845 ;;		On entry : 0/0
  7846 ;;		On exit  : 0/0
  7847 ;;		Unchanged: 0/0
  7848 ;; Data sizes:     COMMON   BANK0   BANK1   BANK3   BANK2
  7849 ;;      Params:         0       6       0       0       0
  7850 ;;      Locals:         0       6       0       0       0
  7851 ;;      Temps:          0       4       0       0       0
  7852 ;;      Totals:         0      16       0       0       0
  7853 ;;Total ram usage:       16 bytes
  7854 ;; Hardware stack levels used:    1
  7855 ;; Hardware stack levels required when called:    1
  7856 ;; This function calls:
  7857 ;;		___ftpack
  7858 ;; This function is called by:
  7859 ;;		_ISR
  7860 ;; This function uses a non-reentrant model
  7861 ;;
  7862                           
  7863                           
  7864                           ;psect for function ___ftmul
  7865  0BD9                     ___ftmul:	
  7866                           
  7867                           ;incstack = 0
  7868                           ; Regs used in ___ftmul: [wreg+status,2+status,0+pclath+cstack]
  7869  0BD9  1283               	bcf	3,5	;RP0=0, select bank0
  7870  0BDA  1303               	bcf	3,6	;RP1=0, select bank0
  7871  0BDB  0846               	movf	___ftmul@f1,w
  7872  0BDC  00CC               	movwf	??___ftmul
  7873  0BDD  0847               	movf	___ftmul@f1+1,w
  7874  0BDE  00CD               	movwf	??___ftmul+1
  7875  0BDF  0848               	movf	___ftmul@f1+2,w
  7876  0BE0  00CE               	movwf	??___ftmul+2
  7877  0BE1  1003               	clrc
  7878  0BE2  0D4D               	rlf	??___ftmul+1,w
  7879  0BE3  0D4E               	rlf	??___ftmul+2,w
  7880  0BE4  00CF               	movwf	??___ftmul+3
  7881  0BE5  084F               	movf	??___ftmul+3,w
  7882  0BE6  00D0               	movwf	___ftmul@exp
  7883  0BE7  08D0               	movf	___ftmul@exp,f
  7884  0BE8  1D03               	skipz
  7885  0BE9  2BF1               	goto	i1l3035
  7886  0BEA  3000               	movlw	0
  7887  0BEB  00C6               	movwf	?___ftmul
  7888  0BEC  3000               	movlw	0
  7889  0BED  00C7               	movwf	?___ftmul+1
  7890  0BEE  3000               	movlw	0
  7891  0BEF  00C8               	movwf	?___ftmul+2
  7892  0BF0  0008               	return
  7893  0BF1                     i1l3035:	
  7894  0BF1  0849               	movf	___ftmul@f2,w
  7895  0BF2  00CC               	movwf	??___ftmul
  7896  0BF3  084A               	movf	___ftmul@f2+1,w
  7897  0BF4  00CD               	movwf	??___ftmul+1
  7898  0BF5  084B               	movf	___ftmul@f2+2,w
  7899  0BF6  00CE               	movwf	??___ftmul+2
  7900  0BF7  1003               	clrc
  7901  0BF8  0D4D               	rlf	??___ftmul+1,w
  7902  0BF9  0D4E               	rlf	??___ftmul+2,w
  7903  0BFA  00CF               	movwf	??___ftmul+3
  7904  0BFB  084F               	movf	??___ftmul+3,w
  7905  0BFC  00D5               	movwf	___ftmul@sign
  7906  0BFD  08D5               	movf	___ftmul@sign,f
  7907  0BFE  1D03               	skipz
  7908  0BFF  2C07               	goto	i1l3041
  7909  0C00  3000               	movlw	0
  7910  0C01  00C6               	movwf	?___ftmul
  7911  0C02  3000               	movlw	0
  7912  0C03  00C7               	movwf	?___ftmul+1
  7913  0C04  3000               	movlw	0
  7914  0C05  00C8               	movwf	?___ftmul+2
  7915  0C06  0008               	return
  7916  0C07                     i1l3041:	
  7917  0C07  0855               	movf	___ftmul@sign,w
  7918  0C08  3E7B               	addlw	123
  7919  0C09  00CC               	movwf	??___ftmul
  7920  0C0A  084C               	movf	??___ftmul,w
  7921  0C0B  07D0               	addwf	___ftmul@exp,f
  7922  0C0C  0846               	movf	___ftmul@f1,w
  7923  0C0D  00CC               	movwf	??___ftmul
  7924  0C0E  0847               	movf	___ftmul@f1+1,w
  7925  0C0F  00CD               	movwf	??___ftmul+1
  7926  0C10  0848               	movf	___ftmul@f1+2,w
  7927  0C11  00CE               	movwf	??___ftmul+2
  7928  0C12  3010               	movlw	16
  7929  0C13                     u377_25:	
  7930  0C13  1003               	clrc
  7931  0C14  0CCE               	rrf	??___ftmul+2,f
  7932  0C15  0CCD               	rrf	??___ftmul+1,f
  7933  0C16  0CCC               	rrf	??___ftmul,f
  7934  0C17  3EFF               	addlw	-1
  7935  0C18  1D03               	skipz
  7936  0C19  2C13               	goto	u377_25
  7937  0C1A  084C               	movf	??___ftmul,w
  7938  0C1B  00CF               	movwf	??___ftmul+3
  7939  0C1C  084F               	movf	??___ftmul+3,w
  7940  0C1D  00D5               	movwf	___ftmul@sign
  7941  0C1E  0849               	movf	___ftmul@f2,w
  7942  0C1F  00CC               	movwf	??___ftmul
  7943  0C20  084A               	movf	___ftmul@f2+1,w
  7944  0C21  00CD               	movwf	??___ftmul+1
  7945  0C22  084B               	movf	___ftmul@f2+2,w
  7946  0C23  00CE               	movwf	??___ftmul+2
  7947  0C24  3010               	movlw	16
  7948  0C25                     u378_25:	
  7949  0C25  1003               	clrc
  7950  0C26  0CCE               	rrf	??___ftmul+2,f
  7951  0C27  0CCD               	rrf	??___ftmul+1,f
  7952  0C28  0CCC               	rrf	??___ftmul,f
  7953  0C29  3EFF               	addlw	-1
  7954  0C2A  1D03               	skipz
  7955  0C2B  2C25               	goto	u378_25
  7956  0C2C  084C               	movf	??___ftmul,w
  7957  0C2D  00CF               	movwf	??___ftmul+3
  7958  0C2E  084F               	movf	??___ftmul+3,w
  7959  0C2F  06D5               	xorwf	___ftmul@sign,f
  7960  0C30  3080               	movlw	128
  7961  0C31  00CC               	movwf	??___ftmul
  7962  0C32  084C               	movf	??___ftmul,w
  7963  0C33  05D5               	andwf	___ftmul@sign,f
  7964  0C34  17C7               	bsf	___ftmul@f1+1,7
  7965  0C35  17CA               	bsf	___ftmul@f2+1,7
  7966  0C36  30FF               	movlw	255
  7967  0C37  05C9               	andwf	___ftmul@f2,f
  7968  0C38  30FF               	movlw	255
  7969  0C39  05CA               	andwf	___ftmul@f2+1,f
  7970  0C3A  3000               	movlw	0
  7971  0C3B  05CB               	andwf	___ftmul@f2+2,f
  7972  0C3C  3000               	movlw	0
  7973  0C3D  00D1               	movwf	___ftmul@f3_as_product
  7974  0C3E  3000               	movlw	0
  7975  0C3F  00D2               	movwf	___ftmul@f3_as_product+1
  7976  0C40  3000               	movlw	0
  7977  0C41  00D3               	movwf	___ftmul@f3_as_product+2
  7978  0C42  3007               	movlw	7
  7979  0C43  00CC               	movwf	??___ftmul
  7980  0C44  084C               	movf	??___ftmul,w
  7981  0C45  00D4               	movwf	___ftmul@cntr
  7982  0C46                     i1l3053:	
  7983  0C46  1C46               	btfss	___ftmul@f1,0
  7984  0C47  2C56               	goto	i1l3057
  7985  0C48  0849               	movf	___ftmul@f2,w
  7986  0C49  07D1               	addwf	___ftmul@f3_as_product,f
  7987  0C4A  084A               	movf	___ftmul@f2+1,w
  7988  0C4B  1103               	clrz
  7989  0C4C  1803               	skipnc
  7990  0C4D  0A4A               	incf	___ftmul@f2+1,w
  7991  0C4E  1D03               	btfss	3,2
  7992  0C4F  07D2               	addwf	___ftmul@f3_as_product+1,f
  7993  0C50  084B               	movf	___ftmul@f2+2,w
  7994  0C51  1103               	clrz
  7995  0C52  1803               	skipnc
  7996  0C53  0A4B               	incf	___ftmul@f2+2,w
  7997  0C54  1D03               	btfss	3,2
  7998  0C55  07D3               	addwf	___ftmul@f3_as_product+2,f
  7999  0C56                     i1l3057:	
  8000  0C56  3001               	movlw	1
  8001  0C57                     u381_25:	
  8002  0C57  1003               	clrc
  8003  0C58  0CC8               	rrf	___ftmul@f1+2,f
  8004  0C59  0CC7               	rrf	___ftmul@f1+1,f
  8005  0C5A  0CC6               	rrf	___ftmul@f1,f
  8006  0C5B  3EFF               	addlw	-1
  8007  0C5C  1D03               	skipz
  8008  0C5D  2C57               	goto	u381_25
  8009  0C5E  3001               	movlw	1
  8010  0C5F                     u382_25:	
  8011  0C5F  1003               	clrc
  8012  0C60  0DC9               	rlf	___ftmul@f2,f
  8013  0C61  0DCA               	rlf	___ftmul@f2+1,f
  8014  0C62  0DCB               	rlf	___ftmul@f2+2,f
  8015  0C63  3EFF               	addlw	-1
  8016  0C64  1D03               	skipz
  8017  0C65  2C5F               	goto	u382_25
  8018  0C66  3001               	movlw	1
  8019  0C67  02D4               	subwf	___ftmul@cntr,f
  8020  0C68  1D03               	btfss	3,2
  8021  0C69  2C46               	goto	i1l3053
  8022  0C6A  3009               	movlw	9
  8023  0C6B  00CC               	movwf	??___ftmul
  8024  0C6C  084C               	movf	??___ftmul,w
  8025  0C6D  00D4               	movwf	___ftmul@cntr
  8026  0C6E                     i1l3065:	
  8027  0C6E  1C46               	btfss	___ftmul@f1,0
  8028  0C6F  2C7E               	goto	i1l3069
  8029  0C70  0849               	movf	___ftmul@f2,w
  8030  0C71  07D1               	addwf	___ftmul@f3_as_product,f
  8031  0C72  084A               	movf	___ftmul@f2+1,w
  8032  0C73  1103               	clrz
  8033  0C74  1803               	skipnc
  8034  0C75  0A4A               	incf	___ftmul@f2+1,w
  8035  0C76  1D03               	btfss	3,2
  8036  0C77  07D2               	addwf	___ftmul@f3_as_product+1,f
  8037  0C78  084B               	movf	___ftmul@f2+2,w
  8038  0C79  1103               	clrz
  8039  0C7A  1803               	skipnc
  8040  0C7B  0A4B               	incf	___ftmul@f2+2,w
  8041  0C7C  1D03               	btfss	3,2
  8042  0C7D  07D3               	addwf	___ftmul@f3_as_product+2,f
  8043  0C7E                     i1l3069:	
  8044  0C7E  3001               	movlw	1
  8045  0C7F                     u386_25:	
  8046  0C7F  1003               	clrc
  8047  0C80  0CC8               	rrf	___ftmul@f1+2,f
  8048  0C81  0CC7               	rrf	___ftmul@f1+1,f
  8049  0C82  0CC6               	rrf	___ftmul@f1,f
  8050  0C83  3EFF               	addlw	-1
  8051  0C84  1D03               	skipz
  8052  0C85  2C7F               	goto	u386_25
  8053  0C86  3001               	movlw	1
  8054  0C87                     u387_25:	
  8055  0C87  1003               	clrc
  8056  0C88  0CD3               	rrf	___ftmul@f3_as_product+2,f
  8057  0C89  0CD2               	rrf	___ftmul@f3_as_product+1,f
  8058  0C8A  0CD1               	rrf	___ftmul@f3_as_product,f
  8059  0C8B  3EFF               	addlw	-1
  8060  0C8C  1D03               	skipz
  8061  0C8D  2C87               	goto	u387_25
  8062  0C8E  3001               	movlw	1
  8063  0C8F  02D4               	subwf	___ftmul@cntr,f
  8064  0C90  1D03               	btfss	3,2
  8065  0C91  2C6E               	goto	i1l3065
  8066  0C92  0851               	movf	___ftmul@f3_as_product,w
  8067  0C93  00F0               	movwf	___ftpack@arg
  8068  0C94  0852               	movf	___ftmul@f3_as_product+1,w
  8069  0C95  00F1               	movwf	___ftpack@arg+1
  8070  0C96  0853               	movf	___ftmul@f3_as_product+2,w
  8071  0C97  00F2               	movwf	___ftpack@arg+2
  8072  0C98  0850               	movf	___ftmul@exp,w
  8073  0C99  00CC               	movwf	??___ftmul
  8074  0C9A  084C               	movf	??___ftmul,w
  8075  0C9B  00F3               	movwf	___ftpack@exp
  8076  0C9C  0855               	movf	___ftmul@sign,w
  8077  0C9D  00CD               	movwf	??___ftmul+1
  8078  0C9E  084D               	movf	??___ftmul+1,w
  8079  0C9F  00F4               	movwf	___ftpack@sign
  8080  0CA0  120A  158A  21E9   	fcall	___ftpack
  8081  0CA3  0870               	movf	?___ftpack,w
  8082  0CA4  1283               	bcf	3,5	;RP0=0, select bank0
  8083  0CA5  1303               	bcf	3,6	;RP1=0, select bank0
  8084  0CA6  00C6               	movwf	?___ftmul
  8085  0CA7  0871               	movf	?___ftpack+1,w
  8086  0CA8  00C7               	movwf	?___ftmul+1
  8087  0CA9  0872               	movf	?___ftpack+2,w
  8088  0CAA  00C8               	movwf	?___ftmul+2
  8089  0CAB  0008               	return
  8090  0CAC                     __end_of___ftmul:	
  8091                           
  8092                           	psect	text42
  8093  09E9                     __ptext42:	
  8094 ;; *************** function ___ftpack *****************
  8095 ;; Defined at:
  8096 ;;		line 62 in file "C:\Program Files (x86)\Microchip\xc8\v1.33\sources\common\float.c"
  8097 ;; Parameters:    Size  Location     Type
  8098 ;;  arg             3    0[COMMON] unsigned um
  8099 ;;  exp             1    3[COMMON] unsigned char 
  8100 ;;  sign            1    4[COMMON] unsigned char 
  8101 ;; Auto vars:     Size  Location     Type
  8102 ;;		None
  8103 ;; Return value:  Size  Location     Type
  8104 ;;                  3    0[COMMON] float 
  8105 ;; Registers used:
  8106 ;;		wreg, status,2, status,0
  8107 ;; Tracked objects:
  8108 ;;		On entry : 0/0
  8109 ;;		On exit  : 0/0
  8110 ;;		Unchanged: 0/0
  8111 ;; Data sizes:     COMMON   BANK0   BANK1   BANK3   BANK2
  8112 ;;      Params:         5       0       0       0       0
  8113 ;;      Locals:         0       0       0       0       0
  8114 ;;      Temps:          3       0       0       0       0
  8115 ;;      Totals:         8       0       0       0       0
  8116 ;;Total ram usage:        8 bytes
  8117 ;; Hardware stack levels used:    1
  8118 ;; This function calls:
  8119 ;;		Nothing
  8120 ;; This function is called by:
  8121 ;;		___ftadd
  8122 ;;		___ftdiv
  8123 ;;		___ftmul
  8124 ;;		___lwtoft
  8125 ;; This function uses a non-reentrant model
  8126 ;;
  8127                           
  8128                           
  8129                           ;psect for function ___ftpack
  8130  09E9                     ___ftpack:	
  8131                           
  8132                           ;incstack = 0
  8133                           ; Regs used in ___ftpack: [wreg+status,2+status,0]
  8134  09E9  0873               	movf	___ftpack@exp,w
  8135  09EA  1903               	btfsc	3,2
  8136  09EB  29F1               	goto	i1l2275
  8137  09EC  0872               	movf	___ftpack@arg+2,w
  8138  09ED  0471               	iorwf	___ftpack@arg+1,w
  8139  09EE  0470               	iorwf	___ftpack@arg,w
  8140  09EF  1D03               	skipz
  8141  09F0  2A04               	goto	i1l2281
  8142  09F1                     i1l2275:	
  8143  09F1  3000               	movlw	0
  8144  09F2  00F0               	movwf	?___ftpack
  8145  09F3  3000               	movlw	0
  8146  09F4  00F1               	movwf	?___ftpack+1
  8147  09F5  3000               	movlw	0
  8148  09F6  00F2               	movwf	?___ftpack+2
  8149  09F7  0008               	return
  8150  09F8                     i1l2279:	
  8151  09F8  3001               	movlw	1
  8152  09F9  00F5               	movwf	??___ftpack
  8153  09FA  0875               	movf	??___ftpack,w
  8154  09FB  07F3               	addwf	___ftpack@exp,f
  8155  09FC  3001               	movlw	1
  8156  09FD                     u240_25:	
  8157  09FD  1003               	clrc
  8158  09FE  0CF2               	rrf	___ftpack@arg+2,f
  8159  09FF  0CF1               	rrf	___ftpack@arg+1,f
  8160  0A00  0CF0               	rrf	___ftpack@arg,f
  8161  0A01  3EFF               	addlw	-1
  8162  0A02  1D03               	skipz
  8163  0A03  29FD               	goto	u240_25
  8164  0A04                     i1l2281:	
  8165  0A04  30FE               	movlw	254
  8166  0A05  0572               	andwf	___ftpack@arg+2,w
  8167  0A06  1903               	btfsc	3,2
  8168  0A07  2A1F               	goto	i1l677
  8169  0A08  29F8               	goto	i1l2279
  8170  0A09                     i1l2283:	
  8171  0A09  3001               	movlw	1
  8172  0A0A  00F5               	movwf	??___ftpack
  8173  0A0B  0875               	movf	??___ftpack,w
  8174  0A0C  07F3               	addwf	___ftpack@exp,f
  8175  0A0D  3001               	movlw	1
  8176  0A0E  07F0               	addwf	___ftpack@arg,f
  8177  0A0F  3000               	movlw	0
  8178  0A10  1803               	skipnc
  8179  0A11  3001               	movlw	1
  8180  0A12  07F1               	addwf	___ftpack@arg+1,f
  8181  0A13  3000               	movlw	0
  8182  0A14  1803               	skipnc
  8183  0A15  3001               	movlw	1
  8184  0A16  07F2               	addwf	___ftpack@arg+2,f
  8185  0A17  3001               	movlw	1
  8186  0A18                     u242_25:	
  8187  0A18  1003               	clrc
  8188  0A19  0CF2               	rrf	___ftpack@arg+2,f
  8189  0A1A  0CF1               	rrf	___ftpack@arg+1,f
  8190  0A1B  0CF0               	rrf	___ftpack@arg,f
  8191  0A1C  3EFF               	addlw	-1
  8192  0A1D  1D03               	skipz
  8193  0A1E  2A18               	goto	u242_25
  8194  0A1F                     i1l677:	
  8195  0A1F  30FF               	movlw	255
  8196  0A20  0572               	andwf	___ftpack@arg+2,w
  8197  0A21  1903               	btfsc	3,2
  8198  0A22  2A2E               	goto	i1l2291
  8199  0A23  2A09               	goto	i1l2283
  8200  0A24                     i1l2289:	
  8201  0A24  3001               	movlw	1
  8202  0A25  02F3               	subwf	___ftpack@exp,f
  8203  0A26  3001               	movlw	1
  8204  0A27                     u244_25:	
  8205  0A27  1003               	clrc
  8206  0A28  0DF0               	rlf	___ftpack@arg,f
  8207  0A29  0DF1               	rlf	___ftpack@arg+1,f
  8208  0A2A  0DF2               	rlf	___ftpack@arg+2,f
  8209  0A2B  3EFF               	addlw	-1
  8210  0A2C  1D03               	skipz
  8211  0A2D  2A27               	goto	u244_25
  8212  0A2E                     i1l2291:	
  8213  0A2E  1FF1               	btfss	___ftpack@arg+1,7
  8214  0A2F  2A24               	goto	i1l2289
  8215  0A30  1873               	btfsc	___ftpack@exp,0
  8216  0A31  2A38               	goto	i1l683
  8217  0A32  30FF               	movlw	255
  8218  0A33  05F0               	andwf	___ftpack@arg,f
  8219  0A34  307F               	movlw	127
  8220  0A35  05F1               	andwf	___ftpack@arg+1,f
  8221  0A36  30FF               	movlw	255
  8222  0A37  05F2               	andwf	___ftpack@arg+2,f
  8223  0A38                     i1l683:	
  8224  0A38  1003               	clrc
  8225  0A39  0CF3               	rrf	___ftpack@exp,f
  8226  0A3A  0873               	movf	___ftpack@exp,w
  8227  0A3B  00F5               	movwf	??___ftpack
  8228  0A3C  01F6               	clrf	??___ftpack+1
  8229  0A3D  01F7               	clrf	??___ftpack+2
  8230  0A3E  3010               	movlw	16
  8231  0A3F                     u247_25:	
  8232  0A3F  1003               	clrc
  8233  0A40  0DF5               	rlf	??___ftpack,f
  8234  0A41  0DF6               	rlf	??___ftpack+1,f
  8235  0A42  0DF7               	rlf	??___ftpack+2,f
  8236  0A43  3EFF               	addlw	-1
  8237  0A44  1D03               	skipz
  8238  0A45  2A3F               	goto	u247_25
  8239  0A46  0875               	movf	??___ftpack,w
  8240  0A47  04F0               	iorwf	___ftpack@arg,f
  8241  0A48  0876               	movf	??___ftpack+1,w
  8242  0A49  04F1               	iorwf	___ftpack@arg+1,f
  8243  0A4A  0877               	movf	??___ftpack+2,w
  8244  0A4B  04F2               	iorwf	___ftpack@arg+2,f
  8245  0A4C  0874               	movf	___ftpack@sign,w
  8246  0A4D  1903               	btfsc	3,2
  8247  0A4E  0008               	return
  8248  0A4F  17F2               	bsf	___ftpack@arg+2,7
  8249  0A50  0008               	return
  8250  0A51                     __end_of___ftpack:	
  8251  0001                     
  8252                           	psect	functab
  8253  0100                     __pfunctab:	
  8254  0100                     __fptable:	
  8255  0100                     fptable:	
  8256  0100  00FF               	movwf	(btemp+1)& (0+127)
  8257  0101  3001               	movlw	high fptable
  8258  0102  008A               	movwf	10
  8259  0103  087F               	movf	(btemp+1)& (0+127),w
  8260  0104  0782               	addwf	2,f
  8261  0105                     fpbase:	
  8262  0105  2905               	goto	fpbase	; Call via a null pointer and you will get stuck here.
  8263  0106                     fp__putch:	
  8264  0106  120A  118A  2803   	ljmp	_putch
  8265  0109                     __end_of__fptable:	
  8266  0109                     __i1fptable:	
  8267  0109                     i1fptable:	
  8268  0109  00FF               	movwf	(btemp+1)& (0+127)
  8269  010A  3001               	movlw	high i1fptable
  8270  010B  008A               	movwf	10
  8271  010C  087F               	movf	(btemp+1)& (0+127),w
  8272  010D  0782               	addwf	2,f
  8273  010E                     i1fpbase:	
  8274  010E  290E               	goto	i1fpbase	; Call via a null pointer and you will get stuck here.
  8275  010F                     fp_i1_putch:	
  8276  010F  120A  158A  2801   	ljmp	i1_putch
  8277  0112                     __end_of__i1fptable:	
  8278  007E                     btemp	set	126	;btemp
  8279  007E                     wtemp	set	126
  8280  007E                     wtemp0	set	126
  8281  0080                     wtemp1	set	128
  8282  0082                     wtemp2	set	130
  8283  0084                     wtemp3	set	132
  8284  0086                     wtemp4	set	134
  8285  0088                     wtemp5	set	136
  8286  007F                     wtemp6	set	127
  8287  007E                     ttemp	set	126
  8288  007E                     ttemp0	set	126
  8289  0081                     ttemp1	set	129
  8290  0084                     ttemp2	set	132
  8291  0087                     ttemp3	set	135
  8292  007F                     ttemp4	set	127
  8293  007E                     ltemp	set	126
  8294  007E                     ltemp0	set	126
  8295  0082                     ltemp1	set	130
  8296  0086                     ltemp2	set	134
  8297  0080                     ltemp3	set	128


Data Sizes:
    Strings     127
    Constant    10
    Data        3
    BSS         27
    Persistent  0
    Stack       0

Auto Spaces:
    Space          Size  Autos    Used
    COMMON           14     14      14
    BANK0            80     76      80
    BANK1            80     45      71
    BANK3            96      3       3
    BANK2            96      0       0

Pointer List with Targets:

    sprintf@f	PTR const unsigned char  size(1) Largest target is 5
		 -> STR_9(CODE[5]), 

    sprintf@ap	PTR void [1] size(1) Largest target is 2
		 -> ?_sprintf(BANK1[2]), ?_printf(COMMON[2]), 

    sprintf@wh	PTR unsigned char  size(1) Largest target is 10
		 -> display(BANK1[10]), 

    pb.func	PTR FTN(unsigned char ,)void  size(1) Largest target is 0
		 -> putch(), Absolute function(), 

    pb.ptr	PTR unsigned char  size(1) Largest target is 10
		 -> NULL(NULL[0]), display(BANK1[10]), 

    printf@f	PTR const unsigned char  size(1) Largest target is 2
		 -> STR_5(CODE[2]), STR_4(CODE[2]), STR_3(CODE[2]), STR_2(CODE[2]), 
		 -> STR_1(CODE[2]), 

    printf@ap	PTR void [1] size(1) Largest target is 2
		 -> ?_sprintf(BANK1[2]), ?_printf(COMMON[2]), 

    pb.func	PTR FTN(unsigned char ,)void  size(1) Largest target is 0
		 -> i1_putch(), putch(), Absolute function(), 

    pb.ptr	PTR unsigned char  size(1) Largest target is 10
		 -> NULL(NULL[0]), display(BANK1[10]), 

    _doprnt@ap	PTR PTR void  size(1) Largest target is 2
		 -> sprintf@ap(BANK1[1]), printf@ap(BANK0[1]), 

    _doprnt@f	PTR const unsigned char  size(1) Largest target is 5
		 -> STR_9(CODE[5]), STR_5(CODE[2]), STR_4(CODE[2]), STR_3(CODE[2]), 
		 -> STR_2(CODE[2]), STR_1(CODE[2]), 

    S1188__prbuf$func	PTR FTN(unsigned char ,)void  size(1) Largest target is 0
		 -> putch(), Absolute function(), 

    _doprnt@pb.func	PTR FTN(unsigned char ,)void  size(1) Largest target is 0
		 -> putch(), Absolute function(), 

    S1188__prbuf$ptr	PTR unsigned char  size(1) Largest target is 10
		 -> NULL(NULL[0]), display(BANK1[10]), 

    _doprnt@pb.ptr	PTR unsigned char  size(1) Largest target is 10
		 -> NULL(NULL[0]), display(BANK1[10]), 

    _doprnt@pb	PTR struct __prbuf size(1) Largest target is 3
		 -> sprintf@pb(BANK1[2]), printf@pb(BANK0[2]), 

    S1214$_cp	PTR const unsigned char  size(1) Largest target is 0

    _val._str._cp	PTR const unsigned char  size(1) Largest target is 0

    LCD_WriteString@Str	PTR const unsigned char  size(2) Largest target is 17
		 -> STR_11(CODE[6]), display(BANK1[10]), STR_8(CODE[17]), 

    USART_WriteString@str	PTR const unsigned char  size(2) Largest target is 40
		 -> STR_12(CODE[40]), STR_10(CODE[3]), display(BANK1[10]), STR_7(CODE[20]), 
		 -> STR_6(CODE[29]), 


Critical Paths under _main in COMMON

    None.

Critical Paths under _ISR in COMMON

    _ISR->___ftadd
    i1_PWM_DutyCycle2->___ftadd
    _trapezoidal->___ftadd
    i1__doprnt->i1___lwmod
    i1___lwmod->i1___lwdiv
    ___ftdiv->___ftadd
    ___ftadd->___ftpack
    ___lwtoft->___ftpack
    ___fttol->___ftadd
    ___ftmul->___ftadd

Critical Paths under _main in BANK0

    None.

Critical Paths under _ISR in BANK0

    _ISR->i1_PWM_DutyCycle2
    i1_PWM_DutyCycle2->___fttol
    _trapezoidal->___ftdiv
    _printf->i1__doprnt
    ___ftdiv->___ftadd
    ___fttol->___ftmul
    ___ftmul->_trapezoidal

Critical Paths under _main in BANK1

    _main->_sprintf
    _sprintf->__doprnt
    __doprnt->___lwmod
    ___lwmod->___lwdiv
    _USART_WriteString->_USART_WriteChar
    _USART_Init->___aldiv
    _LCD_WriteString->_LCD_WriteData
    _LCD_Init->_LCD_WriteCmd
    _LCD_Clear->_LCD_WriteCmd

Critical Paths under _ISR in BANK1

    None.

Critical Paths under _main in BANK3

    None.

Critical Paths under _ISR in BANK3

    None.

Critical Paths under _main in BANK2

    None.

Critical Paths under _ISR in BANK2

    None.

Call Graph Tables:

 ---------------------------------------------------------------------------------
 (Depth) Function   	        Calls       Base Space   Used Autos Params    Refs
 ---------------------------------------------------------------------------------
 (0) _main                                                 3     3      0    9405
                                              0 BANK3      3     3      0
                           _ADC_Init
                          _LCD_Clear
                         _LCD_Cursor
                           _LCD_Init
                    _LCD_WriteString
                     _PWM_DutyCycle1
                     _PWM_DutyCycle2
                           _PWM_Init
                        _TIMER0_Init
                         _TIMER0_Set
                         _USART_Init
                  _USART_WriteString
                            _sprintf
 ---------------------------------------------------------------------------------
 (1) _sprintf                                              9     6      3    7667
                                             36 BANK1      9     6      3
                            __doprnt
 ---------------------------------------------------------------------------------
 (2) __doprnt                                             15    13      2    6025
                                             21 BANK1     15    13      2
                   Absolute function *
                            ___lwdiv
                            ___lwmod
                             ___wmul
                            _isdigit
                              _putch *
 ---------------------------------------------------------------------------------
 (3) _putch                                                1     0      1     258
                                              7 BANK1      1     0      1
 ---------------------------------------------------------------------------------
 (3) _isdigit                                              2     2      0      68
                                              7 BANK1      2     2      0
 ---------------------------------------------------------------------------------
 (3) ___wmul                                               6     2      4     220
                                              7 BANK1      6     2      4
 ---------------------------------------------------------------------------------
 (3) ___lwmod                                              6     2      4     287
                                             15 BANK1      6     2      4
                            ___lwdiv (ARG)
 ---------------------------------------------------------------------------------
 (3) ___lwdiv                                              8     4      4     290
                                              7 BANK1      8     4      4
 ---------------------------------------------------------------------------------
 (8) Absolute function(Fake)                               1     0      1       0
                                              7 BANK1      1     0      1
 ---------------------------------------------------------------------------------
 (1) _USART_WriteString                                    2     0      2     387
                                              8 BANK1      2     0      2
                    _USART_WriteChar
 ---------------------------------------------------------------------------------
 (2) _USART_WriteChar                                      1     1      0      22
                                              7 BANK1      1     1      0
 ---------------------------------------------------------------------------------
 (1) _USART_Init                                           8     4      4     514
                                             22 BANK1      8     4      4
                            ___aldiv
 ---------------------------------------------------------------------------------
 (2) ___aldiv                                             15     7      8     428
                                              7 BANK1     15     7      8
 ---------------------------------------------------------------------------------
 (1) _TIMER0_Set                                           1     1      0      22
                                              7 BANK1      1     1      0
 ---------------------------------------------------------------------------------
 (1) _TIMER0_Init                                          0     0      0       0
 ---------------------------------------------------------------------------------
 (1) _PWM_Init                                             0     0      0       0
 ---------------------------------------------------------------------------------
 (1) _PWM_DutyCycle2                                       4     2      2     146
                                              7 BANK1      4     2      2
 ---------------------------------------------------------------------------------
 (1) _PWM_DutyCycle1                                       4     2      2     108
                                              7 BANK1      4     2      2
 ---------------------------------------------------------------------------------
 (1) _LCD_WriteString                                      2     0      2     259
                                              9 BANK1      2     0      2
                      _LCD_WriteData
 ---------------------------------------------------------------------------------
 (2) _LCD_WriteData                                        2     2      0      22
                                              7 BANK1      2     2      0
 ---------------------------------------------------------------------------------
 (1) _LCD_Init                                             2     2      0      22
                                              9 BANK1      2     2      0
                       _LCD_WriteCmd
 ---------------------------------------------------------------------------------
 (1) _LCD_Cursor                                           3     2      1     258
                                              7 BANK1      3     2      1
 ---------------------------------------------------------------------------------
 (1) _LCD_Clear                                            2     2      0      22
                                              9 BANK1      2     2      0
                       _LCD_WriteCmd
 ---------------------------------------------------------------------------------
 (2) _LCD_WriteCmd                                         2     2      0      22
                                              7 BANK1      2     2      0
 ---------------------------------------------------------------------------------
 (1) _ADC_Init                                             0     0      0       0
 ---------------------------------------------------------------------------------
 Estimated maximum stack depth 8
 ---------------------------------------------------------------------------------
 (Depth) Function   	        Calls       Base Space   Used Autos Params    Refs
 ---------------------------------------------------------------------------------
 (4) _ISR                                                 10    10      0   31632
                                             72 BANK0      4     4      0
                                              1 BANK1      6     6      0
                            ___ftadd
                            ___ftdiv
                            ___ftmul
                            ___fttol
                           ___lwtoft
                        _trapezoidal
                   i1_PWM_DutyCycle2
                       i1_TIMER0_Set
 ---------------------------------------------------------------------------------
 (5) i1_TIMER0_Set                                         1     1      0      22
                                              0 COMMON     1     1      0
 ---------------------------------------------------------------------------------
 (5) i1_PWM_DutyCycle2                                     4     2      2      70
                                             68 BANK0      4     2      2
                            ___ftadd (ARG)
                            ___ftmul (ARG)
                            ___fttol (ARG)
                           ___lwtoft (ARG)
                        _trapezoidal (ARG)
 ---------------------------------------------------------------------------------
 (5) _trapezoidal                                         15     0     15   18924
                                             23 BANK0     15     0     15
                            ___ftadd
                            ___ftdiv
                             ___ftge
                            ___ftneg
                           ___lwtoft (ARG)
                             _printf
 ---------------------------------------------------------------------------------
 (6) _printf                                               6     6      0    6881
                                             15 BANK0      6     6      0
                          i1__doprnt
 ---------------------------------------------------------------------------------
 (7) i1__doprnt                                           15    13      2    5371
                                              0 BANK0     15    13      2
                   Absolute function *
                          i1___lwdiv
                          i1___lwmod
                           i1___wmul
                          i1_isdigit
                            i1_putch *
 ---------------------------------------------------------------------------------
 (8) i1_putch                                              1     0      1     156
                                              0 COMMON     1     0      1
 ---------------------------------------------------------------------------------
 (8) i1_isdigit                                            2     2      0      68
                                              0 COMMON     2     2      0
 ---------------------------------------------------------------------------------
 (8) i1___wmul                                             6     2      4     144
                                              0 COMMON     6     2      4
 ---------------------------------------------------------------------------------
 (8) i1___lwmod                                            6     2      4     211
                                              8 COMMON     6     2      4
                          i1___lwdiv (ARG)
 ---------------------------------------------------------------------------------
 (8) i1___lwdiv                                            8     4      4     214
                                              0 COMMON     8     4      4
 ---------------------------------------------------------------------------------
 (8) Absolute function(Fake)                               1     0      1       0
                                              7 BANK1      1     0      1
 ---------------------------------------------------------------------------------
 (6) ___ftneg                                              3     0      3     557
                                              0 COMMON     3     0      3
 ---------------------------------------------------------------------------------
 (6) ___ftge                                              12     6      6    1928
                                              0 COMMON    12     6      6
 ---------------------------------------------------------------------------------
 (6) ___ftdiv                                             16    10      6    2968
                                              7 BANK0     16    10      6
                            ___ftadd (ARG)
                            ___ftneg (ARG)
                           ___ftpack
                           ___lwtoft (ARG)
 ---------------------------------------------------------------------------------
 (6) ___ftadd                                             13     7      6    4270
                                              8 COMMON     6     0      6
                                              0 BANK0      7     7      0
                            ___ftneg (ARG)
                           ___ftpack
 ---------------------------------------------------------------------------------
 (5) ___lwtoft                                             4     1      3    2198
                                              8 COMMON     4     1      3
                           ___ftpack
 ---------------------------------------------------------------------------------
 (5) ___fttol                                             14    10      4     380
                                             54 BANK0     14    10      4
                            ___ftadd (ARG)
                            ___ftdiv (ARG)
                            ___ftmul (ARG)
                           ___lwtoft (ARG)
                        _trapezoidal (ARG)
 ---------------------------------------------------------------------------------
 (5) ___ftmul                                             16    10      6    2630
                                             38 BANK0     16    10      6
                            ___ftadd (ARG)
                            ___ftdiv (ARG)
                           ___ftpack
                           ___lwtoft (ARG)
                        _trapezoidal (ARG)
 ---------------------------------------------------------------------------------
 (7) ___ftpack                                             8     3      5    2048
                                              0 COMMON     8     3      5
 ---------------------------------------------------------------------------------
 Estimated maximum stack depth 8
 ---------------------------------------------------------------------------------

 Call Graph Graphs:

 _main (ROOT)
   _ADC_Init
   _LCD_Clear
     _LCD_WriteCmd
   _LCD_Cursor
   _LCD_Init
     _LCD_WriteCmd
   _LCD_WriteString
     _LCD_WriteData
   _PWM_DutyCycle1
   _PWM_DutyCycle2
   _PWM_Init
   _TIMER0_Init
   _TIMER0_Set
   _USART_Init
     ___aldiv
   _USART_WriteString
     _USART_WriteChar
   _sprintf
     __doprnt
       Absolute function(Fake) *
       ___lwdiv *
       ___lwmod *
         ___lwdiv (ARG)
       ___wmul *
       _isdigit *
       _putch *

 _ISR (ROOT)
   ___ftadd
     ___ftneg (ARG)
     ___ftpack (ARG)
   ___ftdiv
     ___ftadd (ARG)
       ___ftneg (ARG)
       ___ftpack (ARG)
     ___ftneg (ARG)
     ___ftpack (ARG)
     ___lwtoft (ARG)
       ___ftpack
   ___ftmul
     ___ftadd (ARG)
       ___ftneg (ARG)
       ___ftpack (ARG)
     ___ftdiv (ARG)
       ___ftadd (ARG)
         ___ftneg (ARG)
         ___ftpack (ARG)
       ___ftneg (ARG)
       ___ftpack (ARG)
       ___lwtoft (ARG)
         ___ftpack
     ___ftpack (ARG)
     ___lwtoft (ARG)
       ___ftpack
     _trapezoidal (ARG)
       ___ftadd
         ___ftneg (ARG)
         ___ftpack (ARG)
       ___ftdiv
         ___ftadd (ARG)
           ___ftneg (ARG)
           ___ftpack (ARG)
         ___ftneg (ARG)
         ___ftpack (ARG)
         ___lwtoft (ARG)
           ___ftpack
       ___ftge
       ___ftneg
       ___lwtoft (ARG)
         ___ftpack
       _printf (ARG)
         i1__doprnt
           Absolute function(Fake) *
           i1___lwdiv *
           i1___lwmod *
             i1___lwdiv (ARG)
           i1___wmul *
           i1_isdigit *
           i1_putch *
   ___fttol
     ___ftadd (ARG)
       ___ftneg (ARG)
       ___ftpack (ARG)
     ___ftdiv (ARG)
       ___ftadd (ARG)
         ___ftneg (ARG)
         ___ftpack (ARG)
       ___ftneg (ARG)
       ___ftpack (ARG)
       ___lwtoft (ARG)
         ___ftpack
     ___ftmul (ARG)
       ___ftadd (ARG)
         ___ftneg (ARG)
         ___ftpack (ARG)
       ___ftdiv (ARG)
         ___ftadd (ARG)
           ___ftneg (ARG)
           ___ftpack (ARG)
         ___ftneg (ARG)
         ___ftpack (ARG)
         ___lwtoft (ARG)
           ___ftpack
       ___ftpack (ARG)
       ___lwtoft (ARG)
         ___ftpack
       _trapezoidal (ARG)
         ___ftadd
           ___ftneg (ARG)
           ___ftpack (ARG)
         ___ftdiv
           ___ftadd (ARG)
             ___ftneg (ARG)
             ___ftpack (ARG)
           ___ftneg (ARG)
           ___ftpack (ARG)
           ___lwtoft (ARG)
             ___ftpack
         ___ftge
         ___ftneg
         ___lwtoft (ARG)
           ___ftpack
         _printf (ARG)
           i1__doprnt
             Absolute function(Fake) *
             i1___lwdiv *
             i1___lwmod *
               i1___lwdiv (ARG)
             i1___wmul *
             i1_isdigit *
             i1_putch *
     ___lwtoft (ARG)
       ___ftpack
     _trapezoidal (ARG)
       ___ftadd
         ___ftneg (ARG)
         ___ftpack (ARG)
       ___ftdiv
         ___ftadd (ARG)
           ___ftneg (ARG)
           ___ftpack (ARG)
         ___ftneg (ARG)
         ___ftpack (ARG)
         ___lwtoft (ARG)
           ___ftpack
       ___ftge
       ___ftneg
       ___lwtoft (ARG)
         ___ftpack
       _printf (ARG)
         i1__doprnt
           Absolute function(Fake) *
           i1___lwdiv *
           i1___lwmod *
             i1___lwdiv (ARG)
           i1___wmul *
           i1_isdigit *
           i1_putch *
   ___lwtoft
     ___ftpack
   _trapezoidal
     ___ftadd
       ___ftneg (ARG)
       ___ftpack (ARG)
     ___ftdiv
       ___ftadd (ARG)
         ___ftneg (ARG)
         ___ftpack (ARG)
       ___ftneg (ARG)
       ___ftpack (ARG)
       ___lwtoft (ARG)
         ___ftpack
     ___ftge
     ___ftneg
     ___lwtoft (ARG)
       ___ftpack
     _printf (ARG)
       i1__doprnt
         Absolute function(Fake) *
         i1___lwdiv *
         i1___lwmod *
           i1___lwdiv (ARG)
         i1___wmul *
         i1_isdigit *
         i1_putch *
   i1_PWM_DutyCycle2
     ___ftadd (ARG)
       ___ftneg (ARG)
       ___ftpack (ARG)
     ___ftmul (ARG)
       ___ftadd (ARG)
         ___ftneg (ARG)
         ___ftpack (ARG)
       ___ftdiv (ARG)
         ___ftadd (ARG)
           ___ftneg (ARG)
           ___ftpack (ARG)
         ___ftneg (ARG)
         ___ftpack (ARG)
         ___lwtoft (ARG)
           ___ftpack
       ___ftpack (ARG)
       ___lwtoft (ARG)
         ___ftpack
       _trapezoidal (ARG)
         ___ftadd
           ___ftneg (ARG)
           ___ftpack (ARG)
         ___ftdiv
           ___ftadd (ARG)
             ___ftneg (ARG)
             ___ftpack (ARG)
           ___ftneg (ARG)
           ___ftpack (ARG)
           ___lwtoft (ARG)
             ___ftpack
         ___ftge
         ___ftneg
         ___lwtoft (ARG)
           ___ftpack
         _printf (ARG)
           i1__doprnt
             Absolute function(Fake) *
             i1___lwdiv *
             i1___lwmod *
               i1___lwdiv (ARG)
             i1___wmul *
             i1_isdigit *
             i1_putch *
     ___fttol (ARG)
       ___ftadd (ARG)
         ___ftneg (ARG)
         ___ftpack (ARG)
       ___ftdiv (ARG)
         ___ftadd (ARG)
           ___ftneg (ARG)
           ___ftpack (ARG)
         ___ftneg (ARG)
         ___ftpack (ARG)
         ___lwtoft (ARG)
           ___ftpack
       ___ftmul (ARG)
         ___ftadd (ARG)
           ___ftneg (ARG)
           ___ftpack (ARG)
         ___ftdiv (ARG)
           ___ftadd (ARG)
             ___ftneg (ARG)
             ___ftpack (ARG)
           ___ftneg (ARG)
           ___ftpack (ARG)
           ___lwtoft (ARG)
             ___ftpack
         ___ftpack (ARG)
         ___lwtoft (ARG)
           ___ftpack
         _trapezoidal (ARG)
           ___ftadd
             ___ftneg (ARG)
             ___ftpack (ARG)
           ___ftdiv
             ___ftadd (ARG)
               ___ftneg (ARG)
               ___ftpack (ARG)
             ___ftneg (ARG)
             ___ftpack (ARG)
             ___lwtoft (ARG)
               ___ftpack
           ___ftge
           ___ftneg
           ___lwtoft (ARG)
             ___ftpack
           _printf (ARG)
             i1__doprnt
               Absolute function(Fake) *
               i1___lwdiv *
               i1___lwmod *
                 i1___lwdiv (ARG)
               i1___wmul *
               i1_isdigit *
               i1_putch *
       ___lwtoft (ARG)
         ___ftpack
       _trapezoidal (ARG)
         ___ftadd
           ___ftneg (ARG)
           ___ftpack (ARG)
         ___ftdiv
           ___ftadd (ARG)
             ___ftneg (ARG)
             ___ftpack (ARG)
           ___ftneg (ARG)
           ___ftpack (ARG)
           ___lwtoft (ARG)
             ___ftpack
         ___ftge
         ___ftneg
         ___lwtoft (ARG)
           ___ftpack
         _printf (ARG)
           i1__doprnt
             Absolute function(Fake) *
             i1___lwdiv *
             i1___lwmod *
               i1___lwdiv (ARG)
             i1___wmul *
             i1_isdigit *
             i1_putch *
     ___lwtoft (ARG)
       ___ftpack
     _trapezoidal (ARG)
       ___ftadd
         ___ftneg (ARG)
         ___ftpack (ARG)
       ___ftdiv
         ___ftadd (ARG)
           ___ftneg (ARG)
           ___ftpack (ARG)
         ___ftneg (ARG)
         ___ftpack (ARG)
         ___lwtoft (ARG)
           ___ftpack
       ___ftge
       ___ftneg
       ___lwtoft (ARG)
         ___ftpack
       _printf (ARG)
         i1__doprnt
           Absolute function(Fake) *
           i1___lwdiv *
           i1___lwmod *
             i1___lwdiv (ARG)
           i1___wmul *
           i1_isdigit *
           i1_putch *
   i1_TIMER0_Set

 Address spaces:
Name               Size   Autos  Total    Cost      Usage
BANK3               60      3       3       9        3.1%
BITBANK3            60      0       0       8        0.0%
SFR3                 0      0       0       4        0.0%
BITSFR3              0      0       0       4        0.0%
BANK2               60      0       0      11        0.0%
BITBANK2            60      0       0      10        0.0%
SFR2                 0      0       0       5        0.0%
BITSFR2              0      0       0       5        0.0%
BANK1               50     2D      47       7       88.8%
BITBANK1            50      0       0       6        0.0%
SFR1                 0      0       0       2        0.0%
BITSFR1              0      0       0       2        0.0%
BANK0               50     4C      50       5      100.0%
BITBANK0            50      0       0       4        0.0%
SFR0                 0      0       0       1        0.0%
BITSFR0              0      0       0       1        0.0%
COMMON               E      E       E       1      100.0%
BITCOMMON            E      0       0       0        0.0%
CODE                 0      0       0       0        0.0%
DATA                 0      0      A8      12        0.0%
ABS                  0      0      A8       3        0.0%
NULL                 0      0       0       0        0.0%
STACK                0      0       0       2        0.0%
EEDATA             100      0       0       0        0.0%


Microchip Technology PIC Macro Assembler V1.33 build 59893 
Symbol Table                                                                                   Fri Nov 19 21:30:31 2021

         ?i1_PWM_DutyCycle2 0064                           pc 0002                 ?_LCD_Cursor 00A7  
   __size_of_PWM_DutyCycle1 0021     __size_of_PWM_DutyCycle2 0021                 __CFG_CP$OFF 0000  
               _SSPSTATbits 0094                          fsr 0004         ___wmul@multiplicand 00A9  
        ??i1_PWM_DutyCycle2 0066            i1___wmul@product 0074                ___ftadd@exp1 0026  
              ___ftadd@exp2 0025                 _trapezoidal 05B6               _contagens_tm0 00D2  
              ___ftadd@sign 0024                         l110 0E58                         l135 1657  
                       l405 021B                         l516 0811                         l571 0B5C  
                       l387 0154                         _PR2 0092                __CFG_CPD$OFF 0000  
                       _ISR 0EC3                         _rpm 00D6                         fsr0 0004  
__size_of_USART_WriteString 0031                         indf 0000                __CFG_FOSC$HS 0000  
         ??_LCD_WriteString 00AB                 i1__doprnt@c 002D                 i1__doprnt@f 0020  
              __CFG_LVP$OFF 0000                        ?_ISR 0070                ___ftdiv@cntr 0031  
              ___ftdiv@sign 0036                        l3001 17CF          LCD_WriteString@Str 00A9  
                      l2311 090D                        l2313 091B                        l2323 093C  
                      l2341 08B3                        l2261 0809                        l2319 0931  
                      l2335 0897                        l2255 167D                        l2337 08A5  
                      l2345 08BE                        l2661 0B7D                        l2653 0B6D  
                      l2671 0BB5                        l2663 0B8D                        l2675 0BC2  
                      l2679 0BD0                        l4721 0176                        l4705 013E  
                      l4731 01B4                        l4715 0159                        l4821 02FD  
                      l4805 02E6                        l4741 01E6                        l4733 01CB  
                      l4717 0164                        l4709 0150                        l4823 0115  
                      l4817 034E                        l4809 02F7                        l4761 023A  
                      l4753 020D                        l4745 01EC                        l4825 0360  
                      l2987 1734                        l2979 082A                        l4771 0257  
                      l4763 023E                        l4781 0281                        l4775 0268  
                      l4793 02B2                        l4785 0292                        l4787 029B  
                      l4797 02C3                        l4789 029F                        l4799 02CF  
                      STR_1 00C7                        STR_2 00C9                        STR_3 00CB  
                      STR_4 00CD                        STR_5 00CF                        STR_6 007A  
                      STR_7 0097                        STR_8 00AB                        STR_9 00C2  
                      u3205 0BB6                        u2505 0910                        u2355 0812  
                      u3165 0B81                        u2525 091C                        u2605 08B4  
                      u2365 0819                        u2535 0928                        u3185 0B8F  
                      u2545 0932                        u3195 0BA4                        u2575 089A  
                      u3705 094E                        u2595 08AB                        u3745 175B  
                      u3695 177C                        u6355 0203                        _OERR 00C1  
                      u6707 16CD                        u6395 022A                        u6717 0A5B  
                      u6807 00DD                        u6727 0A6B                        u6817 00EB  
                      u6737 0A79                        u6827 00F7                        u6747 0A85  
                      u6837 16B6                        u6757 0A91                        u6767 0A9F  
                      u6687 0E51                        u6777 0AAD                        u6697 0EBC  
                      u6787 0AB9                        u6797 1740                        _TMR0 0001  
                      _TMR1 000E                        _main 0DB3                ___ftpack@arg 0070  
        __size_of_LCD_Clear 0029                ___ftpack@exp 0073                        btemp 007E  
          __end_of_ADC_Init 1691                        ltemp 007E                        start 0012  
                      ttemp 007E                        wtemp 007E             __end_ofi1_putch 0802  
             ?_LCD_WriteCmd 0070               _LCD_WriteData 16BC                ___ftmul@cntr 0054  
              ___ftmul@sign 0055     __end_of_USART_WriteChar 1661                i1__doprnt@ap 0021  
                     ??_ISR 0068                i1__doprnt@pb 002E                ___fttol@exp1 0063  
              ___fttol@lval 005F                 ?_TIMER0_Set 0070            __end_of_LCD_Init 0ABC  
           __end_of___aldiv 0BD9                       ?_main 0070                       _EEADR 010D  
           __end_of___ftadd 0DB3                       STR_10 0094                       STR_11 00BC  
                     STR_12 0052               __CFG_WDTE$OFF 0000             __end_of___ftdiv 07F5  
           __end_of___ftneg 1644             __end_of___ftmul 0CAC                       _T1CON 0010  
           __end_of___fttol 0B4A             __end_of___lwdiv 0943                       i1l405 046E  
           __end_of___lwmod 08C5                       i1l516 1792                       i1l706 0D54  
                     i1l387 03A7                       i1l683 0A38                       i1l677 0A1F  
                     _RCREG 001A                       _TMR1H 000F                       _TMR1L 000E  
                     _SPBRG 0099                       _PORTA 0005                       _PORTB 0006  
                     _PORTC 0007                       _PORTD 0008                       _PORTE 0009  
           __end_of__doprnt 0365                       _TRISA 0085                       _TRISB 0086  
                     _TRISC 0087                       _TRISD 0088                       _TRISE 0089  
                     _TXREG 0019                  i1isdigit@c 0071               __CFG_PWRTE$ON 0000  
        i1___lwmod@dividend 007A             __end_of_dpowers 0052             __end_of_isdigit 167F  
             ___ftpack@sign 0074                       _putch 0003                       fpbase 0105  
            __CFG_BOREN$OFF 0000         __size_of_LCD_Cursor 0020                       pclath 000A  
          __end_of_PWM_Init 17CF            __end_ofi1___wmul 17AB                       ltemp0 007E  
                     ltemp1 0082                       ltemp2 0086                       ltemp3 0080  
                     ttemp0 007E                       ttemp1 0081                       ttemp2 0084  
                     ttemp3 0087                       ttemp4 007F                       status 0003  
       i1___wmul@multiplier 0070                       wtemp0 007E                       wtemp1 0080  
                     wtemp2 0082                       wtemp3 0084                       wtemp4 0086  
                     wtemp5 0088                       wtemp6 007F             __end_of_sprintf 1726  
        __size_ofi1___lwdiv 003E          __size_ofi1___lwmod 0034              ??_LCD_WriteCmd 00A7  
        __size_ofi1__doprnt 0251              ?_LCD_WriteData 0070                 ?_USART_Init 00B6  
     i1TIMER0_Set@contagens 0070             __initialization 0015                __end_of_main 0EC3  
        __size_ofi1_isdigit 000E                      ??_main 0190               ___fttol@sign1 005E  
              ?_TIMER0_Init 0070           __end_of_LCD_Clear 00FA                      _ADRESH 001E  
                    _ADRESL 009E                      _EEDATA 010C                      _CCPR1L 0015  
                    _CCPR2L 001B                      _EECON2 018D                      ?_putch 00A7  
          __end_of___ftpack 0A51                      i1l2211 08DB                      i1l2221 08FC  
                    i1l3111 0B25                      i1l3103 0B08                      i1l3041 0C07  
                    i1l3113 0B30                      i1l3105 0B18                      i1l2217 08F1  
                    i1l2209 08CD                      i1l2233 0861                      i1l3035 0BF1  
                    i1l3115 0B33                      i1l2235 086F                      i1l2243 0888  
                    i1l3053 0C46                      i1l3119 0B41                      i1l2239 087D  
                    i1l2281 0A04                      i1l3065 0C6E                      i1l3057 0C56  
                    i1l2177 178A                      i1l2291 0A2E                      i1l2283 0A09  
                    i1l2275 09F1                      i1l2195 166D                      i1l3069 0C7E  
                    i1l3085 0AD6                      i1l2701 0CEB                      i1l2279 09F8  
                    i1l2289 0A24                      i1l2721 0D26                      i1l2713 0D05  
                    i1l2801 09B3                      i1l2731 0D44                      i1l2723 0D2B  
                    i1l2741 0D78                      i1l2733 0D50                      i1l2725 0D2F  
                    i1l2805 09DA                      i1l2751 0D9B                      i1l2719 0D1A  
                    i1l2737 0D66                      i1l2761 0755                      i1l2691 0CD5  
                    i1l4611 0460                      i1l4603 043F                      i1l2781 07B0  
                    i1l4621 0491                      i1l2695 0CDC                      i1l2767 076B  
                    i1l4633 04BB                      i1l4651 0505                      i1l4643 04E5  
                    i1l4619 048D                      i1l4563 0391                      i1l2789 07CF  
                    u220_25 08D0                      i1l4629 04AA                      i1l4645 04EE  
                    i1l4573 03AC                      i1l4901 0EE2                      i1l4663 0539  
                    i1l4655 0516                      i1l4647 04F2                      i1l4639 04D4  
                    i1l4591 041E                      i1l4575 03B7                      i1l4567 03A3  
                    i1l4657 0522                      i1l4681 0368                      i1l4921 0FF1  
                    i1l4675 059F                      i1l4667 054A                      i1l4683 05B1  
                    i1l4579 03C9                      i1l4589 0407                      i1l4837 05D8  
                    i1l4679 0550                      i1l4599 0439                      i1l4847 065E  
                    i1l4919 0FF0                      i1l4857 0695                      i1l4867 071B  
                    u222_25 08DC                      u230_25 087E                      u214_25 1793  
                    u223_25 08E8                      u215_25 179A                      u240_25 09FD  
                    u224_25 08F2                      u242_25 0A18                      u227_25 0864  
                    u244_25 0A27                      u332_25 0D06                      u341_25 0D45  
                    u229_25 0875                      u350_25 078F                      u247_25 0A3F  
                    u335_25 0D1B                      u351_25 07B1                      u352_25 07C2  
                    u353_25 07D0            __end_of___lwtoft 16A5                      u338_25 0D30  
                    u610_25 0456                      u356_21 09A6                      u356_22 09A7  
                    u356_23 09AC                      u356_24 09AD                      u381_25 0C57  
                    u349_25 077D                      u358_21 09CD                      u358_22 09CE  
                    u358_23 09D3                      u358_24 09D4         __size_of_TIMER0_Set 0008  
                    u382_25 0C5F                      u390_25 0ADD                      u614_25 047D  
                    u377_25 0C13                      u393_25 0B09                      u386_25 0C7F  
                    u378_25 0C25                      u387_25 0C87                      u396_25 0B27  
                 ??i1_putch 0071                      u399_25 16FD                  __i1fptable 0109  
                    _SSPADD 0093                      _SSPBUF 0013            __end_of__fptable 0109  
          LCD_WriteCmd@Byte 00A8                      ___ftge 098C                   ??___aldiv 00AF  
                    ___wmul 0805                   ??___ftadd 0020              _PWM_DutyCycle1 1746  
            _PWM_DutyCycle2 1767            ?_USART_WriteChar 0070                   ??___ftdiv 002D  
                 ??___ftneg 0073                   ??___ftmul 004C                   ??___fttol 005A  
                 ??___lwdiv 00AB                   ??___lwmod 00B3                   ??__doprnt 00B7  
              trapezoidal@a 003A                trapezoidal@b 003D                trapezoidal@c 0040  
              trapezoidal@d 0043                trapezoidal@x 0037                __doprnt@_val 00BB  
              __doprnt@flag 00BF                      _printf 16D3                __doprnt@prec 00BA  
                    _pulsos 00D4                      _status 006E       ___ftmul@f3_as_product 0051  
                    fptable 0100           __end_ofi1___lwdiv 0903                      fptotal 0001  
         __end_ofi1___lwmod 088F                   ??_isdigit 00A7                   ?_ADC_Init 0070  
         __end_ofi1__doprnt 05B6                      saved_w 007E         __size_of_USART_Init 0049  
                    putch@c 00A7                   ??_sprintf 00C7           __end_ofi1_isdigit 166F  
             ?i1_TIMER0_Set 0070     __end_of__initialization 0034                   ?_LCD_Init 0070  
                ___ftadd@f1 0078                  ___ftadd@f2 007B             ??_LCD_WriteData 00A7  
                ___ftge@ff1 0070                  ___ftge@ff2 0073                  ___ftdiv@f1 002A  
                ___ftdiv@f2 0027                  ___ftdiv@f3 0032                  ___ftneg@f1 0070  
    __end_of_PWM_DutyCycle1 1767      __end_of_PWM_DutyCycle2 1788                  ___ftmul@f1 0046  
                ___ftmul@f2 0049                  ___fttol@f1 0056              __pcstackCOMMON 0070  
              __pidataBANK1 0802               LCD_Cursor@Col 00A7               LCD_Cursor@Row 00A9  
              ??_LCD_Cursor 00A8             _LCD_WriteString 17CF               __end_of_putch 0004  
              ?_trapezoidal 0037                  ___lwtoft@c 0078                   ?_PWM_Init 0070  
                 ?i1___wmul 0070              i1__doprnt@_val 0026              i1__doprnt@flag 002A  
            _OPTION_REGbits 0081              i1__doprnt@prec 0025                  ??_ADC_Init 00A7  
      __end_of_LCD_WriteCmd 16BC   __size_ofi1_PWM_DutyCycle2 001B                  __doprnt@ap 00B6  
                __doprnt@pb 00C3              ??i1_TIMER0_Set 0070                     ??_putch 00A8  
                __pbssBANK0 006C                  __pbssBANK1 00CD          __end_of_LCD_Cursor 1746  
                ??_LCD_Init 00A9             ?_PWM_DutyCycle1 00A7             ?_PWM_DutyCycle2 00A7  
                __pmaintext 0DB3                     ?___ftge 0070                     ?___wmul 00A7  
                __pintentry 0004                ??_TIMER0_Set 00A7                     _CCP1CON 0017  
                   _CCP2CON 001D                   ?___ftpack 0070                     ?_printf 0070  
                ??_PWM_Init 00A7                  ??i1___wmul 0074                   ?___lwtoft 0078  
      __size_of_TIMER0_Init 000B                     _SSPCON2 0091                  __stringtab 0038  
                   i1_putch 0801                     i1fpbase 010E          __end_of_TIMER0_Set 164C  
   __end_of_LCD_WriteString 1800                   _ADCResult 006C                ??_USART_Init 00BA  
         LCD_WriteData@Byte 00A8                     ___aldiv 0B4A             __size_of___ftge 005D  
                   ___ftadd 0CAC                     ___ftdiv 073D                     ___ftneg 163C  
           __size_of___wmul 0025                     ___ftmul 0BD9                     ___fttol 0ABC  
                   ___lwdiv 0903                     ___lwmod 088F                     __doprnt 0112  
                ??___ftpack 0075                     __ptext1 1707                     __ptext2 0112  
                   __ptext3 0003                     __ptext4 166F                     __ptext5 0805  
                   __ptext6 088F                     __ptext7 0903                     __ptext8 082A  
                   __ptext9 1654             __size_of_printf 0019                  ??___lwtoft 007B  
                   _display 00DA         __size_of__i1fptable 0009                __size_of_ISR 013D  
                 _T1CONbits 0010                     _dpowers 0048           i1___lwdiv@divisor 0070  
                 _T2CONbits 0012                     _isdigit 166F           i1___lwdiv@counter 0077  
          ___aldiv@dividend 00AB                   _LCD_Clear 00D1          __end_of_USART_Init 098C  
                   _sprintf 1707                     clrloop0 164D               __doprnt@width 00C0  
      end_of_initialization 0034                  fp_i1_putch 010F                   _RCSTAbits 0018  
                   printf@f 0031            ___aldiv@quotient 00B2        __end_ofi1_TIMER0_Set 0100  
     i1___wmul@multiplicand 0072       __size_of_LCD_WriteCmd 0017                   _PORTBbits 0006  
                 _PORTEbits 0009        __size_of_trapezoidal 0187                  ?_LCD_Clear 0070  
          i1_PWM_DutyCycle2 16EC           __size_of_ADC_Init 0012                   i1___lwdiv 08C5  
                 i1___lwmod 085B                   i1__doprnt 0365                _contador_rb6 00D0  
       PWM_DutyCycle1@valor 00A7         PWM_DutyCycle2@valor 00A7                 _CCP1CONbits 0017  
               ___ftdiv@exp 0035                 _CCP2CONbits 001D                   _TXSTAbits 0098  
                 i1_isdigit 1661            ?_LCD_WriteString 00A9           __size_of_LCD_Init 006B  
              _LCD_WriteCmd 16A5                 ___ftmul@exp 0050              __end_of___ftge 09E9  
            __end_of___wmul 082A           i1___lwmod@divisor 0078           i1___lwmod@counter 007D  
            __end_of_printf 16EC    __size_of_USART_WriteChar 000D           __size_of_PWM_Init 0024  
       start_initialization 0015           __size_ofi1___wmul 0023                 __end_of_ISR 1000  
                ?i1___lwdiv 0070                  ?i1___lwmod 0078                  ?i1__doprnt 0020  
          ??_PWM_DutyCycle1 00A9            ??_PWM_DutyCycle2 00A9             i1__doprnt@width 002B  
                ?i1_isdigit 0070       __end_of_LCD_WriteData 16D3                    ??___ftge 0076  
                  ??___wmul 00AB                 __pdataBANK1 00E4                    ??_printf 002F  
        __end_of__i1fptable 0112           __size_of___ftpack 0068                   ___latbits 0002  
         __size_of___lwtoft 0014               __pcstackBANK0 0020               __pcstackBANK1 00A0  
             __pcstackBANK3 0190                 ??_LCD_Clear 00A9         __end_of__stringdata 00D1  
         __size_of__fptable 0009                _isdigit$1417 00A7                    ?i1_putch 0070  
                 __doprnt@c 00C2                   __doprnt@f 00B5       __size_ofi1_TIMER0_Set 0006  
          ___lwdiv@dividend 00A9         TIMER0_Set@contagens 00A7                   __pfunctab 0100  
                  ?___aldiv 00A7                    ?___ftadd 0078                    ?___ftdiv 0027  
                  ?___ftneg 0070                    ?___ftmul 0046                    ?___fttol 0056  
                  ?___lwdiv 00A7                    ?___lwmod 00AF                    ?__doprnt 00B5  
                 __pstrings 0038               ??_TIMER0_Init 00A7          USART_Init@BaudRate 00B6  
                  ?_isdigit 0070                    _ADC_Init 167F            ___lwdiv@quotient 00AC  
               ??i1___lwdiv 0074                 ??i1___lwmod 007C                    ?_sprintf 00C4  
               ??i1__doprnt 0022              __size_of_putch 0001                    _ISR$1732 00A1  
                  _ISR$1733 00A4           ??_USART_WriteChar 00A7              i1_isdigit$1417 0070  
              i1_TIMER0_Set 00FA             ___aldiv@divisor 00A7           interrupt_function 0004  
           ___aldiv@counter 00B0                    _LCD_Init 0A51              ___wmul@product 00AB  
               ??i1_isdigit 0070                   clear_ram0 164C                    _PIE1bits 008C  
                  _PIE2bits 008D                    _PIR1bits 000C                    _PIR2bits 000D  
                 _temp_lida 00CD    __end_ofi1_PWM_DutyCycle2 1707                   _tempo_rb6 00D8  
                _ADCON0bits 001F                 __stringbase 0047                  _ADCON1bits 009F  
               __stringdata 0052                    _PWM_Init 17AB           ___wmul@multiplier 00A7  
                  i1___wmul 1788         __end_of_TIMER0_Init 0800                    i1fptable 0109  
                  i1fptotal 0001                    i1putch@c 0070            __size_ofi1_putch 0001  
                _EECON1bits 018C            __size_of___aldiv 008F            __size_of___ftadd 0107  
          __size_of___ftdiv 00B8            __size_of___ftneg 0008            __size_of___ftmul 00D3  
          __size_of___fttol 008E            __size_of___lwdiv 0040            __size_of___lwmod 0036  
                  ___ftpack 09E9               ??_trapezoidal 007E            __size_of__doprnt 0253  
        __end_of__stringtab 0048                    ___lwtoft 1691                    __fptable 0100  
          __size_of_isdigit 0010             ___lwdiv@divisor 00A7             ___lwdiv@counter 00AE  
         _USART_WriteString 082A                    __ptext10 0943                    __ptext11 0B4A  
                  __ptext20 1726                    __ptext12 1644                    __ptext21 00D1  
                  __ptext13 07F5                    __ptext30 0801                    __ptext22 16A5  
                  __ptext14 17AB                    __ptext31 1661                    __ptext23 167F  
                  __ptext15 1767                    __ptext40 0ABC                    __ptext32 1788  
                  __ptext24 0EC3                    __ptext16 1746                    __ptext41 0BD9  
                  __ptext33 085B                    __ptext25 00FA                    __ptext17 17CF  
                  __ptext42 09E9                    __ptext34 08C5                    __ptext26 16EC  
                  __ptext18 16BC                    __ptext35 163C                    __ptext27 05B6  
                  __ptext19 0A51                    __ptext36 098C                    __ptext28 16D3  
                  __ptext37 073D                    __ptext29 0365                    __ptext38 0CAC  
                  __ptext39 1691          ?_USART_WriteString 00A8            __size_of_sprintf 001F  
        i1___lwdiv@dividend 0072               __size_of_main 0110         USART_WriteChar@byte 00A7  
       ??_USART_WriteString 00AA                  _LCD_Cursor 1726                    fp__putch 0106  
  __size_of_LCD_WriteString 0031          i1___lwdiv@quotient 0075                 _TIMER0_Init 07F5  
                _INTCONbits 000B   __end_of_USART_WriteString 085B         __end_of_trapezoidal 073D  
                  isdigit@c 00A8                    intlevel1 0100                   sprintf@ap 00CA  
                 sprintf@pb 00CB                   sprintf@wh 00C9            ___lwmod@dividend 00B1  
                 stringcode 0042                    printf@ap 0032                    printf@pb 0033  
      USART_WriteString@str 00A8                  _TIMER0_Set 1644                 _requiredRpm 00E4  
           _USART_WriteChar 1654                    sprintf@f 00C4             ___lwmod@divisor 00AF  
           ___lwmod@counter 00B4                    stringdir 0042                    stringtab 0038  
              ___aldiv@sign 00B1      __size_of_LCD_WriteData 0017                 _SSPCON2bits 0091  
     i1PWM_DutyCycle2@valor 0064                  _SSPCONbits 0014                  _USART_Init 0943  
