

Microchip Technology PIC LITE Macro Assembler V1.33 build 59893 
                                                                                               Thu Nov 18 20:27:44 2021

Microchip Technology Omniscient Code Generator (Lite mode) build 59893
     1                           	processor	16F877A
     2                           	opt	pw 120
     3                           	opt	lm
     4                           	psect	strings,global,class=STRING,delta=2
     5                           	psect	cinit,global,class=CODE,merge=1,delta=2
     6                           	psect	bssCOMMON,global,class=COMMON,space=1,delta=1
     7                           	psect	bssBANK0,global,class=BANK0,space=1,delta=1
     8                           	psect	bssBANK1,global,class=BANK1,space=1,delta=1
     9                           	psect	clrtext,global,class=CODE,delta=2
    10                           	psect	cstackBANK1,global,class=BANK1,space=1,delta=1
    11                           	psect	cstackCOMMON,global,class=COMMON,space=1,delta=1
    12                           	psect	cstackBANK0,global,class=BANK0,space=1,delta=1
    13                           	psect	maintext,global,class=CODE,split=1,delta=2
    14                           	psect	text1,local,class=CODE,merge=1,delta=2
    15                           	psect	text2,local,class=CODE,merge=1,delta=2
    16                           	psect	text3,local,class=CODE,merge=1,delta=2
    17                           	psect	text4,local,class=CODE,merge=1,delta=2
    18                           	psect	text5,local,class=CODE,merge=1,delta=2
    19                           	psect	text6,local,class=CODE,merge=1,delta=2
    20                           	psect	text7,local,class=CODE,merge=1,delta=2
    21                           	psect	text8,local,class=CODE,merge=1,delta=2
    22                           	psect	text9,local,class=CODE,merge=1,delta=2
    23                           	psect	text10,local,class=CODE,merge=1,delta=2
    24                           	psect	text11,local,class=CODE,merge=1,delta=2
    25                           	psect	text12,local,class=CODE,merge=1,delta=2
    26                           	psect	text13,local,class=CODE,merge=1,delta=2
    27                           	psect	text14,local,class=CODE,merge=1,delta=2
    28                           	psect	text15,local,class=CODE,merge=1,delta=2
    29                           	psect	text16,local,class=CODE,merge=1,delta=2
    30                           	psect	text17,local,class=CODE,merge=1,delta=2
    31                           	psect	text18,local,class=CODE,merge=1,delta=2
    32                           	psect	text19,local,class=CODE,merge=1,delta=2
    33                           	psect	text20,local,class=CODE,merge=1,delta=2
    34                           	psect	text21,local,class=CODE,merge=1,delta=2
    35                           	psect	text22,local,class=CODE,merge=1,delta=2
    36                           	psect	intentry,global,class=CODE,delta=2
    37                           	psect	text23,local,class=CODE,merge=1,delta=2
    38                           	psect	text24,local,class=CODE,merge=1,delta=2
    39                           	psect	text25,local,class=CODE,merge=1,delta=2
    40                           	psect	text26,local,class=CODE,merge=1,delta=2
    41                           	psect	text27,local,class=CODE,merge=1,delta=2
    42                           	psect	text28,local,class=CODE,merge=1,delta=2
    43                           	dabs	1,0x7E,2
    44  0000                     	;# 
    45  0001                     	;# 
    46  0002                     	;# 
    47  0003                     	;# 
    48  0004                     	;# 
    49  0005                     	;# 
    50  0006                     	;# 
    51  0007                     	;# 
    52  0008                     	;# 
    53  0009                     	;# 
    54  000A                     	;# 
    55  000B                     	;# 
    56  000C                     	;# 
    57  000D                     	;# 
    58  000E                     	;# 
    59  000E                     	;# 
    60  000F                     	;# 
    61  0010                     	;# 
    62  0011                     	;# 
    63  0012                     	;# 
    64  0013                     	;# 
    65  0014                     	;# 
    66  0015                     	;# 
    67  0015                     	;# 
    68  0016                     	;# 
    69  0017                     	;# 
    70  0018                     	;# 
    71  0019                     	;# 
    72  001A                     	;# 
    73  001B                     	;# 
    74  001B                     	;# 
    75  001C                     	;# 
    76  001D                     	;# 
    77  001E                     	;# 
    78  001F                     	;# 
    79  0081                     	;# 
    80  0085                     	;# 
    81  0086                     	;# 
    82  0087                     	;# 
    83  0088                     	;# 
    84  0089                     	;# 
    85  008C                     	;# 
    86  008D                     	;# 
    87  008E                     	;# 
    88  0091                     	;# 
    89  0092                     	;# 
    90  0093                     	;# 
    91  0094                     	;# 
    92  0098                     	;# 
    93  0099                     	;# 
    94  009C                     	;# 
    95  009D                     	;# 
    96  009E                     	;# 
    97  009F                     	;# 
    98  010C                     	;# 
    99  010D                     	;# 
   100  010E                     	;# 
   101  010F                     	;# 
   102  018C                     	;# 
   103  018D                     	;# 
   104  0000                     	;# 
   105  0001                     	;# 
   106  0002                     	;# 
   107  0003                     	;# 
   108  0004                     	;# 
   109  0005                     	;# 
   110  0006                     	;# 
   111  0007                     	;# 
   112  0008                     	;# 
   113  0009                     	;# 
   114  000A                     	;# 
   115  000B                     	;# 
   116  000C                     	;# 
   117  000D                     	;# 
   118  000E                     	;# 
   119  000E                     	;# 
   120  000F                     	;# 
   121  0010                     	;# 
   122  0011                     	;# 
   123  0012                     	;# 
   124  0013                     	;# 
   125  0014                     	;# 
   126  0015                     	;# 
   127  0015                     	;# 
   128  0016                     	;# 
   129  0017                     	;# 
   130  0018                     	;# 
   131  0019                     	;# 
   132  001A                     	;# 
   133  001B                     	;# 
   134  001B                     	;# 
   135  001C                     	;# 
   136  001D                     	;# 
   137  001E                     	;# 
   138  001F                     	;# 
   139  0081                     	;# 
   140  0085                     	;# 
   141  0086                     	;# 
   142  0087                     	;# 
   143  0088                     	;# 
   144  0089                     	;# 
   145  008C                     	;# 
   146  008D                     	;# 
   147  008E                     	;# 
   148  0091                     	;# 
   149  0092                     	;# 
   150  0093                     	;# 
   151  0094                     	;# 
   152  0098                     	;# 
   153  0099                     	;# 
   154  009C                     	;# 
   155  009D                     	;# 
   156  009E                     	;# 
   157  009F                     	;# 
   158  010C                     	;# 
   159  010D                     	;# 
   160  010E                     	;# 
   161  010F                     	;# 
   162  018C                     	;# 
   163  018D                     	;# 
   164  0000                     	;# 
   165  0001                     	;# 
   166  0002                     	;# 
   167  0003                     	;# 
   168  0004                     	;# 
   169  0005                     	;# 
   170  0006                     	;# 
   171  0007                     	;# 
   172  0008                     	;# 
   173  0009                     	;# 
   174  000A                     	;# 
   175  000B                     	;# 
   176  000C                     	;# 
   177  000D                     	;# 
   178  000E                     	;# 
   179  000E                     	;# 
   180  000F                     	;# 
   181  0010                     	;# 
   182  0011                     	;# 
   183  0012                     	;# 
   184  0013                     	;# 
   185  0014                     	;# 
   186  0015                     	;# 
   187  0015                     	;# 
   188  0016                     	;# 
   189  0017                     	;# 
   190  0018                     	;# 
   191  0019                     	;# 
   192  001A                     	;# 
   193  001B                     	;# 
   194  001B                     	;# 
   195  001C                     	;# 
   196  001D                     	;# 
   197  001E                     	;# 
   198  001F                     	;# 
   199  0081                     	;# 
   200  0085                     	;# 
   201  0086                     	;# 
   202  0087                     	;# 
   203  0088                     	;# 
   204  0089                     	;# 
   205  008C                     	;# 
   206  008D                     	;# 
   207  008E                     	;# 
   208  0091                     	;# 
   209  0092                     	;# 
   210  0093                     	;# 
   211  0094                     	;# 
   212  0098                     	;# 
   213  0099                     	;# 
   214  009C                     	;# 
   215  009D                     	;# 
   216  009E                     	;# 
   217  009F                     	;# 
   218  010C                     	;# 
   219  010D                     	;# 
   220  010E                     	;# 
   221  010F                     	;# 
   222  018C                     	;# 
   223  018D                     	;# 
   224  0000                     	;# 
   225  0001                     	;# 
   226  0002                     	;# 
   227  0003                     	;# 
   228  0004                     	;# 
   229  0005                     	;# 
   230  0006                     	;# 
   231  0007                     	;# 
   232  0008                     	;# 
   233  0009                     	;# 
   234  000A                     	;# 
   235  000B                     	;# 
   236  000C                     	;# 
   237  000D                     	;# 
   238  000E                     	;# 
   239  000E                     	;# 
   240  000F                     	;# 
   241  0010                     	;# 
   242  0011                     	;# 
   243  0012                     	;# 
   244  0013                     	;# 
   245  0014                     	;# 
   246  0015                     	;# 
   247  0015                     	;# 
   248  0016                     	;# 
   249  0017                     	;# 
   250  0018                     	;# 
   251  0019                     	;# 
   252  001A                     	;# 
   253  001B                     	;# 
   254  001B                     	;# 
   255  001C                     	;# 
   256  001D                     	;# 
   257  001E                     	;# 
   258  001F                     	;# 
   259  0081                     	;# 
   260  0085                     	;# 
   261  0086                     	;# 
   262  0087                     	;# 
   263  0088                     	;# 
   264  0089                     	;# 
   265  008C                     	;# 
   266  008D                     	;# 
   267  008E                     	;# 
   268  0091                     	;# 
   269  0092                     	;# 
   270  0093                     	;# 
   271  0094                     	;# 
   272  0098                     	;# 
   273  0099                     	;# 
   274  009C                     	;# 
   275  009D                     	;# 
   276  009E                     	;# 
   277  009F                     	;# 
   278  010C                     	;# 
   279  010D                     	;# 
   280  010E                     	;# 
   281  010F                     	;# 
   282  018C                     	;# 
   283  018D                     	;# 
   284  0000                     	;# 
   285  0001                     	;# 
   286  0002                     	;# 
   287  0003                     	;# 
   288  0004                     	;# 
   289  0005                     	;# 
   290  0006                     	;# 
   291  0007                     	;# 
   292  0008                     	;# 
   293  0009                     	;# 
   294  000A                     	;# 
   295  000B                     	;# 
   296  000C                     	;# 
   297  000D                     	;# 
   298  000E                     	;# 
   299  000E                     	;# 
   300  000F                     	;# 
   301  0010                     	;# 
   302  0011                     	;# 
   303  0012                     	;# 
   304  0013                     	;# 
   305  0014                     	;# 
   306  0015                     	;# 
   307  0015                     	;# 
   308  0016                     	;# 
   309  0017                     	;# 
   310  0018                     	;# 
   311  0019                     	;# 
   312  001A                     	;# 
   313  001B                     	;# 
   314  001B                     	;# 
   315  001C                     	;# 
   316  001D                     	;# 
   317  001E                     	;# 
   318  001F                     	;# 
   319  0081                     	;# 
   320  0085                     	;# 
   321  0086                     	;# 
   322  0087                     	;# 
   323  0088                     	;# 
   324  0089                     	;# 
   325  008C                     	;# 
   326  008D                     	;# 
   327  008E                     	;# 
   328  0091                     	;# 
   329  0092                     	;# 
   330  0093                     	;# 
   331  0094                     	;# 
   332  0098                     	;# 
   333  0099                     	;# 
   334  009C                     	;# 
   335  009D                     	;# 
   336  009E                     	;# 
   337  009F                     	;# 
   338  010C                     	;# 
   339  010D                     	;# 
   340  010E                     	;# 
   341  010F                     	;# 
   342  018C                     	;# 
   343  018D                     	;# 
   344  0000                     	;# 
   345  0001                     	;# 
   346  0002                     	;# 
   347  0003                     	;# 
   348  0004                     	;# 
   349  0005                     	;# 
   350  0006                     	;# 
   351  0007                     	;# 
   352  0008                     	;# 
   353  0009                     	;# 
   354  000A                     	;# 
   355  000B                     	;# 
   356  000C                     	;# 
   357  000D                     	;# 
   358  000E                     	;# 
   359  000E                     	;# 
   360  000F                     	;# 
   361  0010                     	;# 
   362  0011                     	;# 
   363  0012                     	;# 
   364  0013                     	;# 
   365  0014                     	;# 
   366  0015                     	;# 
   367  0015                     	;# 
   368  0016                     	;# 
   369  0017                     	;# 
   370  0018                     	;# 
   371  0019                     	;# 
   372  001A                     	;# 
   373  001B                     	;# 
   374  001B                     	;# 
   375  001C                     	;# 
   376  001D                     	;# 
   377  001E                     	;# 
   378  001F                     	;# 
   379  0081                     	;# 
   380  0085                     	;# 
   381  0086                     	;# 
   382  0087                     	;# 
   383  0088                     	;# 
   384  0089                     	;# 
   385  008C                     	;# 
   386  008D                     	;# 
   387  008E                     	;# 
   388  0091                     	;# 
   389  0092                     	;# 
   390  0093                     	;# 
   391  0094                     	;# 
   392  0098                     	;# 
   393  0099                     	;# 
   394  009C                     	;# 
   395  009D                     	;# 
   396  009E                     	;# 
   397  009F                     	;# 
   398  010C                     	;# 
   399  010D                     	;# 
   400  010E                     	;# 
   401  010F                     	;# 
   402  018C                     	;# 
   403  018D                     	;# 
   404  0000                     	;# 
   405  0001                     	;# 
   406  0002                     	;# 
   407  0003                     	;# 
   408  0004                     	;# 
   409  0005                     	;# 
   410  0006                     	;# 
   411  0007                     	;# 
   412  0008                     	;# 
   413  0009                     	;# 
   414  000A                     	;# 
   415  000B                     	;# 
   416  000C                     	;# 
   417  000D                     	;# 
   418  000E                     	;# 
   419  000E                     	;# 
   420  000F                     	;# 
   421  0010                     	;# 
   422  0011                     	;# 
   423  0012                     	;# 
   424  0013                     	;# 
   425  0014                     	;# 
   426  0015                     	;# 
   427  0015                     	;# 
   428  0016                     	;# 
   429  0017                     	;# 
   430  0018                     	;# 
   431  0019                     	;# 
   432  001A                     	;# 
   433  001B                     	;# 
   434  001B                     	;# 
   435  001C                     	;# 
   436  001D                     	;# 
   437  001E                     	;# 
   438  001F                     	;# 
   439  0081                     	;# 
   440  0085                     	;# 
   441  0086                     	;# 
   442  0087                     	;# 
   443  0088                     	;# 
   444  0089                     	;# 
   445  008C                     	;# 
   446  008D                     	;# 
   447  008E                     	;# 
   448  0091                     	;# 
   449  0092                     	;# 
   450  0093                     	;# 
   451  0094                     	;# 
   452  0098                     	;# 
   453  0099                     	;# 
   454  009C                     	;# 
   455  009D                     	;# 
   456  009E                     	;# 
   457  009F                     	;# 
   458  010C                     	;# 
   459  010D                     	;# 
   460  010E                     	;# 
   461  010F                     	;# 
   462  018C                     	;# 
   463  018D                     	;# 
   464  0000                     	;# 
   465  0001                     	;# 
   466  0002                     	;# 
   467  0003                     	;# 
   468  0004                     	;# 
   469  0005                     	;# 
   470  0006                     	;# 
   471  0007                     	;# 
   472  0008                     	;# 
   473  0009                     	;# 
   474  000A                     	;# 
   475  000B                     	;# 
   476  000C                     	;# 
   477  000D                     	;# 
   478  000E                     	;# 
   479  000E                     	;# 
   480  000F                     	;# 
   481  0010                     	;# 
   482  0011                     	;# 
   483  0012                     	;# 
   484  0013                     	;# 
   485  0014                     	;# 
   486  0015                     	;# 
   487  0015                     	;# 
   488  0016                     	;# 
   489  0017                     	;# 
   490  0018                     	;# 
   491  0019                     	;# 
   492  001A                     	;# 
   493  001B                     	;# 
   494  001B                     	;# 
   495  001C                     	;# 
   496  001D                     	;# 
   497  001E                     	;# 
   498  001F                     	;# 
   499  0081                     	;# 
   500  0085                     	;# 
   501  0086                     	;# 
   502  0087                     	;# 
   503  0088                     	;# 
   504  0089                     	;# 
   505  008C                     	;# 
   506  008D                     	;# 
   507  008E                     	;# 
   508  0091                     	;# 
   509  0092                     	;# 
   510  0093                     	;# 
   511  0094                     	;# 
   512  0098                     	;# 
   513  0099                     	;# 
   514  009C                     	;# 
   515  009D                     	;# 
   516  009E                     	;# 
   517  009F                     	;# 
   518  010C                     	;# 
   519  010D                     	;# 
   520  010E                     	;# 
   521  010F                     	;# 
   522  018C                     	;# 
   523  018D                     	;# 
   524  0000                     	;# 
   525  0001                     	;# 
   526  0002                     	;# 
   527  0003                     	;# 
   528  0004                     	;# 
   529  0005                     	;# 
   530  0006                     	;# 
   531  0007                     	;# 
   532  0008                     	;# 
   533  0009                     	;# 
   534  000A                     	;# 
   535  000B                     	;# 
   536  000C                     	;# 
   537  000D                     	;# 
   538  000E                     	;# 
   539  000E                     	;# 
   540  000F                     	;# 
   541  0010                     	;# 
   542  0011                     	;# 
   543  0012                     	;# 
   544  0013                     	;# 
   545  0014                     	;# 
   546  0015                     	;# 
   547  0015                     	;# 
   548  0016                     	;# 
   549  0017                     	;# 
   550  0018                     	;# 
   551  0019                     	;# 
   552  001A                     	;# 
   553  001B                     	;# 
   554  001B                     	;# 
   555  001C                     	;# 
   556  001D                     	;# 
   557  001E                     	;# 
   558  001F                     	;# 
   559  0081                     	;# 
   560  0085                     	;# 
   561  0086                     	;# 
   562  0087                     	;# 
   563  0088                     	;# 
   564  0089                     	;# 
   565  008C                     	;# 
   566  008D                     	;# 
   567  008E                     	;# 
   568  0091                     	;# 
   569  0092                     	;# 
   570  0093                     	;# 
   571  0094                     	;# 
   572  0098                     	;# 
   573  0099                     	;# 
   574  009C                     	;# 
   575  009D                     	;# 
   576  009E                     	;# 
   577  009F                     	;# 
   578  010C                     	;# 
   579  010D                     	;# 
   580  010E                     	;# 
   581  010F                     	;# 
   582  018C                     	;# 
   583  018D                     	;# 
   584                           
   585                           	psect	strings
   586  0500                     __pstrings:	
   587  0500                     stringtab:	
   588  0500                     __stringtab:	
   589                           
   590                           ;	String table - string pointers are 1 byte each
   591  0500  1BFF               	btfsc	btemp+1,7
   592  0501  2D0A               	ljmp	stringcode
   593  0502  1383               	bcf	3,7
   594  0503  187F               	btfsc	btemp+1,0
   595  0504  1783               	bsf	3,7
   596  0505  0800               	movf	0,w
   597  0506  0A84               	incf	4,f
   598  0507  1903               	skipnz
   599  0508  0AFF               	incf	btemp+1,f
   600  0509  0008               	return
   601  050A                     stringcode:	
   602  050A                     stringdir:	
   603  050A  3005               	movlw	high stringdir
   604  050B  008A               	movwf	10
   605  050C  0804               	movf	4,w
   606  050D  0A84               	incf	4,f
   607  050E  0782               	addwf	2,f
   608  050F                     __stringbase:	
   609  050F  3400               	retlw	0
   610  0510                     __end_of__stringtab:	
   611  0510                     _dpowers:	
   612  0510  3401               	retlw	1
   613  0511  3400               	retlw	0
   614  0512  340A               	retlw	10
   615  0513  3400               	retlw	0
   616  0514  3464               	retlw	100
   617  0515  3400               	retlw	0
   618  0516  34E8               	retlw	232
   619  0517  3403               	retlw	3
   620  0518  3410               	retlw	16
   621  0519  3427               	retlw	39
   622  051A                     __end_of_dpowers:	
   623  000E                     _TMR1	set	14
   624  001F                     _ADCON0bits	set	31
   625  001E                     _ADRESH	set	30
   626  0017                     _CCP1CON	set	23
   627  0017                     _CCP1CONbits	set	23
   628  001D                     _CCP2CON	set	29
   629  001D                     _CCP2CONbits	set	29
   630  0015                     _CCPR1L	set	21
   631  001B                     _CCPR2L	set	27
   632  000B                     _INTCONbits	set	11
   633  000C                     _PIR1bits	set	12
   634  000D                     _PIR2bits	set	13
   635  0005                     _PORTA	set	5
   636  0006                     _PORTB	set	6
   637  0006                     _PORTBbits	set	6
   638  0007                     _PORTC	set	7
   639  0008                     _PORTD	set	8
   640  0009                     _PORTE	set	9
   641  0009                     _PORTEbits	set	9
   642  001A                     _RCREG	set	26
   643  0018                     _RCSTAbits	set	24
   644  0013                     _SSPBUF	set	19
   645  0014                     _SSPCONbits	set	20
   646  0010                     _T1CON	set	16
   647  0010                     _T1CONbits	set	16
   648  0012                     _T2CONbits	set	18
   649  0001                     _TMR0	set	1
   650  000F                     _TMR1H	set	15
   651  000E                     _TMR1L	set	14
   652  0019                     _TXREG	set	25
   653  00C1                     _OERR	set	193
   654  009F                     _ADCON1bits	set	159
   655  009E                     _ADRESL	set	158
   656  0081                     _OPTION_REGbits	set	129
   657  008C                     _PIE1bits	set	140
   658  008D                     _PIE2bits	set	141
   659  0092                     _PR2	set	146
   660  0099                     _SPBRG	set	153
   661  0093                     _SSPADD	set	147
   662  0091                     _SSPCON2	set	145
   663  0091                     _SSPCON2bits	set	145
   664  0094                     _SSPSTATbits	set	148
   665  0085                     _TRISA	set	133
   666  0086                     _TRISB	set	134
   667  0087                     _TRISC	set	135
   668  0088                     _TRISD	set	136
   669  0089                     _TRISE	set	137
   670  0098                     _TXSTAbits	set	152
   671  010D                     _EEADR	set	269
   672  010C                     _EEDATA	set	268
   673  018C                     _EECON1bits	set	396
   674  018D                     _EECON2	set	397
   675  051A                     __stringdata:	
   676  051A                     STR_7:	
   677  051A  340A               	retlw	10
   678  051B  340D               	retlw	13
   679  051C  3420               	retlw	32	;' '
   680  051D  342D               	retlw	45	;'-'
   681  051E  342D               	retlw	45	;'-'
   682  051F  342D               	retlw	45	;'-'
   683  0520  342D               	retlw	45	;'-'
   684  0521  342D               	retlw	45	;'-'
   685  0522  342D               	retlw	45	;'-'
   686  0523  342D               	retlw	45	;'-'
   687  0524  3420               	retlw	32	;' '
   688  0525  3445               	retlw	69	;'E'
   689  0526  3453               	retlw	83	;'S'
   690  0527  3454               	retlw	84	;'T'
   691  0528  344F               	retlw	79	;'O'
   692  0529  3455               	retlw	85	;'U'
   693  052A  3452               	retlw	82	;'R'
   694  052B  344F               	retlw	79	;'O'
   695  052C  3420               	retlw	32	;' '
   696  052D  3444               	retlw	68	;'D'
   697  052E  3445               	retlw	69	;'E'
   698  052F  3420               	retlw	32	;' '
   699  0530  3450               	retlw	80	;'P'
   700  0531  3449               	retlw	73	;'I'
   701  0532  344C               	retlw	76	;'L'
   702  0533  3448               	retlw	72	;'H'
   703  0534  3441               	retlw	65	;'A'
   704  0535  3420               	retlw	32	;' '
   705  0536  342D               	retlw	45	;'-'
   706  0537  342D               	retlw	45	;'-'
   707  0538  342D               	retlw	45	;'-'
   708  0539  342D               	retlw	45	;'-'
   709  053A  342D               	retlw	45	;'-'
   710  053B  342D               	retlw	45	;'-'
   711  053C  342D               	retlw	45	;'-'
   712  053D  3420               	retlw	32	;' '
   713  053E  340A               	retlw	10
   714  053F  340D               	retlw	13
   715  0540  3420               	retlw	32	;' '
   716  0541  3400               	retlw	0
   717  0542                     STR_1:	
   718  0542  3449               	retlw	73	;'I'
   719  0543  346E               	retlw	110	;'n'
   720  0544  3469               	retlw	105	;'i'
   721  0545  3463               	retlw	99	;'c'
   722  0546  3469               	retlw	105	;'i'
   723  0547  3461               	retlw	97	;'a'
   724  0548  346C               	retlw	108	;'l'
   725  0549  3469               	retlw	105	;'i'
   726  054A  347A               	retlw	122	;'z'
   727  054B  3461               	retlw	97	;'a'
   728  054C  346E               	retlw	110	;'n'
   729  054D  3464               	retlw	100	;'d'
   730  054E  346F               	retlw	111	;'o'
   731  054F  3420               	retlw	32	;' '
   732  0550  346F               	retlw	111	;'o'
   733  0551  3420               	retlw	32	;' '
   734  0552  3450               	retlw	80	;'P'
   735  0553  3449               	retlw	73	;'I'
   736  0554  3443               	retlw	67	;'C'
   737  0555  3431               	retlw	49	;'1'
   738  0556  3436               	retlw	54	;'6'
   739  0557  3446               	retlw	70	;'F'
   740  0558  3438               	retlw	56	;'8'
   741  0559  3437               	retlw	55	;'7'
   742  055A  3437               	retlw	55	;'7'
   743  055B  3441               	retlw	65	;'A'
   744  055C  340A               	retlw	10
   745  055D  340D               	retlw	13
   746  055E  3400               	retlw	0
   747  055F                     STR_2:	
   748  055F  3455               	retlw	85	;'U'
   749  0560  3453               	retlw	83	;'S'
   750  0561  3441               	retlw	65	;'A'
   751  0562  3452               	retlw	82	;'R'
   752  0563  3454               	retlw	84	;'T'
   753  0564  343A               	retlw	58	;':'
   754  0565  3420               	retlw	32	;' '
   755  0566  3431               	retlw	49	;'1'
   756  0567  3431               	retlw	49	;'1'
   757  0568  3435               	retlw	53	;'5'
   758  0569  342E               	retlw	46	;'.'
   759  056A  3432               	retlw	50	;'2'
   760  056B  3430               	retlw	48	;'0'
   761  056C  3430               	retlw	48	;'0'
   762  056D  3462               	retlw	98	;'b'
   763  056E  3470               	retlw	112	;'p'
   764  056F  3473               	retlw	115	;'s'
   765  0570  340A               	retlw	10
   766  0571  340D               	retlw	13
   767  0572  3400               	retlw	0
   768  0573                     STR_3:	
   769  0573  3449               	retlw	73	;'I'
   770  0574  346E               	retlw	110	;'n'
   771  0575  3469               	retlw	105	;'i'
   772  0576  3463               	retlw	99	;'c'
   773  0577  3469               	retlw	105	;'i'
   774  0578  3461               	retlw	97	;'a'
   775  0579  346C               	retlw	108	;'l'
   776  057A  3469               	retlw	105	;'i'
   777  057B  347A               	retlw	122	;'z'
   778  057C  3461               	retlw	97	;'a'
   779  057D  346E               	retlw	110	;'n'
   780  057E  3464               	retlw	100	;'d'
   781  057F  346F               	retlw	111	;'o'
   782  0580  342E               	retlw	46	;'.'
   783  0581  342E               	retlw	46	;'.'
   784  0582  342E               	retlw	46	;'.'
   785  0583  3400               	retlw	0
   786  0584                     STR_6:	
   787  0584  3452               	retlw	82	;'R'
   788  0585  3450               	retlw	80	;'P'
   789  0586  344D               	retlw	77	;'M'
   790  0587  343A               	retlw	58	;':'
   791  0588  3420               	retlw	32	;' '
   792  0589  3400               	retlw	0
   793  058A                     STR_4:	
   794  058A  3425               	retlw	37	;'%'
   795  058B  3430               	retlw	48	;'0'
   796  058C  3434               	retlw	52	;'4'
   797  058D  3464               	retlw	100	;'d'
   798  058E  3400               	retlw	0
   799  058F                     __end_of__stringdata:	
   800                           
   801                           ; #config settings
   802  0000                     
   803                           	psect	cinit
   804  0015                     start_initialization:	
   805  0015                     __initialization:	
   806                           
   807                           ; Clear objects allocated to COMMON
   808  0015  01FC               	clrf	__pbssCOMMON& (0+127)
   809  0016  01FD               	clrf	(__pbssCOMMON+1)& (0+127)
   810                           
   811                           ; Clear objects allocated to BANK0
   812  0017  1383               	bcf	3,7	;select IRP bank0
   813  0018  3052               	movlw	low __pbssBANK0
   814  0019  0084               	movwf	4
   815  001A  305F               	movlw	low (__pbssBANK0+13)
   816  001B  120A  158A  2607  120A  118A  	fcall	clear_ram0
   817                           
   818                           ; Clear objects allocated to BANK1
   819  0020  30C2               	movlw	low __pbssBANK1
   820  0021  0084               	movwf	4
   821  0022  30CE               	movlw	low (__pbssBANK1+12)
   822  0023  120A  158A  2607   	fcall	clear_ram0
   823  0026                     end_of_initialization:	
   824                           ;End of C runtime variable initialization code
   825                           
   826  0026                     __end_of__initialization:	
   827  0026  0183               	clrf	3
   828  0027  120A  118A  29E1   	ljmp	_main	;jump to C main() function
   829                           
   830                           	psect	bssCOMMON
   831  007C                     __pbssCOMMON:	
   832  007C                     _pulsos:	
   833  007C                     	ds	2
   834                           
   835                           	psect	bssBANK0
   836  0052                     __pbssBANK0:	
   837  0052                     _temp_lida:	
   838  0052                     	ds	3
   839  0055                     _ADCResult:	
   840  0055                     	ds	2
   841  0057                     _contador_rb6:	
   842  0057                     	ds	2
   843  0059                     _contagens_tm0:	
   844  0059                     	ds	2
   845  005B                     _status:	
   846  005B                     	ds	2
   847  005D                     _tempo_rb6:	
   848  005D                     	ds	2
   849                           
   850                           	psect	bssBANK1
   851  00C2                     __pbssBANK1:	
   852  00C2                     _rpm:	
   853  00C2                     	ds	2
   854  00C4                     _display:	
   855  00C4                     	ds	10
   856                           
   857                           	psect	clrtext
   858  0E07                     clear_ram0:	
   859                           ;	Called with FSR containing the base address, and
   860                           ;	W with the last address+1
   861                           
   862  0E07  0064               	clrwdt	;clear the watchdog before getting into this loop
   863  0E08                     clrloop0:	
   864  0E08  0180               	clrf	0	;clear RAM location pointed to by FSR
   865  0E09  0A84               	incf	4,f	;increment pointer
   866  0E0A  0604               	xorwf	4,w	;XOR with final address
   867  0E0B  1903               	btfsc	3,2	;have we reached the end yet?
   868  0E0C  3400               	retlw	0	;all done for this memory range, return
   869  0E0D  0604               	xorwf	4,w	;XOR again to restore value
   870  0E0E  2E08               	goto	clrloop0	;do the next byte
   871                           
   872                           	psect	cstackBANK1
   873  00A0                     __pcstackBANK1:	
   874  00A0                     ??_TIMER0_Set:	
   875  00A0                     ??_TIMER0_Init:	
   876                           ; 0 bytes @ 0x0
   877                           
   878  00A0                     ??_ADC_Init:	
   879                           ; 0 bytes @ 0x0
   880                           
   881  00A0                     ??_PWM_Init:	
   882                           ; 0 bytes @ 0x0
   883                           
   884  00A0                     ?_LCD_Cursor:	
   885                           ; 0 bytes @ 0x0
   886                           
   887  00A0                     ?_PWM_DutyCycle1:	
   888                           ; 0 bytes @ 0x0
   889                           
   890  00A0                     ?_PWM_DutyCycle2:	
   891                           ; 0 bytes @ 0x0
   892                           
   893  00A0                     ??_isdigit:	
   894                           ; 0 bytes @ 0x0
   895                           
   896  00A0                     ??_USART_WriteChar:	
   897                           ; 0 bytes @ 0x0
   898                           
   899  00A0                     ??_LCD_WriteCmd:	
   900                           ; 0 bytes @ 0x0
   901                           
   902  00A0                     ??_LCD_WriteData:	
   903                           ; 0 bytes @ 0x0
   904                           
   905  00A0                     ?___wmul:	
   906                           ; 0 bytes @ 0x0
   907                           
   908  00A0                     ?___lwdiv:	
   909                           ; 2 bytes @ 0x0
   910                           
   911  00A0                     ?___aldiv:	
   912                           ; 2 bytes @ 0x0
   913                           
   914  00A0                     USART_WriteChar@byte:	
   915                           ; 4 bytes @ 0x0
   916                           
   917  00A0                     TIMER0_Set@contagens:	
   918                           ; 1 bytes @ 0x0
   919                           
   920  00A0                     LCD_Cursor@Col:	
   921                           ; 1 bytes @ 0x0
   922                           
   923  00A0                     _isdigit$1383:	
   924                           ; 1 bytes @ 0x0
   925                           
   926  00A0                     PWM_DutyCycle1@valor:	
   927                           ; 1 bytes @ 0x0
   928                           
   929  00A0                     PWM_DutyCycle2@valor:	
   930                           ; 2 bytes @ 0x0
   931                           
   932  00A0                     ___wmul@multiplier:	
   933                           ; 2 bytes @ 0x0
   934                           
   935  00A0                     ___lwdiv@divisor:	
   936                           ; 2 bytes @ 0x0
   937                           
   938  00A0                     ___aldiv@divisor:	
   939                           ; 2 bytes @ 0x0
   940                           
   941                           
   942                           ; 4 bytes @ 0x0
   943  00A0                     	ds	1
   944  00A1                     ?_USART_WriteString:	
   945  00A1                     ??_LCD_Cursor:	
   946                           ; 0 bytes @ 0x1
   947                           
   948  00A1                     LCD_WriteCmd@Byte:	
   949                           ; 0 bytes @ 0x1
   950                           
   951  00A1                     LCD_WriteData@Byte:	
   952                           ; 1 bytes @ 0x1
   953                           
   954  00A1                     isdigit@c:	
   955                           ; 1 bytes @ 0x1
   956                           
   957  00A1                     USART_WriteString@str:	
   958                           ; 1 bytes @ 0x1
   959                           
   960                           
   961                           ; 2 bytes @ 0x1
   962  00A1                     	ds	1
   963  00A2                     ??_LCD_Init:	
   964  00A2                     ?_LCD_WriteString:	
   965                           ; 0 bytes @ 0x2
   966                           
   967  00A2                     ??_PWM_DutyCycle1:	
   968                           ; 0 bytes @ 0x2
   969                           
   970  00A2                     ??_PWM_DutyCycle2:	
   971                           ; 0 bytes @ 0x2
   972                           
   973  00A2                     ??_LCD_Clear:	
   974                           ; 0 bytes @ 0x2
   975                           
   976  00A2                     LCD_Cursor@Row:	
   977                           ; 0 bytes @ 0x2
   978                           
   979  00A2                     LCD_WriteString@Str:	
   980                           ; 1 bytes @ 0x2
   981                           
   982  00A2                     ___wmul@multiplicand:	
   983                           ; 2 bytes @ 0x2
   984                           
   985  00A2                     ___lwdiv@dividend:	
   986                           ; 2 bytes @ 0x2
   987                           
   988                           
   989                           ; 2 bytes @ 0x2
   990  00A2                     	ds	1
   991  00A3                     ??_USART_WriteString:	
   992                           
   993                           ; 0 bytes @ 0x3
   994  00A3                     	ds	1
   995  00A4                     ??_LCD_WriteString:	
   996  00A4                     ??___wmul:	
   997                           ; 0 bytes @ 0x4
   998                           
   999  00A4                     ??___lwdiv:	
  1000                           ; 0 bytes @ 0x4
  1001                           
  1002  00A4                     ___wmul@product:	
  1003                           ; 0 bytes @ 0x4
  1004                           
  1005  00A4                     ___aldiv@dividend:	
  1006                           ; 2 bytes @ 0x4
  1007                           
  1008                           
  1009                           ; 4 bytes @ 0x4
  1010  00A4                     	ds	1
  1011  00A5                     ___lwdiv@quotient:	
  1012                           
  1013                           ; 2 bytes @ 0x5
  1014  00A5                     	ds	2
  1015  00A7                     ___lwdiv@counter:	
  1016                           
  1017                           ; 1 bytes @ 0x7
  1018  00A7                     	ds	1
  1019  00A8                     ??___aldiv:	
  1020  00A8                     ?___lwmod:	
  1021                           ; 0 bytes @ 0x8
  1022                           
  1023  00A8                     ___lwmod@divisor:	
  1024                           ; 2 bytes @ 0x8
  1025                           
  1026                           
  1027                           ; 2 bytes @ 0x8
  1028  00A8                     	ds	1
  1029  00A9                     ___aldiv@counter:	
  1030                           
  1031                           ; 1 bytes @ 0x9
  1032  00A9                     	ds	1
  1033  00AA                     ___aldiv@sign:	
  1034  00AA                     ___lwmod@dividend:	
  1035                           ; 1 bytes @ 0xA
  1036                           
  1037                           
  1038                           ; 2 bytes @ 0xA
  1039  00AA                     	ds	1
  1040  00AB                     ___aldiv@quotient:	
  1041                           
  1042                           ; 4 bytes @ 0xB
  1043  00AB                     	ds	1
  1044  00AC                     ??___lwmod:	
  1045                           
  1046                           ; 0 bytes @ 0xC
  1047  00AC                     	ds	1
  1048  00AD                     ___lwmod@counter:	
  1049                           
  1050                           ; 1 bytes @ 0xD
  1051  00AD                     	ds	1
  1052  00AE                     ?_sprintf:	
  1053  00AE                     sprintf@f:	
  1054                           ; 2 bytes @ 0xE
  1055                           
  1056                           
  1057                           ; 1 bytes @ 0xE
  1058  00AE                     	ds	1
  1059  00AF                     ?_USART_Init:	
  1060  00AF                     USART_Init@BaudRate:	
  1061                           ; 0 bytes @ 0xF
  1062                           
  1063                           
  1064                           ; 4 bytes @ 0xF
  1065  00AF                     	ds	2
  1066  00B1                     ??_sprintf:	
  1067                           
  1068                           ; 0 bytes @ 0x11
  1069  00B1                     	ds	2
  1070  00B3                     ??_USART_Init:	
  1071                           
  1072                           ; 0 bytes @ 0x13
  1073  00B3                     	ds	1
  1074  00B4                     sprintf@ap:	
  1075                           
  1076                           ; 1 bytes @ 0x14
  1077  00B4                     	ds	1
  1078  00B5                     sprintf@prec:	
  1079                           
  1080                           ; 1 bytes @ 0x15
  1081  00B5                     	ds	1
  1082  00B6                     sprintf@_val:	
  1083                           
  1084                           ; 4 bytes @ 0x16
  1085  00B6                     	ds	4
  1086  00BA                     sprintf@flag:	
  1087                           
  1088                           ; 1 bytes @ 0x1A
  1089  00BA                     	ds	1
  1090  00BB                     sprintf@width:	
  1091                           
  1092                           ; 2 bytes @ 0x1B
  1093  00BB                     	ds	2
  1094  00BD                     sprintf@sp:	
  1095                           
  1096                           ; 1 bytes @ 0x1D
  1097  00BD                     	ds	1
  1098  00BE                     sprintf@c:	
  1099                           
  1100                           ; 1 bytes @ 0x1E
  1101  00BE                     	ds	1
  1102  00BF                     ??_main:	
  1103                           
  1104                           ; 0 bytes @ 0x1F
  1105  00BF                     	ds	3
  1106                           
  1107                           	psect	cstackCOMMON
  1108  0070                     __pcstackCOMMON:	
  1109  0070                     ?_TIMER0_Set:	
  1110  0070                     ?_TIMER0_Init:	
  1111                           ; 0 bytes @ 0x0
  1112                           
  1113  0070                     ?_ADC_Init:	
  1114                           ; 0 bytes @ 0x0
  1115                           
  1116  0070                     ?_PWM_Init:	
  1117                           ; 0 bytes @ 0x0
  1118                           
  1119  0070                     ?_LCD_Init:	
  1120                           ; 0 bytes @ 0x0
  1121                           
  1122  0070                     ?_LCD_Clear:	
  1123                           ; 0 bytes @ 0x0
  1124                           
  1125  0070                     ?_isdigit:	
  1126                           ; 0 bytes @ 0x0
  1127                           
  1128  0070                     ?_ISR:	
  1129                           ; 1 bit 
  1130                           
  1131  0070                     ?_main:	
  1132                           ; 0 bytes @ 0x0
  1133                           
  1134  0070                     ?_USART_WriteChar:	
  1135                           ; 0 bytes @ 0x0
  1136                           
  1137  0070                     ?_LCD_WriteCmd:	
  1138                           ; 0 bytes @ 0x0
  1139                           
  1140  0070                     ?_LCD_WriteData:	
  1141                           ; 0 bytes @ 0x0
  1142                           
  1143  0070                     ?i1_TIMER0_Set:	
  1144                           ; 0 bytes @ 0x0
  1145                           
  1146  0070                     ??i1_TIMER0_Set:	
  1147                           ; 0 bytes @ 0x0
  1148                           
  1149  0070                     ?___ftpack:	
  1150                           ; 0 bytes @ 0x0
  1151                           
  1152  0070                     i1TIMER0_Set@contagens:	
  1153                           ; 3 bytes @ 0x0
  1154                           
  1155  0070                     ___ftpack@arg:	
  1156                           ; 1 bytes @ 0x0
  1157                           
  1158                           
  1159                           ; 3 bytes @ 0x0
  1160  0070                     	ds	3
  1161  0073                     ___ftpack@exp:	
  1162                           
  1163                           ; 1 bytes @ 0x3
  1164  0073                     	ds	1
  1165  0074                     ___ftpack@sign:	
  1166                           
  1167                           ; 1 bytes @ 0x4
  1168  0074                     	ds	1
  1169  0075                     ??___ftpack:	
  1170                           
  1171                           ; 0 bytes @ 0x5
  1172  0075                     	ds	3
  1173  0078                     ?___lwtoft:	
  1174  0078                     ___lwtoft@c:	
  1175                           ; 3 bytes @ 0x8
  1176                           
  1177                           
  1178                           ; 2 bytes @ 0x8
  1179  0078                     	ds	3
  1180  007B                     ??___lwtoft:	
  1181                           
  1182                           ; 0 bytes @ 0xB
  1183  007B                     	ds	1
  1184                           
  1185                           	psect	cstackBANK0
  1186  0020                     __pcstackBANK0:	
  1187  0020                     ?___ftdiv:	
  1188  0020                     ___ftdiv@f2:	
  1189                           ; 3 bytes @ 0x0
  1190                           
  1191                           
  1192                           ; 3 bytes @ 0x0
  1193  0020                     	ds	3
  1194  0023                     ___ftdiv@f1:	
  1195                           
  1196                           ; 3 bytes @ 0x3
  1197  0023                     	ds	3
  1198  0026                     ??___ftdiv:	
  1199                           
  1200                           ; 0 bytes @ 0x6
  1201  0026                     	ds	4
  1202  002A                     ___ftdiv@cntr:	
  1203                           
  1204                           ; 1 bytes @ 0xA
  1205  002A                     	ds	1
  1206  002B                     ___ftdiv@f3:	
  1207                           
  1208                           ; 3 bytes @ 0xB
  1209  002B                     	ds	3
  1210  002E                     ___ftdiv@exp:	
  1211                           
  1212                           ; 1 bytes @ 0xE
  1213  002E                     	ds	1
  1214  002F                     ___ftdiv@sign:	
  1215                           
  1216                           ; 1 bytes @ 0xF
  1217  002F                     	ds	1
  1218  0030                     ?___ftmul:	
  1219  0030                     ___ftmul@f1:	
  1220                           ; 3 bytes @ 0x10
  1221                           
  1222                           
  1223                           ; 3 bytes @ 0x10
  1224  0030                     	ds	3
  1225  0033                     ___ftmul@f2:	
  1226                           
  1227                           ; 3 bytes @ 0x13
  1228  0033                     	ds	3
  1229  0036                     ??___ftmul:	
  1230                           
  1231                           ; 0 bytes @ 0x16
  1232  0036                     	ds	4
  1233  003A                     ___ftmul@exp:	
  1234                           
  1235                           ; 1 bytes @ 0x1A
  1236  003A                     	ds	1
  1237  003B                     ___ftmul@f3_as_product:	
  1238                           
  1239                           ; 3 bytes @ 0x1B
  1240  003B                     	ds	3
  1241  003E                     ___ftmul@cntr:	
  1242                           
  1243                           ; 1 bytes @ 0x1E
  1244  003E                     	ds	1
  1245  003F                     ___ftmul@sign:	
  1246                           
  1247                           ; 1 bytes @ 0x1F
  1248  003F                     	ds	1
  1249  0040                     ?___fttol:	
  1250  0040                     ___fttol@f1:	
  1251                           ; 4 bytes @ 0x20
  1252                           
  1253                           
  1254                           ; 3 bytes @ 0x20
  1255  0040                     	ds	4
  1256  0044                     ??___fttol:	
  1257                           
  1258                           ; 0 bytes @ 0x24
  1259  0044                     	ds	4
  1260  0048                     ___fttol@sign1:	
  1261                           
  1262                           ; 1 bytes @ 0x28
  1263  0048                     	ds	1
  1264  0049                     ___fttol@lval:	
  1265                           
  1266                           ; 4 bytes @ 0x29
  1267  0049                     	ds	4
  1268  004D                     ___fttol@exp1:	
  1269                           
  1270                           ; 1 bytes @ 0x2D
  1271  004D                     	ds	1
  1272  004E                     ??_ISR:	
  1273                           
  1274                           ; 0 bytes @ 0x2E
  1275  004E                     	ds	4
  1276                           
  1277                           	psect	maintext
  1278  01E1                     __pmaintext:	
  1279 ;;
  1280 ;;Main: autosize = 0, tempsize = 3, incstack = 0, save=0
  1281 ;;
  1282 ;; *************** function _main *****************
  1283 ;; Defined at:
  1284 ;;		line 111 in file "C:\Users\332414\Documents\Fuzzy-IA2\Cdigo em C no MPLAB\main.c"
  1285 ;; Parameters:    Size  Location     Type
  1286 ;;		None
  1287 ;; Auto vars:     Size  Location     Type
  1288 ;;		None
  1289 ;; Return value:  Size  Location     Type
  1290 ;;		None               void
  1291 ;; Registers used:
  1292 ;;		wreg, fsr0l, fsr0h, status,2, status,0, btemp+1, pclath, cstack
  1293 ;; Tracked objects:
  1294 ;;		On entry : 17F/0
  1295 ;;		On exit  : 0/0
  1296 ;;		Unchanged: 0/0
  1297 ;; Data sizes:     COMMON   BANK0   BANK1   BANK3   BANK2
  1298 ;;      Params:         0       0       0       0       0
  1299 ;;      Locals:         0       0       0       0       0
  1300 ;;      Temps:          0       0       3       0       0
  1301 ;;      Totals:         0       0       3       0       0
  1302 ;;Total ram usage:        3 bytes
  1303 ;; Hardware stack levels required when called:    5
  1304 ;; This function calls:
  1305 ;;		_ADC_Init
  1306 ;;		_LCD_Clear
  1307 ;;		_LCD_Cursor
  1308 ;;		_LCD_Init
  1309 ;;		_LCD_WriteString
  1310 ;;		_PWM_DutyCycle1
  1311 ;;		_PWM_DutyCycle2
  1312 ;;		_PWM_Init
  1313 ;;		_TIMER0_Init
  1314 ;;		_TIMER0_Set
  1315 ;;		_USART_Init
  1316 ;;		_USART_WriteString
  1317 ;;		_sprintf
  1318 ;; This function is called by:
  1319 ;;		Startup code after reset
  1320 ;; This function uses a non-reentrant model
  1321 ;;
  1322                           
  1323                           
  1324                           ;psect for function _main
  1325  01E1                     _main:	
  1326                           
  1327                           ;main.c: 113: TRISA = 0b00000001;
  1328                           
  1329                           ;incstack = 0
  1330                           ; Regs used in _main: [wreg-fsr0h+status,2+status,0+btemp+1+pclath+cstack]
  1331  01E1  3001               	movlw	1
  1332  01E2  1683               	bsf	3,5	;RP0=1, select bank1
  1333  01E3  1303               	bcf	3,6	;RP1=0, select bank1
  1334  01E4  0085               	movwf	5	;volatile
  1335                           
  1336                           ;main.c: 114: PORTA = 0b00000001;
  1337  01E5  3001               	movlw	1
  1338  01E6  1283               	bcf	3,5	;RP0=0, select bank0
  1339  01E7  1303               	bcf	3,6	;RP1=0, select bank0
  1340  01E8  0085               	movwf	5	;volatile
  1341                           
  1342                           ;main.c: 115: TRISB = 0b00000000;
  1343  01E9  1683               	bsf	3,5	;RP0=1, select bank1
  1344  01EA  1303               	bcf	3,6	;RP1=0, select bank1
  1345  01EB  0186               	clrf	6	;volatile
  1346                           
  1347                           ;main.c: 116: PORTB = 0b00000000;
  1348  01EC  1283               	bcf	3,5	;RP0=0, select bank0
  1349  01ED  1303               	bcf	3,6	;RP1=0, select bank0
  1350  01EE  0186               	clrf	6	;volatile
  1351                           
  1352                           ;main.c: 117: TRISC = 0b10000001;
  1353  01EF  3081               	movlw	129
  1354  01F0  1683               	bsf	3,5	;RP0=1, select bank1
  1355  01F1  1303               	bcf	3,6	;RP1=0, select bank1
  1356  01F2  0087               	movwf	7	;volatile
  1357                           
  1358                           ;main.c: 118: PORTC = 0b11000000;
  1359  01F3  30C0               	movlw	192
  1360  01F4  1283               	bcf	3,5	;RP0=0, select bank0
  1361  01F5  1303               	bcf	3,6	;RP1=0, select bank0
  1362  01F6  0087               	movwf	7	;volatile
  1363                           
  1364                           ;main.c: 119: TRISD = 0b00000000;
  1365  01F7  1683               	bsf	3,5	;RP0=1, select bank1
  1366  01F8  1303               	bcf	3,6	;RP1=0, select bank1
  1367  01F9  0188               	clrf	8	;volatile
  1368                           
  1369                           ;main.c: 120: PORTD = 0b00000000;
  1370  01FA  1283               	bcf	3,5	;RP0=0, select bank0
  1371  01FB  1303               	bcf	3,6	;RP1=0, select bank0
  1372  01FC  0188               	clrf	8	;volatile
  1373                           
  1374                           ;main.c: 121: TRISE = 0b00000000;
  1375  01FD  1683               	bsf	3,5	;RP0=1, select bank1
  1376  01FE  1303               	bcf	3,6	;RP1=0, select bank1
  1377  01FF  0189               	clrf	9	;volatile
  1378                           
  1379                           ;main.c: 122: PORTE = 0b00000000;
  1380  0200  1283               	bcf	3,5	;RP0=0, select bank0
  1381  0201  1303               	bcf	3,6	;RP1=0, select bank0
  1382  0202  0189               	clrf	9	;volatile
  1383                           
  1384                           ;main.c: 125: T1CON = 0x03;
  1385  0203  3003               	movlw	3
  1386  0204  0090               	movwf	16	;volatile
  1387                           
  1388                           ;main.c: 126: TMR1L = 0x00;
  1389  0205  018E               	clrf	14	;volatile
  1390                           
  1391                           ;main.c: 127: TMR1H = 0x00;
  1392  0206  018F               	clrf	15	;volatile
  1393                           
  1394                           ;main.c: 130: USART_Init(115200);
  1395  0207  3000               	movlw	0
  1396  0208  1683               	bsf	3,5	;RP0=1, select bank1
  1397  0209  1303               	bcf	3,6	;RP1=0, select bank1
  1398  020A  00B2               	movwf	(USART_Init@BaudRate+3)^(0+128)
  1399  020B  3001               	movlw	1
  1400  020C  00B1               	movwf	(USART_Init@BaudRate+2)^(0+128)
  1401  020D  30C2               	movlw	194
  1402  020E  00B0               	movwf	(USART_Init@BaudRate+1)^(0+128)
  1403  020F  3000               	movlw	0
  1404  0210  00AF               	movwf	USART_Init@BaudRate^(0+128)
  1405  0211  120A  118A  279D  120A  118A  	fcall	_USART_Init
  1406                           
  1407                           ;main.c: 131: TIMER0_Init();
  1408  0216  120A  158A  260F  120A  118A  	fcall	_TIMER0_Init
  1409                           
  1410                           ;main.c: 132: ADC_Init();
  1411  021B  120A  158A  2637  120A  118A  	fcall	_ADC_Init
  1412                           
  1413                           ;main.c: 133: PWM_Init();
  1414  0220  120A  158A  26B6  120A  118A  	fcall	_PWM_Init
  1415                           
  1416                           ;main.c: 134: LCD_Init();
  1417  0225  120A  118A  2732  120A  118A  	fcall	_LCD_Init
  1418                           
  1419                           ;main.c: 137: INTCONbits.PEIE = 1;
  1420  022A  170B               	bsf	11,6	;volatile
  1421                           
  1422                           ;main.c: 138: INTCONbits.GIE = 1;
  1423  022B  178B               	bsf	11,7	;volatile
  1424                           
  1425                           ;main.c: 141: USART_WriteString("Inicializando o PIC16F877A\n\r");
  1426  022C  3033               	movlw	low (STR_1-__stringbase)
  1427  022D  1683               	bsf	3,5	;RP0=1, select bank1
  1428  022E  1303               	bcf	3,6	;RP1=0, select bank1
  1429  022F  00A1               	movwf	USART_WriteString@str^(0+128)
  1430  0230  3080               	movlw	128
  1431  0231  00A2               	movwf	(USART_WriteString@str+1)^(0+128)
  1432  0232  120A  158A  2759  120A  118A  	fcall	_USART_WriteString
  1433                           
  1434                           ;main.c: 142: USART_WriteString("USART: 115.200bps\n\r");
  1435  0237  3050               	movlw	low (STR_2-__stringbase)
  1436  0238  1683               	bsf	3,5	;RP0=1, select bank1
  1437  0239  1303               	bcf	3,6	;RP1=0, select bank1
  1438  023A  00A1               	movwf	USART_WriteString@str^(0+128)
  1439  023B  3080               	movlw	128
  1440  023C  00A2               	movwf	(USART_WriteString@str+1)^(0+128)
  1441  023D  120A  158A  2759  120A  118A  	fcall	_USART_WriteString
  1442                           
  1443                           ;main.c: 145: LCD_Init();
  1444  0242  120A  118A  2732  120A  118A  	fcall	_LCD_Init
  1445                           
  1446                           ;main.c: 146: LCD_Cursor(0,0);
  1447  0247  1683               	bsf	3,5	;RP0=1, select bank1
  1448  0248  1303               	bcf	3,6	;RP1=0, select bank1
  1449  0249  01A0               	clrf	LCD_Cursor@Col^(0+128)
  1450  024A  3000               	movlw	0
  1451  024B  120A  118A  24E0  120A  118A  	fcall	_LCD_Cursor
  1452                           
  1453                           ;main.c: 147: LCD_WriteString("Inicializando...");
  1454  0250  3064               	movlw	low (STR_3-__stringbase)
  1455  0251  1683               	bsf	3,5	;RP0=1, select bank1
  1456  0252  1303               	bcf	3,6	;RP1=0, select bank1
  1457  0253  00A2               	movwf	LCD_WriteString@Str^(0+128)
  1458  0254  3080               	movlw	128
  1459  0255  00A3               	movwf	(LCD_WriteString@Str+1)^(0+128)
  1460  0256  120A  158A  2728  120A  118A  	fcall	_LCD_WriteString
  1461                           
  1462                           ;main.c: 150: PWM_DutyCycle1(0);
  1463  025B  3000               	movlw	0
  1464  025C  1683               	bsf	3,5	;RP0=1, select bank1
  1465  025D  1303               	bcf	3,6	;RP1=0, select bank1
  1466  025E  00A0               	movwf	PWM_DutyCycle1@valor^(0+128)
  1467  025F  3000               	movlw	0
  1468  0260  00A1               	movwf	(PWM_DutyCycle1@valor^(0+128)+1)
  1469  0261  120A  158A  2674  120A  118A  	fcall	_PWM_DutyCycle1
  1470                           
  1471                           ;main.c: 151: PWM_DutyCycle2(800);
  1472  0266  3020               	movlw	32
  1473  0267  1683               	bsf	3,5	;RP0=1, select bank1
  1474  0268  1303               	bcf	3,6	;RP1=0, select bank1
  1475  0269  00A0               	movwf	PWM_DutyCycle2@valor^(0+128)
  1476  026A  3003               	movlw	3
  1477  026B  00A1               	movwf	(PWM_DutyCycle2@valor^(0+128)+1)
  1478  026C  120A  158A  2695  120A  118A  	fcall	_PWM_DutyCycle2
  1479                           
  1480                           ;main.c: 154: TIMER0_Set(238);
  1481  0271  30EE               	movlw	238
  1482  0272  120A  158A  25FF  120A  118A  	fcall	_TIMER0_Set
  1483                           
  1484                           ;main.c: 157: _delay((unsigned long)((1000)*(18432000/4000.0)));
  1485  0277  3018               	movlw	24
  1486  0278  1683               	bsf	3,5	;RP0=1, select bank1
  1487  0279  1303               	bcf	3,6	;RP1=0, select bank1
  1488  027A  00C1               	movwf	(??_main^(0+128)+2)
  1489  027B  3061               	movlw	97
  1490  027C  00C0               	movwf	(??_main^(0+128)+1)
  1491  027D  306E               	movlw	110
  1492  027E  00BF               	movwf	??_main^(0+128)
  1493  027F                     u2247:	
  1494  027F  0BBF               	decfsz	??_main^(0+128),f
  1495  0280  2A7F               	goto	u2247
  1496  0281  0BC0               	decfsz	(??_main^(0+128)+1),f
  1497  0282  2A7F               	goto	u2247
  1498  0283  0BC1               	decfsz	(??_main^(0+128)+2),f
  1499  0284  2A7F               	goto	u2247
  1500  0285  0000               	nop
  1501  0286                     l91:	
  1502                           ;main.c: 160: while(1)
  1503                           
  1504                           
  1505                           ;main.c: 161: {
  1506                           ;main.c: 163: sprintf(display,"%04d", rpm);
  1507  0286  307B               	movlw	(STR_4-__stringbase)& (0+255)
  1508  0287  1683               	bsf	3,5	;RP0=1, select bank1
  1509  0288  1303               	bcf	3,6	;RP1=0, select bank1
  1510  0289  00BF               	movwf	??_main^(0+128)
  1511  028A  083F               	movf	??_main^(0+128),w
  1512  028B  00AE               	movwf	sprintf@f^(0+128)
  1513  028C  0843               	movf	(_rpm+1)^(0+128),w
  1514  028D  01B0               	clrf	((?_sprintf+1)^(0+128)+1)
  1515  028E  07B0               	addwf	((?_sprintf+1)^(0+128)+1),f
  1516  028F  0842               	movf	_rpm^(0+128),w
  1517  0290  01AF               	clrf	(?_sprintf^(0+128)+1)
  1518  0291  07AF               	addwf	(?_sprintf^(0+128)+1),f
  1519  0292  30C4               	movlw	_display& (0+255)
  1520  0293  120A  118A  202A  120A  118A  	fcall	_sprintf
  1521                           
  1522                           ;main.c: 166: USART_WriteString(display);
  1523  0298  30C4               	movlw	_display& (0+255)
  1524  0299  1683               	bsf	3,5	;RP0=1, select bank1
  1525  029A  1303               	bcf	3,6	;RP1=0, select bank1
  1526  029B  00A1               	movwf	USART_WriteString@str^(0+128)
  1527  029C  3000               	movlw	0
  1528  029D  00A2               	movwf	(USART_WriteString@str+1)^(0+128)
  1529  029E  120A  158A  2759  120A  118A  	fcall	_USART_WriteString
  1530                           
  1531                           ;main.c: 167: USART_WriteString("\n\r");
  1532  02A3  304D               	movlw	low ((STR_1+26)-__stringbase)
  1533  02A4  1683               	bsf	3,5	;RP0=1, select bank1
  1534  02A5  1303               	bcf	3,6	;RP1=0, select bank1
  1535  02A6  00A1               	movwf	USART_WriteString@str^(0+128)
  1536  02A7  3080               	movlw	128
  1537  02A8  00A2               	movwf	(USART_WriteString@str+1)^(0+128)
  1538  02A9  120A  158A  2759  120A  118A  	fcall	_USART_WriteString
  1539                           
  1540                           ;main.c: 170: LCD_Clear();
  1541  02AE  120A  158A  26FF  120A  118A  	fcall	_LCD_Clear
  1542                           
  1543                           ;main.c: 171: LCD_Cursor(0,0);
  1544  02B3  1683               	bsf	3,5	;RP0=1, select bank1
  1545  02B4  1303               	bcf	3,6	;RP1=0, select bank1
  1546  02B5  01A0               	clrf	LCD_Cursor@Col^(0+128)
  1547  02B6  3000               	movlw	0
  1548  02B7  120A  118A  24E0  120A  118A  	fcall	_LCD_Cursor
  1549                           
  1550                           ;main.c: 172: LCD_WriteString("RPM: ");
  1551  02BC  3075               	movlw	low (STR_6-__stringbase)
  1552  02BD  1683               	bsf	3,5	;RP0=1, select bank1
  1553  02BE  1303               	bcf	3,6	;RP1=0, select bank1
  1554  02BF  00A2               	movwf	LCD_WriteString@Str^(0+128)
  1555  02C0  3080               	movlw	128
  1556  02C1  00A3               	movwf	(LCD_WriteString@Str+1)^(0+128)
  1557  02C2  120A  158A  2728  120A  118A  	fcall	_LCD_WriteString
  1558                           
  1559                           ;main.c: 173: LCD_Cursor(0,6);
  1560  02C7  3006               	movlw	6
  1561  02C8  1683               	bsf	3,5	;RP0=1, select bank1
  1562  02C9  1303               	bcf	3,6	;RP1=0, select bank1
  1563  02CA  00BF               	movwf	??_main^(0+128)
  1564  02CB  083F               	movf	??_main^(0+128),w
  1565  02CC  00A0               	movwf	LCD_Cursor@Col^(0+128)
  1566  02CD  3000               	movlw	0
  1567  02CE  120A  118A  24E0  120A  118A  	fcall	_LCD_Cursor
  1568                           
  1569                           ;main.c: 174: LCD_WriteString(display);
  1570  02D3  30C4               	movlw	_display& (0+255)
  1571  02D4  1683               	bsf	3,5	;RP0=1, select bank1
  1572  02D5  1303               	bcf	3,6	;RP1=0, select bank1
  1573  02D6  00A2               	movwf	LCD_WriteString@Str^(0+128)
  1574  02D7  3000               	movlw	0
  1575  02D8  00A3               	movwf	(LCD_WriteString@Str+1)^(0+128)
  1576  02D9  120A  158A  2728  120A  118A  	fcall	_LCD_WriteString
  1577                           
  1578                           ;main.c: 176: _delay((unsigned long)((200)*(18432000/4000.0)));
  1579  02DE  3005               	movlw	5
  1580  02DF  1683               	bsf	3,5	;RP0=1, select bank1
  1581  02E0  1303               	bcf	3,6	;RP1=0, select bank1
  1582  02E1  00C1               	movwf	(??_main^(0+128)+2)
  1583  02E2  30AD               	movlw	173
  1584  02E3  00C0               	movwf	(??_main^(0+128)+1)
  1585  02E4  30E0               	movlw	224
  1586  02E5  00BF               	movwf	??_main^(0+128)
  1587  02E6                     u2257:	
  1588  02E6  0BBF               	decfsz	??_main^(0+128),f
  1589  02E7  2AE6               	goto	u2257
  1590  02E8  0BC0               	decfsz	(??_main^(0+128)+1),f
  1591  02E9  2AE6               	goto	u2257
  1592  02EA  0BC1               	decfsz	(??_main^(0+128)+2),f
  1593  02EB  2AE6               	goto	u2257
  1594  02EC  2A86               	goto	l91
  1595  02ED                     __end_of_main:	
  1596                           
  1597                           	psect	text1
  1598  002A                     __ptext1:	
  1599 ;; *************** function _sprintf *****************
  1600 ;; Defined at:
  1601 ;;		line 492 in file "C:\Program Files (x86)\Microchip\xc8\v1.33\sources\common\doprnt.c"
  1602 ;; Parameters:    Size  Location     Type
  1603 ;;  sp              1    wreg     PTR unsigned char 
  1604 ;;		 -> display(10), 
  1605 ;;  f               1   14[BANK1 ] PTR const unsigned char 
  1606 ;;		 -> STR_4(5), 
  1607 ;; Auto vars:     Size  Location     Type
  1608 ;;  sp              1   29[BANK1 ] PTR unsigned char 
  1609 ;;		 -> display(10), 
  1610 ;;  _val            4   22[BANK1 ] struct .
  1611 ;;  width           2   27[BANK1 ] int 
  1612 ;;  c               1   30[BANK1 ] char 
  1613 ;;  flag            1   26[BANK1 ] unsigned char 
  1614 ;;  prec            1   21[BANK1 ] char 
  1615 ;;  ap              1   20[BANK1 ] PTR void [1]
  1616 ;;		 -> ?_sprintf(2), 
  1617 ;; Return value:  Size  Location     Type
  1618 ;;                  2   14[BANK1 ] int 
  1619 ;; Registers used:
  1620 ;;		wreg, fsr0l, fsr0h, status,2, status,0, btemp+1, pclath, cstack
  1621 ;; Tracked objects:
  1622 ;;		On entry : 0/0
  1623 ;;		On exit  : 0/0
  1624 ;;		Unchanged: 0/0
  1625 ;; Data sizes:     COMMON   BANK0   BANK1   BANK3   BANK2
  1626 ;;      Params:         0       0       3       0       0
  1627 ;;      Locals:         0       0      11       0       0
  1628 ;;      Temps:          0       0       3       0       0
  1629 ;;      Totals:         0       0      17       0       0
  1630 ;;Total ram usage:       17 bytes
  1631 ;; Hardware stack levels used:    1
  1632 ;; Hardware stack levels required when called:    4
  1633 ;; This function calls:
  1634 ;;		___lwdiv
  1635 ;;		___lwmod
  1636 ;;		___wmul
  1637 ;;		_isdigit
  1638 ;; This function is called by:
  1639 ;;		_main
  1640 ;; This function uses a non-reentrant model
  1641 ;;
  1642                           
  1643                           
  1644                           ;psect for function _sprintf
  1645  002A                     _sprintf:	
  1646                           
  1647                           ;incstack = 0
  1648                           ; Regs used in _sprintf: [wreg-fsr0h+status,2+status,0+btemp+1+pclath+cstack]
  1649                           ;sprintf@sp stored from wreg
  1650  002A  1683               	bsf	3,5	;RP0=1, select bank1
  1651  002B  1303               	bcf	3,6	;RP1=0, select bank1
  1652  002C  00BD               	movwf	sprintf@sp^(0+128)
  1653                           
  1654                           ;doprnt.c: 494: va_list ap;
  1655                           ;doprnt.c: 499: signed char c;
  1656                           ;doprnt.c: 501: int width;
  1657                           ;doprnt.c: 506: signed char prec;
  1658                           ;doprnt.c: 508: unsigned char flag;
  1659                           ;doprnt.c: 527: union {
  1660                           ;doprnt.c: 528: unsigned int _val;
  1661                           ;doprnt.c: 529: struct {
  1662                           ;doprnt.c: 530: const char * _cp;
  1663                           ;doprnt.c: 531: unsigned _len;
  1664                           ;doprnt.c: 532: } _str;
  1665                           ;doprnt.c: 533: } _val;
  1666                           ;doprnt.c: 542: *ap = __va_start();
  1667  002D  30AF               	movlw	(?_sprintf+1)& (0+255)
  1668  002E  00B1               	movwf	??_sprintf^(0+128)
  1669  002F  0831               	movf	??_sprintf^(0+128),w
  1670  0030  00B4               	movwf	sprintf@ap^(0+128)
  1671  0031                     l2085:	
  1672                           ;doprnt.c: 545: while(c = *f++) {
  1673                           
  1674  0031  3001               	movlw	1
  1675  0032  1683               	bsf	3,5	;RP0=1, select bank1
  1676  0033  1303               	bcf	3,6	;RP1=0, select bank1
  1677  0034  07AE               	addwf	sprintf@f^(0+128),f
  1678  0035  30FF               	movlw	-1
  1679  0036  072E               	addwf	sprintf@f^(0+128),w
  1680  0037  0084               	movwf	4
  1681  0038  120A  118A  250A  120A  118A  	fcall	stringdir
  1682  003D  00B1               	movwf	??_sprintf^(0+128)
  1683  003E  0831               	movf	??_sprintf^(0+128),w
  1684  003F  00BE               	movwf	sprintf@c^(0+128)
  1685  0040  08BE               	movf	sprintf@c^(0+128),f
  1686  0041  1903               	btfsc	3,2
  1687  0042  29DA               	goto	l2087
  1688                           
  1689                           ;doprnt.c: 547: if(c != '%')
  1690  0043  083E               	movf	sprintf@c^(0+128),w
  1691  0044  3A25               	xorlw	37
  1692  0045  1903               	skipnz
  1693  0046  2853               	goto	l1989
  1694                           
  1695                           ;doprnt.c: 549: {
  1696                           ;doprnt.c: 550: ((*sp++ = (c)));
  1697  0047  083E               	movf	sprintf@c^(0+128),w
  1698  0048  00B1               	movwf	??_sprintf^(0+128)
  1699  0049  083D               	movf	sprintf@sp^(0+128),w
  1700  004A  0084               	movwf	4
  1701  004B  0831               	movf	??_sprintf^(0+128),w
  1702  004C  1383               	bcf	3,7	;select IRP bank0
  1703  004D  0080               	movwf	0
  1704  004E  3001               	movlw	1
  1705  004F  00B1               	movwf	??_sprintf^(0+128)
  1706  0050  0831               	movf	??_sprintf^(0+128),w
  1707  0051  07BD               	addwf	sprintf@sp^(0+128),f
  1708                           
  1709                           ;doprnt.c: 551: continue;
  1710  0052  2831               	goto	l2085
  1711  0053                     l1989:	
  1712                           
  1713                           ;doprnt.c: 552: }
  1714                           ;doprnt.c: 555: width = 0;
  1715  0053  01BB               	clrf	sprintf@width^(0+128)
  1716  0054  01BC               	clrf	(sprintf@width+1)^(0+128)
  1717                           
  1718                           ;doprnt.c: 557: flag = 0;
  1719  0055  01BA               	clrf	sprintf@flag^(0+128)
  1720                           
  1721                           ;doprnt.c: 560: switch(*f) {
  1722                           
  1723                           ;doprnt.c: 559: for(;;) {
  1724  0056  285C               	goto	l1995
  1725  0057                     l368:	
  1726                           ;doprnt.c: 588: case '0':
  1727                           
  1728                           
  1729                           ;doprnt.c: 589: flag |= 0x04;
  1730  0057  153A               	bsf	sprintf@flag^(0+128),2
  1731                           
  1732                           ;doprnt.c: 590: f++;
  1733  0058  3001               	movlw	1
  1734  0059  00B1               	movwf	??_sprintf^(0+128)
  1735  005A  0831               	movf	??_sprintf^(0+128),w
  1736  005B  07AE               	addwf	sprintf@f^(0+128),f
  1737  005C                     l1995:	
  1738                           ;doprnt.c: 593: }
  1739                           
  1740                           ;doprnt.c: 591: continue;
  1741                           
  1742  005C  082E               	movf	sprintf@f^(0+128),w
  1743  005D  0084               	movwf	4
  1744  005E  120A  118A  250A  120A  118A  	fcall	stringdir
  1745                           
  1746                           ; Switch size 1, requested type "space"
  1747                           ; Number of cases is 1, Range of values is 48 to 48
  1748                           ; switch strategies available:
  1749                           ; Name         Instructions Cycles
  1750                           ; simple_byte            4     3 (average)
  1751                           ; direct_byte           14    11 (fixed)
  1752                           ; jumptable            263     9 (fixed)
  1753                           ;	Chosen strategy is simple_byte
  1754  0063  3A30               	xorlw	48	; case 48
  1755  0064  1903               	skipnz
  1756  0065  2857               	goto	l368
  1757  0066  2867               	goto	l1997
  1758  0067                     l1997:	
  1759                           ;doprnt.c: 595: }
  1760                           
  1761                           ;doprnt.c: 594: break;
  1762                           
  1763                           
  1764                           ;doprnt.c: 606: if(isdigit((unsigned)*f)) {
  1765  0067  082E               	movf	sprintf@f^(0+128),w
  1766  0068  0084               	movwf	4
  1767  0069  120A  118A  250A  120A  118A  	fcall	stringdir
  1768  006E  120A  158A  2627  120A  118A  	fcall	_isdigit
  1769  0073  1C03               	btfss	3,0
  1770  0074  28B7               	goto	l2011
  1771                           
  1772                           ;doprnt.c: 607: width = 0;
  1773  0075  1683               	bsf	3,5	;RP0=1, select bank1
  1774  0076  1303               	bcf	3,6	;RP1=0, select bank1
  1775  0077  01BB               	clrf	sprintf@width^(0+128)
  1776  0078  01BC               	clrf	(sprintf@width+1)^(0+128)
  1777  0079                     l2001:	
  1778                           ;doprnt.c: 608: do {
  1779                           
  1780                           
  1781                           ;doprnt.c: 609: width *= 10;
  1782  0079  300A               	movlw	10
  1783  007A  1683               	bsf	3,5	;RP0=1, select bank1
  1784  007B  1303               	bcf	3,6	;RP1=0, select bank1
  1785  007C  00A0               	movwf	___wmul@multiplier^(0+128)
  1786  007D  3000               	movlw	0
  1787  007E  00A1               	movwf	(___wmul@multiplier^(0+128)+1)
  1788  007F  083C               	movf	(sprintf@width+1)^(0+128),w
  1789  0080  01A3               	clrf	(___wmul@multiplicand+1)^(0+128)
  1790  0081  07A3               	addwf	(___wmul@multiplicand+1)^(0+128),f
  1791  0082  083B               	movf	sprintf@width^(0+128),w
  1792  0083  01A2               	clrf	___wmul@multiplicand^(0+128)
  1793  0084  07A2               	addwf	___wmul@multiplicand^(0+128),f
  1794  0085  120A  158A  26DA  120A  118A  	fcall	___wmul
  1795  008A  1683               	bsf	3,5	;RP0=1, select bank1
  1796  008B  1303               	bcf	3,6	;RP1=0, select bank1
  1797  008C  0821               	movf	(?___wmul+1)^(0+128),w
  1798  008D  01BC               	clrf	(sprintf@width+1)^(0+128)
  1799  008E  07BC               	addwf	(sprintf@width+1)^(0+128),f
  1800  008F  0820               	movf	?___wmul^(0+128),w
  1801  0090  01BB               	clrf	sprintf@width^(0+128)
  1802  0091  07BB               	addwf	sprintf@width^(0+128),f
  1803                           
  1804                           ;doprnt.c: 610: width += *f++ - '0';
  1805  0092  082E               	movf	sprintf@f^(0+128),w
  1806  0093  0084               	movwf	4
  1807  0094  120A  118A  250A  120A  118A  	fcall	stringdir
  1808  0099  3ED0               	addlw	208
  1809  009A  00B1               	movwf	??_sprintf^(0+128)
  1810  009B  30FF               	movlw	255
  1811  009C  1803               	skipnc
  1812  009D  3000               	movlw	0
  1813  009E  00B2               	movwf	(??_sprintf^(0+128)+1)
  1814  009F  0831               	movf	??_sprintf^(0+128),w
  1815  00A0  07BB               	addwf	sprintf@width^(0+128),f
  1816  00A1  1803               	skipnc
  1817  00A2  0ABC               	incf	(sprintf@width+1)^(0+128),f
  1818  00A3  0832               	movf	(??_sprintf+1)^(0+128),w
  1819  00A4  07BC               	addwf	(sprintf@width+1)^(0+128),f
  1820  00A5  3001               	movlw	1
  1821  00A6  00B1               	movwf	??_sprintf^(0+128)
  1822  00A7  0831               	movf	??_sprintf^(0+128),w
  1823  00A8  07AE               	addwf	sprintf@f^(0+128),f
  1824                           
  1825                           ;doprnt.c: 611: } while(isdigit((unsigned)*f));
  1826  00A9  082E               	movf	sprintf@f^(0+128),w
  1827  00AA  0084               	movwf	4
  1828  00AB  120A  118A  250A  120A  118A  	fcall	stringdir
  1829  00B0  120A  158A  2627  120A  118A  	fcall	_isdigit
  1830  00B5  1803               	btfsc	3,0
  1831  00B6  2879               	goto	l2001
  1832  00B7                     l2011:	
  1833                           ;doprnt.c: 831: }
  1834                           
  1835                           ;doprnt.c: 822: continue;
  1836                           
  1837                           ;doprnt.c: 811: default:
  1838                           
  1839                           ;doprnt.c: 707: case 'i':
  1840                           ;doprnt.c: 708: break;
  1841                           
  1842                           ;doprnt.c: 706: case 'd':
  1843                           
  1844                           ;doprnt.c: 647: goto alldone;
  1845                           
  1846                           ;doprnt.c: 646: case 0:
  1847                           
  1848                           ;doprnt.c: 617: }
  1849                           ;doprnt.c: 644: switch(c = *f++) {
  1850                           
  1851  00B7  3001               	movlw	1
  1852  00B8  1683               	bsf	3,5	;RP0=1, select bank1
  1853  00B9  1303               	bcf	3,6	;RP1=0, select bank1
  1854  00BA  07AE               	addwf	sprintf@f^(0+128),f
  1855  00BB  30FF               	movlw	-1
  1856  00BC  072E               	addwf	sprintf@f^(0+128),w
  1857  00BD  0084               	movwf	4
  1858  00BE  120A  118A  250A  120A  118A  	fcall	stringdir
  1859  00C3  00BE               	movwf	sprintf@c^(0+128)
  1860                           
  1861                           ; Switch size 1, requested type "space"
  1862                           ; Number of cases is 3, Range of values is 0 to 105
  1863                           ; switch strategies available:
  1864                           ; Name         Instructions Cycles
  1865                           ; simple_byte           10     6 (average)
  1866                           ; jumptable            260     6 (fixed)
  1867                           ;	Chosen strategy is simple_byte
  1868  00C4  3A00               	xorlw	0	; case 0
  1869  00C5  1903               	skipnz
  1870  00C6  29DA               	goto	l2087
  1871  00C7  3A64               	xorlw	100	; case 100
  1872  00C8  1903               	skipnz
  1873  00C9  28CE               	goto	l2013
  1874  00CA  3A0D               	xorlw	13	; case 105
  1875  00CB  1903               	skipnz
  1876  00CC  28CE               	goto	l2013
  1877  00CD  2831               	goto	l2085
  1878  00CE                     l2013:	
  1879                           
  1880                           ;doprnt.c: 1262: {
  1881                           ;doprnt.c: 1268: _val._val = (int)(*(int *)__va_arg((*(int **)ap), (int)0));
  1882  00CE  1683               	bsf	3,5	;RP0=1, select bank1
  1883  00CF  1303               	bcf	3,6	;RP1=0, select bank1
  1884  00D0  0834               	movf	sprintf@ap^(0+128),w
  1885  00D1  0084               	movwf	4
  1886  00D2  1383               	bcf	3,7	;select IRP bank0
  1887  00D3  0800               	movf	0,w
  1888  00D4  00B6               	movwf	sprintf@_val^(0+128)
  1889  00D5  0A84               	incf	4,f
  1890  00D6  0800               	movf	0,w
  1891  00D7  00B7               	movwf	(sprintf@_val+1)^(0+128)
  1892  00D8  3002               	movlw	2
  1893  00D9  00B1               	movwf	??_sprintf^(0+128)
  1894  00DA  0831               	movf	??_sprintf^(0+128),w
  1895  00DB  07B4               	addwf	sprintf@ap^(0+128),f
  1896                           
  1897                           ;doprnt.c: 1270: if((int)_val._val < 0) {
  1898  00DC  1FB7               	btfss	(sprintf@_val+1)^(0+128),7
  1899  00DD  28E7               	goto	l2023
  1900                           
  1901                           ;doprnt.c: 1271: flag |= 0x03;
  1902  00DE  3003               	movlw	3
  1903  00DF  00B1               	movwf	??_sprintf^(0+128)
  1904  00E0  0831               	movf	??_sprintf^(0+128),w
  1905  00E1  04BA               	iorwf	sprintf@flag^(0+128),f
  1906                           
  1907                           ;doprnt.c: 1272: _val._val = -_val._val;
  1908  00E2  09B6               	comf	sprintf@_val^(0+128),f
  1909  00E3  09B7               	comf	(sprintf@_val+1)^(0+128),f
  1910  00E4  0AB6               	incf	sprintf@_val^(0+128),f
  1911  00E5  1903               	skipnz
  1912  00E6  0AB7               	incf	(sprintf@_val+1)^(0+128),f
  1913  00E7                     l2023:	
  1914                           
  1915                           ;doprnt.c: 1273: }
  1916                           ;doprnt.c: 1275: }
  1917                           ;doprnt.c: 1314: for(c = 1 ; c != sizeof dpowers/sizeof dpowers[0] ; c++)
  1918  00E7  01BE               	clrf	sprintf@c^(0+128)
  1919  00E8  0ABE               	incf	sprintf@c^(0+128),f
  1920  00E9  083E               	movf	sprintf@c^(0+128),w
  1921  00EA  3A05               	xorlw	5
  1922  00EB  1903               	btfsc	3,2
  1923  00EC  290E               	goto	l2035
  1924  00ED                     l2027:	
  1925                           
  1926                           ;doprnt.c: 1315: if(_val._val < dpowers[c])
  1927  00ED  083E               	movf	sprintf@c^(0+128),w
  1928  00EE  00B1               	movwf	??_sprintf^(0+128)
  1929  00EF  0731               	addwf	??_sprintf^(0+128),w
  1930  00F0  3E01               	addlw	low (_dpowers-__stringbase)
  1931  00F1  0084               	movwf	4
  1932  00F2  120A  118A  250A  120A  118A  	fcall	stringdir
  1933  00F7  00B2               	movwf	(??_sprintf+1)^(0+128)
  1934  00F8  120A  118A  250A  120A  118A  	fcall	stringdir
  1935  00FD  00B3               	movwf	((??_sprintf+1)^(0+128)+1)
  1936  00FE  0833               	movf	(??_sprintf+2)^(0+128),w
  1937  00FF  0237               	subwf	(sprintf@_val+1)^(0+128),w
  1938  0100  1D03               	skipz
  1939  0101  2904               	goto	u1715
  1940  0102  0832               	movf	(??_sprintf+1)^(0+128),w
  1941  0103  0236               	subwf	sprintf@_val^(0+128),w
  1942  0104                     u1715:	
  1943  0104  1C03               	btfss	3,0
  1944  0105  290E               	goto	l2035
  1945                           
  1946                           ;doprnt.c: 1316: break;
  1947  0106  3001               	movlw	1
  1948  0107  00B1               	movwf	??_sprintf^(0+128)
  1949  0108  0831               	movf	??_sprintf^(0+128),w
  1950  0109  07BE               	addwf	sprintf@c^(0+128),f
  1951  010A  083E               	movf	sprintf@c^(0+128),w
  1952  010B  3A05               	xorlw	5
  1953  010C  1D03               	skipz
  1954  010D  28ED               	goto	l2027
  1955  010E                     l2035:	
  1956                           
  1957                           ;doprnt.c: 1354: if(width && flag & 0x03)
  1958  010E  083C               	movf	(sprintf@width+1)^(0+128),w
  1959  010F  043B               	iorwf	sprintf@width^(0+128),w
  1960  0110  1903               	skipnz
  1961  0111  291C               	goto	l386
  1962  0112  083A               	movf	sprintf@flag^(0+128),w
  1963  0113  3903               	andlw	3
  1964  0114  1903               	btfsc	3,2
  1965  0115  291C               	goto	l386
  1966                           
  1967                           ;doprnt.c: 1355: width--;
  1968  0116  30FF               	movlw	255
  1969  0117  07BB               	addwf	sprintf@width^(0+128),f
  1970  0118  1803               	skipnc
  1971  0119  0ABC               	incf	(sprintf@width+1)^(0+128),f
  1972  011A  30FF               	movlw	255
  1973  011B  07BC               	addwf	(sprintf@width+1)^(0+128),f
  1974  011C                     l386:	
  1975                           
  1976                           ;doprnt.c: 1390: if(width > c)
  1977  011C  083E               	movf	sprintf@c^(0+128),w
  1978  011D  00B1               	movwf	??_sprintf^(0+128)
  1979  011E  01B2               	clrf	(??_sprintf^(0+128)+1)
  1980  011F  1BB1               	btfsc	??_sprintf^(0+128),7
  1981  0120  03B2               	decf	(??_sprintf^(0+128)+1),f
  1982  0121  0832               	movf	(??_sprintf+1)^(0+128),w
  1983  0122  3A80               	xorlw	128
  1984  0123  00B3               	movwf	(??_sprintf+2)^(0+128)
  1985  0124  083C               	movf	(sprintf@width+1)^(0+128),w
  1986  0125  3A80               	xorlw	128
  1987  0126  0233               	subwf	(??_sprintf+2)^(0+128),w
  1988  0127  1D03               	skipz
  1989  0128  292B               	goto	u1755
  1990  0129  083B               	movf	sprintf@width^(0+128),w
  1991  012A  0231               	subwf	??_sprintf^(0+128),w
  1992  012B                     u1755:	
  1993  012B  1803               	skipnc
  1994  012C  293B               	goto	l2043
  1995                           
  1996                           ;doprnt.c: 1391: width -= c;
  1997  012D  1683               	bsf	3,5	;RP0=1, select bank1
  1998  012E  1303               	bcf	3,6	;RP1=0, select bank1
  1999  012F  083E               	movf	sprintf@c^(0+128),w
  2000  0130  00B1               	movwf	??_sprintf^(0+128)
  2001  0131  01B2               	clrf	(??_sprintf^(0+128)+1)
  2002  0132  1BB1               	btfsc	??_sprintf^(0+128),7
  2003  0133  03B2               	decf	(??_sprintf^(0+128)+1),f
  2004  0134  0831               	movf	??_sprintf^(0+128),w
  2005  0135  02BB               	subwf	sprintf@width^(0+128),f
  2006  0136  0832               	movf	(??_sprintf+1)^(0+128),w
  2007  0137  1C03               	skipc
  2008  0138  03BC               	decf	(sprintf@width+1)^(0+128),f
  2009  0139  02BC               	subwf	(sprintf@width+1)^(0+128),f
  2010  013A  293F               	goto	l2045
  2011  013B                     l2043:	
  2012                           
  2013                           ;doprnt.c: 1392: else
  2014                           ;doprnt.c: 1393: width = 0;
  2015  013B  1683               	bsf	3,5	;RP0=1, select bank1
  2016  013C  1303               	bcf	3,6	;RP1=0, select bank1
  2017  013D  01BB               	clrf	sprintf@width^(0+128)
  2018  013E  01BC               	clrf	(sprintf@width+1)^(0+128)
  2019  013F                     l2045:	
  2020                           
  2021                           ;doprnt.c: 1396: if(flag & 0x04) {
  2022  013F  1D3A               	btfss	sprintf@flag^(0+128),2
  2023  0140  2966               	goto	l2061
  2024                           
  2025                           ;doprnt.c: 1401: if(flag & 0x03)
  2026  0141  083A               	movf	sprintf@flag^(0+128),w
  2027  0142  3903               	andlw	3
  2028  0143  1903               	btfsc	3,2
  2029  0144  2950               	goto	l2053
  2030                           
  2031                           ;doprnt.c: 1402: ((*sp++ = ('-')));
  2032  0145  302D               	movlw	45
  2033  0146  00B1               	movwf	??_sprintf^(0+128)
  2034  0147  083D               	movf	sprintf@sp^(0+128),w
  2035  0148  0084               	movwf	4
  2036  0149  0831               	movf	??_sprintf^(0+128),w
  2037  014A  1383               	bcf	3,7	;select IRP bank0
  2038  014B  0080               	movwf	0
  2039  014C  3001               	movlw	1
  2040  014D  00B1               	movwf	??_sprintf^(0+128)
  2041  014E  0831               	movf	??_sprintf^(0+128),w
  2042  014F  07BD               	addwf	sprintf@sp^(0+128),f
  2043  0150                     l2053:	
  2044                           
  2045                           ;doprnt.c: 1424: if(width)
  2046  0150  083C               	movf	(sprintf@width+1)^(0+128),w
  2047  0151  043B               	iorwf	sprintf@width^(0+128),w
  2048  0152  1903               	skipnz
  2049  0153  298E               	goto	l2075
  2050                           
  2051                           ;doprnt.c: 1426: ((*sp++ = ('0')));
  2052                           
  2053                           ;doprnt.c: 1425: do
  2054  0154  3030               	movlw	48
  2055  0155  00B1               	movwf	??_sprintf^(0+128)
  2056  0156  083D               	movf	sprintf@sp^(0+128),w
  2057  0157  0084               	movwf	4
  2058  0158  0831               	movf	??_sprintf^(0+128),w
  2059  0159  1383               	bcf	3,7	;select IRP bank0
  2060  015A  0080               	movwf	0
  2061  015B  3001               	movlw	1
  2062  015C  00B1               	movwf	??_sprintf^(0+128)
  2063  015D  0831               	movf	??_sprintf^(0+128),w
  2064  015E  07BD               	addwf	sprintf@sp^(0+128),f
  2065                           
  2066                           ;doprnt.c: 1427: while(--width);
  2067  015F  30FF               	movlw	255
  2068  0160  07BB               	addwf	sprintf@width^(0+128),f
  2069  0161  1803               	skipnc
  2070  0162  0ABC               	incf	(sprintf@width+1)^(0+128),f
  2071  0163  30FF               	movlw	255
  2072  0164  07BC               	addwf	(sprintf@width+1)^(0+128),f
  2073  0165  2950               	goto	l2053
  2074  0166                     l2061:	
  2075                           ;doprnt.c: 1429: } else
  2076                           
  2077                           
  2078                           ;doprnt.c: 1431: {
  2079                           ;doprnt.c: 1433: if(width
  2080                           ;doprnt.c: 1437: )
  2081  0166  083C               	movf	(sprintf@width+1)^(0+128),w
  2082  0167  043B               	iorwf	sprintf@width^(0+128),w
  2083  0168  1903               	skipnz
  2084  0169  297F               	goto	l2069
  2085  016A                     l2063:	
  2086                           ;doprnt.c: 1438: do
  2087                           
  2088                           
  2089                           ;doprnt.c: 1439: ((*sp++ = (' ')));
  2090  016A  3020               	movlw	32
  2091  016B  00B1               	movwf	??_sprintf^(0+128)
  2092  016C  083D               	movf	sprintf@sp^(0+128),w
  2093  016D  0084               	movwf	4
  2094  016E  0831               	movf	??_sprintf^(0+128),w
  2095  016F  1383               	bcf	3,7	;select IRP bank0
  2096  0170  0080               	movwf	0
  2097  0171  3001               	movlw	1
  2098  0172  00B1               	movwf	??_sprintf^(0+128)
  2099  0173  0831               	movf	??_sprintf^(0+128),w
  2100  0174  07BD               	addwf	sprintf@sp^(0+128),f
  2101                           
  2102                           ;doprnt.c: 1440: while(--width);
  2103  0175  30FF               	movlw	255
  2104  0176  07BB               	addwf	sprintf@width^(0+128),f
  2105  0177  1803               	skipnc
  2106  0178  0ABC               	incf	(sprintf@width+1)^(0+128),f
  2107  0179  30FF               	movlw	255
  2108  017A  07BC               	addwf	(sprintf@width+1)^(0+128),f
  2109  017B  083C               	movf	(sprintf@width+1)^(0+128),w
  2110  017C  043B               	iorwf	sprintf@width^(0+128),w
  2111  017D  1D03               	skipz
  2112  017E  296A               	goto	l2063
  2113  017F                     l2069:	
  2114                           
  2115                           ;doprnt.c: 1447: if(flag & 0x03)
  2116  017F  083A               	movf	sprintf@flag^(0+128),w
  2117  0180  3903               	andlw	3
  2118  0181  1903               	btfsc	3,2
  2119  0182  298E               	goto	l2075
  2120                           
  2121                           ;doprnt.c: 1448: ((*sp++ = ('-')));
  2122  0183  302D               	movlw	45
  2123  0184  00B1               	movwf	??_sprintf^(0+128)
  2124  0185  083D               	movf	sprintf@sp^(0+128),w
  2125  0186  0084               	movwf	4
  2126  0187  0831               	movf	??_sprintf^(0+128),w
  2127  0188  1383               	bcf	3,7	;select IRP bank0
  2128  0189  0080               	movwf	0
  2129  018A  3001               	movlw	1
  2130  018B  00B1               	movwf	??_sprintf^(0+128)
  2131  018C  0831               	movf	??_sprintf^(0+128),w
  2132  018D  07BD               	addwf	sprintf@sp^(0+128),f
  2133  018E                     l2075:	
  2134                           
  2135                           ;doprnt.c: 1478: }
  2136                           ;doprnt.c: 1481: prec = c;
  2137  018E  083E               	movf	sprintf@c^(0+128),w
  2138  018F  00B1               	movwf	??_sprintf^(0+128)
  2139  0190  0831               	movf	??_sprintf^(0+128),w
  2140  0191  00B5               	movwf	sprintf@prec^(0+128)
  2141  0192                     l2083:	
  2142                           ;doprnt.c: 1483: while(prec--) {
  2143                           
  2144  0192  30FF               	movlw	-1
  2145  0193  00B1               	movwf	??_sprintf^(0+128)
  2146  0194  0831               	movf	??_sprintf^(0+128),w
  2147  0195  07B5               	addwf	sprintf@prec^(0+128),f
  2148  0196  0835               	movf	sprintf@prec^(0+128),w
  2149  0197  3AFF               	xorlw	-1
  2150  0198  1903               	btfsc	3,2
  2151  0199  2831               	goto	l2085
  2152                           
  2153                           ;doprnt.c: 1487: {
  2154                           ;doprnt.c: 1498: c = (_val._val / dpowers[prec]) % 10 + '0';
  2155  019A  300A               	movlw	10
  2156  019B  00A8               	movwf	___lwmod@divisor^(0+128)
  2157  019C  3000               	movlw	0
  2158  019D  00A9               	movwf	(___lwmod@divisor^(0+128)+1)
  2159  019E  0835               	movf	sprintf@prec^(0+128),w
  2160  019F  00B1               	movwf	??_sprintf^(0+128)
  2161  01A0  0731               	addwf	??_sprintf^(0+128),w
  2162  01A1  3E01               	addlw	low (_dpowers-__stringbase)
  2163  01A2  0084               	movwf	4
  2164  01A3  120A  118A  250A  120A  118A  	fcall	stringdir
  2165  01A8  00A0               	movwf	___lwdiv@divisor^(0+128)
  2166  01A9  120A  118A  250A  120A  118A  	fcall	stringdir
  2167  01AE  00A1               	movwf	(___lwdiv@divisor+1)^(0+128)
  2168  01AF  0837               	movf	(sprintf@_val+1)^(0+128),w
  2169  01B0  01A3               	clrf	(___lwdiv@dividend+1)^(0+128)
  2170  01B1  07A3               	addwf	(___lwdiv@dividend+1)^(0+128),f
  2171  01B2  0836               	movf	sprintf@_val^(0+128),w
  2172  01B3  01A2               	clrf	___lwdiv@dividend^(0+128)
  2173  01B4  07A2               	addwf	___lwdiv@dividend^(0+128),f
  2174  01B5  120A  158A  27C0  120A  118A  	fcall	___lwdiv
  2175  01BA  1683               	bsf	3,5	;RP0=1, select bank1
  2176  01BB  1303               	bcf	3,6	;RP1=0, select bank1
  2177  01BC  0821               	movf	(?___lwdiv+1)^(0+128),w
  2178  01BD  01AB               	clrf	(___lwmod@dividend+1)^(0+128)
  2179  01BE  07AB               	addwf	(___lwmod@dividend+1)^(0+128),f
  2180  01BF  0820               	movf	?___lwdiv^(0+128),w
  2181  01C0  01AA               	clrf	___lwmod@dividend^(0+128)
  2182  01C1  07AA               	addwf	___lwmod@dividend^(0+128),f
  2183  01C2  120A  158A  278A  120A  118A  	fcall	___lwmod
  2184  01C7  1683               	bsf	3,5	;RP0=1, select bank1
  2185  01C8  1303               	bcf	3,6	;RP1=0, select bank1
  2186  01C9  0828               	movf	?___lwmod^(0+128),w
  2187  01CA  3E30               	addlw	48
  2188  01CB  00B2               	movwf	(??_sprintf+1)^(0+128)
  2189  01CC  0832               	movf	(??_sprintf+1)^(0+128),w
  2190  01CD  00BE               	movwf	sprintf@c^(0+128)
  2191                           
  2192                           ;doprnt.c: 1532: }
  2193                           ;doprnt.c: 1533: ((*sp++ = (c)));
  2194  01CE  083E               	movf	sprintf@c^(0+128),w
  2195  01CF  00B1               	movwf	??_sprintf^(0+128)
  2196  01D0  083D               	movf	sprintf@sp^(0+128),w
  2197  01D1  0084               	movwf	4
  2198  01D2  0831               	movf	??_sprintf^(0+128),w
  2199  01D3  1383               	bcf	3,7	;select IRP bank0
  2200  01D4  0080               	movwf	0
  2201  01D5  3001               	movlw	1
  2202  01D6  00B1               	movwf	??_sprintf^(0+128)
  2203  01D7  0831               	movf	??_sprintf^(0+128),w
  2204  01D8  07BD               	addwf	sprintf@sp^(0+128),f
  2205  01D9  2992               	goto	l2083
  2206  01DA                     l2087:	
  2207                           ;doprnt.c: 1534: }
  2208                           ;doprnt.c: 1542: }
  2209                           ;doprnt.c: 1544: alldone:
  2210                           
  2211                           
  2212                           ;doprnt.c: 1547: *sp = 0;
  2213  01DA  1683               	bsf	3,5	;RP0=1, select bank1
  2214  01DB  1303               	bcf	3,6	;RP1=0, select bank1
  2215  01DC  083D               	movf	sprintf@sp^(0+128),w
  2216  01DD  0084               	movwf	4
  2217  01DE  1383               	bcf	3,7	;select IRP bank0
  2218  01DF  0180               	clrf	0
  2219  01E0  0008               	return
  2220  01E1                     __end_of_sprintf:	
  2221                           ;doprnt.c: 1549: return 0;
  2222                           ;	Return value of _sprintf is never used
  2223                           
  2224                           
  2225                           	psect	text2
  2226  0E27                     __ptext2:	
  2227 ;; *************** function _isdigit *****************
  2228 ;; Defined at:
  2229 ;;		line 8 in file "C:\Program Files (x86)\Microchip\xc8\v1.33\sources\common\isdigit.c"
  2230 ;; Parameters:    Size  Location     Type
  2231 ;;  c               1    wreg     unsigned char 
  2232 ;; Auto vars:     Size  Location     Type
  2233 ;;  c               1    1[BANK1 ] unsigned char 
  2234 ;; Return value:  Size  Location     Type
  2235 ;;		None               void
  2236 ;; Registers used:
  2237 ;;		wreg, status,2, status,0
  2238 ;; Tracked objects:
  2239 ;;		On entry : 0/0
  2240 ;;		On exit  : 0/0
  2241 ;;		Unchanged: 0/0
  2242 ;; Data sizes:     COMMON   BANK0   BANK1   BANK3   BANK2
  2243 ;;      Params:         0       0       0       0       0
  2244 ;;      Locals:         0       0       2       0       0
  2245 ;;      Temps:          0       0       0       0       0
  2246 ;;      Totals:         0       0       2       0       0
  2247 ;;Total ram usage:        2 bytes
  2248 ;; Hardware stack levels used:    1
  2249 ;; Hardware stack levels required when called:    3
  2250 ;; This function calls:
  2251 ;;		Nothing
  2252 ;; This function is called by:
  2253 ;;		_sprintf
  2254 ;; This function uses a non-reentrant model
  2255 ;;
  2256                           
  2257                           
  2258                           ;psect for function _isdigit
  2259  0E27                     _isdigit:	
  2260                           
  2261                           ;incstack = 0
  2262                           ; Regs used in _isdigit: [wreg+status,2+status,0]
  2263                           ;isdigit@c stored from wreg
  2264  0E27  1683               	bsf	3,5	;RP0=1, select bank1
  2265  0E28  1303               	bcf	3,6	;RP1=0, select bank1
  2266  0E29  00A1               	movwf	isdigit@c^(0+128)
  2267  0E2A  01A0               	clrf	_isdigit$1383^(0+128)
  2268  0E2B  303A               	movlw	58
  2269  0E2C  0221               	subwf	isdigit@c^(0+128),w
  2270  0E2D  1803               	skipnc
  2271  0E2E  2E35               	goto	l1711
  2272  0E2F  3030               	movlw	48
  2273  0E30  0221               	subwf	isdigit@c^(0+128),w
  2274  0E31  1C03               	skipc
  2275  0E32  2E35               	goto	l1711
  2276  0E33  01A0               	clrf	_isdigit$1383^(0+128)
  2277  0E34  0AA0               	incf	_isdigit$1383^(0+128),f
  2278  0E35                     l1711:	
  2279  0E35  0C20               	rrf	_isdigit$1383^(0+128),w
  2280  0E36  0008               	return
  2281  0E37                     __end_of_isdigit:	
  2282                           
  2283                           	psect	text3
  2284  0EDA                     __ptext3:	
  2285 ;; *************** function ___wmul *****************
  2286 ;; Defined at:
  2287 ;;		line 15 in file "C:\Program Files (x86)\Microchip\xc8\v1.33\sources\common\Umul16.c"
  2288 ;; Parameters:    Size  Location     Type
  2289 ;;  multiplier      2    0[BANK1 ] unsigned int 
  2290 ;;  multiplicand    2    2[BANK1 ] unsigned int 
  2291 ;; Auto vars:     Size  Location     Type
  2292 ;;  product         2    4[BANK1 ] unsigned int 
  2293 ;; Return value:  Size  Location     Type
  2294 ;;                  2    0[BANK1 ] unsigned int 
  2295 ;; Registers used:
  2296 ;;		wreg, status,2, status,0
  2297 ;; Tracked objects:
  2298 ;;		On entry : 0/0
  2299 ;;		On exit  : 0/0
  2300 ;;		Unchanged: 0/0
  2301 ;; Data sizes:     COMMON   BANK0   BANK1   BANK3   BANK2
  2302 ;;      Params:         0       0       4       0       0
  2303 ;;      Locals:         0       0       2       0       0
  2304 ;;      Temps:          0       0       0       0       0
  2305 ;;      Totals:         0       0       6       0       0
  2306 ;;Total ram usage:        6 bytes
  2307 ;; Hardware stack levels used:    1
  2308 ;; Hardware stack levels required when called:    3
  2309 ;; This function calls:
  2310 ;;		Nothing
  2311 ;; This function is called by:
  2312 ;;		_sprintf
  2313 ;; This function uses a non-reentrant model
  2314 ;;
  2315                           
  2316                           
  2317                           ;psect for function ___wmul
  2318  0EDA                     ___wmul:	
  2319                           
  2320                           ;incstack = 0
  2321                           ; Regs used in ___wmul: [wreg+status,2+status,0]
  2322  0EDA  1683               	bsf	3,5	;RP0=1, select bank1
  2323  0EDB  1303               	bcf	3,6	;RP1=0, select bank1
  2324  0EDC  01A4               	clrf	___wmul@product^(0+128)
  2325  0EDD  01A5               	clrf	(___wmul@product+1)^(0+128)
  2326  0EDE                     l1717:	
  2327  0EDE  1C20               	btfss	___wmul@multiplier^(0+128),0
  2328  0EDF  2EE6               	goto	l487
  2329  0EE0  0822               	movf	___wmul@multiplicand^(0+128),w
  2330  0EE1  07A4               	addwf	___wmul@product^(0+128),f
  2331  0EE2  1803               	skipnc
  2332  0EE3  0AA5               	incf	(___wmul@product+1)^(0+128),f
  2333  0EE4  0823               	movf	(___wmul@multiplicand+1)^(0+128),w
  2334  0EE5  07A5               	addwf	(___wmul@product+1)^(0+128),f
  2335  0EE6                     l487:	
  2336  0EE6  3001               	movlw	1
  2337  0EE7                     u1235:	
  2338  0EE7  1003               	clrc
  2339  0EE8  0DA2               	rlf	___wmul@multiplicand^(0+128),f
  2340  0EE9  0DA3               	rlf	(___wmul@multiplicand+1)^(0+128),f
  2341  0EEA  3EFF               	addlw	-1
  2342  0EEB  1D03               	skipz
  2343  0EEC  2EE7               	goto	u1235
  2344  0EED  3001               	movlw	1
  2345  0EEE                     u1245:	
  2346  0EEE  1003               	clrc
  2347  0EEF  0CA1               	rrf	(___wmul@multiplier+1)^(0+128),f
  2348  0EF0  0CA0               	rrf	___wmul@multiplier^(0+128),f
  2349  0EF1  3EFF               	addlw	-1
  2350  0EF2  1D03               	skipz
  2351  0EF3  2EEE               	goto	u1245
  2352  0EF4  0821               	movf	(___wmul@multiplier+1)^(0+128),w
  2353  0EF5  0420               	iorwf	___wmul@multiplier^(0+128),w
  2354  0EF6  1D03               	skipz
  2355  0EF7  2EDE               	goto	l1717
  2356  0EF8  0825               	movf	(___wmul@product+1)^(0+128),w
  2357  0EF9  01A1               	clrf	(?___wmul+1)^(0+128)
  2358  0EFA  07A1               	addwf	(?___wmul+1)^(0+128),f
  2359  0EFB  0824               	movf	___wmul@product^(0+128),w
  2360  0EFC  01A0               	clrf	?___wmul^(0+128)
  2361  0EFD  07A0               	addwf	?___wmul^(0+128),f
  2362  0EFE  0008               	return
  2363  0EFF                     __end_of___wmul:	
  2364                           
  2365                           	psect	text4
  2366  0F8A                     __ptext4:	
  2367 ;; *************** function ___lwmod *****************
  2368 ;; Defined at:
  2369 ;;		line 6 in file "C:\Program Files (x86)\Microchip\xc8\v1.33\sources\common\lwmod.c"
  2370 ;; Parameters:    Size  Location     Type
  2371 ;;  divisor         2    8[BANK1 ] unsigned int 
  2372 ;;  dividend        2   10[BANK1 ] unsigned int 
  2373 ;; Auto vars:     Size  Location     Type
  2374 ;;  counter         1   13[BANK1 ] unsigned char 
  2375 ;; Return value:  Size  Location     Type
  2376 ;;                  2    8[BANK1 ] unsigned int 
  2377 ;; Registers used:
  2378 ;;		wreg, status,2, status,0
  2379 ;; Tracked objects:
  2380 ;;		On entry : 0/0
  2381 ;;		On exit  : 0/0
  2382 ;;		Unchanged: 0/0
  2383 ;; Data sizes:     COMMON   BANK0   BANK1   BANK3   BANK2
  2384 ;;      Params:         0       0       4       0       0
  2385 ;;      Locals:         0       0       1       0       0
  2386 ;;      Temps:          0       0       1       0       0
  2387 ;;      Totals:         0       0       6       0       0
  2388 ;;Total ram usage:        6 bytes
  2389 ;; Hardware stack levels used:    1
  2390 ;; Hardware stack levels required when called:    3
  2391 ;; This function calls:
  2392 ;;		Nothing
  2393 ;; This function is called by:
  2394 ;;		_sprintf
  2395 ;; This function uses a non-reentrant model
  2396 ;;
  2397                           
  2398                           
  2399                           ;psect for function ___lwmod
  2400  0F8A                     ___lwmod:	
  2401                           
  2402                           ;incstack = 0
  2403                           ; Regs used in ___lwmod: [wreg+status,2+status,0]
  2404  0F8A  1683               	bsf	3,5	;RP0=1, select bank1
  2405  0F8B  1303               	bcf	3,6	;RP1=0, select bank1
  2406  0F8C  0829               	movf	(___lwmod@divisor+1)^(0+128),w
  2407  0F8D  0428               	iorwf	___lwmod@divisor^(0+128),w
  2408  0F8E  1903               	skipnz
  2409  0F8F  2FB9               	goto	l1841
  2410  0F90  01AD               	clrf	___lwmod@counter^(0+128)
  2411  0F91  0AAD               	incf	___lwmod@counter^(0+128),f
  2412  0F92                     l1831:	
  2413  0F92  1BA9               	btfsc	(___lwmod@divisor+1)^(0+128),7
  2414  0F93  2FA0               	goto	l1833
  2415  0F94  3001               	movlw	1
  2416  0F95                     u1555:	
  2417  0F95  1003               	clrc
  2418  0F96  0DA8               	rlf	___lwmod@divisor^(0+128),f
  2419  0F97  0DA9               	rlf	(___lwmod@divisor+1)^(0+128),f
  2420  0F98  3EFF               	addlw	-1
  2421  0F99  1D03               	skipz
  2422  0F9A  2F95               	goto	u1555
  2423  0F9B  3001               	movlw	1
  2424  0F9C  00AC               	movwf	??___lwmod^(0+128)
  2425  0F9D  082C               	movf	??___lwmod^(0+128),w
  2426  0F9E  07AD               	addwf	___lwmod@counter^(0+128),f
  2427  0F9F  2F92               	goto	l1831
  2428  0FA0                     l1833:	
  2429  0FA0  0829               	movf	(___lwmod@divisor+1)^(0+128),w
  2430  0FA1  022B               	subwf	(___lwmod@dividend+1)^(0+128),w
  2431  0FA2  1D03               	skipz
  2432  0FA3  2FA6               	goto	u1575
  2433  0FA4  0828               	movf	___lwmod@divisor^(0+128),w
  2434  0FA5  022A               	subwf	___lwmod@dividend^(0+128),w
  2435  0FA6                     u1575:	
  2436  0FA6  1C03               	skipc
  2437  0FA7  2FAE               	goto	l1837
  2438  0FA8  0828               	movf	___lwmod@divisor^(0+128),w
  2439  0FA9  02AA               	subwf	___lwmod@dividend^(0+128),f
  2440  0FAA  0829               	movf	(___lwmod@divisor+1)^(0+128),w
  2441  0FAB  1C03               	skipc
  2442  0FAC  03AB               	decf	(___lwmod@dividend+1)^(0+128),f
  2443  0FAD  02AB               	subwf	(___lwmod@dividend+1)^(0+128),f
  2444  0FAE                     l1837:	
  2445  0FAE  3001               	movlw	1
  2446  0FAF                     u1585:	
  2447  0FAF  1003               	clrc
  2448  0FB0  0CA9               	rrf	(___lwmod@divisor+1)^(0+128),f
  2449  0FB1  0CA8               	rrf	___lwmod@divisor^(0+128),f
  2450  0FB2  3EFF               	addlw	-1
  2451  0FB3  1D03               	skipz
  2452  0FB4  2FAF               	goto	u1585
  2453  0FB5  3001               	movlw	1
  2454  0FB6  02AD               	subwf	___lwmod@counter^(0+128),f
  2455  0FB7  1D03               	btfss	3,2
  2456  0FB8  2FA0               	goto	l1833
  2457  0FB9                     l1841:	
  2458  0FB9  082B               	movf	(___lwmod@dividend+1)^(0+128),w
  2459  0FBA  01A9               	clrf	(?___lwmod+1)^(0+128)
  2460  0FBB  07A9               	addwf	(?___lwmod+1)^(0+128),f
  2461  0FBC  082A               	movf	___lwmod@dividend^(0+128),w
  2462  0FBD  01A8               	clrf	?___lwmod^(0+128)
  2463  0FBE  07A8               	addwf	?___lwmod^(0+128),f
  2464  0FBF  0008               	return
  2465  0FC0                     __end_of___lwmod:	
  2466                           
  2467                           	psect	text5
  2468  0FC0                     __ptext5:	
  2469 ;; *************** function ___lwdiv *****************
  2470 ;; Defined at:
  2471 ;;		line 6 in file "C:\Program Files (x86)\Microchip\xc8\v1.33\sources\common\lwdiv.c"
  2472 ;; Parameters:    Size  Location     Type
  2473 ;;  divisor         2    0[BANK1 ] unsigned int 
  2474 ;;  dividend        2    2[BANK1 ] unsigned int 
  2475 ;; Auto vars:     Size  Location     Type
  2476 ;;  quotient        2    5[BANK1 ] unsigned int 
  2477 ;;  counter         1    7[BANK1 ] unsigned char 
  2478 ;; Return value:  Size  Location     Type
  2479 ;;                  2    0[BANK1 ] unsigned int 
  2480 ;; Registers used:
  2481 ;;		wreg, status,2, status,0
  2482 ;; Tracked objects:
  2483 ;;		On entry : 0/0
  2484 ;;		On exit  : 0/0
  2485 ;;		Unchanged: 0/0
  2486 ;; Data sizes:     COMMON   BANK0   BANK1   BANK3   BANK2
  2487 ;;      Params:         0       0       4       0       0
  2488 ;;      Locals:         0       0       3       0       0
  2489 ;;      Temps:          0       0       1       0       0
  2490 ;;      Totals:         0       0       8       0       0
  2491 ;;Total ram usage:        8 bytes
  2492 ;; Hardware stack levels used:    1
  2493 ;; Hardware stack levels required when called:    3
  2494 ;; This function calls:
  2495 ;;		Nothing
  2496 ;; This function is called by:
  2497 ;;		_sprintf
  2498 ;; This function uses a non-reentrant model
  2499 ;;
  2500                           
  2501                           
  2502                           ;psect for function ___lwdiv
  2503  0FC0                     ___lwdiv:	
  2504                           
  2505                           ;incstack = 0
  2506                           ; Regs used in ___lwdiv: [wreg+status,2+status,0]
  2507  0FC0  1683               	bsf	3,5	;RP0=1, select bank1
  2508  0FC1  1303               	bcf	3,6	;RP1=0, select bank1
  2509  0FC2  01A5               	clrf	___lwdiv@quotient^(0+128)
  2510  0FC3  01A6               	clrf	(___lwdiv@quotient+1)^(0+128)
  2511  0FC4  0821               	movf	(___lwdiv@divisor+1)^(0+128),w
  2512  0FC5  0420               	iorwf	___lwdiv@divisor^(0+128),w
  2513  0FC6  1903               	skipnz
  2514  0FC7  2FF9               	goto	l1819
  2515  0FC8  01A7               	clrf	___lwdiv@counter^(0+128)
  2516  0FC9  0AA7               	incf	___lwdiv@counter^(0+128),f
  2517  0FCA                     l1807:	
  2518  0FCA  1BA1               	btfsc	(___lwdiv@divisor+1)^(0+128),7
  2519  0FCB  2FD8               	goto	l1809
  2520  0FCC  3001               	movlw	1
  2521  0FCD                     u1485:	
  2522  0FCD  1003               	clrc
  2523  0FCE  0DA0               	rlf	___lwdiv@divisor^(0+128),f
  2524  0FCF  0DA1               	rlf	(___lwdiv@divisor+1)^(0+128),f
  2525  0FD0  3EFF               	addlw	-1
  2526  0FD1  1D03               	skipz
  2527  0FD2  2FCD               	goto	u1485
  2528  0FD3  3001               	movlw	1
  2529  0FD4  00A4               	movwf	??___lwdiv^(0+128)
  2530  0FD5  0824               	movf	??___lwdiv^(0+128),w
  2531  0FD6  07A7               	addwf	___lwdiv@counter^(0+128),f
  2532  0FD7  2FCA               	goto	l1807
  2533  0FD8                     l1809:	
  2534  0FD8  3001               	movlw	1
  2535  0FD9                     u1505:	
  2536  0FD9  1003               	clrc
  2537  0FDA  0DA5               	rlf	___lwdiv@quotient^(0+128),f
  2538  0FDB  0DA6               	rlf	(___lwdiv@quotient+1)^(0+128),f
  2539  0FDC  3EFF               	addlw	-1
  2540  0FDD  1D03               	skipz
  2541  0FDE  2FD9               	goto	u1505
  2542  0FDF  0821               	movf	(___lwdiv@divisor+1)^(0+128),w
  2543  0FE0  0223               	subwf	(___lwdiv@dividend+1)^(0+128),w
  2544  0FE1  1D03               	skipz
  2545  0FE2  2FE5               	goto	u1515
  2546  0FE3  0820               	movf	___lwdiv@divisor^(0+128),w
  2547  0FE4  0222               	subwf	___lwdiv@dividend^(0+128),w
  2548  0FE5                     u1515:	
  2549  0FE5  1C03               	skipc
  2550  0FE6  2FEE               	goto	l1815
  2551  0FE7  0820               	movf	___lwdiv@divisor^(0+128),w
  2552  0FE8  02A2               	subwf	___lwdiv@dividend^(0+128),f
  2553  0FE9  0821               	movf	(___lwdiv@divisor+1)^(0+128),w
  2554  0FEA  1C03               	skipc
  2555  0FEB  03A3               	decf	(___lwdiv@dividend+1)^(0+128),f
  2556  0FEC  02A3               	subwf	(___lwdiv@dividend+1)^(0+128),f
  2557  0FED  1425               	bsf	___lwdiv@quotient^(0+128),0
  2558  0FEE                     l1815:	
  2559  0FEE  3001               	movlw	1
  2560  0FEF                     u1525:	
  2561  0FEF  1003               	clrc
  2562  0FF0  0CA1               	rrf	(___lwdiv@divisor+1)^(0+128),f
  2563  0FF1  0CA0               	rrf	___lwdiv@divisor^(0+128),f
  2564  0FF2  3EFF               	addlw	-1
  2565  0FF3  1D03               	skipz
  2566  0FF4  2FEF               	goto	u1525
  2567  0FF5  3001               	movlw	1
  2568  0FF6  02A7               	subwf	___lwdiv@counter^(0+128),f
  2569  0FF7  1D03               	btfss	3,2
  2570  0FF8  2FD8               	goto	l1809
  2571  0FF9                     l1819:	
  2572  0FF9  0826               	movf	(___lwdiv@quotient+1)^(0+128),w
  2573  0FFA  01A1               	clrf	(?___lwdiv+1)^(0+128)
  2574  0FFB  07A1               	addwf	(?___lwdiv+1)^(0+128),f
  2575  0FFC  0825               	movf	___lwdiv@quotient^(0+128),w
  2576  0FFD  01A0               	clrf	?___lwdiv^(0+128)
  2577  0FFE  07A0               	addwf	?___lwdiv^(0+128),f
  2578  0FFF  0008               	return
  2579  1000                     __end_of___lwdiv:	
  2580                           
  2581                           	psect	text6
  2582  0F59                     __ptext6:	
  2583 ;; *************** function _USART_WriteString *****************
  2584 ;; Defined at:
  2585 ;;		line 52 in file "C:\Users\332414\Documents\Fuzzy-IA2\Cdigo em C no MPLAB\usart.c"
  2586 ;; Parameters:    Size  Location     Type
  2587 ;;  str             2    1[BANK1 ] PTR const unsigned char 
  2588 ;;		 -> STR_7(40), STR_5(3), display(10), STR_2(20), 
  2589 ;;		 -> STR_1(29), 
  2590 ;; Auto vars:     Size  Location     Type
  2591 ;;		None
  2592 ;; Return value:  Size  Location     Type
  2593 ;;		None               void
  2594 ;; Registers used:
  2595 ;;		wreg, fsr0l, fsr0h, status,2, status,0, btemp+1, pclath, cstack
  2596 ;; Tracked objects:
  2597 ;;		On entry : 0/0
  2598 ;;		On exit  : 0/0
  2599 ;;		Unchanged: 0/0
  2600 ;; Data sizes:     COMMON   BANK0   BANK1   BANK3   BANK2
  2601 ;;      Params:         0       0       2       0       0
  2602 ;;      Locals:         0       0       0       0       0
  2603 ;;      Temps:          0       0       0       0       0
  2604 ;;      Totals:         0       0       2       0       0
  2605 ;;Total ram usage:        2 bytes
  2606 ;; Hardware stack levels used:    1
  2607 ;; Hardware stack levels required when called:    4
  2608 ;; This function calls:
  2609 ;;		_USART_WriteChar
  2610 ;; This function is called by:
  2611 ;;		_main
  2612 ;;		_USART_ReceiveChar
  2613 ;; This function uses a non-reentrant model
  2614 ;;
  2615                           
  2616                           
  2617                           ;psect for function _USART_WriteString
  2618  0F59                     _USART_WriteString:	
  2619  0F59                     l1949:	
  2620                           ;usart.c: 54: while(*str != '\0')
  2621                           
  2622                           ;incstack = 0
  2623                           ; Regs used in _USART_WriteString: [wreg-fsr0h+status,2+status,0+btemp+1+pclath+cstack]
  2624                           
  2625  0F59  1683               	bsf	3,5	;RP0=1, select bank1
  2626  0F5A  1303               	bcf	3,6	;RP1=0, select bank1
  2627  0F5B  0822               	movf	(USART_WriteString@str+1)^(0+128),w
  2628  0F5C  1283               	bcf	3,5	;RP0=0, select bank0
  2629  0F5D  1303               	bcf	3,6	;RP1=0, select bank0
  2630  0F5E  00FF               	movwf	127
  2631  0F5F  1683               	bsf	3,5	;RP0=1, select bank1
  2632  0F60  1303               	bcf	3,6	;RP1=0, select bank1
  2633  0F61  0821               	movf	USART_WriteString@str^(0+128),w
  2634  0F62  0084               	movwf	4
  2635  0F63  1283               	bcf	3,5	;RP0=0, select bank0
  2636  0F64  1303               	bcf	3,6	;RP1=0, select bank0
  2637  0F65  120A  118A  2500  120A  158A  	fcall	stringtab
  2638  0F6A  3800               	iorlw	0
  2639  0F6B  1903               	btfsc	3,2
  2640  0F6C  0008               	return
  2641                           
  2642                           ;usart.c: 55: {
  2643                           ;usart.c: 56: USART_WriteChar(*str);
  2644  0F6D  1683               	bsf	3,5	;RP0=1, select bank1
  2645  0F6E  1303               	bcf	3,6	;RP1=0, select bank1
  2646  0F6F  0822               	movf	(USART_WriteString@str+1)^(0+128),w
  2647  0F70  1283               	bcf	3,5	;RP0=0, select bank0
  2648  0F71  1303               	bcf	3,6	;RP1=0, select bank0
  2649  0F72  00FF               	movwf	127
  2650  0F73  1683               	bsf	3,5	;RP0=1, select bank1
  2651  0F74  1303               	bcf	3,6	;RP1=0, select bank1
  2652  0F75  0821               	movf	USART_WriteString@str^(0+128),w
  2653  0F76  0084               	movwf	4
  2654  0F77  1283               	bcf	3,5	;RP0=0, select bank0
  2655  0F78  1303               	bcf	3,6	;RP1=0, select bank0
  2656  0F79  120A  118A  2500  120A  158A  	fcall	stringtab
  2657  0F7E  120A  158A  261A  120A  158A  	fcall	_USART_WriteChar
  2658                           
  2659                           ;usart.c: 57: str++;
  2660  0F83  3001               	movlw	1
  2661  0F84  1683               	bsf	3,5	;RP0=1, select bank1
  2662  0F85  1303               	bcf	3,6	;RP1=0, select bank1
  2663  0F86  07A1               	addwf	USART_WriteString@str^(0+128),f
  2664  0F87  1803               	skipnc
  2665  0F88  0AA2               	incf	(USART_WriteString@str+1)^(0+128),f
  2666  0F89  2F59               	goto	l1949
  2667  0F8A                     __end_of_USART_WriteString:	
  2668                           
  2669                           	psect	text7
  2670  0E1A                     __ptext7:	
  2671 ;; *************** function _USART_WriteChar *****************
  2672 ;; Defined at:
  2673 ;;		line 44 in file "C:\Users\332414\Documents\Fuzzy-IA2\Cdigo em C no MPLAB\usart.c"
  2674 ;; Parameters:    Size  Location     Type
  2675 ;;  byte            1    wreg     unsigned char 
  2676 ;; Auto vars:     Size  Location     Type
  2677 ;;  byte            1    0[BANK1 ] unsigned char 
  2678 ;; Return value:  Size  Location     Type
  2679 ;;		None               void
  2680 ;; Registers used:
  2681 ;;		wreg
  2682 ;; Tracked objects:
  2683 ;;		On entry : 0/0
  2684 ;;		On exit  : 0/0
  2685 ;;		Unchanged: 0/0
  2686 ;; Data sizes:     COMMON   BANK0   BANK1   BANK3   BANK2
  2687 ;;      Params:         0       0       0       0       0
  2688 ;;      Locals:         0       0       1       0       0
  2689 ;;      Temps:          0       0       0       0       0
  2690 ;;      Totals:         0       0       1       0       0
  2691 ;;Total ram usage:        1 bytes
  2692 ;; Hardware stack levels used:    1
  2693 ;; Hardware stack levels required when called:    3
  2694 ;; This function calls:
  2695 ;;		Nothing
  2696 ;; This function is called by:
  2697 ;;		_USART_WriteString
  2698 ;; This function uses a non-reentrant model
  2699 ;;
  2700                           
  2701                           
  2702                           ;psect for function _USART_WriteChar
  2703  0E1A                     _USART_WriteChar:	
  2704                           
  2705                           ;incstack = 0
  2706                           ; Regs used in _USART_WriteChar: [wreg]
  2707                           ;USART_WriteChar@byte stored from wreg
  2708  0E1A  1683               	bsf	3,5	;RP0=1, select bank1
  2709  0E1B  1303               	bcf	3,6	;RP1=0, select bank1
  2710  0E1C  00A0               	movwf	USART_WriteChar@byte^(0+128)
  2711  0E1D                     l116:	
  2712                           ;usart.c: 46: while(!PIR1bits.TXIF);
  2713                           
  2714  0E1D  1283               	bcf	3,5	;RP0=0, select bank0
  2715  0E1E  1E0C               	btfss	12,4	;volatile
  2716  0E1F  2E1D               	goto	l116
  2717                           
  2718                           ;usart.c: 47: TXREG = byte;
  2719  0E20  1683               	bsf	3,5	;RP0=1, select bank1
  2720  0E21  1303               	bcf	3,6	;RP1=0, select bank1
  2721  0E22  0820               	movf	USART_WriteChar@byte^(0+128),w
  2722  0E23  1283               	bcf	3,5	;RP0=0, select bank0
  2723  0E24  1303               	bcf	3,6	;RP1=0, select bank0
  2724  0E25  0099               	movwf	25	;volatile
  2725  0E26  0008               	return
  2726  0E27                     __end_of_USART_WriteChar:	
  2727                           
  2728                           	psect	text8
  2729  079D                     __ptext8:	
  2730 ;; *************** function _USART_Init *****************
  2731 ;; Defined at:
  2732 ;;		line 6 in file "C:\Users\332414\Documents\Fuzzy-IA2\Cdigo em C no MPLAB\usart.c"
  2733 ;; Parameters:    Size  Location     Type
  2734 ;;  BaudRate        4   15[BANK1 ] long 
  2735 ;; Auto vars:     Size  Location     Type
  2736 ;;		None
  2737 ;; Return value:  Size  Location     Type
  2738 ;;		None               void
  2739 ;; Registers used:
  2740 ;;		wreg, status,2, status,0, pclath, cstack
  2741 ;; Tracked objects:
  2742 ;;		On entry : 0/0
  2743 ;;		On exit  : 0/0
  2744 ;;		Unchanged: 0/0
  2745 ;; Data sizes:     COMMON   BANK0   BANK1   BANK3   BANK2
  2746 ;;      Params:         0       0       4       0       0
  2747 ;;      Locals:         0       0       0       0       0
  2748 ;;      Temps:          0       0       4       0       0
  2749 ;;      Totals:         0       0       8       0       0
  2750 ;;Total ram usage:        8 bytes
  2751 ;; Hardware stack levels used:    1
  2752 ;; Hardware stack levels required when called:    4
  2753 ;; This function calls:
  2754 ;;		___aldiv
  2755 ;; This function is called by:
  2756 ;;		_main
  2757 ;; This function uses a non-reentrant model
  2758 ;;
  2759                           
  2760                           
  2761                           ;psect for function _USART_Init
  2762  079D                     _USART_Init:	
  2763                           
  2764                           ;usart.c: 13: SPBRG = (unsigned char)(18432000 / (16 * BaudRate)) - 1;
  2765                           
  2766                           ;incstack = 0
  2767                           ; Regs used in _USART_Init: [wreg+status,2+status,0+pclath+cstack]
  2768  079D  1683               	bsf	3,5	;RP0=1, select bank1
  2769  079E  1303               	bcf	3,6	;RP1=0, select bank1
  2770  079F  082F               	movf	USART_Init@BaudRate^(0+128),w
  2771  07A0  00B3               	movwf	??_USART_Init^(0+128)
  2772  07A1  0830               	movf	(USART_Init@BaudRate+1)^(0+128),w
  2773  07A2  00B4               	movwf	(??_USART_Init^(0+128)+1)
  2774  07A3  0831               	movf	(USART_Init@BaudRate+2)^(0+128),w
  2775  07A4  00B5               	movwf	(??_USART_Init^(0+128)+2)
  2776  07A5  0832               	movf	(USART_Init@BaudRate+3)^(0+128),w
  2777  07A6  00B6               	movwf	(??_USART_Init^(0+128)+3)
  2778  07A7  3004               	movlw	4
  2779  07A8                     u1605:	
  2780  07A8  1003               	clrc
  2781  07A9  0DB3               	rlf	??_USART_Init^(0+128),f
  2782  07AA  0DB4               	rlf	(??_USART_Init^(0+128)+1),f
  2783  07AB  0DB5               	rlf	(??_USART_Init^(0+128)+2),f
  2784  07AC  0DB6               	rlf	(??_USART_Init^(0+128)+3),f
  2785  07AD  3EFF               	addlw	-1
  2786  07AE  1D03               	skipz
  2787  07AF  2FA8               	goto	u1605
  2788  07B0  0836               	movf	(??_USART_Init+3)^(0+128),w
  2789  07B1  00A3               	movwf	(___aldiv@divisor+3)^(0+128)
  2790  07B2  0835               	movf	(??_USART_Init+2)^(0+128),w
  2791  07B3  00A2               	movwf	(___aldiv@divisor+2)^(0+128)
  2792  07B4  0834               	movf	(??_USART_Init+1)^(0+128),w
  2793  07B5  00A1               	movwf	(___aldiv@divisor+1)^(0+128)
  2794  07B6  0833               	movf	??_USART_Init^(0+128),w
  2795  07B7  00A0               	movwf	___aldiv@divisor^(0+128)
  2796  07B8  3001               	movlw	1
  2797  07B9  00A7               	movwf	(___aldiv@dividend+3)^(0+128)
  2798  07BA  3019               	movlw	25
  2799  07BB  00A6               	movwf	(___aldiv@dividend+2)^(0+128)
  2800  07BC  3040               	movlw	64
  2801  07BD  00A5               	movwf	(___aldiv@dividend+1)^(0+128)
  2802  07BE  3000               	movlw	0
  2803  07BF  00A4               	movwf	___aldiv@dividend^(0+128)
  2804  07C0  120A  118A  258F   	fcall	___aldiv
  2805  07C3  1683               	bsf	3,5	;RP0=1, select bank1
  2806  07C4  1303               	bcf	3,6	;RP1=0, select bank1
  2807  07C5  0820               	movf	?___aldiv^(0+128),w
  2808  07C6  3EFF               	addlw	255
  2809  07C7  0099               	movwf	25	;volatile
  2810                           
  2811                           ;usart.c: 16: TXSTAbits.CSRC = 0;
  2812  07C8  1398               	bcf	24,7	;volatile
  2813                           
  2814                           ;usart.c: 17: TXSTAbits.TX9 = 0;
  2815  07C9  1318               	bcf	24,6	;volatile
  2816                           
  2817                           ;usart.c: 18: TXSTAbits.TXEN = 1;
  2818  07CA  1698               	bsf	24,5	;volatile
  2819                           
  2820                           ;usart.c: 19: TXSTAbits.SYNC = 0;
  2821  07CB  1218               	bcf	24,4	;volatile
  2822                           
  2823                           ;usart.c: 21: TXSTAbits.BRGH = 1;
  2824  07CC  1518               	bsf	24,2	;volatile
  2825                           
  2826                           ;usart.c: 22: TXSTAbits.TRMT = 1;
  2827  07CD  1498               	bsf	24,1	;volatile
  2828                           
  2829                           ;usart.c: 23: TXSTAbits.TX9D = 0;
  2830  07CE  1018               	bcf	24,0	;volatile
  2831                           
  2832                           ;usart.c: 26: RCSTAbits.SPEN = 1;
  2833  07CF  1283               	bcf	3,5	;RP0=0, select bank0
  2834  07D0  1303               	bcf	3,6	;RP1=0, select bank0
  2835  07D1  1798               	bsf	24,7	;volatile
  2836                           
  2837                           ;usart.c: 27: RCSTAbits.RX9 = 0;
  2838  07D2  1318               	bcf	24,6	;volatile
  2839                           
  2840                           ;usart.c: 28: RCSTAbits.SREN = 0;
  2841  07D3  1298               	bcf	24,5	;volatile
  2842                           
  2843                           ;usart.c: 29: RCSTAbits.CREN = 1;
  2844  07D4  1618               	bsf	24,4	;volatile
  2845                           
  2846                           ;usart.c: 30: RCSTAbits.ADDEN = 0;
  2847  07D5  1198               	bcf	24,3	;volatile
  2848                           
  2849                           ;usart.c: 31: RCSTAbits.FERR = 0;
  2850  07D6  1118               	bcf	24,2	;volatile
  2851                           
  2852                           ;usart.c: 32: RCSTAbits.OERR = 0;
  2853  07D7  1098               	bcf	24,1	;volatile
  2854                           
  2855                           ;usart.c: 33: RCSTAbits.RX9D = 0;
  2856  07D8  1018               	bcf	24,0	;volatile
  2857                           
  2858                           ;usart.c: 36: PIE1bits.TXIE = 0;
  2859  07D9  1683               	bsf	3,5	;RP0=1, select bank1
  2860  07DA  1303               	bcf	3,6	;RP1=0, select bank1
  2861  07DB  120C               	bcf	12,4	;volatile
  2862                           
  2863                           ;usart.c: 37: PIR1bits.TXIF = 0;
  2864  07DC  1283               	bcf	3,5	;RP0=0, select bank0
  2865  07DD  1303               	bcf	3,6	;RP1=0, select bank0
  2866  07DE  120C               	bcf	12,4	;volatile
  2867                           
  2868                           ;usart.c: 38: PIE1bits.RCIE = 1;
  2869  07DF  1683               	bsf	3,5	;RP0=1, select bank1
  2870  07E0  1303               	bcf	3,6	;RP1=0, select bank1
  2871  07E1  168C               	bsf	12,5	;volatile
  2872                           
  2873                           ;usart.c: 39: PIR1bits.RCIF = 0;
  2874  07E2  1283               	bcf	3,5	;RP0=0, select bank0
  2875  07E3  1303               	bcf	3,6	;RP1=0, select bank0
  2876  07E4  128C               	bcf	12,5	;volatile
  2877  07E5  0008               	return
  2878  07E6                     __end_of_USART_Init:	
  2879                           
  2880                           	psect	text9
  2881  058F                     __ptext9:	
  2882 ;; *************** function ___aldiv *****************
  2883 ;; Defined at:
  2884 ;;		line 6 in file "C:\Program Files (x86)\Microchip\xc8\v1.33\sources\common\aldiv.c"
  2885 ;; Parameters:    Size  Location     Type
  2886 ;;  divisor         4    0[BANK1 ] long 
  2887 ;;  dividend        4    4[BANK1 ] long 
  2888 ;; Auto vars:     Size  Location     Type
  2889 ;;  quotient        4   11[BANK1 ] long 
  2890 ;;  sign            1   10[BANK1 ] unsigned char 
  2891 ;;  counter         1    9[BANK1 ] unsigned char 
  2892 ;; Return value:  Size  Location     Type
  2893 ;;                  4    0[BANK1 ] long 
  2894 ;; Registers used:
  2895 ;;		wreg, status,2, status,0
  2896 ;; Tracked objects:
  2897 ;;		On entry : 0/0
  2898 ;;		On exit  : 0/0
  2899 ;;		Unchanged: 0/0
  2900 ;; Data sizes:     COMMON   BANK0   BANK1   BANK3   BANK2
  2901 ;;      Params:         0       0       8       0       0
  2902 ;;      Locals:         0       0       6       0       0
  2903 ;;      Temps:          0       0       1       0       0
  2904 ;;      Totals:         0       0      15       0       0
  2905 ;;Total ram usage:       15 bytes
  2906 ;; Hardware stack levels used:    1
  2907 ;; Hardware stack levels required when called:    3
  2908 ;; This function calls:
  2909 ;;		Nothing
  2910 ;; This function is called by:
  2911 ;;		_USART_Init
  2912 ;; This function uses a non-reentrant model
  2913 ;;
  2914                           
  2915                           
  2916                           ;psect for function ___aldiv
  2917  058F                     ___aldiv:	
  2918                           
  2919                           ;incstack = 0
  2920                           ; Regs used in ___aldiv: [wreg+status,2+status,0]
  2921  058F  1683               	bsf	3,5	;RP0=1, select bank1
  2922  0590  1303               	bcf	3,6	;RP1=0, select bank1
  2923  0591  01AA               	clrf	___aldiv@sign^(0+128)
  2924  0592  1FA3               	btfss	(___aldiv@divisor+3)^(0+128),7
  2925  0593  2DA1               	goto	l542
  2926  0594  09A0               	comf	___aldiv@divisor^(0+128),f
  2927  0595  09A1               	comf	(___aldiv@divisor+1)^(0+128),f
  2928  0596  09A2               	comf	(___aldiv@divisor+2)^(0+128),f
  2929  0597  09A3               	comf	(___aldiv@divisor+3)^(0+128),f
  2930  0598  0AA0               	incf	___aldiv@divisor^(0+128),f
  2931  0599  1903               	skipnz
  2932  059A  0AA1               	incf	(___aldiv@divisor+1)^(0+128),f
  2933  059B  1903               	skipnz
  2934  059C  0AA2               	incf	(___aldiv@divisor+2)^(0+128),f
  2935  059D  1903               	skipnz
  2936  059E  0AA3               	incf	(___aldiv@divisor+3)^(0+128),f
  2937  059F  01AA               	clrf	___aldiv@sign^(0+128)
  2938  05A0  0AAA               	incf	___aldiv@sign^(0+128),f
  2939  05A1                     l542:	
  2940  05A1  1FA7               	btfss	(___aldiv@dividend+3)^(0+128),7
  2941  05A2  2DB2               	goto	l1767
  2942  05A3  09A4               	comf	___aldiv@dividend^(0+128),f
  2943  05A4  09A5               	comf	(___aldiv@dividend+1)^(0+128),f
  2944  05A5  09A6               	comf	(___aldiv@dividend+2)^(0+128),f
  2945  05A6  09A7               	comf	(___aldiv@dividend+3)^(0+128),f
  2946  05A7  0AA4               	incf	___aldiv@dividend^(0+128),f
  2947  05A8  1903               	skipnz
  2948  05A9  0AA5               	incf	(___aldiv@dividend+1)^(0+128),f
  2949  05AA  1903               	skipnz
  2950  05AB  0AA6               	incf	(___aldiv@dividend+2)^(0+128),f
  2951  05AC  1903               	skipnz
  2952  05AD  0AA7               	incf	(___aldiv@dividend+3)^(0+128),f
  2953  05AE  3001               	movlw	1
  2954  05AF  00A8               	movwf	??___aldiv^(0+128)
  2955  05B0  0828               	movf	??___aldiv^(0+128),w
  2956  05B1  06AA               	xorwf	___aldiv@sign^(0+128),f
  2957  05B2                     l1767:	
  2958  05B2  3000               	movlw	0
  2959  05B3  00AE               	movwf	(___aldiv@quotient+3)^(0+128)
  2960  05B4  3000               	movlw	0
  2961  05B5  00AD               	movwf	(___aldiv@quotient+2)^(0+128)
  2962  05B6  3000               	movlw	0
  2963  05B7  00AC               	movwf	(___aldiv@quotient+1)^(0+128)
  2964  05B8  3000               	movlw	0
  2965  05B9  00AB               	movwf	___aldiv@quotient^(0+128)
  2966  05BA  0823               	movf	(___aldiv@divisor+3)^(0+128),w
  2967  05BB  0422               	iorwf	(___aldiv@divisor+2)^(0+128),w
  2968  05BC  0421               	iorwf	(___aldiv@divisor+1)^(0+128),w
  2969  05BD  0420               	iorwf	___aldiv@divisor^(0+128),w
  2970  05BE  1903               	skipnz
  2971  05BF  2E07               	goto	l1789
  2972  05C0  01A9               	clrf	___aldiv@counter^(0+128)
  2973  05C1  0AA9               	incf	___aldiv@counter^(0+128),f
  2974  05C2                     l1775:	
  2975  05C2  1BA3               	btfsc	(___aldiv@divisor+3)^(0+128),7
  2976  05C3  2DD2               	goto	l1777
  2977  05C4  3001               	movlw	1
  2978  05C5  00A8               	movwf	??___aldiv^(0+128)
  2979  05C6                     u1405:	
  2980  05C6  1003               	clrc
  2981  05C7  0DA0               	rlf	___aldiv@divisor^(0+128),f
  2982  05C8  0DA1               	rlf	(___aldiv@divisor+1)^(0+128),f
  2983  05C9  0DA2               	rlf	(___aldiv@divisor+2)^(0+128),f
  2984  05CA  0DA3               	rlf	(___aldiv@divisor+3)^(0+128),f
  2985  05CB  0BA8               	decfsz	??___aldiv^(0+128),f
  2986  05CC  2DC6               	goto	u1405
  2987  05CD  3001               	movlw	1
  2988  05CE  00A8               	movwf	??___aldiv^(0+128)
  2989  05CF  0828               	movf	??___aldiv^(0+128),w
  2990  05D0  07A9               	addwf	___aldiv@counter^(0+128),f
  2991  05D1  2DC2               	goto	l1775
  2992  05D2                     l1777:	
  2993  05D2  3001               	movlw	1
  2994  05D3  00A8               	movwf	??___aldiv^(0+128)
  2995  05D4                     u1425:	
  2996  05D4  1003               	clrc
  2997  05D5  0DAB               	rlf	___aldiv@quotient^(0+128),f
  2998  05D6  0DAC               	rlf	(___aldiv@quotient+1)^(0+128),f
  2999  05D7  0DAD               	rlf	(___aldiv@quotient+2)^(0+128),f
  3000  05D8  0DAE               	rlf	(___aldiv@quotient+3)^(0+128),f
  3001  05D9  0BA8               	decfsz	??___aldiv^(0+128),f
  3002  05DA  2DD4               	goto	u1425
  3003  05DB  0823               	movf	(___aldiv@divisor+3)^(0+128),w
  3004  05DC  0227               	subwf	(___aldiv@dividend+3)^(0+128),w
  3005  05DD  1D03               	skipz
  3006  05DE  2DE9               	goto	u1435
  3007  05DF  0822               	movf	(___aldiv@divisor+2)^(0+128),w
  3008  05E0  0226               	subwf	(___aldiv@dividend+2)^(0+128),w
  3009  05E1  1D03               	skipz
  3010  05E2  2DE9               	goto	u1435
  3011  05E3  0821               	movf	(___aldiv@divisor+1)^(0+128),w
  3012  05E4  0225               	subwf	(___aldiv@dividend+1)^(0+128),w
  3013  05E5  1D03               	skipz
  3014  05E6  2DE9               	goto	u1435
  3015  05E7  0820               	movf	___aldiv@divisor^(0+128),w
  3016  05E8  0224               	subwf	___aldiv@dividend^(0+128),w
  3017  05E9                     u1435:	
  3018  05E9  1C03               	skipc
  3019  05EA  2DFA               	goto	l1785
  3020  05EB  0820               	movf	___aldiv@divisor^(0+128),w
  3021  05EC  02A4               	subwf	___aldiv@dividend^(0+128),f
  3022  05ED  0821               	movf	(___aldiv@divisor+1)^(0+128),w
  3023  05EE  1C03               	skipc
  3024  05EF  0F21               	incfsz	(___aldiv@divisor+1)^(0+128),w
  3025  05F0  02A5               	subwf	(___aldiv@dividend+1)^(0+128),f
  3026  05F1  0822               	movf	(___aldiv@divisor+2)^(0+128),w
  3027  05F2  1C03               	skipc
  3028  05F3  0F22               	incfsz	(___aldiv@divisor+2)^(0+128),w
  3029  05F4  02A6               	subwf	(___aldiv@dividend+2)^(0+128),f
  3030  05F5  0823               	movf	(___aldiv@divisor+3)^(0+128),w
  3031  05F6  1C03               	skipc
  3032  05F7  0F23               	incfsz	(___aldiv@divisor+3)^(0+128),w
  3033  05F8  02A7               	subwf	(___aldiv@dividend+3)^(0+128),f
  3034  05F9  142B               	bsf	___aldiv@quotient^(0+128),0
  3035  05FA                     l1785:	
  3036  05FA  3001               	movlw	1
  3037  05FB                     u1445:	
  3038  05FB  1003               	clrc
  3039  05FC  0CA3               	rrf	(___aldiv@divisor+3)^(0+128),f
  3040  05FD  0CA2               	rrf	(___aldiv@divisor+2)^(0+128),f
  3041  05FE  0CA1               	rrf	(___aldiv@divisor+1)^(0+128),f
  3042  05FF  0CA0               	rrf	___aldiv@divisor^(0+128),f
  3043  0600  3EFF               	addlw	-1
  3044  0601  1D03               	skipz
  3045  0602  2DFB               	goto	u1445
  3046  0603  3001               	movlw	1
  3047  0604  02A9               	subwf	___aldiv@counter^(0+128),f
  3048  0605  1D03               	btfss	3,2
  3049  0606  2DD2               	goto	l1777
  3050  0607                     l1789:	
  3051  0607  082A               	movf	___aldiv@sign^(0+128),w
  3052  0608  1903               	btfsc	3,2
  3053  0609  2E15               	goto	l1793
  3054  060A  09AB               	comf	___aldiv@quotient^(0+128),f
  3055  060B  09AC               	comf	(___aldiv@quotient+1)^(0+128),f
  3056  060C  09AD               	comf	(___aldiv@quotient+2)^(0+128),f
  3057  060D  09AE               	comf	(___aldiv@quotient+3)^(0+128),f
  3058  060E  0AAB               	incf	___aldiv@quotient^(0+128),f
  3059  060F  1903               	skipnz
  3060  0610  0AAC               	incf	(___aldiv@quotient+1)^(0+128),f
  3061  0611  1903               	skipnz
  3062  0612  0AAD               	incf	(___aldiv@quotient+2)^(0+128),f
  3063  0613  1903               	skipnz
  3064  0614  0AAE               	incf	(___aldiv@quotient+3)^(0+128),f
  3065  0615                     l1793:	
  3066  0615  082E               	movf	(___aldiv@quotient+3)^(0+128),w
  3067  0616  00A3               	movwf	(?___aldiv+3)^(0+128)
  3068  0617  082D               	movf	(___aldiv@quotient+2)^(0+128),w
  3069  0618  00A2               	movwf	(?___aldiv+2)^(0+128)
  3070  0619  082C               	movf	(___aldiv@quotient+1)^(0+128),w
  3071  061A  00A1               	movwf	(?___aldiv+1)^(0+128)
  3072  061B  082B               	movf	___aldiv@quotient^(0+128),w
  3073  061C  00A0               	movwf	?___aldiv^(0+128)
  3074  061D  0008               	return
  3075  061E                     __end_of___aldiv:	
  3076                           
  3077                           	psect	text10
  3078  0DFF                     __ptext10:	
  3079 ;; *************** function _TIMER0_Set *****************
  3080 ;; Defined at:
  3081 ;;		line 20 in file "C:\Users\332414\Documents\Fuzzy-IA2\Cdigo em C no MPLAB\timers.c"
  3082 ;; Parameters:    Size  Location     Type
  3083 ;;  contagens       1    wreg     unsigned char 
  3084 ;; Auto vars:     Size  Location     Type
  3085 ;;  contagens       1    0[BANK1 ] unsigned char 
  3086 ;; Return value:  Size  Location     Type
  3087 ;;		None               void
  3088 ;; Registers used:
  3089 ;;		wreg
  3090 ;; Tracked objects:
  3091 ;;		On entry : 0/0
  3092 ;;		On exit  : 0/0
  3093 ;;		Unchanged: 0/0
  3094 ;; Data sizes:     COMMON   BANK0   BANK1   BANK3   BANK2
  3095 ;;      Params:         0       0       0       0       0
  3096 ;;      Locals:         0       0       1       0       0
  3097 ;;      Temps:          0       0       0       0       0
  3098 ;;      Totals:         0       0       1       0       0
  3099 ;;Total ram usage:        1 bytes
  3100 ;; Hardware stack levels used:    1
  3101 ;; Hardware stack levels required when called:    3
  3102 ;; This function calls:
  3103 ;;		Nothing
  3104 ;; This function is called by:
  3105 ;;		_main
  3106 ;; This function uses a non-reentrant model
  3107 ;;
  3108                           
  3109                           
  3110                           ;psect for function _TIMER0_Set
  3111  0DFF                     _TIMER0_Set:	
  3112                           
  3113                           ;incstack = 0
  3114                           ; Regs used in _TIMER0_Set: [wreg]
  3115                           ;TIMER0_Set@contagens stored from wreg
  3116  0DFF  1683               	bsf	3,5	;RP0=1, select bank1
  3117  0E00  1303               	bcf	3,6	;RP1=0, select bank1
  3118  0E01  00A0               	movwf	TIMER0_Set@contagens^(0+128)
  3119                           
  3120                           ;timers.c: 22: TMR0 = contagens;
  3121  0E02  0820               	movf	TIMER0_Set@contagens^(0+128),w
  3122  0E03  1283               	bcf	3,5	;RP0=0, select bank0
  3123  0E04  1303               	bcf	3,6	;RP1=0, select bank0
  3124  0E05  0081               	movwf	1	;volatile
  3125  0E06  0008               	return
  3126  0E07                     __end_of_TIMER0_Set:	
  3127                           
  3128                           	psect	text11
  3129  0E0F                     __ptext11:	
  3130 ;; *************** function _TIMER0_Init *****************
  3131 ;; Defined at:
  3132 ;;		line 6 in file "C:\Users\332414\Documents\Fuzzy-IA2\Cdigo em C no MPLAB\timers.c"
  3133 ;; Parameters:    Size  Location     Type
  3134 ;;		None
  3135 ;; Auto vars:     Size  Location     Type
  3136 ;;		None
  3137 ;; Return value:  Size  Location     Type
  3138 ;;		None               void
  3139 ;; Registers used:
  3140 ;;		None
  3141 ;; Tracked objects:
  3142 ;;		On entry : 0/0
  3143 ;;		On exit  : 0/0
  3144 ;;		Unchanged: 0/0
  3145 ;; Data sizes:     COMMON   BANK0   BANK1   BANK3   BANK2
  3146 ;;      Params:         0       0       0       0       0
  3147 ;;      Locals:         0       0       0       0       0
  3148 ;;      Temps:          0       0       0       0       0
  3149 ;;      Totals:         0       0       0       0       0
  3150 ;;Total ram usage:        0 bytes
  3151 ;; Hardware stack levels used:    1
  3152 ;; Hardware stack levels required when called:    3
  3153 ;; This function calls:
  3154 ;;		Nothing
  3155 ;; This function is called by:
  3156 ;;		_main
  3157 ;; This function uses a non-reentrant model
  3158 ;;
  3159                           
  3160                           
  3161                           ;psect for function _TIMER0_Init
  3162  0E0F                     _TIMER0_Init:	
  3163                           
  3164                           ;timers.c: 8: OPTION_REGbits.T0CS = 0;
  3165                           
  3166                           ;incstack = 0
  3167                           ; Regs used in _TIMER0_Init: []
  3168  0E0F  1683               	bsf	3,5	;RP0=1, select bank1
  3169  0E10  1303               	bcf	3,6	;RP1=0, select bank1
  3170  0E11  1281               	bcf	1,5	;volatile
  3171                           
  3172                           ;timers.c: 9: OPTION_REGbits.T0SE = 0;
  3173  0E12  1201               	bcf	1,4	;volatile
  3174                           
  3175                           ;timers.c: 10: OPTION_REGbits.PSA = 0;
  3176  0E13  1181               	bcf	1,3	;volatile
  3177                           
  3178                           ;timers.c: 11: OPTION_REGbits.PS2 = 1;
  3179  0E14  1501               	bsf	1,2	;volatile
  3180                           
  3181                           ;timers.c: 12: OPTION_REGbits.PS1 = 1;
  3182  0E15  1481               	bsf	1,1	;volatile
  3183                           
  3184                           ;timers.c: 13: OPTION_REGbits.PS0 = 1;
  3185  0E16  1401               	bsf	1,0	;volatile
  3186                           
  3187                           ;timers.c: 14: INTCONbits.TMR0IF = 0;
  3188  0E17  110B               	bcf	11,2	;volatile
  3189                           
  3190                           ;timers.c: 15: INTCONbits.TMR0IE = 1;
  3191  0E18  168B               	bsf	11,5	;volatile
  3192  0E19  0008               	return
  3193  0E1A                     __end_of_TIMER0_Init:	
  3194                           
  3195                           	psect	text12
  3196  0EB6                     __ptext12:	
  3197 ;; *************** function _PWM_Init *****************
  3198 ;; Defined at:
  3199 ;;		line 5 in file "C:\Users\332414\Documents\Fuzzy-IA2\Cdigo em C no MPLAB\pwm.c"
  3200 ;; Parameters:    Size  Location     Type
  3201 ;;		None
  3202 ;; Auto vars:     Size  Location     Type
  3203 ;;		None
  3204 ;; Return value:  Size  Location     Type
  3205 ;;		None               void
  3206 ;; Registers used:
  3207 ;;		wreg
  3208 ;; Tracked objects:
  3209 ;;		On entry : 0/0
  3210 ;;		On exit  : 0/0
  3211 ;;		Unchanged: 0/0
  3212 ;; Data sizes:     COMMON   BANK0   BANK1   BANK3   BANK2
  3213 ;;      Params:         0       0       0       0       0
  3214 ;;      Locals:         0       0       0       0       0
  3215 ;;      Temps:          0       0       0       0       0
  3216 ;;      Totals:         0       0       0       0       0
  3217 ;;Total ram usage:        0 bytes
  3218 ;; Hardware stack levels used:    1
  3219 ;; Hardware stack levels required when called:    3
  3220 ;; This function calls:
  3221 ;;		Nothing
  3222 ;; This function is called by:
  3223 ;;		_main
  3224 ;; This function uses a non-reentrant model
  3225 ;;
  3226                           
  3227                           
  3228                           ;psect for function _PWM_Init
  3229  0EB6                     _PWM_Init:	
  3230                           
  3231                           ;pwm.c: 14: T2CONbits.T2CKPS1 = 1;
  3232                           
  3233                           ;incstack = 0
  3234                           ; Regs used in _PWM_Init: [wreg]
  3235  0EB6  1283               	bcf	3,5	;RP0=0, select bank0
  3236  0EB7  1303               	bcf	3,6	;RP1=0, select bank0
  3237  0EB8  1492               	bsf	18,1	;volatile
  3238                           
  3239                           ;pwm.c: 15: T2CONbits.T2CKPS0 = 0;
  3240  0EB9  1012               	bcf	18,0	;volatile
  3241                           
  3242                           ;pwm.c: 18: T2CONbits.TOUTPS3 = 0;
  3243  0EBA  1312               	bcf	18,6	;volatile
  3244                           
  3245                           ;pwm.c: 19: T2CONbits.TOUTPS2 = 0;
  3246  0EBB  1292               	bcf	18,5	;volatile
  3247                           
  3248                           ;pwm.c: 20: T2CONbits.TOUTPS1 = 0;
  3249  0EBC  1212               	bcf	18,4	;volatile
  3250                           
  3251                           ;pwm.c: 21: T2CONbits.TOUTPS0 = 0;
  3252  0EBD  1192               	bcf	18,3	;volatile
  3253                           
  3254                           ;pwm.c: 24: T2CONbits.TMR2ON = 1;
  3255  0EBE  1512               	bsf	18,2	;volatile
  3256                           
  3257                           ;pwm.c: 27: PR2 = 255;
  3258  0EBF  30FF               	movlw	255
  3259  0EC0  1683               	bsf	3,5	;RP0=1, select bank1
  3260  0EC1  1303               	bcf	3,6	;RP1=0, select bank1
  3261  0EC2  0092               	movwf	18	;volatile
  3262                           
  3263                           ;pwm.c: 43: CCP1CONbits.CCP1M3 = 1;
  3264  0EC3  1283               	bcf	3,5	;RP0=0, select bank0
  3265  0EC4  1303               	bcf	3,6	;RP1=0, select bank0
  3266  0EC5  1597               	bsf	23,3	;volatile
  3267                           
  3268                           ;pwm.c: 44: CCP1CONbits.CCP1M2 = 1;
  3269  0EC6  1517               	bsf	23,2	;volatile
  3270                           
  3271                           ;pwm.c: 45: CCP1CONbits.CCP1M1 = 1;
  3272  0EC7  1497               	bsf	23,1	;volatile
  3273                           
  3274                           ;pwm.c: 46: CCP1CONbits.CCP1M0 = 1;
  3275  0EC8  1417               	bsf	23,0	;volatile
  3276                           
  3277                           ;pwm.c: 49: PIE1bits.CCP1IE = 1;
  3278  0EC9  1683               	bsf	3,5	;RP0=1, select bank1
  3279  0ECA  1303               	bcf	3,6	;RP1=0, select bank1
  3280  0ECB  150C               	bsf	12,2	;volatile
  3281                           
  3282                           ;pwm.c: 50: PIR1bits.CCP1IF = 0;
  3283  0ECC  1283               	bcf	3,5	;RP0=0, select bank0
  3284  0ECD  1303               	bcf	3,6	;RP1=0, select bank0
  3285  0ECE  110C               	bcf	12,2	;volatile
  3286                           
  3287                           ;pwm.c: 53: CCP2CONbits.CCP2M3 = 1;
  3288  0ECF  159D               	bsf	29,3	;volatile
  3289                           
  3290                           ;pwm.c: 54: CCP2CONbits.CCP2M2 = 1;
  3291  0ED0  151D               	bsf	29,2	;volatile
  3292                           
  3293                           ;pwm.c: 55: CCP2CONbits.CCP2M1 = 1;
  3294  0ED1  149D               	bsf	29,1	;volatile
  3295                           
  3296                           ;pwm.c: 56: CCP2CONbits.CCP2M0 = 1;
  3297  0ED2  141D               	bsf	29,0	;volatile
  3298                           
  3299                           ;pwm.c: 59: PIE2bits.CCP2IE = 1;
  3300  0ED3  1683               	bsf	3,5	;RP0=1, select bank1
  3301  0ED4  1303               	bcf	3,6	;RP1=0, select bank1
  3302  0ED5  140D               	bsf	13,0	;volatile
  3303                           
  3304                           ;pwm.c: 60: PIR2bits.CCP2IF = 0;
  3305  0ED6  1283               	bcf	3,5	;RP0=0, select bank0
  3306  0ED7  1303               	bcf	3,6	;RP1=0, select bank0
  3307  0ED8  100D               	bcf	13,0	;volatile
  3308  0ED9  0008               	return
  3309  0EDA                     __end_of_PWM_Init:	
  3310                           
  3311                           	psect	text13
  3312  0E95                     __ptext13:	
  3313 ;; *************** function _PWM_DutyCycle2 *****************
  3314 ;; Defined at:
  3315 ;;		line 96 in file "C:\Users\332414\Documents\Fuzzy-IA2\Cdigo em C no MPLAB\pwm.c"
  3316 ;; Parameters:    Size  Location     Type
  3317 ;;  valor           2    0[BANK1 ] int 
  3318 ;; Auto vars:     Size  Location     Type
  3319 ;;		None
  3320 ;; Return value:  Size  Location     Type
  3321 ;;		None               void
  3322 ;; Registers used:
  3323 ;;		wreg, status,2, status,0
  3324 ;; Tracked objects:
  3325 ;;		On entry : 0/0
  3326 ;;		On exit  : 0/0
  3327 ;;		Unchanged: 0/0
  3328 ;; Data sizes:     COMMON   BANK0   BANK1   BANK3   BANK2
  3329 ;;      Params:         0       0       2       0       0
  3330 ;;      Locals:         0       0       0       0       0
  3331 ;;      Temps:          0       0       2       0       0
  3332 ;;      Totals:         0       0       4       0       0
  3333 ;;Total ram usage:        4 bytes
  3334 ;; Hardware stack levels used:    1
  3335 ;; Hardware stack levels required when called:    3
  3336 ;; This function calls:
  3337 ;;		Nothing
  3338 ;; This function is called by:
  3339 ;;		_main
  3340 ;; This function uses a non-reentrant model
  3341 ;;
  3342                           
  3343                           
  3344                           ;psect for function _PWM_DutyCycle2
  3345  0E95                     _PWM_DutyCycle2:	
  3346                           
  3347                           ;pwm.c: 98: CCPR2L = valor >> 2;
  3348                           
  3349                           ;incstack = 0
  3350                           ; Regs used in _PWM_DutyCycle2: [wreg+status,2+status,0]
  3351  0E95  1683               	bsf	3,5	;RP0=1, select bank1
  3352  0E96  1303               	bcf	3,6	;RP1=0, select bank1
  3353  0E97  0821               	movf	(PWM_DutyCycle2@valor+1)^(0+128),w
  3354  0E98  00A3               	movwf	(??_PWM_DutyCycle2^(0+128)+1)
  3355  0E99  0820               	movf	PWM_DutyCycle2@valor^(0+128),w
  3356  0E9A  00A2               	movwf	??_PWM_DutyCycle2^(0+128)
  3357  0E9B  0D23               	rlf	(??_PWM_DutyCycle2^(0+128)+1),w
  3358  0E9C  0CA3               	rrf	(??_PWM_DutyCycle2^(0+128)+1),f
  3359  0E9D  0CA2               	rrf	??_PWM_DutyCycle2^(0+128),f
  3360  0E9E  0D23               	rlf	(??_PWM_DutyCycle2^(0+128)+1),w
  3361  0E9F  0CA3               	rrf	(??_PWM_DutyCycle2^(0+128)+1),f
  3362  0EA0  0CA2               	rrf	??_PWM_DutyCycle2^(0+128),f
  3363  0EA1  0822               	movf	??_PWM_DutyCycle2^(0+128),w
  3364  0EA2  1283               	bcf	3,5	;RP0=0, select bank0
  3365  0EA3  1303               	bcf	3,6	;RP1=0, select bank0
  3366  0EA4  009B               	movwf	27	;volatile
  3367                           
  3368                           ;pwm.c: 99: CCP2CON = (valor << 4)|0X0C;
  3369  0EA5  1683               	bsf	3,5	;RP0=1, select bank1
  3370  0EA6  1303               	bcf	3,6	;RP1=0, select bank1
  3371  0EA7  0820               	movf	PWM_DutyCycle2@valor^(0+128),w
  3372  0EA8  00A2               	movwf	??_PWM_DutyCycle2^(0+128)
  3373  0EA9  3003               	movlw	3
  3374  0EAA                     u1655:	
  3375  0EAA  1003               	clrc
  3376  0EAB  0DA2               	rlf	??_PWM_DutyCycle2^(0+128),f
  3377  0EAC  3EFF               	addlw	-1
  3378  0EAD  1D03               	skipz
  3379  0EAE  2EAA               	goto	u1655
  3380  0EAF  1003               	clrc
  3381  0EB0  0D22               	rlf	??_PWM_DutyCycle2^(0+128),w
  3382  0EB1  380C               	iorlw	12
  3383  0EB2  1283               	bcf	3,5	;RP0=0, select bank0
  3384  0EB3  1303               	bcf	3,6	;RP1=0, select bank0
  3385  0EB4  009D               	movwf	29	;volatile
  3386  0EB5  0008               	return
  3387  0EB6                     __end_of_PWM_DutyCycle2:	
  3388                           
  3389                           	psect	text14
  3390  0E74                     __ptext14:	
  3391 ;; *************** function _PWM_DutyCycle1 *****************
  3392 ;; Defined at:
  3393 ;;		line 64 in file "C:\Users\332414\Documents\Fuzzy-IA2\Cdigo em C no MPLAB\pwm.c"
  3394 ;; Parameters:    Size  Location     Type
  3395 ;;  valor           2    0[BANK1 ] int 
  3396 ;; Auto vars:     Size  Location     Type
  3397 ;;		None
  3398 ;; Return value:  Size  Location     Type
  3399 ;;		None               void
  3400 ;; Registers used:
  3401 ;;		wreg, status,2, status,0
  3402 ;; Tracked objects:
  3403 ;;		On entry : 0/0
  3404 ;;		On exit  : 0/0
  3405 ;;		Unchanged: 0/0
  3406 ;; Data sizes:     COMMON   BANK0   BANK1   BANK3   BANK2
  3407 ;;      Params:         0       0       2       0       0
  3408 ;;      Locals:         0       0       0       0       0
  3409 ;;      Temps:          0       0       2       0       0
  3410 ;;      Totals:         0       0       4       0       0
  3411 ;;Total ram usage:        4 bytes
  3412 ;; Hardware stack levels used:    1
  3413 ;; Hardware stack levels required when called:    3
  3414 ;; This function calls:
  3415 ;;		Nothing
  3416 ;; This function is called by:
  3417 ;;		_main
  3418 ;; This function uses a non-reentrant model
  3419 ;;
  3420                           
  3421                           
  3422                           ;psect for function _PWM_DutyCycle1
  3423  0E74                     _PWM_DutyCycle1:	
  3424                           
  3425                           ;pwm.c: 91: CCPR1L = valor >> 2;
  3426                           
  3427                           ;incstack = 0
  3428                           ; Regs used in _PWM_DutyCycle1: [wreg+status,2+status,0]
  3429  0E74  1683               	bsf	3,5	;RP0=1, select bank1
  3430  0E75  1303               	bcf	3,6	;RP1=0, select bank1
  3431  0E76  0821               	movf	(PWM_DutyCycle1@valor+1)^(0+128),w
  3432  0E77  00A3               	movwf	(??_PWM_DutyCycle1^(0+128)+1)
  3433  0E78  0820               	movf	PWM_DutyCycle1@valor^(0+128),w
  3434  0E79  00A2               	movwf	??_PWM_DutyCycle1^(0+128)
  3435  0E7A  0D23               	rlf	(??_PWM_DutyCycle1^(0+128)+1),w
  3436  0E7B  0CA3               	rrf	(??_PWM_DutyCycle1^(0+128)+1),f
  3437  0E7C  0CA2               	rrf	??_PWM_DutyCycle1^(0+128),f
  3438  0E7D  0D23               	rlf	(??_PWM_DutyCycle1^(0+128)+1),w
  3439  0E7E  0CA3               	rrf	(??_PWM_DutyCycle1^(0+128)+1),f
  3440  0E7F  0CA2               	rrf	??_PWM_DutyCycle1^(0+128),f
  3441  0E80  0822               	movf	??_PWM_DutyCycle1^(0+128),w
  3442  0E81  1283               	bcf	3,5	;RP0=0, select bank0
  3443  0E82  1303               	bcf	3,6	;RP1=0, select bank0
  3444  0E83  0095               	movwf	21	;volatile
  3445                           
  3446                           ;pwm.c: 92: CCP1CON = (valor << 4)|0X0C;
  3447  0E84  1683               	bsf	3,5	;RP0=1, select bank1
  3448  0E85  1303               	bcf	3,6	;RP1=0, select bank1
  3449  0E86  0820               	movf	PWM_DutyCycle1@valor^(0+128),w
  3450  0E87  00A2               	movwf	??_PWM_DutyCycle1^(0+128)
  3451  0E88  3003               	movlw	3
  3452  0E89                     u1645:	
  3453  0E89  1003               	clrc
  3454  0E8A  0DA2               	rlf	??_PWM_DutyCycle1^(0+128),f
  3455  0E8B  3EFF               	addlw	-1
  3456  0E8C  1D03               	skipz
  3457  0E8D  2E89               	goto	u1645
  3458  0E8E  1003               	clrc
  3459  0E8F  0D22               	rlf	??_PWM_DutyCycle1^(0+128),w
  3460  0E90  380C               	iorlw	12
  3461  0E91  1283               	bcf	3,5	;RP0=0, select bank0
  3462  0E92  1303               	bcf	3,6	;RP1=0, select bank0
  3463  0E93  0097               	movwf	23	;volatile
  3464  0E94  0008               	return
  3465  0E95                     __end_of_PWM_DutyCycle1:	
  3466                           
  3467                           	psect	text15
  3468  0F28                     __ptext15:	
  3469 ;; *************** function _LCD_WriteString *****************
  3470 ;; Defined at:
  3471 ;;		line 61 in file "C:\Users\332414\Documents\Fuzzy-IA2\Cdigo em C no MPLAB\lcd.c"
  3472 ;; Parameters:    Size  Location     Type
  3473 ;;  Str             2    2[BANK1 ] PTR const unsigned char 
  3474 ;;		 -> STR_6(6), display(10), STR_3(17), 
  3475 ;; Auto vars:     Size  Location     Type
  3476 ;;		None
  3477 ;; Return value:  Size  Location     Type
  3478 ;;		None               void
  3479 ;; Registers used:
  3480 ;;		wreg, fsr0l, fsr0h, status,2, status,0, btemp+1, pclath, cstack
  3481 ;; Tracked objects:
  3482 ;;		On entry : 0/0
  3483 ;;		On exit  : 0/0
  3484 ;;		Unchanged: 0/0
  3485 ;; Data sizes:     COMMON   BANK0   BANK1   BANK3   BANK2
  3486 ;;      Params:         0       0       2       0       0
  3487 ;;      Locals:         0       0       0       0       0
  3488 ;;      Temps:          0       0       0       0       0
  3489 ;;      Totals:         0       0       2       0       0
  3490 ;;Total ram usage:        2 bytes
  3491 ;; Hardware stack levels used:    1
  3492 ;; Hardware stack levels required when called:    4
  3493 ;; This function calls:
  3494 ;;		_LCD_WriteData
  3495 ;; This function is called by:
  3496 ;;		_main
  3497 ;; This function uses a non-reentrant model
  3498 ;;
  3499                           
  3500                           
  3501                           ;psect for function _LCD_WriteString
  3502  0F28                     _LCD_WriteString:	
  3503  0F28                     l1971:	
  3504                           ;lcd.c: 63: while(*Str != '\0')
  3505                           
  3506                           ;incstack = 0
  3507                           ; Regs used in _LCD_WriteString: [wreg-fsr0h+status,2+status,0+btemp+1+pclath+cstack]
  3508                           
  3509  0F28  1683               	bsf	3,5	;RP0=1, select bank1
  3510  0F29  1303               	bcf	3,6	;RP1=0, select bank1
  3511  0F2A  0823               	movf	(LCD_WriteString@Str+1)^(0+128),w
  3512  0F2B  1283               	bcf	3,5	;RP0=0, select bank0
  3513  0F2C  1303               	bcf	3,6	;RP1=0, select bank0
  3514  0F2D  00FF               	movwf	127
  3515  0F2E  1683               	bsf	3,5	;RP0=1, select bank1
  3516  0F2F  1303               	bcf	3,6	;RP1=0, select bank1
  3517  0F30  0822               	movf	LCD_WriteString@Str^(0+128),w
  3518  0F31  0084               	movwf	4
  3519  0F32  1283               	bcf	3,5	;RP0=0, select bank0
  3520  0F33  1303               	bcf	3,6	;RP1=0, select bank0
  3521  0F34  120A  118A  2500  120A  158A  	fcall	stringtab
  3522  0F39  3800               	iorlw	0
  3523  0F3A  1903               	btfsc	3,2
  3524  0F3B  0008               	return
  3525                           
  3526                           ;lcd.c: 64: {
  3527                           ;lcd.c: 65: LCD_WriteData(*Str);
  3528  0F3C  1683               	bsf	3,5	;RP0=1, select bank1
  3529  0F3D  1303               	bcf	3,6	;RP1=0, select bank1
  3530  0F3E  0823               	movf	(LCD_WriteString@Str+1)^(0+128),w
  3531  0F3F  1283               	bcf	3,5	;RP0=0, select bank0
  3532  0F40  1303               	bcf	3,6	;RP1=0, select bank0
  3533  0F41  00FF               	movwf	127
  3534  0F42  1683               	bsf	3,5	;RP0=1, select bank1
  3535  0F43  1303               	bcf	3,6	;RP1=0, select bank1
  3536  0F44  0822               	movf	LCD_WriteString@Str^(0+128),w
  3537  0F45  0084               	movwf	4
  3538  0F46  1283               	bcf	3,5	;RP0=0, select bank0
  3539  0F47  1303               	bcf	3,6	;RP1=0, select bank0
  3540  0F48  120A  118A  2500  120A  158A  	fcall	stringtab
  3541  0F4D  120A  118A  27E6  120A  158A  	fcall	_LCD_WriteData
  3542                           
  3543                           ;lcd.c: 66: Str++;
  3544  0F52  3001               	movlw	1
  3545  0F53  1683               	bsf	3,5	;RP0=1, select bank1
  3546  0F54  1303               	bcf	3,6	;RP1=0, select bank1
  3547  0F55  07A2               	addwf	LCD_WriteString@Str^(0+128),f
  3548  0F56  1803               	skipnc
  3549  0F57  0AA3               	incf	(LCD_WriteString@Str+1)^(0+128),f
  3550  0F58  2F28               	goto	l1971
  3551  0F59                     __end_of_LCD_WriteString:	
  3552                           
  3553                           	psect	text16
  3554  07E6                     __ptext16:	
  3555 ;; *************** function _LCD_WriteData *****************
  3556 ;; Defined at:
  3557 ;;		line 47 in file "C:\Users\332414\Documents\Fuzzy-IA2\Cdigo em C no MPLAB\lcd.c"
  3558 ;; Parameters:    Size  Location     Type
  3559 ;;  Byte            1    wreg     unsigned char 
  3560 ;; Auto vars:     Size  Location     Type
  3561 ;;  Byte            1    1[BANK1 ] unsigned char 
  3562 ;; Return value:  Size  Location     Type
  3563 ;;		None               void
  3564 ;; Registers used:
  3565 ;;		wreg
  3566 ;; Tracked objects:
  3567 ;;		On entry : 0/0
  3568 ;;		On exit  : 0/0
  3569 ;;		Unchanged: 0/0
  3570 ;; Data sizes:     COMMON   BANK0   BANK1   BANK3   BANK2
  3571 ;;      Params:         0       0       0       0       0
  3572 ;;      Locals:         0       0       1       0       0
  3573 ;;      Temps:          0       0       1       0       0
  3574 ;;      Totals:         0       0       2       0       0
  3575 ;;Total ram usage:        2 bytes
  3576 ;; Hardware stack levels used:    1
  3577 ;; Hardware stack levels required when called:    3
  3578 ;; This function calls:
  3579 ;;		Nothing
  3580 ;; This function is called by:
  3581 ;;		_LCD_WriteString
  3582 ;; This function uses a non-reentrant model
  3583 ;;
  3584                           
  3585                           
  3586                           ;psect for function _LCD_WriteData
  3587  07E6                     _LCD_WriteData:	
  3588                           
  3589                           ;incstack = 0
  3590                           ; Regs used in _LCD_WriteData: [wreg]
  3591                           ;LCD_WriteData@Byte stored from wreg
  3592  07E6  1683               	bsf	3,5	;RP0=1, select bank1
  3593  07E7  1303               	bcf	3,6	;RP1=0, select bank1
  3594  07E8  00A1               	movwf	LCD_WriteData@Byte^(0+128)
  3595                           
  3596                           ;lcd.c: 49: PORTEbits.RE0 = 1;
  3597  07E9  1283               	bcf	3,5	;RP0=0, select bank0
  3598  07EA  1303               	bcf	3,6	;RP1=0, select bank0
  3599  07EB  1409               	bsf	9,0	;volatile
  3600                           
  3601                           ;lcd.c: 51: PORTD = Byte;
  3602  07EC  1683               	bsf	3,5	;RP0=1, select bank1
  3603  07ED  1303               	bcf	3,6	;RP1=0, select bank1
  3604  07EE  0821               	movf	LCD_WriteData@Byte^(0+128),w
  3605  07EF  1283               	bcf	3,5	;RP0=0, select bank0
  3606  07F0  1303               	bcf	3,6	;RP1=0, select bank0
  3607  07F1  0088               	movwf	8	;volatile
  3608                           
  3609                           ;lcd.c: 53: PORTEbits.RE1 = 1;
  3610  07F2  1489               	bsf	9,1	;volatile
  3611                           
  3612                           ;lcd.c: 55: _delay((unsigned long)((40)*(18432000/4000000.0)));
  3613  07F3  303D               	movlw	61
  3614  07F4  1683               	bsf	3,5	;RP0=1, select bank1
  3615  07F5  1303               	bcf	3,6	;RP1=0, select bank1
  3616  07F6  00A0               	movwf	??_LCD_WriteData^(0+128)
  3617  07F7                     u2267:	
  3618  07F7  0BA0               	decfsz	??_LCD_WriteData^(0+128),f
  3619  07F8  2FF7               	goto	u2267
  3620                           
  3621                           ;lcd.c: 57: PORTEbits.RE1 = 0;
  3622  07F9  1283               	bcf	3,5	;RP0=0, select bank0
  3623  07FA  1303               	bcf	3,6	;RP1=0, select bank0
  3624  07FB  1089               	bcf	9,1	;volatile
  3625  07FC  0008               	return
  3626  07FD                     __end_of_LCD_WriteData:	
  3627                           
  3628                           	psect	text17
  3629  0732                     __ptext17:	
  3630 ;; *************** function _LCD_Init *****************
  3631 ;; Defined at:
  3632 ;;		line 87 in file "C:\Users\332414\Documents\Fuzzy-IA2\Cdigo em C no MPLAB\lcd.c"
  3633 ;; Parameters:    Size  Location     Type
  3634 ;;		None
  3635 ;; Auto vars:     Size  Location     Type
  3636 ;;		None
  3637 ;; Return value:  Size  Location     Type
  3638 ;;		None               void
  3639 ;; Registers used:
  3640 ;;		wreg, status,2, status,0, pclath, cstack
  3641 ;; Tracked objects:
  3642 ;;		On entry : 0/0
  3643 ;;		On exit  : 0/0
  3644 ;;		Unchanged: 0/0
  3645 ;; Data sizes:     COMMON   BANK0   BANK1   BANK3   BANK2
  3646 ;;      Params:         0       0       0       0       0
  3647 ;;      Locals:         0       0       0       0       0
  3648 ;;      Temps:          0       0       2       0       0
  3649 ;;      Totals:         0       0       2       0       0
  3650 ;;Total ram usage:        2 bytes
  3651 ;; Hardware stack levels used:    1
  3652 ;; Hardware stack levels required when called:    4
  3653 ;; This function calls:
  3654 ;;		_LCD_WriteCmd
  3655 ;; This function is called by:
  3656 ;;		_main
  3657 ;; This function uses a non-reentrant model
  3658 ;;
  3659                           
  3660                           
  3661                           ;psect for function _LCD_Init
  3662  0732                     _LCD_Init:	
  3663                           
  3664                           ;lcd.c: 90: ADCON1bits.PCFG3 = 0;
  3665                           
  3666                           ;incstack = 0
  3667                           ; Regs used in _LCD_Init: [wreg+status,2+status,0+pclath+cstack]
  3668  0732  1683               	bsf	3,5	;RP0=1, select bank1
  3669  0733  1303               	bcf	3,6	;RP1=0, select bank1
  3670  0734  119F               	bcf	31,3	;volatile
  3671                           
  3672                           ;lcd.c: 91: ADCON1bits.PCFG2 = 1;
  3673  0735  151F               	bsf	31,2	;volatile
  3674                           
  3675                           ;lcd.c: 92: ADCON1bits.PCFG1 = 0;
  3676  0736  109F               	bcf	31,1	;volatile
  3677                           
  3678                           ;lcd.c: 93: ADCON1bits.PCFG0 = 0;
  3679  0737  101F               	bcf	31,0	;volatile
  3680                           
  3681                           ;lcd.c: 95: _delay((unsigned long)((15)*(18432000/4000.0)));
  3682  0738  305A               	movlw	90
  3683  0739  00A3               	movwf	(??_LCD_Init^(0+128)+1)
  3684  073A  30C3               	movlw	195
  3685  073B  00A2               	movwf	??_LCD_Init^(0+128)
  3686  073C                     u2277:	
  3687  073C  0BA2               	decfsz	??_LCD_Init^(0+128),f
  3688  073D  2F3C               	goto	u2277
  3689  073E  0BA3               	decfsz	(??_LCD_Init^(0+128)+1),f
  3690  073F  2F3C               	goto	u2277
  3691                           
  3692                           ;lcd.c: 97: LCD_WriteCmd(0x30);
  3693  0740  3030               	movlw	48
  3694  0741  120A  158A  265D  120A  118A  	fcall	_LCD_WriteCmd
  3695                           
  3696                           ;lcd.c: 98: _delay((unsigned long)((4)*(18432000/4000.0)));
  3697  0746  3018               	movlw	24
  3698  0747  1683               	bsf	3,5	;RP0=1, select bank1
  3699  0748  1303               	bcf	3,6	;RP1=0, select bank1
  3700  0749  00A3               	movwf	(??_LCD_Init^(0+128)+1)
  3701  074A  30EF               	movlw	239
  3702  074B  00A2               	movwf	??_LCD_Init^(0+128)
  3703  074C                     u2287:	
  3704  074C  0BA2               	decfsz	??_LCD_Init^(0+128),f
  3705  074D  2F4C               	goto	u2287
  3706  074E  0BA3               	decfsz	(??_LCD_Init^(0+128)+1),f
  3707  074F  2F4C               	goto	u2287
  3708                           
  3709                           ;lcd.c: 100: LCD_WriteCmd(0x30);
  3710  0750  3030               	movlw	48
  3711  0751  120A  158A  265D  120A  118A  	fcall	_LCD_WriteCmd
  3712                           
  3713                           ;lcd.c: 101: _delay((unsigned long)((100)*(18432000/4000000.0)));
  3714  0756  3099               	movlw	153
  3715  0757  1683               	bsf	3,5	;RP0=1, select bank1
  3716  0758  1303               	bcf	3,6	;RP1=0, select bank1
  3717  0759  00A2               	movwf	??_LCD_Init^(0+128)
  3718  075A                     u2297:	
  3719  075A  0BA2               	decfsz	??_LCD_Init^(0+128),f
  3720  075B  2F5A               	goto	u2297
  3721                           
  3722                           ;lcd.c: 103: LCD_WriteCmd(0x30);
  3723  075C  3030               	movlw	48
  3724  075D  120A  158A  265D  120A  118A  	fcall	_LCD_WriteCmd
  3725                           
  3726                           ;lcd.c: 104: _delay((unsigned long)((40)*(18432000/4000000.0)));
  3727  0762  303D               	movlw	61
  3728  0763  1683               	bsf	3,5	;RP0=1, select bank1
  3729  0764  1303               	bcf	3,6	;RP1=0, select bank1
  3730  0765  00A2               	movwf	??_LCD_Init^(0+128)
  3731  0766                     u2307:	
  3732  0766  0BA2               	decfsz	??_LCD_Init^(0+128),f
  3733  0767  2F66               	goto	u2307
  3734                           
  3735                           ;lcd.c: 106: LCD_WriteCmd(0x38);
  3736  0768  3038               	movlw	56
  3737  0769  120A  158A  265D  120A  118A  	fcall	_LCD_WriteCmd
  3738                           
  3739                           ;lcd.c: 107: _delay((unsigned long)((40)*(18432000/4000000.0)));
  3740  076E  303D               	movlw	61
  3741  076F  1683               	bsf	3,5	;RP0=1, select bank1
  3742  0770  1303               	bcf	3,6	;RP1=0, select bank1
  3743  0771  00A2               	movwf	??_LCD_Init^(0+128)
  3744  0772                     u2317:	
  3745  0772  0BA2               	decfsz	??_LCD_Init^(0+128),f
  3746  0773  2F72               	goto	u2317
  3747                           
  3748                           ;lcd.c: 109: LCD_WriteCmd(0x01);
  3749  0774  3001               	movlw	1
  3750  0775  120A  158A  265D  120A  118A  	fcall	_LCD_WriteCmd
  3751                           
  3752                           ;lcd.c: 110: _delay((unsigned long)((2)*(18432000/4000.0)));
  3753  077A  300C               	movlw	12
  3754  077B  1683               	bsf	3,5	;RP0=1, select bank1
  3755  077C  1303               	bcf	3,6	;RP1=0, select bank1
  3756  077D  00A3               	movwf	(??_LCD_Init^(0+128)+1)
  3757  077E  30F7               	movlw	247
  3758  077F  00A2               	movwf	??_LCD_Init^(0+128)
  3759  0780                     u2327:	
  3760  0780  0BA2               	decfsz	??_LCD_Init^(0+128),f
  3761  0781  2F80               	goto	u2327
  3762  0782  0BA3               	decfsz	(??_LCD_Init^(0+128)+1),f
  3763  0783  2F80               	goto	u2327
  3764                           
  3765                           ;lcd.c: 112: LCD_WriteCmd(0x0C);
  3766  0784  300C               	movlw	12
  3767  0785  120A  158A  265D  120A  118A  	fcall	_LCD_WriteCmd
  3768                           
  3769                           ;lcd.c: 113: _delay((unsigned long)((40)*(18432000/4000000.0)));
  3770  078A  303D               	movlw	61
  3771  078B  1683               	bsf	3,5	;RP0=1, select bank1
  3772  078C  1303               	bcf	3,6	;RP1=0, select bank1
  3773  078D  00A2               	movwf	??_LCD_Init^(0+128)
  3774  078E                     u2337:	
  3775  078E  0BA2               	decfsz	??_LCD_Init^(0+128),f
  3776  078F  2F8E               	goto	u2337
  3777                           
  3778                           ;lcd.c: 115: LCD_WriteCmd(0x06);
  3779  0790  3006               	movlw	6
  3780  0791  120A  158A  265D  120A  118A  	fcall	_LCD_WriteCmd
  3781                           
  3782                           ;lcd.c: 116: _delay((unsigned long)((40)*(18432000/4000000.0)));
  3783  0796  303D               	movlw	61
  3784  0797  1683               	bsf	3,5	;RP0=1, select bank1
  3785  0798  1303               	bcf	3,6	;RP1=0, select bank1
  3786  0799  00A2               	movwf	??_LCD_Init^(0+128)
  3787  079A                     u2347:	
  3788  079A  0BA2               	decfsz	??_LCD_Init^(0+128),f
  3789  079B  2F9A               	goto	u2347
  3790  079C  0008               	return
  3791  079D                     __end_of_LCD_Init:	
  3792                           
  3793                           	psect	text18
  3794  04E0                     __ptext18:	
  3795 ;; *************** function _LCD_Cursor *****************
  3796 ;; Defined at:
  3797 ;;		line 10 in file "C:\Users\332414\Documents\Fuzzy-IA2\Cdigo em C no MPLAB\lcd.c"
  3798 ;; Parameters:    Size  Location     Type
  3799 ;;  Row             1    wreg     unsigned char 
  3800 ;;  Col             1    0[BANK1 ] unsigned char 
  3801 ;; Auto vars:     Size  Location     Type
  3802 ;;  Row             1    2[BANK1 ] unsigned char 
  3803 ;; Return value:  Size  Location     Type
  3804 ;;		None               void
  3805 ;; Registers used:
  3806 ;;		wreg, status,2, status,0
  3807 ;; Tracked objects:
  3808 ;;		On entry : 0/0
  3809 ;;		On exit  : 0/0
  3810 ;;		Unchanged: 0/0
  3811 ;; Data sizes:     COMMON   BANK0   BANK1   BANK3   BANK2
  3812 ;;      Params:         0       0       1       0       0
  3813 ;;      Locals:         0       0       1       0       0
  3814 ;;      Temps:          0       0       1       0       0
  3815 ;;      Totals:         0       0       3       0       0
  3816 ;;Total ram usage:        3 bytes
  3817 ;; Hardware stack levels used:    1
  3818 ;; Hardware stack levels required when called:    3
  3819 ;; This function calls:
  3820 ;;		Nothing
  3821 ;; This function is called by:
  3822 ;;		_main
  3823 ;; This function uses a non-reentrant model
  3824 ;;
  3825                           
  3826                           
  3827                           ;psect for function _LCD_Cursor
  3828  04E0                     _LCD_Cursor:	
  3829                           
  3830                           ;incstack = 0
  3831                           ; Regs used in _LCD_Cursor: [wreg+status,2+status,0]
  3832                           ;LCD_Cursor@Row stored from wreg
  3833  04E0  1683               	bsf	3,5	;RP0=1, select bank1
  3834  04E1  1303               	bcf	3,6	;RP1=0, select bank1
  3835  04E2  00A2               	movwf	LCD_Cursor@Row^(0+128)
  3836                           
  3837                           ;lcd.c: 12: PORTEbits.RE0 = 0;
  3838  04E3  1283               	bcf	3,5	;RP0=0, select bank0
  3839  04E4  1303               	bcf	3,6	;RP1=0, select bank0
  3840  04E5  1009               	bcf	9,0	;volatile
  3841                           
  3842                           ;lcd.c: 14: if (Row == 0)
  3843  04E6  1683               	bsf	3,5	;RP0=1, select bank1
  3844  04E7  1303               	bcf	3,6	;RP1=0, select bank1
  3845  04E8  08A2               	movf	LCD_Cursor@Row^(0+128),f
  3846  04E9  1D03               	skipz
  3847  04EA  2CEE               	goto	l1957
  3848                           
  3849                           ;lcd.c: 15: {
  3850                           ;lcd.c: 16: PORTD = 0x80 + Col;
  3851  04EB  0820               	movf	LCD_Cursor@Col^(0+128),w
  3852  04EC  3E80               	addlw	128
  3853  04ED  2CF2               	goto	L2
  3854  04EE                     l1957:	
  3855                           ;lcd.c: 17: }
  3856                           
  3857                           
  3858                           ;lcd.c: 18: else
  3859                           ;lcd.c: 19: {
  3860                           ;lcd.c: 20: PORTD = 0xC0 + Col;
  3861  04EE  1683               	bsf	3,5	;RP0=1, select bank1
  3862  04EF  1303               	bcf	3,6	;RP1=0, select bank1
  3863  04F0  0820               	movf	LCD_Cursor@Col^(0+128),w
  3864  04F1  3EC0               	addlw	192
  3865  04F2                     L2:	
  3866  04F2  1283               	bcf	3,5	;RP0=0, select bank0
  3867  04F3  1303               	bcf	3,6	;RP1=0, select bank0
  3868  04F4  0088               	movwf	8	;volatile
  3869                           
  3870                           ;lcd.c: 21: }
  3871                           ;lcd.c: 24: PORTEbits.RE1 = 1;
  3872  04F5  1489               	bsf	9,1	;volatile
  3873                           
  3874                           ;lcd.c: 26: _delay((unsigned long)((40)*(18432000/4000000.0)));
  3875  04F6  303D               	movlw	61
  3876  04F7  1683               	bsf	3,5	;RP0=1, select bank1
  3877  04F8  1303               	bcf	3,6	;RP1=0, select bank1
  3878  04F9  00A1               	movwf	??_LCD_Cursor^(0+128)
  3879  04FA                     u2357:	
  3880  04FA  0BA1               	decfsz	??_LCD_Cursor^(0+128),f
  3881  04FB  2CFA               	goto	u2357
  3882                           
  3883                           ;lcd.c: 28: PORTEbits.RE1 = 0;
  3884  04FC  1283               	bcf	3,5	;RP0=0, select bank0
  3885  04FD  1303               	bcf	3,6	;RP1=0, select bank0
  3886  04FE  1089               	bcf	9,1	;volatile
  3887  04FF  0008               	return
  3888  0500                     __end_of_LCD_Cursor:	
  3889                           
  3890                           	psect	text19
  3891  0EFF                     __ptext19:	
  3892 ;; *************** function _LCD_Clear *****************
  3893 ;; Defined at:
  3894 ;;		line 71 in file "C:\Users\332414\Documents\Fuzzy-IA2\Cdigo em C no MPLAB\lcd.c"
  3895 ;; Parameters:    Size  Location     Type
  3896 ;;		None
  3897 ;; Auto vars:     Size  Location     Type
  3898 ;;		None
  3899 ;; Return value:  Size  Location     Type
  3900 ;;		None               void
  3901 ;; Registers used:
  3902 ;;		wreg, status,2, status,0, pclath, cstack
  3903 ;; Tracked objects:
  3904 ;;		On entry : 0/0
  3905 ;;		On exit  : 0/0
  3906 ;;		Unchanged: 0/0
  3907 ;; Data sizes:     COMMON   BANK0   BANK1   BANK3   BANK2
  3908 ;;      Params:         0       0       0       0       0
  3909 ;;      Locals:         0       0       0       0       0
  3910 ;;      Temps:          0       0       2       0       0
  3911 ;;      Totals:         0       0       2       0       0
  3912 ;;Total ram usage:        2 bytes
  3913 ;; Hardware stack levels used:    1
  3914 ;; Hardware stack levels required when called:    4
  3915 ;; This function calls:
  3916 ;;		_LCD_WriteCmd
  3917 ;; This function is called by:
  3918 ;;		_main
  3919 ;; This function uses a non-reentrant model
  3920 ;;
  3921                           
  3922                           
  3923                           ;psect for function _LCD_Clear
  3924  0EFF                     _LCD_Clear:	
  3925                           
  3926                           ;lcd.c: 73: LCD_WriteCmd(0x01);
  3927                           
  3928                           ;incstack = 0
  3929                           ; Regs used in _LCD_Clear: [wreg+status,2+status,0+pclath+cstack]
  3930  0EFF  3001               	movlw	1
  3931  0F00  120A  158A  265D  120A  158A  	fcall	_LCD_WriteCmd
  3932                           
  3933                           ;lcd.c: 75: _delay((unsigned long)((2)*(18432000/4000.0)));
  3934  0F05  300C               	movlw	12
  3935  0F06  1683               	bsf	3,5	;RP0=1, select bank1
  3936  0F07  1303               	bcf	3,6	;RP1=0, select bank1
  3937  0F08  00A3               	movwf	(??_LCD_Clear^(0+128)+1)
  3938  0F09  30F7               	movlw	247
  3939  0F0A  00A2               	movwf	??_LCD_Clear^(0+128)
  3940  0F0B                     u2367:	
  3941  0F0B  0BA2               	decfsz	??_LCD_Clear^(0+128),f
  3942  0F0C  2F0B               	goto	u2367
  3943  0F0D  0BA3               	decfsz	(??_LCD_Clear^(0+128)+1),f
  3944  0F0E  2F0B               	goto	u2367
  3945                           
  3946                           ;lcd.c: 77: LCD_WriteCmd(0x0C);
  3947  0F0F  300C               	movlw	12
  3948  0F10  120A  158A  265D  120A  158A  	fcall	_LCD_WriteCmd
  3949                           
  3950                           ;lcd.c: 79: _delay((unsigned long)((40)*(18432000/4000000.0)));
  3951  0F15  303D               	movlw	61
  3952  0F16  1683               	bsf	3,5	;RP0=1, select bank1
  3953  0F17  1303               	bcf	3,6	;RP1=0, select bank1
  3954  0F18  00A2               	movwf	??_LCD_Clear^(0+128)
  3955  0F19                     u2377:	
  3956  0F19  0BA2               	decfsz	??_LCD_Clear^(0+128),f
  3957  0F1A  2F19               	goto	u2377
  3958                           
  3959                           ;lcd.c: 81: LCD_WriteCmd(0x06);
  3960  0F1B  3006               	movlw	6
  3961  0F1C  120A  158A  265D  120A  158A  	fcall	_LCD_WriteCmd
  3962                           
  3963                           ;lcd.c: 83: _delay((unsigned long)((40)*(18432000/4000000.0)));
  3964  0F21  303D               	movlw	61
  3965  0F22  1683               	bsf	3,5	;RP0=1, select bank1
  3966  0F23  1303               	bcf	3,6	;RP1=0, select bank1
  3967  0F24  00A2               	movwf	??_LCD_Clear^(0+128)
  3968  0F25                     u2387:	
  3969  0F25  0BA2               	decfsz	??_LCD_Clear^(0+128),f
  3970  0F26  2F25               	goto	u2387
  3971  0F27  0008               	return
  3972  0F28                     __end_of_LCD_Clear:	
  3973                           
  3974                           	psect	text20
  3975  0E5D                     __ptext20:	
  3976 ;; *************** function _LCD_WriteCmd *****************
  3977 ;; Defined at:
  3978 ;;		line 32 in file "C:\Users\332414\Documents\Fuzzy-IA2\Cdigo em C no MPLAB\lcd.c"
  3979 ;; Parameters:    Size  Location     Type
  3980 ;;  Byte            1    wreg     unsigned char 
  3981 ;; Auto vars:     Size  Location     Type
  3982 ;;  Byte            1    1[BANK1 ] unsigned char 
  3983 ;; Return value:  Size  Location     Type
  3984 ;;		None               void
  3985 ;; Registers used:
  3986 ;;		wreg
  3987 ;; Tracked objects:
  3988 ;;		On entry : 0/0
  3989 ;;		On exit  : 0/0
  3990 ;;		Unchanged: 0/0
  3991 ;; Data sizes:     COMMON   BANK0   BANK1   BANK3   BANK2
  3992 ;;      Params:         0       0       0       0       0
  3993 ;;      Locals:         0       0       1       0       0
  3994 ;;      Temps:          0       0       1       0       0
  3995 ;;      Totals:         0       0       2       0       0
  3996 ;;Total ram usage:        2 bytes
  3997 ;; Hardware stack levels used:    1
  3998 ;; Hardware stack levels required when called:    3
  3999 ;; This function calls:
  4000 ;;		Nothing
  4001 ;; This function is called by:
  4002 ;;		_LCD_Clear
  4003 ;;		_LCD_Init
  4004 ;; This function uses a non-reentrant model
  4005 ;;
  4006                           
  4007                           
  4008                           ;psect for function _LCD_WriteCmd
  4009  0E5D                     _LCD_WriteCmd:	
  4010                           
  4011                           ;incstack = 0
  4012                           ; Regs used in _LCD_WriteCmd: [wreg]
  4013                           ;LCD_WriteCmd@Byte stored from wreg
  4014  0E5D  1683               	bsf	3,5	;RP0=1, select bank1
  4015  0E5E  1303               	bcf	3,6	;RP1=0, select bank1
  4016  0E5F  00A1               	movwf	LCD_WriteCmd@Byte^(0+128)
  4017                           
  4018                           ;lcd.c: 34: PORTEbits.RE0 = 0;
  4019  0E60  1283               	bcf	3,5	;RP0=0, select bank0
  4020  0E61  1303               	bcf	3,6	;RP1=0, select bank0
  4021  0E62  1009               	bcf	9,0	;volatile
  4022                           
  4023                           ;lcd.c: 36: PORTD = Byte;
  4024  0E63  1683               	bsf	3,5	;RP0=1, select bank1
  4025  0E64  1303               	bcf	3,6	;RP1=0, select bank1
  4026  0E65  0821               	movf	LCD_WriteCmd@Byte^(0+128),w
  4027  0E66  1283               	bcf	3,5	;RP0=0, select bank0
  4028  0E67  1303               	bcf	3,6	;RP1=0, select bank0
  4029  0E68  0088               	movwf	8	;volatile
  4030                           
  4031                           ;lcd.c: 39: PORTEbits.RE1 = 1;
  4032  0E69  1489               	bsf	9,1	;volatile
  4033                           
  4034                           ;lcd.c: 41: _delay((unsigned long)((40)*(18432000/4000000.0)));
  4035  0E6A  303D               	movlw	61
  4036  0E6B  1683               	bsf	3,5	;RP0=1, select bank1
  4037  0E6C  1303               	bcf	3,6	;RP1=0, select bank1
  4038  0E6D  00A0               	movwf	??_LCD_WriteCmd^(0+128)
  4039  0E6E                     u2397:	
  4040  0E6E  0BA0               	decfsz	??_LCD_WriteCmd^(0+128),f
  4041  0E6F  2E6E               	goto	u2397
  4042                           
  4043                           ;lcd.c: 43: PORTEbits.RE1 = 0;
  4044  0E70  1283               	bcf	3,5	;RP0=0, select bank0
  4045  0E71  1303               	bcf	3,6	;RP1=0, select bank0
  4046  0E72  1089               	bcf	9,1	;volatile
  4047  0E73  0008               	return
  4048  0E74                     __end_of_LCD_WriteCmd:	
  4049                           
  4050                           	psect	text21
  4051  0E37                     __ptext21:	
  4052 ;; *************** function _ADC_Init *****************
  4053 ;; Defined at:
  4054 ;;		line 6 in file "C:\Users\332414\Documents\Fuzzy-IA2\Cdigo em C no MPLAB\adc.c"
  4055 ;; Parameters:    Size  Location     Type
  4056 ;;		None
  4057 ;; Auto vars:     Size  Location     Type
  4058 ;;		None
  4059 ;; Return value:  Size  Location     Type
  4060 ;;		None               void
  4061 ;; Registers used:
  4062 ;;		None
  4063 ;; Tracked objects:
  4064 ;;		On entry : 0/0
  4065 ;;		On exit  : 0/0
  4066 ;;		Unchanged: 0/0
  4067 ;; Data sizes:     COMMON   BANK0   BANK1   BANK3   BANK2
  4068 ;;      Params:         0       0       0       0       0
  4069 ;;      Locals:         0       0       0       0       0
  4070 ;;      Temps:          0       0       0       0       0
  4071 ;;      Totals:         0       0       0       0       0
  4072 ;;Total ram usage:        0 bytes
  4073 ;; Hardware stack levels used:    1
  4074 ;; Hardware stack levels required when called:    3
  4075 ;; This function calls:
  4076 ;;		Nothing
  4077 ;; This function is called by:
  4078 ;;		_main
  4079 ;; This function uses a non-reentrant model
  4080 ;;
  4081                           
  4082                           
  4083                           ;psect for function _ADC_Init
  4084  0E37                     _ADC_Init:	
  4085                           
  4086                           ;adc.c: 9: ADCON1bits.ADFM = 1;
  4087                           
  4088                           ;incstack = 0
  4089                           ; Regs used in _ADC_Init: []
  4090  0E37  1683               	bsf	3,5	;RP0=1, select bank1
  4091  0E38  1303               	bcf	3,6	;RP1=0, select bank1
  4092  0E39  179F               	bsf	31,7	;volatile
  4093                           
  4094                           ;adc.c: 32: ADCON1bits.PCFG3 = 1;
  4095  0E3A  159F               	bsf	31,3	;volatile
  4096                           
  4097                           ;adc.c: 33: ADCON1bits.PCFG2 = 1;
  4098  0E3B  151F               	bsf	31,2	;volatile
  4099                           
  4100                           ;adc.c: 34: ADCON1bits.PCFG1 = 1;
  4101  0E3C  149F               	bsf	31,1	;volatile
  4102                           
  4103                           ;adc.c: 35: ADCON1bits.PCFG0 = 0;
  4104  0E3D  101F               	bcf	31,0	;volatile
  4105                           
  4106                           ;adc.c: 38: ADCON0bits.ADCS1 = 1;
  4107  0E3E  1283               	bcf	3,5	;RP0=0, select bank0
  4108  0E3F  1303               	bcf	3,6	;RP1=0, select bank0
  4109  0E40  179F               	bsf	31,7	;volatile
  4110                           
  4111                           ;adc.c: 39: ADCON0bits.ADCS0 = 0;
  4112  0E41  131F               	bcf	31,6	;volatile
  4113                           
  4114                           ;adc.c: 42: PIE1bits.ADIE = 0;
  4115  0E42  1683               	bsf	3,5	;RP0=1, select bank1
  4116  0E43  1303               	bcf	3,6	;RP1=0, select bank1
  4117  0E44  130C               	bcf	12,6	;volatile
  4118                           
  4119                           ;adc.c: 43: PIR1bits.ADIF = 0;
  4120  0E45  1283               	bcf	3,5	;RP0=0, select bank0
  4121  0E46  1303               	bcf	3,6	;RP1=0, select bank0
  4122  0E47  130C               	bcf	12,6	;volatile
  4123  0E48  0008               	return
  4124  0E49                     __end_of_ADC_Init:	
  4125                           
  4126                           	psect	text22
  4127  06AC                     __ptext22:	
  4128 ;; *************** function _ISR *****************
  4129 ;; Defined at:
  4130 ;;		line 34 in file "C:\Users\332414\Documents\Fuzzy-IA2\Cdigo em C no MPLAB\main.c"
  4131 ;; Parameters:    Size  Location     Type
  4132 ;;		None
  4133 ;; Auto vars:     Size  Location     Type
  4134 ;;		None
  4135 ;; Return value:  Size  Location     Type
  4136 ;;		None               void
  4137 ;; Registers used:
  4138 ;;		wreg, status,2, status,0, pclath, cstack
  4139 ;; Tracked objects:
  4140 ;;		On entry : 0/0
  4141 ;;		On exit  : 0/0
  4142 ;;		Unchanged: 0/0
  4143 ;; Data sizes:     COMMON   BANK0   BANK1   BANK3   BANK2
  4144 ;;      Params:         0       0       0       0       0
  4145 ;;      Locals:         0       0       0       0       0
  4146 ;;      Temps:          0       4       0       0       0
  4147 ;;      Totals:         0       4       0       0       0
  4148 ;;Total ram usage:        4 bytes
  4149 ;; Hardware stack levels used:    1
  4150 ;; Hardware stack levels required when called:    2
  4151 ;; This function calls:
  4152 ;;		___ftdiv
  4153 ;;		___ftmul
  4154 ;;		___fttol
  4155 ;;		___lwtoft
  4156 ;;		i1_TIMER0_Set
  4157 ;; This function is called by:
  4158 ;;		Interrupt level 1
  4159 ;; This function uses a non-reentrant model
  4160 ;;
  4161                           
  4162                           
  4163                           ;psect for function _ISR
  4164  06AC                     _ISR:	
  4165                           
  4166                           ;main.c: 37: if (PIR1bits.RCIF)
  4167  06AC  1A8C               	btfsc	12,5	;volatile
  4168                           
  4169                           ;main.c: 38: {
  4170                           ;main.c: 42: PIR1bits.RCIF = 0;
  4171  06AD  128C               	bcf	12,5	;volatile
  4172                           
  4173                           ;main.c: 43: }
  4174                           ;main.c: 46: if (PIR1bits.ADIF)
  4175  06AE  1B0C               	btfsc	12,6	;volatile
  4176                           
  4177                           ;main.c: 47: {
  4178                           ;main.c: 51: PIR1bits.ADIF = 0;
  4179  06AF  130C               	bcf	12,6	;volatile
  4180                           
  4181                           ;main.c: 52: }
  4182                           ;main.c: 56: if (INTCONbits.T0IF)
  4183  06B0  1D0B               	btfss	11,2	;volatile
  4184  06B1  2F23               	goto	i1l2271
  4185                           
  4186                           ;main.c: 57: {
  4187                           ;main.c: 59: TIMER0_Set(238);
  4188  06B2  30EE               	movlw	238
  4189  06B3  120A  158A  25F9  120A  118A  	fcall	i1_TIMER0_Set
  4190                           
  4191                           ;main.c: 62: if (contagens_tm0 < 499)
  4192  06B8  3001               	movlw	1
  4193  06B9  1283               	bcf	3,5	;RP0=0, select bank0
  4194  06BA  1303               	bcf	3,6	;RP1=0, select bank0
  4195  06BB  025A               	subwf	_contagens_tm0+1,w
  4196  06BC  30F3               	movlw	243
  4197  06BD  1903               	skipnz
  4198  06BE  0259               	subwf	_contagens_tm0,w
  4199  06BF  1803               	skipnc
  4200  06C0  2EC9               	goto	i1l2257
  4201                           
  4202                           ;main.c: 63: {
  4203                           ;main.c: 65: contagens_tm0++;
  4204  06C1  3001               	movlw	1
  4205  06C2  07D9               	addwf	_contagens_tm0,f
  4206  06C3  1803               	skipnc
  4207  06C4  0ADA               	incf	_contagens_tm0+1,f
  4208  06C5  3000               	movlw	0
  4209  06C6  07DA               	addwf	_contagens_tm0+1,f
  4210                           
  4211                           ;main.c: 68: PORTBbits.RB6 = 1;
  4212  06C7  1706               	bsf	6,6	;volatile
  4213                           
  4214                           ;main.c: 69: }
  4215  06C8  2F22               	goto	i1l2269
  4216  06C9                     i1l2257:	
  4217                           
  4218                           ;main.c: 70: else
  4219                           ;main.c: 71: {
  4220                           ;main.c: 73: contagens_tm0 = 0;
  4221  06C9  01D9               	clrf	_contagens_tm0
  4222  06CA  01DA               	clrf	_contagens_tm0+1
  4223                           
  4224                           ;main.c: 76: pulsos = (TMR1H << 8) + TMR1L;
  4225  06CB  080F               	movf	15,w	;volatile
  4226  06CC  01FD               	clrf	_pulsos+1
  4227  06CD  07FD               	addwf	_pulsos+1,f
  4228  06CE  080E               	movf	14,w	;volatile
  4229  06CF  01FC               	clrf	_pulsos
  4230  06D0  07FC               	addwf	_pulsos,f
  4231                           
  4232                           ;main.c: 77: rpm = ((pulsos / 7.0) * 120);
  4233  06D1  087D               	movf	_pulsos+1,w
  4234  06D2  01F9               	clrf	___lwtoft@c+1
  4235  06D3  07F9               	addwf	___lwtoft@c+1,f
  4236  06D4  087C               	movf	_pulsos,w
  4237  06D5  01F8               	clrf	___lwtoft@c
  4238  06D6  07F8               	addwf	___lwtoft@c,f
  4239  06D7  120A  158A  2649  120A  118A  	fcall	___lwtoft
  4240  06DC  0878               	movf	?___lwtoft,w
  4241  06DD  1283               	bcf	3,5	;RP0=0, select bank0
  4242  06DE  1303               	bcf	3,6	;RP1=0, select bank0
  4243  06DF  00A3               	movwf	___ftdiv@f1
  4244  06E0  0879               	movf	?___lwtoft+1,w
  4245  06E1  00A4               	movwf	___ftdiv@f1+1
  4246  06E2  087A               	movf	?___lwtoft+2,w
  4247  06E3  00A5               	movwf	___ftdiv@f1+2
  4248  06E4  3000               	movlw	0
  4249  06E5  00A0               	movwf	___ftdiv@f2
  4250  06E6  30E0               	movlw	224
  4251  06E7  00A1               	movwf	___ftdiv@f2+1
  4252  06E8  3040               	movlw	64
  4253  06E9  00A2               	movwf	___ftdiv@f2+2
  4254  06EA  120A  118A  23C0  120A  118A  	fcall	___ftdiv
  4255  06EF  1283               	bcf	3,5	;RP0=0, select bank0
  4256  06F0  1303               	bcf	3,6	;RP1=0, select bank0
  4257  06F1  0820               	movf	?___ftdiv,w
  4258  06F2  00B3               	movwf	___ftmul@f2
  4259  06F3  0821               	movf	?___ftdiv+1,w
  4260  06F4  00B4               	movwf	___ftmul@f2+1
  4261  06F5  0822               	movf	?___ftdiv+2,w
  4262  06F6  00B5               	movwf	___ftmul@f2+2
  4263  06F7  3000               	movlw	0
  4264  06F8  00B0               	movwf	___ftmul@f1
  4265  06F9  30F0               	movlw	240
  4266  06FA  00B1               	movwf	___ftmul@f1+1
  4267  06FB  3042               	movlw	66
  4268  06FC  00B2               	movwf	___ftmul@f1+2
  4269  06FD  120A  118A  22ED  120A  118A  	fcall	___ftmul
  4270  0702  1283               	bcf	3,5	;RP0=0, select bank0
  4271  0703  1303               	bcf	3,6	;RP1=0, select bank0
  4272  0704  0830               	movf	?___ftmul,w
  4273  0705  00C0               	movwf	___fttol@f1
  4274  0706  0831               	movf	?___ftmul+1,w
  4275  0707  00C1               	movwf	___fttol@f1+1
  4276  0708  0832               	movf	?___ftmul+2,w
  4277  0709  00C2               	movwf	___fttol@f1+2
  4278  070A  120A  118A  261E  120A  118A  	fcall	___fttol
  4279  070F  1283               	bcf	3,5	;RP0=0, select bank0
  4280  0710  1303               	bcf	3,6	;RP1=0, select bank0
  4281  0711  0841               	movf	?___fttol+1,w
  4282  0712  1683               	bsf	3,5	;RP0=1, select bank1
  4283  0713  1303               	bcf	3,6	;RP1=0, select bank1
  4284  0714  01C3               	clrf	(_rpm+1)^(0+128)
  4285  0715  07C3               	addwf	(_rpm+1)^(0+128),f
  4286  0716  1283               	bcf	3,5	;RP0=0, select bank0
  4287  0717  1303               	bcf	3,6	;RP1=0, select bank0
  4288  0718  0840               	movf	?___fttol,w
  4289  0719  1683               	bsf	3,5	;RP0=1, select bank1
  4290  071A  1303               	bcf	3,6	;RP1=0, select bank1
  4291  071B  01C2               	clrf	_rpm^(0+128)
  4292  071C  07C2               	addwf	_rpm^(0+128),f
  4293                           
  4294                           ;main.c: 80: TMR1L = 0x00;
  4295  071D  1283               	bcf	3,5	;RP0=0, select bank0
  4296  071E  1303               	bcf	3,6	;RP1=0, select bank0
  4297  071F  018E               	clrf	14	;volatile
  4298                           
  4299                           ;main.c: 81: TMR1H = 0x00;
  4300  0720  018F               	clrf	15	;volatile
  4301                           
  4302                           ;main.c: 84: PORTBbits.RB6 = 0;
  4303  0721  1306               	bcf	6,6	;volatile
  4304  0722                     i1l2269:	
  4305                           
  4306                           ;main.c: 85: }
  4307                           ;main.c: 88: INTCONbits.T0IF = 0;
  4308  0722  110B               	bcf	11,2	;volatile
  4309  0723                     i1l2271:	
  4310                           
  4311                           ;main.c: 89: }
  4312                           ;main.c: 92: if (PIR1bits.TMR1IF)
  4313  0723  180C               	btfsc	12,0	;volatile
  4314                           
  4315                           ;main.c: 93: {
  4316                           ;main.c: 97: PIR1bits.TMR1IF = 0;
  4317  0724  100C               	bcf	12,0	;volatile
  4318                           
  4319                           ;main.c: 98: }
  4320                           ;main.c: 101: if (PIR1bits.SSPIF)
  4321  0725  198C               	btfsc	12,3	;volatile
  4322                           
  4323                           ;main.c: 102: {
  4324                           ;main.c: 106: PIR1bits.SSPIF = 0;
  4325  0726  118C               	bcf	12,3	;volatile
  4326  0727  0851               	movf	??_ISR+3,w
  4327  0728  00FF               	movwf	127
  4328  0729  0850               	movf	??_ISR+2,w
  4329  072A  008A               	movwf	10
  4330  072B  084F               	movf	??_ISR+1,w
  4331  072C  0084               	movwf	4
  4332  072D  0E4E               	swapf	??_ISR^0,w
  4333  072E  0083               	movwf	3
  4334  072F  0EFE               	swapf	126,f
  4335  0730  0E7E               	swapf	126,w
  4336  0731  0009               	retfie
  4337  0732                     __end_of_ISR:	
  4338                           
  4339                           	psect	intentry
  4340  0004                     __pintentry:	
  4341                           ;incstack = 0
  4342                           ; Regs used in _ISR: [wreg+status,2+status,0+pclath+cstack]
  4343                           
  4344  0004                     interrupt_function:	
  4345  007E                     saved_w	set	btemp
  4346  0004  00FE               	movwf	btemp
  4347  0005  0E03               	swapf	3,w
  4348  0006  1283               	bcf	3,5	;RP0=0, select bank0
  4349  0007  1303               	bcf	3,6	;RP1=0, select bank0
  4350  0008  00CE               	movwf	??_ISR
  4351  0009  0804               	movf	4,w
  4352  000A  00CF               	movwf	??_ISR+1
  4353  000B  080A               	movf	10,w
  4354  000C  00D0               	movwf	??_ISR+2
  4355  000D  087F               	movf	btemp+1,w
  4356  000E  00D1               	movwf	??_ISR+3
  4357  000F  120A  118A  2EAC   	ljmp	_ISR
  4358                           
  4359                           	psect	text23
  4360  0DF9                     __ptext23:	
  4361 ;; *************** function i1_TIMER0_Set *****************
  4362 ;; Defined at:
  4363 ;;		line 20 in file "C:\Users\332414\Documents\Fuzzy-IA2\Cdigo em C no MPLAB\timers.c"
  4364 ;; Parameters:    Size  Location     Type
  4365 ;;  contagens       1    wreg     unsigned char 
  4366 ;; Auto vars:     Size  Location     Type
  4367 ;;  contagens       1    0[COMMON] unsigned char 
  4368 ;; Return value:  Size  Location     Type
  4369 ;;		None               void
  4370 ;; Registers used:
  4371 ;;		wreg
  4372 ;; Tracked objects:
  4373 ;;		On entry : 0/0
  4374 ;;		On exit  : 0/0
  4375 ;;		Unchanged: 0/0
  4376 ;; Data sizes:     COMMON   BANK0   BANK1   BANK3   BANK2
  4377 ;;      Params:         0       0       0       0       0
  4378 ;;      Locals:         1       0       0       0       0
  4379 ;;      Temps:          0       0       0       0       0
  4380 ;;      Totals:         1       0       0       0       0
  4381 ;;Total ram usage:        1 bytes
  4382 ;; Hardware stack levels used:    1
  4383 ;; This function calls:
  4384 ;;		Nothing
  4385 ;; This function is called by:
  4386 ;;		_ISR
  4387 ;; This function uses a non-reentrant model
  4388 ;;
  4389                           
  4390                           
  4391                           ;psect for function i1_TIMER0_Set
  4392  0DF9                     i1_TIMER0_Set:	
  4393                           
  4394                           ;incstack = 0
  4395                           ; Regs used in i1_TIMER0_Set: [wreg]
  4396                           ;i1TIMER0_Set@contagens stored from wreg
  4397  0DF9  00F0               	movwf	i1TIMER0_Set@contagens
  4398                           
  4399                           ;timers.c: 22: TMR0 = contagens;
  4400  0DFA  0870               	movf	i1TIMER0_Set@contagens,w
  4401  0DFB  1283               	bcf	3,5	;RP0=0, select bank0
  4402  0DFC  1303               	bcf	3,6	;RP1=0, select bank0
  4403  0DFD  0081               	movwf	1	;volatile
  4404  0DFE  0008               	return
  4405  0DFF                     __end_ofi1_TIMER0_Set:	
  4406                           
  4407                           	psect	text24
  4408  0E49                     __ptext24:	
  4409 ;; *************** function ___lwtoft *****************
  4410 ;; Defined at:
  4411 ;;		line 28 in file "C:\Program Files (x86)\Microchip\xc8\v1.33\sources\common\lwtoft.c"
  4412 ;; Parameters:    Size  Location     Type
  4413 ;;  c               2    8[COMMON] unsigned int 
  4414 ;; Auto vars:     Size  Location     Type
  4415 ;;		None
  4416 ;; Return value:  Size  Location     Type
  4417 ;;                  3    8[COMMON] float 
  4418 ;; Registers used:
  4419 ;;		wreg, status,2, status,0, pclath, cstack
  4420 ;; Tracked objects:
  4421 ;;		On entry : 0/0
  4422 ;;		On exit  : 0/0
  4423 ;;		Unchanged: 0/0
  4424 ;; Data sizes:     COMMON   BANK0   BANK1   BANK3   BANK2
  4425 ;;      Params:         3       0       0       0       0
  4426 ;;      Locals:         0       0       0       0       0
  4427 ;;      Temps:          1       0       0       0       0
  4428 ;;      Totals:         4       0       0       0       0
  4429 ;;Total ram usage:        4 bytes
  4430 ;; Hardware stack levels used:    1
  4431 ;; Hardware stack levels required when called:    1
  4432 ;; This function calls:
  4433 ;;		___ftpack
  4434 ;; This function is called by:
  4435 ;;		_ISR
  4436 ;; This function uses a non-reentrant model
  4437 ;;
  4438                           
  4439                           
  4440                           ;psect for function ___lwtoft
  4441  0E49                     ___lwtoft:	
  4442                           
  4443                           ;incstack = 0
  4444                           ; Regs used in ___lwtoft: [wreg+status,2+status,0+pclath+cstack]
  4445  0E49  0878               	movf	___lwtoft@c,w
  4446  0E4A  00F0               	movwf	___ftpack@arg
  4447  0E4B  0879               	movf	___lwtoft@c+1,w
  4448  0E4C  00F1               	movwf	___ftpack@arg+1
  4449  0E4D  01F2               	clrf	___ftpack@arg+2
  4450  0E4E  308E               	movlw	142
  4451  0E4F  00FB               	movwf	??___lwtoft
  4452  0E50  087B               	movf	??___lwtoft,w
  4453  0E51  00F3               	movwf	___ftpack@exp
  4454  0E52  01F4               	clrf	___ftpack@sign
  4455  0E53  120A  118A  2478   	fcall	___ftpack
  4456  0E56  0870               	movf	?___ftpack,w
  4457  0E57  00F8               	movwf	?___lwtoft
  4458  0E58  0871               	movf	?___ftpack+1,w
  4459  0E59  00F9               	movwf	?___lwtoft+1
  4460  0E5A  0872               	movf	?___ftpack+2,w
  4461  0E5B  00FA               	movwf	?___lwtoft+2
  4462  0E5C  0008               	return
  4463  0E5D                     __end_of___lwtoft:	
  4464                           
  4465                           	psect	text25
  4466  061E                     __ptext25:	
  4467 ;; *************** function ___fttol *****************
  4468 ;; Defined at:
  4469 ;;		line 44 in file "C:\Program Files (x86)\Microchip\xc8\v1.33\sources\common\fttol.c"
  4470 ;; Parameters:    Size  Location     Type
  4471 ;;  f1              3   32[BANK0 ] float 
  4472 ;; Auto vars:     Size  Location     Type
  4473 ;;  lval            4   41[BANK0 ] unsigned long 
  4474 ;;  exp1            1   45[BANK0 ] unsigned char 
  4475 ;;  sign1           1   40[BANK0 ] unsigned char 
  4476 ;; Return value:  Size  Location     Type
  4477 ;;                  4   32[BANK0 ] long 
  4478 ;; Registers used:
  4479 ;;		wreg, status,2, status,0
  4480 ;; Tracked objects:
  4481 ;;		On entry : 0/0
  4482 ;;		On exit  : 0/0
  4483 ;;		Unchanged: 0/0
  4484 ;; Data sizes:     COMMON   BANK0   BANK1   BANK3   BANK2
  4485 ;;      Params:         0       4       0       0       0
  4486 ;;      Locals:         0       6       0       0       0
  4487 ;;      Temps:          0       4       0       0       0
  4488 ;;      Totals:         0      14       0       0       0
  4489 ;;Total ram usage:       14 bytes
  4490 ;; Hardware stack levels used:    1
  4491 ;; This function calls:
  4492 ;;		Nothing
  4493 ;; This function is called by:
  4494 ;;		_ISR
  4495 ;; This function uses a non-reentrant model
  4496 ;;
  4497                           
  4498                           
  4499                           ;psect for function ___fttol
  4500  061E                     ___fttol:	
  4501                           
  4502                           ;incstack = 0
  4503                           ; Regs used in ___fttol: [wreg+status,2+status,0]
  4504  061E  1283               	bcf	3,5	;RP0=0, select bank0
  4505  061F  1303               	bcf	3,6	;RP1=0, select bank0
  4506  0620  0840               	movf	___fttol@f1,w
  4507  0621  00C4               	movwf	??___fttol
  4508  0622  0841               	movf	___fttol@f1+1,w
  4509  0623  00C5               	movwf	??___fttol+1
  4510  0624  0842               	movf	___fttol@f1+2,w
  4511  0625  00C6               	movwf	??___fttol+2
  4512  0626  1003               	clrc
  4513  0627  0D45               	rlf	??___fttol+1,w
  4514  0628  0D46               	rlf	??___fttol+2,w
  4515  0629  00C7               	movwf	??___fttol+3
  4516  062A  0847               	movf	??___fttol+3,w
  4517  062B  00CD               	movwf	___fttol@exp1
  4518  062C  08CD               	movf	___fttol@exp1,f
  4519  062D  1D03               	skipz
  4520  062E  2E38               	goto	i1l2199
  4521  062F  3000               	movlw	0
  4522  0630  00C3               	movwf	?___fttol+3
  4523  0631  3000               	movlw	0
  4524  0632  00C2               	movwf	?___fttol+2
  4525  0633  3000               	movlw	0
  4526  0634  00C1               	movwf	?___fttol+1
  4527  0635  3000               	movlw	0
  4528  0636  00C0               	movwf	?___fttol
  4529  0637  0008               	return
  4530  0638                     i1l2199:	
  4531  0638  0840               	movf	___fttol@f1,w
  4532  0639  00C4               	movwf	??___fttol
  4533  063A  0841               	movf	___fttol@f1+1,w
  4534  063B  00C5               	movwf	??___fttol+1
  4535  063C  0842               	movf	___fttol@f1+2,w
  4536  063D  00C6               	movwf	??___fttol+2
  4537  063E  3017               	movlw	23
  4538  063F                     u208_25:	
  4539  063F  1003               	clrc
  4540  0640  0CC6               	rrf	??___fttol+2,f
  4541  0641  0CC5               	rrf	??___fttol+1,f
  4542  0642  0CC4               	rrf	??___fttol,f
  4543  0643  3EFF               	addlw	-1
  4544  0644  1D03               	skipz
  4545  0645  2E3F               	goto	u208_25
  4546  0646  0844               	movf	??___fttol,w
  4547  0647  00C7               	movwf	??___fttol+3
  4548  0648  0847               	movf	??___fttol+3,w
  4549  0649  00C8               	movwf	___fttol@sign1
  4550  064A  17C1               	bsf	___fttol@f1+1,7
  4551  064B  30FF               	movlw	255
  4552  064C  05C0               	andwf	___fttol@f1,f
  4553  064D  30FF               	movlw	255
  4554  064E  05C1               	andwf	___fttol@f1+1,f
  4555  064F  3000               	movlw	0
  4556  0650  05C2               	andwf	___fttol@f1+2,f
  4557  0651  0840               	movf	___fttol@f1,w
  4558  0652  00C9               	movwf	___fttol@lval
  4559  0653  0841               	movf	___fttol@f1+1,w
  4560  0654  00CA               	movwf	___fttol@lval+1
  4561  0655  0842               	movf	___fttol@f1+2,w
  4562  0656  00CB               	movwf	___fttol@lval+2
  4563  0657  01CC               	clrf	___fttol@lval+3
  4564  0658  308E               	movlw	142
  4565  0659  02CD               	subwf	___fttol@exp1,f
  4566  065A  1FCD               	btfss	___fttol@exp1,7
  4567  065B  2E7A               	goto	i1l2219
  4568  065C  084D               	movf	___fttol@exp1,w
  4569  065D  3A80               	xorlw	128
  4570  065E  3E8F               	addlw	143
  4571  065F  1803               	skipnc
  4572  0660  2E6A               	goto	i1l2217
  4573  0661  3000               	movlw	0
  4574  0662  00C3               	movwf	?___fttol+3
  4575  0663  3000               	movlw	0
  4576  0664  00C2               	movwf	?___fttol+2
  4577  0665  3000               	movlw	0
  4578  0666  00C1               	movwf	?___fttol+1
  4579  0667  3000               	movlw	0
  4580  0668  00C0               	movwf	?___fttol
  4581  0669  0008               	return
  4582  066A                     i1l2217:	
  4583  066A  3001               	movlw	1
  4584  066B                     u211_25:	
  4585  066B  1003               	clrc
  4586  066C  0CCC               	rrf	___fttol@lval+3,f
  4587  066D  0CCB               	rrf	___fttol@lval+2,f
  4588  066E  0CCA               	rrf	___fttol@lval+1,f
  4589  066F  0CC9               	rrf	___fttol@lval,f
  4590  0670  3EFF               	addlw	-1
  4591  0671  1D03               	skipz
  4592  0672  2E6B               	goto	u211_25
  4593  0673  3001               	movlw	1
  4594  0674  00C4               	movwf	??___fttol
  4595  0675  0844               	movf	??___fttol,w
  4596  0676  07CD               	addwf	___fttol@exp1,f
  4597  0677  1903               	btfsc	3,2
  4598  0678  2E95               	goto	i1l2229
  4599  0679  2E6A               	goto	i1l2217
  4600  067A                     i1l2219:	
  4601  067A  3018               	movlw	24
  4602  067B  024D               	subwf	___fttol@exp1,w
  4603  067C  1C03               	skipc
  4604  067D  2E92               	goto	i1l2227
  4605  067E  3000               	movlw	0
  4606  067F  00C3               	movwf	?___fttol+3
  4607  0680  3000               	movlw	0
  4608  0681  00C2               	movwf	?___fttol+2
  4609  0682  3000               	movlw	0
  4610  0683  00C1               	movwf	?___fttol+1
  4611  0684  3000               	movlw	0
  4612  0685  00C0               	movwf	?___fttol
  4613  0686  0008               	return
  4614  0687                     i1l2225:	
  4615  0687  3001               	movlw	1
  4616  0688  00C4               	movwf	??___fttol
  4617  0689                     u214_25:	
  4618  0689  1003               	clrc
  4619  068A  0DC9               	rlf	___fttol@lval,f
  4620  068B  0DCA               	rlf	___fttol@lval+1,f
  4621  068C  0DCB               	rlf	___fttol@lval+2,f
  4622  068D  0DCC               	rlf	___fttol@lval+3,f
  4623  068E  0BC4               	decfsz	??___fttol,f
  4624  068F  2E89               	goto	u214_25
  4625  0690  3001               	movlw	1
  4626  0691  02CD               	subwf	___fttol@exp1,f
  4627  0692                     i1l2227:	
  4628  0692  08CD               	movf	___fttol@exp1,f
  4629  0693  1D03               	skipz
  4630  0694  2E87               	goto	i1l2225
  4631  0695                     i1l2229:	
  4632  0695  0848               	movf	___fttol@sign1,w
  4633  0696  1903               	btfsc	3,2
  4634  0697  2EA3               	goto	i1l2233
  4635  0698  09C9               	comf	___fttol@lval,f
  4636  0699  09CA               	comf	___fttol@lval+1,f
  4637  069A  09CB               	comf	___fttol@lval+2,f
  4638  069B  09CC               	comf	___fttol@lval+3,f
  4639  069C  0AC9               	incf	___fttol@lval,f
  4640  069D  1903               	skipnz
  4641  069E  0ACA               	incf	___fttol@lval+1,f
  4642  069F  1903               	skipnz
  4643  06A0  0ACB               	incf	___fttol@lval+2,f
  4644  06A1  1903               	skipnz
  4645  06A2  0ACC               	incf	___fttol@lval+3,f
  4646  06A3                     i1l2233:	
  4647  06A3  084C               	movf	___fttol@lval+3,w
  4648  06A4  00C3               	movwf	?___fttol+3
  4649  06A5  084B               	movf	___fttol@lval+2,w
  4650  06A6  00C2               	movwf	?___fttol+2
  4651  06A7  084A               	movf	___fttol@lval+1,w
  4652  06A8  00C1               	movwf	?___fttol+1
  4653  06A9  0849               	movf	___fttol@lval,w
  4654  06AA  00C0               	movwf	?___fttol
  4655  06AB  0008               	return
  4656  06AC                     __end_of___fttol:	
  4657                           
  4658                           	psect	text26
  4659  02ED                     __ptext26:	
  4660 ;; *************** function ___ftmul *****************
  4661 ;; Defined at:
  4662 ;;		line 62 in file "C:\Program Files (x86)\Microchip\xc8\v1.33\sources\common\ftmul.c"
  4663 ;; Parameters:    Size  Location     Type
  4664 ;;  f1              3   16[BANK0 ] float 
  4665 ;;  f2              3   19[BANK0 ] float 
  4666 ;; Auto vars:     Size  Location     Type
  4667 ;;  f3_as_produc    3   27[BANK0 ] unsigned um
  4668 ;;  sign            1   31[BANK0 ] unsigned char 
  4669 ;;  cntr            1   30[BANK0 ] unsigned char 
  4670 ;;  exp             1   26[BANK0 ] unsigned char 
  4671 ;; Return value:  Size  Location     Type
  4672 ;;                  3   16[BANK0 ] float 
  4673 ;; Registers used:
  4674 ;;		wreg, status,2, status,0, pclath, cstack
  4675 ;; Tracked objects:
  4676 ;;		On entry : 0/0
  4677 ;;		On exit  : 0/0
  4678 ;;		Unchanged: 0/0
  4679 ;; Data sizes:     COMMON   BANK0   BANK1   BANK3   BANK2
  4680 ;;      Params:         0       6       0       0       0
  4681 ;;      Locals:         0       6       0       0       0
  4682 ;;      Temps:          0       4       0       0       0
  4683 ;;      Totals:         0      16       0       0       0
  4684 ;;Total ram usage:       16 bytes
  4685 ;; Hardware stack levels used:    1
  4686 ;; Hardware stack levels required when called:    1
  4687 ;; This function calls:
  4688 ;;		___ftpack
  4689 ;; This function is called by:
  4690 ;;		_ISR
  4691 ;; This function uses a non-reentrant model
  4692 ;;
  4693                           
  4694                           
  4695                           ;psect for function ___ftmul
  4696  02ED                     ___ftmul:	
  4697                           
  4698                           ;incstack = 0
  4699                           ; Regs used in ___ftmul: [wreg+status,2+status,0+pclath+cstack]
  4700  02ED  1283               	bcf	3,5	;RP0=0, select bank0
  4701  02EE  1303               	bcf	3,6	;RP1=0, select bank0
  4702  02EF  0830               	movf	___ftmul@f1,w
  4703  02F0  00B6               	movwf	??___ftmul
  4704  02F1  0831               	movf	___ftmul@f1+1,w
  4705  02F2  00B7               	movwf	??___ftmul+1
  4706  02F3  0832               	movf	___ftmul@f1+2,w
  4707  02F4  00B8               	movwf	??___ftmul+2
  4708  02F5  1003               	clrc
  4709  02F6  0D37               	rlf	??___ftmul+1,w
  4710  02F7  0D38               	rlf	??___ftmul+2,w
  4711  02F8  00B9               	movwf	??___ftmul+3
  4712  02F9  0839               	movf	??___ftmul+3,w
  4713  02FA  00BA               	movwf	___ftmul@exp
  4714  02FB  08BA               	movf	___ftmul@exp,f
  4715  02FC  1D03               	skipz
  4716  02FD  2B05               	goto	i1l2149
  4717  02FE  3000               	movlw	0
  4718  02FF  00B0               	movwf	?___ftmul
  4719  0300  3000               	movlw	0
  4720  0301  00B1               	movwf	?___ftmul+1
  4721  0302  3000               	movlw	0
  4722  0303  00B2               	movwf	?___ftmul+2
  4723  0304  0008               	return
  4724  0305                     i1l2149:	
  4725  0305  0833               	movf	___ftmul@f2,w
  4726  0306  00B6               	movwf	??___ftmul
  4727  0307  0834               	movf	___ftmul@f2+1,w
  4728  0308  00B7               	movwf	??___ftmul+1
  4729  0309  0835               	movf	___ftmul@f2+2,w
  4730  030A  00B8               	movwf	??___ftmul+2
  4731  030B  1003               	clrc
  4732  030C  0D37               	rlf	??___ftmul+1,w
  4733  030D  0D38               	rlf	??___ftmul+2,w
  4734  030E  00B9               	movwf	??___ftmul+3
  4735  030F  0839               	movf	??___ftmul+3,w
  4736  0310  00BF               	movwf	___ftmul@sign
  4737  0311  08BF               	movf	___ftmul@sign,f
  4738  0312  1D03               	skipz
  4739  0313  2B1B               	goto	i1l2155
  4740  0314  3000               	movlw	0
  4741  0315  00B0               	movwf	?___ftmul
  4742  0316  3000               	movlw	0
  4743  0317  00B1               	movwf	?___ftmul+1
  4744  0318  3000               	movlw	0
  4745  0319  00B2               	movwf	?___ftmul+2
  4746  031A  0008               	return
  4747  031B                     i1l2155:	
  4748  031B  083F               	movf	___ftmul@sign,w
  4749  031C  3E7B               	addlw	123
  4750  031D  00B6               	movwf	??___ftmul
  4751  031E  0836               	movf	??___ftmul,w
  4752  031F  07BA               	addwf	___ftmul@exp,f
  4753  0320  0830               	movf	___ftmul@f1,w
  4754  0321  00B6               	movwf	??___ftmul
  4755  0322  0831               	movf	___ftmul@f1+1,w
  4756  0323  00B7               	movwf	??___ftmul+1
  4757  0324  0832               	movf	___ftmul@f1+2,w
  4758  0325  00B8               	movwf	??___ftmul+2
  4759  0326  3010               	movlw	16
  4760  0327                     u195_25:	
  4761  0327  1003               	clrc
  4762  0328  0CB8               	rrf	??___ftmul+2,f
  4763  0329  0CB7               	rrf	??___ftmul+1,f
  4764  032A  0CB6               	rrf	??___ftmul,f
  4765  032B  3EFF               	addlw	-1
  4766  032C  1D03               	skipz
  4767  032D  2B27               	goto	u195_25
  4768  032E  0836               	movf	??___ftmul,w
  4769  032F  00B9               	movwf	??___ftmul+3
  4770  0330  0839               	movf	??___ftmul+3,w
  4771  0331  00BF               	movwf	___ftmul@sign
  4772  0332  0833               	movf	___ftmul@f2,w
  4773  0333  00B6               	movwf	??___ftmul
  4774  0334  0834               	movf	___ftmul@f2+1,w
  4775  0335  00B7               	movwf	??___ftmul+1
  4776  0336  0835               	movf	___ftmul@f2+2,w
  4777  0337  00B8               	movwf	??___ftmul+2
  4778  0338  3010               	movlw	16
  4779  0339                     u196_25:	
  4780  0339  1003               	clrc
  4781  033A  0CB8               	rrf	??___ftmul+2,f
  4782  033B  0CB7               	rrf	??___ftmul+1,f
  4783  033C  0CB6               	rrf	??___ftmul,f
  4784  033D  3EFF               	addlw	-1
  4785  033E  1D03               	skipz
  4786  033F  2B39               	goto	u196_25
  4787  0340  0836               	movf	??___ftmul,w
  4788  0341  00B9               	movwf	??___ftmul+3
  4789  0342  0839               	movf	??___ftmul+3,w
  4790  0343  06BF               	xorwf	___ftmul@sign,f
  4791  0344  3080               	movlw	128
  4792  0345  00B6               	movwf	??___ftmul
  4793  0346  0836               	movf	??___ftmul,w
  4794  0347  05BF               	andwf	___ftmul@sign,f
  4795  0348  17B1               	bsf	___ftmul@f1+1,7
  4796  0349  17B4               	bsf	___ftmul@f2+1,7
  4797  034A  30FF               	movlw	255
  4798  034B  05B3               	andwf	___ftmul@f2,f
  4799  034C  30FF               	movlw	255
  4800  034D  05B4               	andwf	___ftmul@f2+1,f
  4801  034E  3000               	movlw	0
  4802  034F  05B5               	andwf	___ftmul@f2+2,f
  4803  0350  3000               	movlw	0
  4804  0351  00BB               	movwf	___ftmul@f3_as_product
  4805  0352  3000               	movlw	0
  4806  0353  00BC               	movwf	___ftmul@f3_as_product+1
  4807  0354  3000               	movlw	0
  4808  0355  00BD               	movwf	___ftmul@f3_as_product+2
  4809  0356  3007               	movlw	7
  4810  0357  00B6               	movwf	??___ftmul
  4811  0358  0836               	movf	??___ftmul,w
  4812  0359  00BE               	movwf	___ftmul@cntr
  4813  035A                     i1l2167:	
  4814  035A  1C30               	btfss	___ftmul@f1,0
  4815  035B  2B6A               	goto	i1l2171
  4816  035C  0833               	movf	___ftmul@f2,w
  4817  035D  07BB               	addwf	___ftmul@f3_as_product,f
  4818  035E  0834               	movf	___ftmul@f2+1,w
  4819  035F  1103               	clrz
  4820  0360  1803               	skipnc
  4821  0361  0A34               	incf	___ftmul@f2+1,w
  4822  0362  1D03               	btfss	3,2
  4823  0363  07BC               	addwf	___ftmul@f3_as_product+1,f
  4824  0364  0835               	movf	___ftmul@f2+2,w
  4825  0365  1103               	clrz
  4826  0366  1803               	skipnc
  4827  0367  0A35               	incf	___ftmul@f2+2,w
  4828  0368  1D03               	btfss	3,2
  4829  0369  07BD               	addwf	___ftmul@f3_as_product+2,f
  4830  036A                     i1l2171:	
  4831  036A  3001               	movlw	1
  4832  036B                     u199_25:	
  4833  036B  1003               	clrc
  4834  036C  0CB2               	rrf	___ftmul@f1+2,f
  4835  036D  0CB1               	rrf	___ftmul@f1+1,f
  4836  036E  0CB0               	rrf	___ftmul@f1,f
  4837  036F  3EFF               	addlw	-1
  4838  0370  1D03               	skipz
  4839  0371  2B6B               	goto	u199_25
  4840  0372  3001               	movlw	1
  4841  0373                     u200_25:	
  4842  0373  1003               	clrc
  4843  0374  0DB3               	rlf	___ftmul@f2,f
  4844  0375  0DB4               	rlf	___ftmul@f2+1,f
  4845  0376  0DB5               	rlf	___ftmul@f2+2,f
  4846  0377  3EFF               	addlw	-1
  4847  0378  1D03               	skipz
  4848  0379  2B73               	goto	u200_25
  4849  037A  3001               	movlw	1
  4850  037B  02BE               	subwf	___ftmul@cntr,f
  4851  037C  1D03               	btfss	3,2
  4852  037D  2B5A               	goto	i1l2167
  4853  037E  3009               	movlw	9
  4854  037F  00B6               	movwf	??___ftmul
  4855  0380  0836               	movf	??___ftmul,w
  4856  0381  00BE               	movwf	___ftmul@cntr
  4857  0382                     i1l2179:	
  4858  0382  1C30               	btfss	___ftmul@f1,0
  4859  0383  2B92               	goto	i1l2183
  4860  0384  0833               	movf	___ftmul@f2,w
  4861  0385  07BB               	addwf	___ftmul@f3_as_product,f
  4862  0386  0834               	movf	___ftmul@f2+1,w
  4863  0387  1103               	clrz
  4864  0388  1803               	skipnc
  4865  0389  0A34               	incf	___ftmul@f2+1,w
  4866  038A  1D03               	btfss	3,2
  4867  038B  07BC               	addwf	___ftmul@f3_as_product+1,f
  4868  038C  0835               	movf	___ftmul@f2+2,w
  4869  038D  1103               	clrz
  4870  038E  1803               	skipnc
  4871  038F  0A35               	incf	___ftmul@f2+2,w
  4872  0390  1D03               	btfss	3,2
  4873  0391  07BD               	addwf	___ftmul@f3_as_product+2,f
  4874  0392                     i1l2183:	
  4875  0392  3001               	movlw	1
  4876  0393                     u204_25:	
  4877  0393  1003               	clrc
  4878  0394  0CB2               	rrf	___ftmul@f1+2,f
  4879  0395  0CB1               	rrf	___ftmul@f1+1,f
  4880  0396  0CB0               	rrf	___ftmul@f1,f
  4881  0397  3EFF               	addlw	-1
  4882  0398  1D03               	skipz
  4883  0399  2B93               	goto	u204_25
  4884  039A  3001               	movlw	1
  4885  039B                     u205_25:	
  4886  039B  1003               	clrc
  4887  039C  0CBD               	rrf	___ftmul@f3_as_product+2,f
  4888  039D  0CBC               	rrf	___ftmul@f3_as_product+1,f
  4889  039E  0CBB               	rrf	___ftmul@f3_as_product,f
  4890  039F  3EFF               	addlw	-1
  4891  03A0  1D03               	skipz
  4892  03A1  2B9B               	goto	u205_25
  4893  03A2  3001               	movlw	1
  4894  03A3  02BE               	subwf	___ftmul@cntr,f
  4895  03A4  1D03               	btfss	3,2
  4896  03A5  2B82               	goto	i1l2179
  4897  03A6  083B               	movf	___ftmul@f3_as_product,w
  4898  03A7  00F0               	movwf	___ftpack@arg
  4899  03A8  083C               	movf	___ftmul@f3_as_product+1,w
  4900  03A9  00F1               	movwf	___ftpack@arg+1
  4901  03AA  083D               	movf	___ftmul@f3_as_product+2,w
  4902  03AB  00F2               	movwf	___ftpack@arg+2
  4903  03AC  083A               	movf	___ftmul@exp,w
  4904  03AD  00B6               	movwf	??___ftmul
  4905  03AE  0836               	movf	??___ftmul,w
  4906  03AF  00F3               	movwf	___ftpack@exp
  4907  03B0  083F               	movf	___ftmul@sign,w
  4908  03B1  00B7               	movwf	??___ftmul+1
  4909  03B2  0837               	movf	??___ftmul+1,w
  4910  03B3  00F4               	movwf	___ftpack@sign
  4911  03B4  120A  118A  2478   	fcall	___ftpack
  4912  03B7  0870               	movf	?___ftpack,w
  4913  03B8  1283               	bcf	3,5	;RP0=0, select bank0
  4914  03B9  1303               	bcf	3,6	;RP1=0, select bank0
  4915  03BA  00B0               	movwf	?___ftmul
  4916  03BB  0871               	movf	?___ftpack+1,w
  4917  03BC  00B1               	movwf	?___ftmul+1
  4918  03BD  0872               	movf	?___ftpack+2,w
  4919  03BE  00B2               	movwf	?___ftmul+2
  4920  03BF  0008               	return
  4921  03C0                     __end_of___ftmul:	
  4922                           
  4923                           	psect	text27
  4924  03C0                     __ptext27:	
  4925 ;; *************** function ___ftdiv *****************
  4926 ;; Defined at:
  4927 ;;		line 49 in file "C:\Program Files (x86)\Microchip\xc8\v1.33\sources\pic\ftdiv.c"
  4928 ;; Parameters:    Size  Location     Type
  4929 ;;  f2              3    0[BANK0 ] float 
  4930 ;;  f1              3    3[BANK0 ] float 
  4931 ;; Auto vars:     Size  Location     Type
  4932 ;;  f3              3   11[BANK0 ] float 
  4933 ;;  sign            1   15[BANK0 ] unsigned char 
  4934 ;;  exp             1   14[BANK0 ] unsigned char 
  4935 ;;  cntr            1   10[BANK0 ] unsigned char 
  4936 ;; Return value:  Size  Location     Type
  4937 ;;                  3    0[BANK0 ] float 
  4938 ;; Registers used:
  4939 ;;		wreg, status,2, status,0, pclath, cstack
  4940 ;; Tracked objects:
  4941 ;;		On entry : 0/0
  4942 ;;		On exit  : 0/0
  4943 ;;		Unchanged: 0/0
  4944 ;; Data sizes:     COMMON   BANK0   BANK1   BANK3   BANK2
  4945 ;;      Params:         0       6       0       0       0
  4946 ;;      Locals:         0       6       0       0       0
  4947 ;;      Temps:          0       4       0       0       0
  4948 ;;      Totals:         0      16       0       0       0
  4949 ;;Total ram usage:       16 bytes
  4950 ;; Hardware stack levels used:    1
  4951 ;; Hardware stack levels required when called:    1
  4952 ;; This function calls:
  4953 ;;		___ftpack
  4954 ;; This function is called by:
  4955 ;;		_ISR
  4956 ;; This function uses a non-reentrant model
  4957 ;;
  4958                           
  4959                           
  4960                           ;psect for function ___ftdiv
  4961  03C0                     ___ftdiv:	
  4962                           
  4963                           ;incstack = 0
  4964                           ; Regs used in ___ftdiv: [wreg+status,2+status,0+pclath+cstack]
  4965  03C0  1283               	bcf	3,5	;RP0=0, select bank0
  4966  03C1  1303               	bcf	3,6	;RP1=0, select bank0
  4967  03C2  0823               	movf	___ftdiv@f1,w
  4968  03C3  00A6               	movwf	??___ftdiv
  4969  03C4  0824               	movf	___ftdiv@f1+1,w
  4970  03C5  00A7               	movwf	??___ftdiv+1
  4971  03C6  0825               	movf	___ftdiv@f1+2,w
  4972  03C7  00A8               	movwf	??___ftdiv+2
  4973  03C8  1003               	clrc
  4974  03C9  0D27               	rlf	??___ftdiv+1,w
  4975  03CA  0D28               	rlf	??___ftdiv+2,w
  4976  03CB  00A9               	movwf	??___ftdiv+3
  4977  03CC  0829               	movf	??___ftdiv+3,w
  4978  03CD  00AE               	movwf	___ftdiv@exp
  4979  03CE  08AE               	movf	___ftdiv@exp,f
  4980  03CF  1D03               	skipz
  4981  03D0  2BD8               	goto	i1l2107
  4982  03D1  3000               	movlw	0
  4983  03D2  00A0               	movwf	?___ftdiv
  4984  03D3  3000               	movlw	0
  4985  03D4  00A1               	movwf	?___ftdiv+1
  4986  03D5  3000               	movlw	0
  4987  03D6  00A2               	movwf	?___ftdiv+2
  4988  03D7  0008               	return
  4989  03D8                     i1l2107:	
  4990  03D8  0820               	movf	___ftdiv@f2,w
  4991  03D9  00A6               	movwf	??___ftdiv
  4992  03DA  0821               	movf	___ftdiv@f2+1,w
  4993  03DB  00A7               	movwf	??___ftdiv+1
  4994  03DC  0822               	movf	___ftdiv@f2+2,w
  4995  03DD  00A8               	movwf	??___ftdiv+2
  4996  03DE  1003               	clrc
  4997  03DF  0D27               	rlf	??___ftdiv+1,w
  4998  03E0  0D28               	rlf	??___ftdiv+2,w
  4999  03E1  00A9               	movwf	??___ftdiv+3
  5000  03E2  0829               	movf	??___ftdiv+3,w
  5001  03E3  00AF               	movwf	___ftdiv@sign
  5002  03E4  08AF               	movf	___ftdiv@sign,f
  5003  03E5  1D03               	skipz
  5004  03E6  2BEE               	goto	i1l2113
  5005  03E7  3000               	movlw	0
  5006  03E8  00A0               	movwf	?___ftdiv
  5007  03E9  3000               	movlw	0
  5008  03EA  00A1               	movwf	?___ftdiv+1
  5009  03EB  3000               	movlw	0
  5010  03EC  00A2               	movwf	?___ftdiv+2
  5011  03ED  0008               	return
  5012  03EE                     i1l2113:	
  5013  03EE  3000               	movlw	0
  5014  03EF  00AB               	movwf	___ftdiv@f3
  5015  03F0  3000               	movlw	0
  5016  03F1  00AC               	movwf	___ftdiv@f3+1
  5017  03F2  3000               	movlw	0
  5018  03F3  00AD               	movwf	___ftdiv@f3+2
  5019  03F4  3089               	movlw	137
  5020  03F5  072F               	addwf	___ftdiv@sign,w
  5021  03F6  00A6               	movwf	??___ftdiv
  5022  03F7  0826               	movf	??___ftdiv,w
  5023  03F8  02AE               	subwf	___ftdiv@exp,f
  5024  03F9  0823               	movf	___ftdiv@f1,w
  5025  03FA  00A6               	movwf	??___ftdiv
  5026  03FB  0824               	movf	___ftdiv@f1+1,w
  5027  03FC  00A7               	movwf	??___ftdiv+1
  5028  03FD  0825               	movf	___ftdiv@f1+2,w
  5029  03FE  00A8               	movwf	??___ftdiv+2
  5030  03FF  3010               	movlw	16
  5031  0400                     u187_25:	
  5032  0400  1003               	clrc
  5033  0401  0CA8               	rrf	??___ftdiv+2,f
  5034  0402  0CA7               	rrf	??___ftdiv+1,f
  5035  0403  0CA6               	rrf	??___ftdiv,f
  5036  0404  3EFF               	addlw	-1
  5037  0405  1D03               	skipz
  5038  0406  2C00               	goto	u187_25
  5039  0407  0826               	movf	??___ftdiv,w
  5040  0408  00A9               	movwf	??___ftdiv+3
  5041  0409  0829               	movf	??___ftdiv+3,w
  5042  040A  00AF               	movwf	___ftdiv@sign
  5043  040B  0820               	movf	___ftdiv@f2,w
  5044  040C  00A6               	movwf	??___ftdiv
  5045  040D  0821               	movf	___ftdiv@f2+1,w
  5046  040E  00A7               	movwf	??___ftdiv+1
  5047  040F  0822               	movf	___ftdiv@f2+2,w
  5048  0410  00A8               	movwf	??___ftdiv+2
  5049  0411  3010               	movlw	16
  5050  0412                     u188_25:	
  5051  0412  1003               	clrc
  5052  0413  0CA8               	rrf	??___ftdiv+2,f
  5053  0414  0CA7               	rrf	??___ftdiv+1,f
  5054  0415  0CA6               	rrf	??___ftdiv,f
  5055  0416  3EFF               	addlw	-1
  5056  0417  1D03               	skipz
  5057  0418  2C12               	goto	u188_25
  5058  0419  0826               	movf	??___ftdiv,w
  5059  041A  00A9               	movwf	??___ftdiv+3
  5060  041B  0829               	movf	??___ftdiv+3,w
  5061  041C  06AF               	xorwf	___ftdiv@sign,f
  5062  041D  3080               	movlw	128
  5063  041E  00A6               	movwf	??___ftdiv
  5064  041F  0826               	movf	??___ftdiv,w
  5065  0420  05AF               	andwf	___ftdiv@sign,f
  5066  0421  17A4               	bsf	___ftdiv@f1+1,7
  5067  0422  30FF               	movlw	255
  5068  0423  05A3               	andwf	___ftdiv@f1,f
  5069  0424  30FF               	movlw	255
  5070  0425  05A4               	andwf	___ftdiv@f1+1,f
  5071  0426  3000               	movlw	0
  5072  0427  05A5               	andwf	___ftdiv@f1+2,f
  5073  0428  17A1               	bsf	___ftdiv@f2+1,7
  5074  0429  30FF               	movlw	255
  5075  042A  05A0               	andwf	___ftdiv@f2,f
  5076  042B  30FF               	movlw	255
  5077  042C  05A1               	andwf	___ftdiv@f2+1,f
  5078  042D  3000               	movlw	0
  5079  042E  05A2               	andwf	___ftdiv@f2+2,f
  5080  042F  3018               	movlw	24
  5081  0430  00A6               	movwf	??___ftdiv
  5082  0431  0826               	movf	??___ftdiv,w
  5083  0432  00AA               	movwf	___ftdiv@cntr
  5084  0433                     i1l2127:	
  5085  0433  3001               	movlw	1
  5086  0434                     u189_25:	
  5087  0434  1003               	clrc
  5088  0435  0DAB               	rlf	___ftdiv@f3,f
  5089  0436  0DAC               	rlf	___ftdiv@f3+1,f
  5090  0437  0DAD               	rlf	___ftdiv@f3+2,f
  5091  0438  3EFF               	addlw	-1
  5092  0439  1D03               	skipz
  5093  043A  2C34               	goto	u189_25
  5094  043B  0822               	movf	___ftdiv@f2+2,w
  5095  043C  0225               	subwf	___ftdiv@f1+2,w
  5096  043D  1D03               	skipz
  5097  043E  2C45               	goto	u190_25
  5098  043F  0821               	movf	___ftdiv@f2+1,w
  5099  0440  0224               	subwf	___ftdiv@f1+1,w
  5100  0441  1D03               	skipz
  5101  0442  2C45               	goto	u190_25
  5102  0443  0820               	movf	___ftdiv@f2,w
  5103  0444  0223               	subwf	___ftdiv@f1,w
  5104  0445                     u190_25:	
  5105  0445  1C03               	skipc
  5106  0446  2C52               	goto	i1l2135
  5107  0447  0820               	movf	___ftdiv@f2,w
  5108  0448  02A3               	subwf	___ftdiv@f1,f
  5109  0449  0821               	movf	___ftdiv@f2+1,w
  5110  044A  1C03               	skipc
  5111  044B  0F21               	incfsz	___ftdiv@f2+1,w
  5112  044C  02A4               	subwf	___ftdiv@f1+1,f
  5113  044D  0822               	movf	___ftdiv@f2+2,w
  5114  044E  1C03               	skipc
  5115  044F  0A22               	incf	___ftdiv@f2+2,w
  5116  0450  02A5               	subwf	___ftdiv@f1+2,f
  5117  0451  142B               	bsf	___ftdiv@f3,0
  5118  0452                     i1l2135:	
  5119  0452  3001               	movlw	1
  5120  0453                     u191_25:	
  5121  0453  1003               	clrc
  5122  0454  0DA3               	rlf	___ftdiv@f1,f
  5123  0455  0DA4               	rlf	___ftdiv@f1+1,f
  5124  0456  0DA5               	rlf	___ftdiv@f1+2,f
  5125  0457  3EFF               	addlw	-1
  5126  0458  1D03               	skipz
  5127  0459  2C53               	goto	u191_25
  5128  045A  3001               	movlw	1
  5129  045B  02AA               	subwf	___ftdiv@cntr,f
  5130  045C  1D03               	btfss	3,2
  5131  045D  2C33               	goto	i1l2127
  5132  045E  082B               	movf	___ftdiv@f3,w
  5133  045F  00F0               	movwf	___ftpack@arg
  5134  0460  082C               	movf	___ftdiv@f3+1,w
  5135  0461  00F1               	movwf	___ftpack@arg+1
  5136  0462  082D               	movf	___ftdiv@f3+2,w
  5137  0463  00F2               	movwf	___ftpack@arg+2
  5138  0464  082E               	movf	___ftdiv@exp,w
  5139  0465  00A6               	movwf	??___ftdiv
  5140  0466  0826               	movf	??___ftdiv,w
  5141  0467  00F3               	movwf	___ftpack@exp
  5142  0468  082F               	movf	___ftdiv@sign,w
  5143  0469  00A7               	movwf	??___ftdiv+1
  5144  046A  0827               	movf	??___ftdiv+1,w
  5145  046B  00F4               	movwf	___ftpack@sign
  5146  046C  120A  118A  2478   	fcall	___ftpack
  5147  046F  0870               	movf	?___ftpack,w
  5148  0470  1283               	bcf	3,5	;RP0=0, select bank0
  5149  0471  1303               	bcf	3,6	;RP1=0, select bank0
  5150  0472  00A0               	movwf	?___ftdiv
  5151  0473  0871               	movf	?___ftpack+1,w
  5152  0474  00A1               	movwf	?___ftdiv+1
  5153  0475  0872               	movf	?___ftpack+2,w
  5154  0476  00A2               	movwf	?___ftdiv+2
  5155  0477  0008               	return
  5156  0478                     __end_of___ftdiv:	
  5157                           
  5158                           	psect	text28
  5159  0478                     __ptext28:	
  5160 ;; *************** function ___ftpack *****************
  5161 ;; Defined at:
  5162 ;;		line 62 in file "C:\Program Files (x86)\Microchip\xc8\v1.33\sources\common\float.c"
  5163 ;; Parameters:    Size  Location     Type
  5164 ;;  arg             3    0[COMMON] unsigned um
  5165 ;;  exp             1    3[COMMON] unsigned char 
  5166 ;;  sign            1    4[COMMON] unsigned char 
  5167 ;; Auto vars:     Size  Location     Type
  5168 ;;		None
  5169 ;; Return value:  Size  Location     Type
  5170 ;;                  3    0[COMMON] float 
  5171 ;; Registers used:
  5172 ;;		wreg, status,2, status,0
  5173 ;; Tracked objects:
  5174 ;;		On entry : 0/0
  5175 ;;		On exit  : 0/0
  5176 ;;		Unchanged: 0/0
  5177 ;; Data sizes:     COMMON   BANK0   BANK1   BANK3   BANK2
  5178 ;;      Params:         5       0       0       0       0
  5179 ;;      Locals:         0       0       0       0       0
  5180 ;;      Temps:          3       0       0       0       0
  5181 ;;      Totals:         8       0       0       0       0
  5182 ;;Total ram usage:        8 bytes
  5183 ;; Hardware stack levels used:    1
  5184 ;; This function calls:
  5185 ;;		Nothing
  5186 ;; This function is called by:
  5187 ;;		___ftdiv
  5188 ;;		___ftmul
  5189 ;;		___lwtoft
  5190 ;; This function uses a non-reentrant model
  5191 ;;
  5192                           
  5193                           
  5194                           ;psect for function ___ftpack
  5195  0478                     ___ftpack:	
  5196                           
  5197                           ;incstack = 0
  5198                           ; Regs used in ___ftpack: [wreg+status,2+status,0]
  5199  0478  0873               	movf	___ftpack@exp,w
  5200  0479  1903               	btfsc	3,2
  5201  047A  2C80               	goto	i1l1731
  5202  047B  0872               	movf	___ftpack@arg+2,w
  5203  047C  0471               	iorwf	___ftpack@arg+1,w
  5204  047D  0470               	iorwf	___ftpack@arg,w
  5205  047E  1D03               	skipz
  5206  047F  2C93               	goto	i1l1737
  5207  0480                     i1l1731:	
  5208  0480  3000               	movlw	0
  5209  0481  00F0               	movwf	?___ftpack
  5210  0482  3000               	movlw	0
  5211  0483  00F1               	movwf	?___ftpack+1
  5212  0484  3000               	movlw	0
  5213  0485  00F2               	movwf	?___ftpack+2
  5214  0486  0008               	return
  5215  0487                     i1l1735:	
  5216  0487  3001               	movlw	1
  5217  0488  00F5               	movwf	??___ftpack
  5218  0489  0875               	movf	??___ftpack,w
  5219  048A  07F3               	addwf	___ftpack@exp,f
  5220  048B  3001               	movlw	1
  5221  048C                     u128_25:	
  5222  048C  1003               	clrc
  5223  048D  0CF2               	rrf	___ftpack@arg+2,f
  5224  048E  0CF1               	rrf	___ftpack@arg+1,f
  5225  048F  0CF0               	rrf	___ftpack@arg,f
  5226  0490  3EFF               	addlw	-1
  5227  0491  1D03               	skipz
  5228  0492  2C8C               	goto	u128_25
  5229  0493                     i1l1737:	
  5230  0493  30FE               	movlw	254
  5231  0494  0572               	andwf	___ftpack@arg+2,w
  5232  0495  1903               	btfsc	3,2
  5233  0496  2CAE               	goto	i1l648
  5234  0497  2C87               	goto	i1l1735
  5235  0498                     i1l1739:	
  5236  0498  3001               	movlw	1
  5237  0499  00F5               	movwf	??___ftpack
  5238  049A  0875               	movf	??___ftpack,w
  5239  049B  07F3               	addwf	___ftpack@exp,f
  5240  049C  3001               	movlw	1
  5241  049D  07F0               	addwf	___ftpack@arg,f
  5242  049E  3000               	movlw	0
  5243  049F  1803               	skipnc
  5244  04A0  3001               	movlw	1
  5245  04A1  07F1               	addwf	___ftpack@arg+1,f
  5246  04A2  3000               	movlw	0
  5247  04A3  1803               	skipnc
  5248  04A4  3001               	movlw	1
  5249  04A5  07F2               	addwf	___ftpack@arg+2,f
  5250  04A6  3001               	movlw	1
  5251  04A7                     u130_25:	
  5252  04A7  1003               	clrc
  5253  04A8  0CF2               	rrf	___ftpack@arg+2,f
  5254  04A9  0CF1               	rrf	___ftpack@arg+1,f
  5255  04AA  0CF0               	rrf	___ftpack@arg,f
  5256  04AB  3EFF               	addlw	-1
  5257  04AC  1D03               	skipz
  5258  04AD  2CA7               	goto	u130_25
  5259  04AE                     i1l648:	
  5260  04AE  30FF               	movlw	255
  5261  04AF  0572               	andwf	___ftpack@arg+2,w
  5262  04B0  1903               	btfsc	3,2
  5263  04B1  2CBD               	goto	i1l1747
  5264  04B2  2C98               	goto	i1l1739
  5265  04B3                     i1l1745:	
  5266  04B3  3001               	movlw	1
  5267  04B4  02F3               	subwf	___ftpack@exp,f
  5268  04B5  3001               	movlw	1
  5269  04B6                     u132_25:	
  5270  04B6  1003               	clrc
  5271  04B7  0DF0               	rlf	___ftpack@arg,f
  5272  04B8  0DF1               	rlf	___ftpack@arg+1,f
  5273  04B9  0DF2               	rlf	___ftpack@arg+2,f
  5274  04BA  3EFF               	addlw	-1
  5275  04BB  1D03               	skipz
  5276  04BC  2CB6               	goto	u132_25
  5277  04BD                     i1l1747:	
  5278  04BD  1FF1               	btfss	___ftpack@arg+1,7
  5279  04BE  2CB3               	goto	i1l1745
  5280  04BF  1873               	btfsc	___ftpack@exp,0
  5281  04C0  2CC7               	goto	i1l654
  5282  04C1  30FF               	movlw	255
  5283  04C2  05F0               	andwf	___ftpack@arg,f
  5284  04C3  307F               	movlw	127
  5285  04C4  05F1               	andwf	___ftpack@arg+1,f
  5286  04C5  30FF               	movlw	255
  5287  04C6  05F2               	andwf	___ftpack@arg+2,f
  5288  04C7                     i1l654:	
  5289  04C7  1003               	clrc
  5290  04C8  0CF3               	rrf	___ftpack@exp,f
  5291  04C9  0873               	movf	___ftpack@exp,w
  5292  04CA  00F5               	movwf	??___ftpack
  5293  04CB  01F6               	clrf	??___ftpack+1
  5294  04CC  01F7               	clrf	??___ftpack+2
  5295  04CD  3010               	movlw	16
  5296  04CE                     u135_25:	
  5297  04CE  1003               	clrc
  5298  04CF  0DF5               	rlf	??___ftpack,f
  5299  04D0  0DF6               	rlf	??___ftpack+1,f
  5300  04D1  0DF7               	rlf	??___ftpack+2,f
  5301  04D2  3EFF               	addlw	-1
  5302  04D3  1D03               	skipz
  5303  04D4  2CCE               	goto	u135_25
  5304  04D5  0875               	movf	??___ftpack,w
  5305  04D6  04F0               	iorwf	___ftpack@arg,f
  5306  04D7  0876               	movf	??___ftpack+1,w
  5307  04D8  04F1               	iorwf	___ftpack@arg+1,f
  5308  04D9  0877               	movf	??___ftpack+2,w
  5309  04DA  04F2               	iorwf	___ftpack@arg+2,f
  5310  04DB  0874               	movf	___ftpack@sign,w
  5311  04DC  1903               	btfsc	3,2
  5312  04DD  0008               	return
  5313  04DE  17F2               	bsf	___ftpack@arg+2,7
  5314  04DF  0008               	return
  5315  04E0                     __end_of___ftpack:	
  5316  007E                     btemp	set	126	;btemp
  5317  007E                     wtemp	set	126
  5318  007E                     wtemp0	set	126
  5319  0080                     wtemp1	set	128
  5320  0082                     wtemp2	set	130
  5321  0084                     wtemp3	set	132
  5322  0086                     wtemp4	set	134
  5323  0088                     wtemp5	set	136
  5324  007F                     wtemp6	set	127
  5325  007E                     ttemp	set	126
  5326  007E                     ttemp0	set	126
  5327  0081                     ttemp1	set	129
  5328  0084                     ttemp2	set	132
  5329  0087                     ttemp3	set	135
  5330  007F                     ttemp4	set	127
  5331  007E                     ltemp	set	126
  5332  007E                     ltemp0	set	126
  5333  0082                     ltemp1	set	130
  5334  0086                     ltemp2	set	134
  5335  0080                     ltemp3	set	128


Data Sizes:
    Strings     117
    Constant    10
    Data        0
    BSS         27
    Persistent  0
    Stack       0

Auto Spaces:
    Space          Size  Autos    Used
    COMMON           14     12      14
    BANK0            80     50      63
    BANK1            80     34      46
    BANK3            96      0       0
    BANK2            96      0       0

Pointer List with Targets:

    sprintf@f	PTR const unsigned char  size(1) Largest target is 5
		 -> STR_4(CODE[5]), 

    sprintf@sp	PTR unsigned char  size(1) Largest target is 10
		 -> display(BANK1[10]), 

    sprintf@ap	PTR void [1] size(1) Largest target is 2
		 -> ?_sprintf(BANK1[2]), 

    S1187$_cp	PTR const unsigned char  size(1) Largest target is 0

    _val._str._cp	PTR const unsigned char  size(1) Largest target is 0

    LCD_WriteString@Str	PTR const unsigned char  size(2) Largest target is 17
		 -> STR_6(CODE[6]), display(BANK1[10]), STR_3(CODE[17]), 

    USART_WriteString@str	PTR const unsigned char  size(2) Largest target is 40
		 -> STR_7(CODE[40]), STR_5(CODE[3]), display(BANK1[10]), STR_2(CODE[20]), 
		 -> STR_1(CODE[29]), 


Critical Paths under _main in COMMON

    None.

Critical Paths under _ISR in COMMON

    _ISR->___lwtoft
    ___lwtoft->___ftpack
    ___fttol->___lwtoft
    ___ftmul->___lwtoft
    ___ftdiv->___lwtoft

Critical Paths under _main in BANK0

    None.

Critical Paths under _ISR in BANK0

    _ISR->___fttol
    ___fttol->___ftmul
    ___ftmul->___ftdiv

Critical Paths under _main in BANK1

    _main->_sprintf
    _sprintf->___lwmod
    ___lwmod->___lwdiv
    _USART_WriteString->_USART_WriteChar
    _USART_Init->___aldiv
    _LCD_WriteString->_LCD_WriteData
    _LCD_Init->_LCD_WriteCmd
    _LCD_Clear->_LCD_WriteCmd

Critical Paths under _ISR in BANK1

    None.

Critical Paths under _main in BANK3

    None.

Critical Paths under _ISR in BANK3

    None.

Critical Paths under _main in BANK2

    None.

Critical Paths under _ISR in BANK2

    None.

Call Graph Tables:

 ---------------------------------------------------------------------------------
 (Depth) Function   	        Calls       Base Space   Used Autos Params    Refs
 ---------------------------------------------------------------------------------
 (0) _main                                                 3     3      0    3575
                                             31 BANK1      3     3      0
                           _ADC_Init
                          _LCD_Clear
                         _LCD_Cursor
                           _LCD_Init
                    _LCD_WriteString
                     _PWM_DutyCycle1
                     _PWM_DutyCycle2
                           _PWM_Init
                        _TIMER0_Init
                         _TIMER0_Set
                         _USART_Init
                  _USART_WriteString
                            _sprintf
 ---------------------------------------------------------------------------------
 (1) _sprintf                                             17    14      3    1875
                                             14 BANK1     17    14      3
                            ___lwdiv
                            ___lwmod
                             ___wmul
                            _isdigit
 ---------------------------------------------------------------------------------
 (2) _isdigit                                              2     2      0      68
                                              0 BANK1      2     2      0
 ---------------------------------------------------------------------------------
 (2) ___wmul                                               6     2      4     220
                                              0 BANK1      6     2      4
 ---------------------------------------------------------------------------------
 (2) ___lwmod                                              6     2      4     287
                                              8 BANK1      6     2      4
                            ___lwdiv (ARG)
 ---------------------------------------------------------------------------------
 (2) ___lwdiv                                              8     4      4     290
                                              0 BANK1      8     4      4
 ---------------------------------------------------------------------------------
 (1) _USART_WriteString                                    2     0      2     387
                                              1 BANK1      2     0      2
                    _USART_WriteChar
 ---------------------------------------------------------------------------------
 (2) _USART_WriteChar                                      1     1      0      22
                                              0 BANK1      1     1      0
 ---------------------------------------------------------------------------------
 (1) _USART_Init                                           8     4      4     514
                                             15 BANK1      8     4      4
                            ___aldiv
 ---------------------------------------------------------------------------------
 (2) ___aldiv                                             15     7      8     428
                                              0 BANK1     15     7      8
 ---------------------------------------------------------------------------------
 (1) _TIMER0_Set                                           1     1      0      22
                                              0 BANK1      1     1      0
 ---------------------------------------------------------------------------------
 (1) _TIMER0_Init                                          0     0      0       0
 ---------------------------------------------------------------------------------
 (1) _PWM_Init                                             0     0      0       0
 ---------------------------------------------------------------------------------
 (1) _PWM_DutyCycle2                                       4     2      2     108
                                              0 BANK1      4     2      2
 ---------------------------------------------------------------------------------
 (1) _PWM_DutyCycle1                                       4     2      2     108
                                              0 BANK1      4     2      2
 ---------------------------------------------------------------------------------
 (1) _LCD_WriteString                                      2     0      2     259
                                              2 BANK1      2     0      2
                      _LCD_WriteData
 ---------------------------------------------------------------------------------
 (2) _LCD_WriteData                                        2     2      0      22
                                              0 BANK1      2     2      0
 ---------------------------------------------------------------------------------
 (1) _LCD_Init                                             2     2      0      22
                                              2 BANK1      2     2      0
                       _LCD_WriteCmd
 ---------------------------------------------------------------------------------
 (1) _LCD_Cursor                                           3     2      1     258
                                              0 BANK1      3     2      1
 ---------------------------------------------------------------------------------
 (1) _LCD_Clear                                            2     2      0      22
                                              2 BANK1      2     2      0
                       _LCD_WriteCmd
 ---------------------------------------------------------------------------------
 (2) _LCD_WriteCmd                                         2     2      0      22
                                              0 BANK1      2     2      0
 ---------------------------------------------------------------------------------
 (1) _ADC_Init                                             0     0      0       0
 ---------------------------------------------------------------------------------
 Estimated maximum stack depth 2
 ---------------------------------------------------------------------------------
 (Depth) Function   	        Calls       Base Space   Used Autos Params    Refs
 ---------------------------------------------------------------------------------
 (3) _ISR                                                  4     4      0    7313
                                             46 BANK0      4     4      0
                            ___ftdiv
                            ___ftmul
                            ___fttol
                           ___lwtoft
                       i1_TIMER0_Set
 ---------------------------------------------------------------------------------
 (4) i1_TIMER0_Set                                         1     1      0      22
                                              0 COMMON     1     1      0
 ---------------------------------------------------------------------------------
 (4) ___lwtoft                                             4     1      3    2095
                                              8 COMMON     4     1      3
                           ___ftpack
 ---------------------------------------------------------------------------------
 (4) ___fttol                                             14    10      4     316
                                             32 BANK0     14    10      4
                            ___ftdiv (ARG)
                            ___ftmul (ARG)
                           ___lwtoft (ARG)
 ---------------------------------------------------------------------------------
 (4) ___ftmul                                             16    10      6    2463
                                             16 BANK0     16    10      6
                            ___ftdiv (ARG)
                           ___ftpack
                           ___lwtoft (ARG)
 ---------------------------------------------------------------------------------
 (4) ___ftdiv                                             16    10      6    2417
                                              0 BANK0     16    10      6
                           ___ftpack
                           ___lwtoft (ARG)
 ---------------------------------------------------------------------------------
 (5) ___ftpack                                             8     3      5    2009
                                              0 COMMON     8     3      5
 ---------------------------------------------------------------------------------
 Estimated maximum stack depth 5
 ---------------------------------------------------------------------------------

 Call Graph Graphs:

 _main (ROOT)
   _ADC_Init
   _LCD_Clear
     _LCD_WriteCmd
   _LCD_Cursor
   _LCD_Init
     _LCD_WriteCmd
   _LCD_WriteString
     _LCD_WriteData
   _PWM_DutyCycle1
   _PWM_DutyCycle2
   _PWM_Init
   _TIMER0_Init
   _TIMER0_Set
   _USART_Init
     ___aldiv
   _USART_WriteString
     _USART_WriteChar
   _sprintf
     ___lwdiv
     ___lwmod
       ___lwdiv (ARG)
     ___wmul
     _isdigit

 _ISR (ROOT)
   ___ftdiv
     ___ftpack
     ___lwtoft (ARG)
       ___ftpack
   ___ftmul
     ___ftdiv (ARG)
       ___ftpack
       ___lwtoft (ARG)
         ___ftpack
     ___ftpack (ARG)
     ___lwtoft (ARG)
       ___ftpack
   ___fttol
     ___ftdiv (ARG)
       ___ftpack
       ___lwtoft (ARG)
         ___ftpack
     ___ftmul (ARG)
       ___ftdiv (ARG)
         ___ftpack
         ___lwtoft (ARG)
           ___ftpack
       ___ftpack (ARG)
       ___lwtoft (ARG)
         ___ftpack
     ___lwtoft (ARG)
       ___ftpack
   ___lwtoft
     ___ftpack
   i1_TIMER0_Set

 Address spaces:
Name               Size   Autos  Total    Cost      Usage
BITCOMMON            E      0       0       0        0.0%
EEDATA             100      0       0       0        0.0%
NULL                 0      0       0       0        0.0%
CODE                 0      0       0       0        0.0%
COMMON               E      C       E       1      100.0%
BITSFR0              0      0       0       1        0.0%
SFR0                 0      0       0       1        0.0%
BITSFR1              0      0       0       2        0.0%
SFR1                 0      0       0       2        0.0%
STACK                0      0       0       2        0.0%
ABS                  0      0      7B       3        0.0%
BITBANK0            50      0       0       4        0.0%
BITSFR3              0      0       0       4        0.0%
SFR3                 0      0       0       4        0.0%
BANK0               50     32      3F       5       78.8%
BITSFR2              0      0       0       5        0.0%
SFR2                 0      0       0       5        0.0%
BITBANK1            50      0       0       6        0.0%
BANK1               50     22      2E       7       57.5%
BITBANK3            60      0       0       8        0.0%
BANK3               60      0       0       9        0.0%
BITBANK2            60      0       0      10        0.0%
BANK2               60      0       0      11        0.0%
DATA                 0      0      7B      12        0.0%


Microchip Technology PIC Macro Assembler V1.33 build 59893 
Symbol Table                                                                                   Thu Nov 18 20:27:44 2021

                         pc 0002                 ?_LCD_Cursor 00A0     __size_of_PWM_DutyCycle1 0021  
   __size_of_PWM_DutyCycle2 0021                 __CFG_CP$OFF 0000                 _SSPSTATbits 0094  
                        l91 0286                          fsr 0004         ___wmul@multiplicand 00A2  
             _contagens_tm0 0059                         l116 0E1D                         l542 05A1  
                       l368 0057                         l386 011C                         l487 0EE6  
                       _PR2 0092                __CFG_CPD$OFF 0000                         _ISR 06AC  
                       _rpm 00C2                         fsr0 0004  __size_of_USART_WriteString 0031  
                       indf 0000                __CFG_FOSC$HS 0000           ??_LCD_WriteString 00A4  
              __CFG_LVP$OFF 0000                        ?_ISR 0070                ___ftdiv@cntr 002A  
              ___ftdiv@sign 002F                        l2001 0079                        l2011 00B7  
                      l2013 00CE                        l2023 00E7                        l2043 013B  
                      l2035 010E                        l2027 00ED                        l2053 0150  
                      l2061 0166                        l2045 013F          LCD_WriteString@Str 00A2  
                      l2063 016A                        l2083 0192                        l2075 018E  
                      l2069 017F                        l2085 0031                        l1711 0E35  
                      l2087 01DA                        l1717 0EDE                        l1815 0FEE  
                      l1807 0FCA                        l1831 0F92                        l1809 0FD8  
                      l1833 0FA0                        l1841 0FB9                        l1819 0FF9  
                      l1837 0FAE                        l1775 05C2                        l1767 05B2  
                      l1793 0615                        l1785 05FA                        l1777 05D2  
                      l1971 0F28                        l1957 04EE                        l1789 0607  
                      l1949 0F59                        l1995 005C                        l1997 0067  
                      l1989 0053                        STR_1 0542                        STR_2 055F  
                      STR_3 0573                        STR_4 058A                        STR_5 055C  
                      STR_6 0584                        STR_7 051A                        u1235 0EE7  
                      u1405 05C6                        u1245 0EEE                        u1425 05D4  
                      u1505 0FD9                        u2307 0766                        u1435 05E9  
                      u1515 0FE5                        u2317 0772                        u1445 05FB  
                      u1605 07A8                        u1525 0FEF                        u2327 0780  
                      u2247 027F                        u2337 078E                        u2257 02E6  
                      u2347 079A                        u2267 07F7                        u1555 0F95  
                      u1715 0104                        u2357 04FA                        u2277 073C  
                      u1645 0E89                        u1485 0FCD                        u2367 0F0B  
                      u2287 074C                        u1655 0EAA                        u1575 0FA6  
                      u2377 0F19                        u2297 075A                        u1585 0FAF  
                      u2387 0F25                        u1755 012B                        u2397 0E6E  
                      _OERR 00C1                        _TMR0 0001                        _TMR1 000E  
                      _main 01E1                ___ftpack@arg 0070          __size_of_LCD_Clear 0029  
              ___ftpack@exp 0073                        btemp 007E            __end_of_ADC_Init 0E49  
                      ltemp 007E                        start 0012                        ttemp 007E  
                      wtemp 007E               ?_LCD_WriteCmd 0070               _LCD_WriteData 07E6  
              ___ftmul@cntr 003E                ___ftmul@sign 003F     __end_of_USART_WriteChar 0E27  
                     ??_ISR 004E                ___fttol@exp1 004D                ___fttol@lval 0049  
               ?_TIMER0_Set 0070            __end_of_LCD_Init 079D             __end_of___aldiv 061E  
                     ?_main 0070                       _EEADR 010D               __CFG_WDTE$OFF 0000  
           __end_of___ftdiv 0478             __end_of___ftmul 03C0                       _T1CON 0010  
           __end_of___fttol 06AC             __end_of___lwdiv 1000             __end_of___lwmod 0FC0  
                     i1l654 04C7                       i1l648 04AE                       _RCREG 001A  
                     _TMR1H 000F                       _TMR1L 000E                       _SPBRG 0099  
                     _PORTA 0005                       _PORTB 0006                       _PORTC 0007  
                     _PORTD 0008                       _PORTE 0009                       _TRISA 0085  
                     _TRISB 0086                       _TRISC 0087                       _TRISD 0088  
                     _TRISE 0089                       _TXREG 0019               __CFG_PWRTE$ON 0000  
           __end_of_dpowers 051A             __end_of_isdigit 0E37               ___ftpack@sign 0074  
            __CFG_BOREN$OFF 0000         __size_of_LCD_Cursor 0020                       pclath 000A  
          __end_of_PWM_Init 0EDA                       ltemp0 007E                       ltemp1 0082  
                     ltemp2 0086                       ltemp3 0080                       ttemp0 007E  
                     ttemp1 0081                       ttemp2 0084                       ttemp3 0087  
                     ttemp4 007F                       status 0003                       wtemp0 007E  
                     wtemp1 0080                       wtemp2 0082                       wtemp3 0084  
                     wtemp4 0086                       wtemp5 0088                       wtemp6 007F  
           __end_of_sprintf 01E1              ??_LCD_WriteCmd 00A0              ?_LCD_WriteData 0070  
               ?_USART_Init 00AF       i1TIMER0_Set@contagens 0070             __initialization 0015  
              __end_of_main 02ED                      ??_main 00BF               ___fttol@sign1 0048  
              ?_TIMER0_Init 0070           __end_of_LCD_Clear 0F28                      _ADRESH 001E  
                    _ADRESL 009E                      _EEDATA 010C                      _CCPR1L 0015  
                    _CCPR2L 001B                      _EECON2 018D            __end_of___ftpack 04E0  
                    i1l2113 03EE                      i1l2107 03D8                      i1l2135 0452  
                    i1l2127 0433                      i1l2233 06A3                      i1l2225 0687  
                    i1l2217 066A                      i1l2171 036A                      i1l2155 031B  
                    i1l2227 0692                      i1l2219 067A                      u200_25 0373  
                    i1l2149 0305                      i1l2229 0695                      i1l2183 0392  
                    i1l2167 035A                      i1l2271 0723                      i1l2257 06C9  
                    i1l1731 0480                      i1l2179 0382                      i1l2269 0722  
                    i1l1735 0487                      i1l2199 0638                      i1l1745 04B3  
                    i1l1737 0493                      i1l1747 04BD                      i1l1739 0498  
                    u130_25 04A7                      u211_25 066B                      u132_25 04B6  
                    u204_25 0393                      u205_25 039B                      u214_25 0689  
                    u135_25 04CE                      u128_25 048C                      u208_25 063F  
                    u190_25 0445                      u191_25 0453            __end_of___lwtoft 0E5D  
                    u187_25 0400                      u195_25 0327                      u188_25 0412  
                    u196_25 0339                      u189_25 0434         __size_of_TIMER0_Set 0008  
                    u199_25 036B                      _SSPADD 0093                      _SSPBUF 0013  
          LCD_WriteCmd@Byte 00A1                   ??___aldiv 00A8                      ___wmul 0EDA  
            _PWM_DutyCycle1 0E74              _PWM_DutyCycle2 0E95            ?_USART_WriteChar 0070  
                 ??___ftdiv 0026                   ??___ftmul 0036                   ??___fttol 0044  
                 ??___lwdiv 00A4                   ??___lwmod 00AC                      _pulsos 007C  
                    _status 005B       ___ftmul@f3_as_product 003B                   ??_isdigit 00A0  
                 ?_ADC_Init 0070                      saved_w 007E         __size_of_USART_Init 0049  
                 ??_sprintf 00B1               ?i1_TIMER0_Set 0070     __end_of__initialization 0026  
                 ?_LCD_Init 0070             ??_LCD_WriteData 00A0                  ___ftdiv@f1 0023  
                ___ftdiv@f2 0020                  ___ftdiv@f3 002B      __end_of_PWM_DutyCycle1 0E95  
    __end_of_PWM_DutyCycle2 0EB6                  ___ftmul@f1 0030                  ___ftmul@f2 0033  
                ___fttol@f1 0040              __pcstackCOMMON 0070               LCD_Cursor@Col 00A0  
             LCD_Cursor@Row 00A2                ??_LCD_Cursor 00A1             _LCD_WriteString 0F28  
                ___lwtoft@c 0078                   ?_PWM_Init 0070              _OPTION_REGbits 0081  
                ??_ADC_Init 00A0        __end_of_LCD_WriteCmd 0E74              ??i1_TIMER0_Set 0070  
              sprintf@width 00BB                  __pbssBANK0 0052                  __pbssBANK1 00C2  
        __end_of_LCD_Cursor 0500                  ??_LCD_Init 00A2             ?_PWM_DutyCycle1 00A0  
           ?_PWM_DutyCycle2 00A0                  __pmaintext 01E1                     ?___wmul 00A0  
                __pintentry 0004                ??_TIMER0_Set 00A0                     _CCP1CON 0017  
                   _CCP2CON 001D                   ?___ftpack 0070                  ??_PWM_Init 00A0  
                 ?___lwtoft 0078        __size_of_TIMER0_Init 000B                     _SSPCON2 0091  
                __stringtab 0500          __end_of_TIMER0_Set 0E07     __end_of_LCD_WriteString 0F59  
                 _ADCResult 0055                ??_USART_Init 00B3           LCD_WriteData@Byte 00A1  
                   ___aldiv 058F                     ___ftdiv 03C0             __size_of___wmul 0025  
                   ___ftmul 02ED                     ___fttol 061E                     ___lwdiv 0FC0  
                   ___lwmod 0F8A                  ??___ftpack 0075                     __ptext1 002A  
                   __ptext2 0E27                     __ptext3 0EDA                     __ptext4 0F8A  
                   __ptext5 0FC0                     __ptext6 0F59                     __ptext7 0E1A  
                   __ptext8 079D                     __ptext9 058F                  ??___lwtoft 007B  
                   _display 00C4                __size_of_ISR 0086                   _T1CONbits 0010  
                   _dpowers 0510                   _T2CONbits 0012                     _isdigit 0E27  
          ___aldiv@dividend 00A4                   _LCD_Clear 0EFF          __end_of_USART_Init 07E6  
                   _sprintf 002A                     clrloop0 0E08        end_of_initialization 0026  
                 _RCSTAbits 0018            ___aldiv@quotient 00AB        __end_ofi1_TIMER0_Set 0DFF  
     __size_of_LCD_WriteCmd 0017                   _PORTBbits 0006                   _PORTEbits 0009  
                ?_LCD_Clear 0070           __size_of_ADC_Init 0012                _contador_rb6 0057  
       PWM_DutyCycle1@valor 00A0         PWM_DutyCycle2@valor 00A0                 _CCP1CONbits 0017  
               ___ftdiv@exp 002E                 _CCP2CONbits 001D                   _TXSTAbits 0098  
          ?_LCD_WriteString 00A2           __size_of_LCD_Init 006B                _LCD_WriteCmd 0E5D  
               ___ftmul@exp 003A              __end_of___wmul 0EFF    __size_of_USART_WriteChar 000D  
         __size_of_PWM_Init 0024         start_initialization 0015                 __end_of_ISR 0732  
          ??_PWM_DutyCycle1 00A2            ??_PWM_DutyCycle2 00A2       __end_of_LCD_WriteData 07FD  
                  ??___wmul 00A4           __size_of___ftpack 0068                 __pbssCOMMON 007C  
                 ___latbits 0002           __size_of___lwtoft 0014               __pcstackBANK0 0020  
             __pcstackBANK1 00A0                 ??_LCD_Clear 00A2         __end_of__stringdata 058F  
              _isdigit$1383 00A0                 sprintf@_val 00B6                 sprintf@flag 00BA  
               sprintf@prec 00B5       __size_ofi1_TIMER0_Set 0006            ___lwdiv@dividend 00A2  
       TIMER0_Set@contagens 00A0                    ?___aldiv 00A0                    ?___ftdiv 0020  
                  ?___ftmul 0030                    ?___fttol 0040                    ?___lwdiv 00A0  
                  ?___lwmod 00A8                   __pstrings 0500               ??_TIMER0_Init 00A0  
        USART_Init@BaudRate 00AF                    ?_isdigit 0070                    _ADC_Init 0E37  
          ___lwdiv@quotient 00A5                    ?_sprintf 00AE           ??_USART_WriteChar 00A0  
              i1_TIMER0_Set 0DF9             ___aldiv@divisor 00A0           interrupt_function 0004  
           ___aldiv@counter 00A9                    _LCD_Init 0732              ___wmul@product 00A4  
                 clear_ram0 0E07                    _PIE1bits 008C                    _PIE2bits 008D  
                  _PIR1bits 000C                    _PIR2bits 000D                   _temp_lida 0052  
                 _tempo_rb6 005D                  _ADCON0bits 001F                 __stringbase 050F  
                _ADCON1bits 009F                 __stringdata 051A                    _PWM_Init 0EB6  
         ___wmul@multiplier 00A0         __end_of_TIMER0_Init 0E1A                  _EECON1bits 018C  
          __size_of___aldiv 008F            __size_of___ftdiv 00B8            __size_of___ftmul 00D3  
          __size_of___fttol 008E            __size_of___lwdiv 0040            __size_of___lwmod 0036  
                  ___ftpack 0478          __end_of__stringtab 0510                    ___lwtoft 0E49  
          __size_of_isdigit 0010             ___lwdiv@divisor 00A0             ___lwdiv@counter 00A7  
         _USART_WriteString 0F59                    __ptext10 0DFF                    __ptext11 0E0F  
                  __ptext20 0E5D                    __ptext12 0EB6                    __ptext21 0E37  
                  __ptext13 0E95                    __ptext22 06AC                    __ptext14 0E74  
                  __ptext23 0DF9                    __ptext15 0F28                    __ptext24 0E49  
                  __ptext16 07E6                    __ptext25 061E                    __ptext17 0732  
                  __ptext26 02ED                    __ptext18 04E0                    __ptext27 03C0  
                  __ptext19 0EFF                    __ptext28 0478          ?_USART_WriteString 00A1  
          __size_of_sprintf 01B7               __size_of_main 010C         USART_WriteChar@byte 00A0  
       ??_USART_WriteString 00A3                  _LCD_Cursor 04E0    __size_of_LCD_WriteString 0031  
               _TIMER0_Init 0E0F                  _INTCONbits 000B   __end_of_USART_WriteString 0F8A  
                  isdigit@c 00A1                    intlevel1 0000                   sprintf@ap 00B4  
                 sprintf@sp 00BD            ___lwmod@dividend 00AA                   stringcode 050A  
      USART_WriteString@str 00A1                  _TIMER0_Set 0DFF             _USART_WriteChar 0E1A  
                  sprintf@c 00BE                    sprintf@f 00AE             ___lwmod@divisor 00A8  
           ___lwmod@counter 00AD                    stringdir 050A                    stringtab 0500  
              ___aldiv@sign 00AA      __size_of_LCD_WriteData 0017                 _SSPCON2bits 0091  
                _SSPCONbits 0014                  _USART_Init 079D  
